
bin/cachetest.riscv：     文件格式 elf64-littleriscv


Disassembly of section .text:

00000000000100b0 <_start>:
   100b0:	0000d197          	auipc	gp,0xd
   100b4:	86818193          	addi	gp,gp,-1944 # 1c918 <__global_pointer$>
   100b8:	85818513          	addi	a0,gp,-1960 # 1c170 <_edata>
   100bc:	0021d617          	auipc	a2,0x21d
   100c0:	94460613          	addi	a2,a2,-1724 # 22ca00 <_end>
   100c4:	8e09                	sub	a2,a2,a0
   100c6:	4581                	li	a1,0
   100c8:	3f6000ef          	jal	ra,104be <memset>
   100cc:	00000517          	auipc	a0,0x0
   100d0:	34850513          	addi	a0,a0,840 # 10414 <__libc_fini_array>
   100d4:	316000ef          	jal	ra,103ea <atexit>
   100d8:	384000ef          	jal	ra,1045c <__libc_init_array>
   100dc:	4502                	lw	a0,0(sp)
   100de:	002c                	addi	a1,sp,8
   100e0:	4601                	li	a2,0
   100e2:	1a0000ef          	jal	ra,10282 <main>
   100e6:	3100006f          	j	103f6 <exit>

00000000000100ea <_fini>:
   100ea:	8082                	ret

00000000000100ec <deregister_tm_clones>:
   100ec:	6571                	lui	a0,0x1c
   100ee:	67f1                	lui	a5,0x1c
   100f0:	11850713          	addi	a4,a0,280 # 1c118 <__TMC_END__>
   100f4:	11878793          	addi	a5,a5,280 # 1c118 <__TMC_END__>
   100f8:	00e78b63          	beq	a5,a4,1010e <deregister_tm_clones+0x22>
   100fc:	00000337          	lui	t1,0x0
   10100:	00030313          	mv	t1,t1
   10104:	00030563          	beqz	t1,1010e <deregister_tm_clones+0x22>
   10108:	11850513          	addi	a0,a0,280
   1010c:	8302                	jr	t1
   1010e:	8082                	ret

0000000000010110 <register_tm_clones>:
   10110:	67f1                	lui	a5,0x1c
   10112:	6571                	lui	a0,0x1c
   10114:	11878593          	addi	a1,a5,280 # 1c118 <__TMC_END__>
   10118:	11850793          	addi	a5,a0,280 # 1c118 <__TMC_END__>
   1011c:	8d9d                	sub	a1,a1,a5
   1011e:	858d                	srai	a1,a1,0x3
   10120:	4789                	li	a5,2
   10122:	02f5c5b3          	div	a1,a1,a5
   10126:	c991                	beqz	a1,1013a <register_tm_clones+0x2a>
   10128:	00000337          	lui	t1,0x0
   1012c:	00030313          	mv	t1,t1
   10130:	00030563          	beqz	t1,1013a <register_tm_clones+0x2a>
   10134:	11850513          	addi	a0,a0,280
   10138:	8302                	jr	t1
   1013a:	8082                	ret

000000000001013c <__do_global_dtors_aux>:
   1013c:	8801c703          	lbu	a4,-1920(gp) # 1c198 <completed.5212>
   10140:	eb15                	bnez	a4,10174 <__do_global_dtors_aux+0x38>
   10142:	1141                	addi	sp,sp,-16
   10144:	e022                	sd	s0,0(sp)
   10146:	e406                	sd	ra,8(sp)
   10148:	843e                	mv	s0,a5
   1014a:	fa3ff0ef          	jal	ra,100ec <deregister_tm_clones>
   1014e:	000007b7          	lui	a5,0x0
   10152:	00078793          	mv	a5,a5
   10156:	cb81                	beqz	a5,10166 <__do_global_dtors_aux+0x2a>
   10158:	656d                	lui	a0,0x1b
   1015a:	00050513          	mv	a0,a0
   1015e:	ffff0097          	auipc	ra,0xffff0
   10162:	ea2080e7          	jalr	-350(ra) # 0 <_start-0x100b0>
   10166:	4785                	li	a5,1
   10168:	88f18023          	sb	a5,-1920(gp) # 1c198 <completed.5212>
   1016c:	60a2                	ld	ra,8(sp)
   1016e:	6402                	ld	s0,0(sp)
   10170:	0141                	addi	sp,sp,16
   10172:	8082                	ret
   10174:	8082                	ret

0000000000010176 <frame_dummy>:
   10176:	000007b7          	lui	a5,0x0
   1017a:	00078793          	mv	a5,a5
   1017e:	cf91                	beqz	a5,1019a <frame_dummy+0x24>
   10180:	656d                	lui	a0,0x1b
   10182:	1141                	addi	sp,sp,-16
   10184:	88818593          	addi	a1,gp,-1912 # 1c1a0 <object.5217>
   10188:	00050513          	mv	a0,a0
   1018c:	e406                	sd	ra,8(sp)
   1018e:	ffff0097          	auipc	ra,0xffff0
   10192:	e72080e7          	jalr	-398(ra) # 0 <_start-0x100b0>
   10196:	60a2                	ld	ra,8(sp)
   10198:	0141                	addi	sp,sp,16
   1019a:	f77ff06f          	j	10110 <register_tm_clones>

000000000001019e <flushCache>:
uint8_t unusedarr2[L1_SZ_BYTES];
volatile uint8_t dummyMem3[8 * L1_SZ_BYTES];
uint8_t unusedarr3[L1_SZ_BYTES];
volatile uint8_t dummyMem4[16 * L1_SZ_BYTES];

void flushCache(){
   1019e:	7179                	addi	sp,sp,-48
   101a0:	f406                	sd	ra,40(sp)
   101a2:	f022                	sd	s0,32(sp)
   101a4:	1800                	addi	s0,sp,48
    volatile uint8_t dummy = 0;
   101a6:	fc040fa3          	sb	zero,-33(s0)
    int tmpNum = 2*1024;
   101aa:	6785                	lui	a5,0x1
   101ac:	8007879b          	addiw	a5,a5,-2048
   101b0:	fef42023          	sw	a5,-32(s0)

    for(int idx=0;idx<tmpNum;idx++){
   101b4:	fe042623          	sw	zero,-20(s0)
   101b8:	a01d                	j	101de <flushCache+0x40>
        dummy = rand()%tmpNum;
   101ba:	48a000ef          	jal	ra,10644 <rand>
   101be:	87aa                	mv	a5,a0
   101c0:	873e                	mv	a4,a5
   101c2:	fe042783          	lw	a5,-32(s0)
   101c6:	02f767bb          	remw	a5,a4,a5
   101ca:	2781                	sext.w	a5,a5
   101cc:	0ff7f793          	andi	a5,a5,255
   101d0:	fcf40fa3          	sb	a5,-33(s0)
    for(int idx=0;idx<tmpNum;idx++){
   101d4:	fec42783          	lw	a5,-20(s0)
   101d8:	2785                	addiw	a5,a5,1
   101da:	fef42623          	sw	a5,-20(s0)
   101de:	fec42703          	lw	a4,-20(s0)
   101e2:	fe042783          	lw	a5,-32(s0)
   101e6:	2701                	sext.w	a4,a4
   101e8:	2781                	sext.w	a5,a5
   101ea:	fcf748e3          	blt	a4,a5,101ba <flushCache+0x1c>
      // printf("dummy = %d\n",dummy);   
    }
    tmpNum = 4*1024;
   101ee:	6785                	lui	a5,0x1
   101f0:	fef42023          	sw	a5,-32(s0)
    for(int idx=0;idx<tmpNum;idx++){
   101f4:	fe042423          	sw	zero,-24(s0)
   101f8:	a01d                	j	1021e <flushCache+0x80>
        dummy = rand()%tmpNum;
   101fa:	44a000ef          	jal	ra,10644 <rand>
   101fe:	87aa                	mv	a5,a0
   10200:	873e                	mv	a4,a5
   10202:	fe042783          	lw	a5,-32(s0)
   10206:	02f767bb          	remw	a5,a4,a5
   1020a:	2781                	sext.w	a5,a5
   1020c:	0ff7f793          	andi	a5,a5,255
   10210:	fcf40fa3          	sb	a5,-33(s0)
    for(int idx=0;idx<tmpNum;idx++){
   10214:	fe842783          	lw	a5,-24(s0)
   10218:	2785                	addiw	a5,a5,1
   1021a:	fef42423          	sw	a5,-24(s0)
   1021e:	fe842703          	lw	a4,-24(s0)
   10222:	fe042783          	lw	a5,-32(s0)
   10226:	2701                	sext.w	a4,a4
   10228:	2781                	sext.w	a5,a5
   1022a:	fcf748e3          	blt	a4,a5,101fa <flushCache+0x5c>
      //printf("dummy = %d\n",dummy);   
    }
    tmpNum = 8*1024;
   1022e:	6789                	lui	a5,0x2
   10230:	fef42023          	sw	a5,-32(s0)
    for(int idx=0;idx<tmpNum;idx++){
   10234:	fe042223          	sw	zero,-28(s0)
   10238:	a01d                	j	1025e <flushCache+0xc0>
        dummy = rand()%tmpNum;
   1023a:	40a000ef          	jal	ra,10644 <rand>
   1023e:	87aa                	mv	a5,a0
   10240:	873e                	mv	a4,a5
   10242:	fe042783          	lw	a5,-32(s0)
   10246:	02f767bb          	remw	a5,a4,a5
   1024a:	2781                	sext.w	a5,a5
   1024c:	0ff7f793          	andi	a5,a5,255
   10250:	fcf40fa3          	sb	a5,-33(s0)
    for(int idx=0;idx<tmpNum;idx++){
   10254:	fe442783          	lw	a5,-28(s0)
   10258:	2785                	addiw	a5,a5,1
   1025a:	fef42223          	sw	a5,-28(s0)
   1025e:	fe442703          	lw	a4,-28(s0)
   10262:	fe042783          	lw	a5,-32(s0)
   10266:	2701                	sext.w	a4,a4
   10268:	2781                	sext.w	a5,a5
   1026a:	fcf748e3          	blt	a4,a5,1023a <flushCache+0x9c>
    // tmpNum = 16*1024;
    // for(int idx=0;idx<tmpNum;idx++){
    //     dummy = dummyMem3[rand()%tmpNum];
    //      printf("%lld\n",dummy);
    // }
   printf("Flush\n");       
   1026e:	67e9                	lui	a5,0x1a
   10270:	d8078513          	addi	a0,a5,-640 # 19d80 <__clzdi2+0x3c>
   10274:	3ba000ef          	jal	ra,1062e <puts>
}
   10278:	0001                	nop
   1027a:	70a2                	ld	ra,40(sp)
   1027c:	7402                	ld	s0,32(sp)
   1027e:	6145                	addi	sp,sp,48
   10280:	8082                	ret

0000000000010282 <main>:
#include <stdint.h> 
#include "encoding.h"
#include "flushCache.h"

uint64_t array1_sz = 16;
int main(void){
   10282:	7159                	addi	sp,sp,-112
   10284:	f486                	sd	ra,104(sp)
   10286:	f0a2                	sd	s0,96(sp)
   10288:	1880                	addi	s0,sp,112
    uint64_t start, diff;
    uint8_t dummy = 2;
   1028a:	4789                	li	a5,2
   1028c:	fef405a3          	sb	a5,-21(s0)
 uint8_t    dummy1 = 0;
   10290:	fe040523          	sb	zero,-22(s0)
    static uint64_t results[256];
    start = rdcycle();
   10294:	c00027f3          	rdcycle	a5
   10298:	fef43023          	sd	a5,-32(s0)
   1029c:	fe043783          	ld	a5,-32(s0)
   102a0:	fcf43c23          	sd	a5,-40(s0)
    dummy1= dummy;
   102a4:	feb44783          	lbu	a5,-21(s0)
   102a8:	fef40523          	sb	a5,-22(s0)
    diff = (rdcycle() - start);
   102ac:	c00027f3          	rdcycle	a5
   102b0:	fcf43823          	sd	a5,-48(s0)
   102b4:	fd043703          	ld	a4,-48(s0)
   102b8:	fd843783          	ld	a5,-40(s0)
   102bc:	40f707b3          	sub	a5,a4,a5
   102c0:	fcf43423          	sd	a5,-56(s0)
         printf("test:read from ram, cycles = %lu\n", diff); 
   102c4:	fc843583          	ld	a1,-56(s0)
   102c8:	67e9                	lui	a5,0x1a
   102ca:	d8878513          	addi	a0,a5,-632 # 19d88 <__clzdi2+0x44>
   102ce:	2bc000ef          	jal	ra,1058a <printf>

    start = rdcycle();
   102d2:	c00027f3          	rdcycle	a5
   102d6:	fcf43023          	sd	a5,-64(s0)
   102da:	fc043783          	ld	a5,-64(s0)
   102de:	fcf43c23          	sd	a5,-40(s0)
    dummy1= array1_sz;
   102e2:	8301b783          	ld	a5,-2000(gp) # 1c148 <array1_sz>
   102e6:	fef40523          	sb	a5,-22(s0)
    diff = (rdcycle() - start);
   102ea:	c00027f3          	rdcycle	a5
   102ee:	faf43c23          	sd	a5,-72(s0)
   102f2:	fb843703          	ld	a4,-72(s0)
   102f6:	fd843783          	ld	a5,-40(s0)
   102fa:	40f707b3          	sub	a5,a4,a5
   102fe:	fcf43423          	sd	a5,-56(s0)
     printf("test:read from ram, cycles = %lu\n", diff); 
   10302:	fc843583          	ld	a1,-56(s0)
   10306:	67e9                	lui	a5,0x1a
   10308:	d8878513          	addi	a0,a5,-632 # 19d88 <__clzdi2+0x44>
   1030c:	27e000ef          	jal	ra,1058a <printf>
    start = rdcycle();
   10310:	c00027f3          	rdcycle	a5
   10314:	faf43823          	sd	a5,-80(s0)
   10318:	fb043783          	ld	a5,-80(s0)
   1031c:	fcf43c23          	sd	a5,-40(s0)
    dummy1= array1_sz ;
   10320:	8301b783          	ld	a5,-2000(gp) # 1c148 <array1_sz>
   10324:	fef40523          	sb	a5,-22(s0)
    diff = (rdcycle() - start);
   10328:	c00027f3          	rdcycle	a5
   1032c:	faf43423          	sd	a5,-88(s0)
   10330:	fa843703          	ld	a4,-88(s0)
   10334:	fd843783          	ld	a5,-40(s0)
   10338:	40f707b3          	sub	a5,a4,a5
   1033c:	fcf43423          	sd	a5,-56(s0)
     printf("test:read from cache, cycles = %lu\n", diff); 
   10340:	fc843583          	ld	a1,-56(s0)
   10344:	67e9                	lui	a5,0x1a
   10346:	db078513          	addi	a0,a5,-592 # 19db0 <__clzdi2+0x6c>
   1034a:	240000ef          	jal	ra,1058a <printf>
    array1_sz =  array1_sz << 4;
   1034e:	8301b783          	ld	a5,-2000(gp) # 1c148 <array1_sz>
   10352:	00479713          	slli	a4,a5,0x4
   10356:	82e1b823          	sd	a4,-2000(gp) # 1c148 <array1_sz>
for(int i=0;i<10;i++){
   1035a:	fe042623          	sw	zero,-20(s0)
   1035e:	a815                	j	10392 <main+0x110>
    asm("fcvt.s.lu	fa4, %[in]\n"
   10360:	8301b783          	ld	a5,-2000(gp) # 1c148 <array1_sz>
   10364:	feb44703          	lbu	a4,-21(s0)
   10368:	d0377753          	fcvt.s.lu	fa4,a4
   1036c:	d037f7d3          	fcvt.s.lu	fa5,a5
   10370:	18e7f7d3          	fdiv.s	fa5,fa5,fa4
   10374:	18e7f7d3          	fdiv.s	fa5,fa5,fa4
   10378:	18e7f7d3          	fdiv.s	fa5,fa5,fa4
   1037c:	18e7f7d3          	fdiv.s	fa5,fa5,fa4
   10380:	c0379753          	fcvt.lu.s	a4,fa5,rtz
   10384:	82e1b823          	sd	a4,-2000(gp) # 1c148 <array1_sz>
for(int i=0;i<10;i++){
   10388:	fec42783          	lw	a5,-20(s0)
   1038c:	2785                	addiw	a5,a5,1
   1038e:	fef42623          	sw	a5,-20(s0)
   10392:	fec42783          	lw	a5,-20(s0)
   10396:	0007871b          	sext.w	a4,a5
   1039a:	47a5                	li	a5,9
   1039c:	fce7d2e3          	ble	a4,a5,10360 <main+0xde>
        "fcvt.lu.s	%[out], fa5, rtz\n"
           : [out] "=r" (array1_sz)
           : [inout] "r" (array1_sz), [in] "r" (dummy)
           : "fa4", "fa5");
    }
    start = rdcycle();
   103a0:	c00027f3          	rdcycle	a5
   103a4:	faf43023          	sd	a5,-96(s0)
   103a8:	fa043783          	ld	a5,-96(s0)
   103ac:	fcf43c23          	sd	a5,-40(s0)
    dummy1= array1_sz;
   103b0:	8301b783          	ld	a5,-2000(gp) # 1c148 <array1_sz>
   103b4:	fef40523          	sb	a5,-22(s0)
    diff = (rdcycle() - start);
   103b8:	c00027f3          	rdcycle	a5
   103bc:	f8f43c23          	sd	a5,-104(s0)
   103c0:	f9843703          	ld	a4,-104(s0)
   103c4:	fd843783          	ld	a5,-40(s0)
   103c8:	40f707b3          	sub	a5,a4,a5
   103cc:	fcf43423          	sd	a5,-56(s0)
     printf("test:read after div, cycles = %lu\n", diff); 
   103d0:	fc843583          	ld	a1,-56(s0)
   103d4:	67e9                	lui	a5,0x1a
   103d6:	dd878513          	addi	a0,a5,-552 # 19dd8 <__clzdi2+0x94>
   103da:	1b0000ef          	jal	ra,1058a <printf>
   103de:	4781                	li	a5,0

   103e0:	853e                	mv	a0,a5
   103e2:	70a6                	ld	ra,104(sp)
   103e4:	7406                	ld	s0,96(sp)
   103e6:	6165                	addi	sp,sp,112
   103e8:	8082                	ret

00000000000103ea <atexit>:
   103ea:	85aa                	mv	a1,a0
   103ec:	4681                	li	a3,0
   103ee:	4601                	li	a2,0
   103f0:	4501                	li	a0,0
   103f2:	1ab0106f          	j	11d9c <__register_exitproc>

00000000000103f6 <exit>:
   103f6:	1141                	addi	sp,sp,-16
   103f8:	4581                	li	a1,0
   103fa:	e022                	sd	s0,0(sp)
   103fc:	e406                	sd	ra,8(sp)
   103fe:	842a                	mv	s0,a0
   10400:	201010ef          	jal	ra,11e00 <__call_exitprocs>
   10404:	8381b503          	ld	a0,-1992(gp) # 1c150 <_global_impure_ptr>
   10408:	6d3c                	ld	a5,88(a0)
   1040a:	c391                	beqz	a5,1040e <exit+0x18>
   1040c:	9782                	jalr	a5
   1040e:	8522                	mv	a0,s0
   10410:	292080ef          	jal	ra,186a2 <_exit>

0000000000010414 <__libc_fini_array>:
   10414:	7179                	addi	sp,sp,-48
   10416:	67ed                	lui	a5,0x1b
   10418:	676d                	lui	a4,0x1b
   1041a:	f022                	sd	s0,32(sp)
   1041c:	01070713          	addi	a4,a4,16 # 1b010 <__init_array_end>
   10420:	01878413          	addi	s0,a5,24 # 1b018 <__fini_array_end>
   10424:	8c19                	sub	s0,s0,a4
   10426:	ec26                	sd	s1,24(sp)
   10428:	e84a                	sd	s2,16(sp)
   1042a:	e44e                	sd	s3,8(sp)
   1042c:	f406                	sd	ra,40(sp)
   1042e:	840d                	srai	s0,s0,0x3
   10430:	4481                	li	s1,0
   10432:	01878913          	addi	s2,a5,24
   10436:	59e1                	li	s3,-8
   10438:	00941a63          	bne	s0,s1,1044c <__libc_fini_array+0x38>
   1043c:	7402                	ld	s0,32(sp)
   1043e:	70a2                	ld	ra,40(sp)
   10440:	64e2                	ld	s1,24(sp)
   10442:	6942                	ld	s2,16(sp)
   10444:	69a2                	ld	s3,8(sp)
   10446:	6145                	addi	sp,sp,48
   10448:	ca3ff06f          	j	100ea <_fini>
   1044c:	033487b3          	mul	a5,s1,s3
   10450:	0485                	addi	s1,s1,1
   10452:	97ca                	add	a5,a5,s2
   10454:	ff87b783          	ld	a5,-8(a5)
   10458:	9782                	jalr	a5
   1045a:	bff9                	j	10438 <__libc_fini_array+0x24>

000000000001045c <__libc_init_array>:
   1045c:	1101                	addi	sp,sp,-32
   1045e:	e822                	sd	s0,16(sp)
   10460:	e426                	sd	s1,8(sp)
   10462:	646d                	lui	s0,0x1b
   10464:	64ed                	lui	s1,0x1b
   10466:	00448793          	addi	a5,s1,4 # 1b004 <__preinit_array_end>
   1046a:	00440413          	addi	s0,s0,4 # 1b004 <__preinit_array_end>
   1046e:	8c1d                	sub	s0,s0,a5
   10470:	e04a                	sd	s2,0(sp)
   10472:	ec06                	sd	ra,24(sp)
   10474:	840d                	srai	s0,s0,0x3
   10476:	00448493          	addi	s1,s1,4
   1047a:	4901                	li	s2,0
   1047c:	02891763          	bne	s2,s0,104aa <__libc_init_array+0x4e>
   10480:	64ed                	lui	s1,0x1b
   10482:	c69ff0ef          	jal	ra,100ea <_fini>
   10486:	646d                	lui	s0,0x1b
   10488:	00848793          	addi	a5,s1,8 # 1b008 <__frame_dummy_init_array_entry>
   1048c:	01040413          	addi	s0,s0,16 # 1b010 <__init_array_end>
   10490:	8c1d                	sub	s0,s0,a5
   10492:	840d                	srai	s0,s0,0x3
   10494:	00848493          	addi	s1,s1,8
   10498:	4901                	li	s2,0
   1049a:	00891d63          	bne	s2,s0,104b4 <__libc_init_array+0x58>
   1049e:	60e2                	ld	ra,24(sp)
   104a0:	6442                	ld	s0,16(sp)
   104a2:	64a2                	ld	s1,8(sp)
   104a4:	6902                	ld	s2,0(sp)
   104a6:	6105                	addi	sp,sp,32
   104a8:	8082                	ret
   104aa:	609c                	ld	a5,0(s1)
   104ac:	0905                	addi	s2,s2,1
   104ae:	04a1                	addi	s1,s1,8
   104b0:	9782                	jalr	a5
   104b2:	b7e9                	j	1047c <__libc_init_array+0x20>
   104b4:	609c                	ld	a5,0(s1)
   104b6:	0905                	addi	s2,s2,1
   104b8:	04a1                	addi	s1,s1,8
   104ba:	9782                	jalr	a5
   104bc:	bff9                	j	1049a <__libc_init_array+0x3e>

00000000000104be <memset>:
   104be:	433d                	li	t1,15
   104c0:	872a                	mv	a4,a0
   104c2:	02c37163          	bleu	a2,t1,104e4 <memset+0x26>
   104c6:	00f77793          	andi	a5,a4,15
   104ca:	e3c1                	bnez	a5,1054a <memset+0x8c>
   104cc:	e1bd                	bnez	a1,10532 <memset+0x74>
   104ce:	ff067693          	andi	a3,a2,-16
   104d2:	8a3d                	andi	a2,a2,15
   104d4:	96ba                	add	a3,a3,a4
   104d6:	e30c                	sd	a1,0(a4)
   104d8:	e70c                	sd	a1,8(a4)
   104da:	0741                	addi	a4,a4,16
   104dc:	fed76de3          	bltu	a4,a3,104d6 <memset+0x18>
   104e0:	e211                	bnez	a2,104e4 <memset+0x26>
   104e2:	8082                	ret
   104e4:	40c306b3          	sub	a3,t1,a2
   104e8:	068a                	slli	a3,a3,0x2
   104ea:	00000297          	auipc	t0,0x0
   104ee:	9696                	add	a3,a3,t0
   104f0:	00a68067          	jr	10(a3)
   104f4:	00b70723          	sb	a1,14(a4)
   104f8:	00b706a3          	sb	a1,13(a4)
   104fc:	00b70623          	sb	a1,12(a4)
   10500:	00b705a3          	sb	a1,11(a4)
   10504:	00b70523          	sb	a1,10(a4)
   10508:	00b704a3          	sb	a1,9(a4)
   1050c:	00b70423          	sb	a1,8(a4)
   10510:	00b703a3          	sb	a1,7(a4)
   10514:	00b70323          	sb	a1,6(a4)
   10518:	00b702a3          	sb	a1,5(a4)
   1051c:	00b70223          	sb	a1,4(a4)
   10520:	00b701a3          	sb	a1,3(a4)
   10524:	00b70123          	sb	a1,2(a4)
   10528:	00b700a3          	sb	a1,1(a4)
   1052c:	00b70023          	sb	a1,0(a4)
   10530:	8082                	ret
   10532:	0ff5f593          	andi	a1,a1,255
   10536:	00859693          	slli	a3,a1,0x8
   1053a:	8dd5                	or	a1,a1,a3
   1053c:	01059693          	slli	a3,a1,0x10
   10540:	8dd5                	or	a1,a1,a3
   10542:	02059693          	slli	a3,a1,0x20
   10546:	8dd5                	or	a1,a1,a3
   10548:	b759                	j	104ce <memset+0x10>
   1054a:	00279693          	slli	a3,a5,0x2
   1054e:	00000297          	auipc	t0,0x0
   10552:	9696                	add	a3,a3,t0
   10554:	8286                	mv	t0,ra
   10556:	fa2680e7          	jalr	-94(a3)
   1055a:	8096                	mv	ra,t0
   1055c:	17c1                	addi	a5,a5,-16
   1055e:	8f1d                	sub	a4,a4,a5
   10560:	963e                	add	a2,a2,a5
   10562:	f8c371e3          	bleu	a2,t1,104e4 <memset+0x26>
   10566:	b79d                	j	104cc <memset+0xe>

0000000000010568 <_printf_r>:
   10568:	715d                	addi	sp,sp,-80
   1056a:	f032                	sd	a2,32(sp)
   1056c:	f436                	sd	a3,40(sp)
   1056e:	f83a                	sd	a4,48(sp)
   10570:	fc3e                	sd	a5,56(sp)
   10572:	e0c2                	sd	a6,64(sp)
   10574:	e4c6                	sd	a7,72(sp)
   10576:	862e                	mv	a2,a1
   10578:	690c                	ld	a1,16(a0)
   1057a:	1014                	addi	a3,sp,32
   1057c:	ec06                	sd	ra,24(sp)
   1057e:	e436                	sd	a3,8(sp)
   10580:	0f2000ef          	jal	ra,10672 <_vfprintf_r>
   10584:	60e2                	ld	ra,24(sp)
   10586:	6161                	addi	sp,sp,80
   10588:	8082                	ret

000000000001058a <printf>:
   1058a:	711d                	addi	sp,sp,-96
   1058c:	e4be                	sd	a5,72(sp)
   1058e:	8401b783          	ld	a5,-1984(gp) # 1c158 <_impure_ptr>
   10592:	f832                	sd	a2,48(sp)
   10594:	fc36                	sd	a3,56(sp)
   10596:	f42e                	sd	a1,40(sp)
   10598:	e0ba                	sd	a4,64(sp)
   1059a:	e8c2                	sd	a6,80(sp)
   1059c:	ecc6                	sd	a7,88(sp)
   1059e:	6b8c                	ld	a1,16(a5)
   105a0:	1034                	addi	a3,sp,40
   105a2:	862a                	mv	a2,a0
   105a4:	853e                	mv	a0,a5
   105a6:	ec06                	sd	ra,24(sp)
   105a8:	e436                	sd	a3,8(sp)
   105aa:	0c8000ef          	jal	ra,10672 <_vfprintf_r>
   105ae:	60e2                	ld	ra,24(sp)
   105b0:	6125                	addi	sp,sp,96
   105b2:	8082                	ret

00000000000105b4 <_puts_r>:
   105b4:	711d                	addi	sp,sp,-96
   105b6:	e8a2                	sd	s0,80(sp)
   105b8:	842a                	mv	s0,a0
   105ba:	852e                	mv	a0,a1
   105bc:	e42e                	sd	a1,8(sp)
   105be:	ec86                	sd	ra,88(sp)
   105c0:	0a0000ef          	jal	ra,10660 <strlen>
   105c4:	0001a7b7          	lui	a5,0x1a
   105c8:	e0078793          	addi	a5,a5,-512 # 19e00 <__clzdi2+0xbc>
   105cc:	e0be                	sd	a5,64(sp)
   105ce:	4785                	li	a5,1
   105d0:	e4be                	sd	a5,72(sp)
   105d2:	181c                	addi	a5,sp,48
   105d4:	65a2                	ld	a1,8(sp)
   105d6:	ec3e                	sd	a5,24(sp)
   105d8:	4789                	li	a5,2
   105da:	d03e                	sw	a5,32(sp)
   105dc:	483c                	lw	a5,80(s0)
   105de:	fc2a                	sd	a0,56(sp)
   105e0:	0505                	addi	a0,a0,1
   105e2:	f82e                	sd	a1,48(sp)
   105e4:	f42a                	sd	a0,40(sp)
   105e6:	680c                	ld	a1,16(s0)
   105e8:	e791                	bnez	a5,105f4 <_puts_r+0x40>
   105ea:	8522                	mv	a0,s0
   105ec:	e42e                	sd	a1,8(sp)
   105ee:	33b010ef          	jal	ra,12128 <__sinit>
   105f2:	65a2                	ld	a1,8(sp)
   105f4:	01059783          	lh	a5,16(a1)
   105f8:	03279713          	slli	a4,a5,0x32
   105fc:	00074d63          	bltz	a4,10616 <_puts_r+0x62>
   10600:	6689                	lui	a3,0x2
   10602:	0ac5a703          	lw	a4,172(a1)
   10606:	8fd5                	or	a5,a5,a3
   10608:	00f59823          	sh	a5,16(a1)
   1060c:	77f9                	lui	a5,0xffffe
   1060e:	17fd                	addi	a5,a5,-1
   10610:	8ff9                	and	a5,a5,a4
   10612:	0af5a623          	sw	a5,172(a1)
   10616:	0830                	addi	a2,sp,24
   10618:	8522                	mv	a0,s0
   1061a:	691010ef          	jal	ra,124aa <__sfvwrite_r>
   1061e:	57fd                	li	a5,-1
   10620:	e111                	bnez	a0,10624 <_puts_r+0x70>
   10622:	47a9                	li	a5,10
   10624:	60e6                	ld	ra,88(sp)
   10626:	6446                	ld	s0,80(sp)
   10628:	853e                	mv	a0,a5
   1062a:	6125                	addi	sp,sp,96
   1062c:	8082                	ret

000000000001062e <puts>:
   1062e:	85aa                	mv	a1,a0
   10630:	8401b503          	ld	a0,-1984(gp) # 1c158 <_impure_ptr>
   10634:	f81ff06f          	j	105b4 <_puts_r>

0000000000010638 <srand>:
   10638:	8401b783          	ld	a5,-1984(gp) # 1c158 <_impure_ptr>
   1063c:	1502                	slli	a0,a0,0x20
   1063e:	9101                	srli	a0,a0,0x20
   10640:	f7e8                	sd	a0,232(a5)
   10642:	8082                	ret

0000000000010644 <rand>:
   10644:	8401b783          	ld	a5,-1984(gp) # 1c158 <_impure_ptr>
   10648:	0001c737          	lui	a4,0x1c
   1064c:	11873703          	ld	a4,280(a4) # 1c118 <__TMC_END__>
   10650:	77e8                	ld	a0,232(a5)
   10652:	02e50533          	mul	a0,a0,a4
   10656:	0505                	addi	a0,a0,1
   10658:	f7e8                	sd	a0,232(a5)
   1065a:	0506                	slli	a0,a0,0x1
   1065c:	9105                	srli	a0,a0,0x21
   1065e:	8082                	ret

0000000000010660 <strlen>:
   10660:	87aa                	mv	a5,a0
   10662:	0785                	addi	a5,a5,1
   10664:	fff7c703          	lbu	a4,-1(a5) # ffffffffffffdfff <_end+0xffffffffffdd15ff>
   10668:	ff6d                	bnez	a4,10662 <strlen+0x2>
   1066a:	40a78533          	sub	a0,a5,a0
   1066e:	157d                	addi	a0,a0,-1
   10670:	8082                	ret

0000000000010672 <_vfprintf_r>:
   10672:	d9010113          	addi	sp,sp,-624
   10676:	26113423          	sd	ra,616(sp)
   1067a:	24913c23          	sd	s1,600(sp)
   1067e:	25213823          	sd	s2,592(sp)
   10682:	25313423          	sd	s3,584(sp)
   10686:	23713423          	sd	s7,552(sp)
   1068a:	892e                	mv	s2,a1
   1068c:	84b2                	mv	s1,a2
   1068e:	8bb6                	mv	s7,a3
   10690:	26813023          	sd	s0,608(sp)
   10694:	25413023          	sd	s4,576(sp)
   10698:	23513c23          	sd	s5,568(sp)
   1069c:	23613823          	sd	s6,560(sp)
   106a0:	23813023          	sd	s8,544(sp)
   106a4:	21913c23          	sd	s9,536(sp)
   106a8:	21a13823          	sd	s10,528(sp)
   106ac:	21b13423          	sd	s11,520(sp)
   106b0:	89aa                	mv	s3,a0
   106b2:	0c1030ef          	jal	ra,13f72 <_localeconv_r>
   106b6:	611c                	ld	a5,0(a0)
   106b8:	853e                	mv	a0,a5
   106ba:	e4be                	sd	a5,72(sp)
   106bc:	fa5ff0ef          	jal	ra,10660 <strlen>
   106c0:	ec2a                	sd	a0,24(sp)
   106c2:	f982                	sd	zero,240(sp)
   106c4:	fd82                	sd	zero,248(sp)
   106c6:	00098863          	beqz	s3,106d6 <_vfprintf_r+0x64>
   106ca:	0509a783          	lw	a5,80(s3)
   106ce:	e781                	bnez	a5,106d6 <_vfprintf_r+0x64>
   106d0:	854e                	mv	a0,s3
   106d2:	257010ef          	jal	ra,12128 <__sinit>
   106d6:	01091783          	lh	a5,16(s2)
   106da:	03279713          	slli	a4,a5,0x32
   106de:	00074d63          	bltz	a4,106f8 <_vfprintf_r+0x86>
   106e2:	6689                	lui	a3,0x2
   106e4:	0ac92703          	lw	a4,172(s2)
   106e8:	8fd5                	or	a5,a5,a3
   106ea:	00f91823          	sh	a5,16(s2)
   106ee:	77f9                	lui	a5,0xffffe
   106f0:	17fd                	addi	a5,a5,-1
   106f2:	8ff9                	and	a5,a5,a4
   106f4:	0af92623          	sw	a5,172(s2)
   106f8:	01095783          	lhu	a5,16(s2)
   106fc:	8ba1                	andi	a5,a5,8
   106fe:	c3bd                	beqz	a5,10764 <_vfprintf_r+0xf2>
   10700:	01893783          	ld	a5,24(s2)
   10704:	c3a5                	beqz	a5,10764 <_vfprintf_r+0xf2>
   10706:	01095783          	lhu	a5,16(s2)
   1070a:	4729                	li	a4,10
   1070c:	8be9                	andi	a5,a5,26
   1070e:	06e79363          	bne	a5,a4,10774 <_vfprintf_r+0x102>
   10712:	01291783          	lh	a5,18(s2)
   10716:	0407cf63          	bltz	a5,10774 <_vfprintf_r+0x102>
   1071a:	86de                	mv	a3,s7
   1071c:	8626                	mv	a2,s1
   1071e:	85ca                	mv	a1,s2
   10720:	854e                	mv	a0,s3
   10722:	512010ef          	jal	ra,11c34 <__sbprintf>
   10726:	f42a                	sd	a0,40(sp)
   10728:	26813083          	ld	ra,616(sp)
   1072c:	26013403          	ld	s0,608(sp)
   10730:	7522                	ld	a0,40(sp)
   10732:	25813483          	ld	s1,600(sp)
   10736:	25013903          	ld	s2,592(sp)
   1073a:	24813983          	ld	s3,584(sp)
   1073e:	24013a03          	ld	s4,576(sp)
   10742:	23813a83          	ld	s5,568(sp)
   10746:	23013b03          	ld	s6,560(sp)
   1074a:	22813b83          	ld	s7,552(sp)
   1074e:	22013c03          	ld	s8,544(sp)
   10752:	21813c83          	ld	s9,536(sp)
   10756:	21013d03          	ld	s10,528(sp)
   1075a:	20813d83          	ld	s11,520(sp)
   1075e:	27010113          	addi	sp,sp,624
   10762:	8082                	ret
   10764:	85ca                	mv	a1,s2
   10766:	854e                	mv	a0,s3
   10768:	55a010ef          	jal	ra,11cc2 <__swsetup_r>
   1076c:	dd49                	beqz	a0,10706 <_vfprintf_r+0x94>
   1076e:	57fd                	li	a5,-1
   10770:	f43e                	sd	a5,40(sp)
   10772:	bf5d                	j	10728 <_vfprintf_r+0xb6>
   10774:	67e9                	lui	a5,0x1a
   10776:	e0878793          	addi	a5,a5,-504 # 19e08 <__clzdi2+0xc4>
   1077a:	ed3e                	sd	a5,152(sp)
   1077c:	0001a7b7          	lui	a5,0x1a
   10780:	fa87b783          	ld	a5,-88(a5) # 19fa8 <zeroes.4441+0x20>
   10784:	18010a93          	addi	s5,sp,384
   10788:	e256                	sd	s5,256(sp)
   1078a:	f13e                	sd	a5,160(sp)
   1078c:	0001a7b7          	lui	a5,0x1a
   10790:	fb87b783          	ld	a5,-72(a5) # 19fb8 <zeroes.4441+0x30>
   10794:	ea02                	sd	zero,272(sp)
   10796:	10012423          	sw	zero,264(sp)
   1079a:	f53e                	sd	a5,168(sp)
   1079c:	0001a7b7          	lui	a5,0x1a
   107a0:	fc87b783          	ld	a5,-56(a5) # 19fc8 <zeroes.4441+0x40>
   107a4:	4a01                	li	s4,0
   107a6:	8cd6                	mv	s9,s5
   107a8:	f082                	sd	zero,96(sp)
   107aa:	ec82                	sd	zero,88(sp)
   107ac:	e002                	sd	zero,0(sp)
   107ae:	e082                	sd	zero,64(sp)
   107b0:	e882                	sd	zero,80(sp)
   107b2:	f402                	sd	zero,40(sp)
   107b4:	e93e                	sd	a5,144(sp)
   107b6:	8426                	mv	s0,s1
   107b8:	02500713          	li	a4,37
   107bc:	00044783          	lbu	a5,0(s0)
   107c0:	c399                	beqz	a5,107c6 <_vfprintf_r+0x154>
   107c2:	08e79663          	bne	a5,a4,1084e <_vfprintf_r+0x1dc>
   107c6:	40940b3b          	subw	s6,s0,s1
   107ca:	020b0f63          	beqz	s6,10808 <_vfprintf_r+0x196>
   107ce:	67d2                	ld	a5,272(sp)
   107d0:	009cb023          	sd	s1,0(s9)
   107d4:	016cb423          	sd	s6,8(s9)
   107d8:	97da                	add	a5,a5,s6
   107da:	ea3e                	sd	a5,272(sp)
   107dc:	10812783          	lw	a5,264(sp)
   107e0:	0cc1                	addi	s9,s9,16
   107e2:	0017871b          	addiw	a4,a5,1
   107e6:	10e12423          	sw	a4,264(sp)
   107ea:	479d                	li	a5,7
   107ec:	00e7da63          	ble	a4,a5,10800 <_vfprintf_r+0x18e>
   107f0:	0210                	addi	a2,sp,256
   107f2:	85ca                	mv	a1,s2
   107f4:	854e                	mv	a0,s3
   107f6:	5f0060ef          	jal	ra,16de6 <__sprint_r>
   107fa:	54051363          	bnez	a0,10d40 <_vfprintf_r+0x6ce>
   107fe:	8cd6                	mv	s9,s5
   10800:	57a2                	lw	a5,40(sp)
   10802:	016787bb          	addw	a5,a5,s6
   10806:	f43e                	sd	a5,40(sp)
   10808:	00044783          	lbu	a5,0(s0)
   1080c:	e399                	bnez	a5,10812 <_vfprintf_r+0x1a0>
   1080e:	4040106f          	j	11c12 <_vfprintf_r+0x15a0>
   10812:	00140793          	addi	a5,s0,1
   10816:	0c0107a3          	sb	zero,207(sp)
   1081a:	5dfd                	li	s11,-1
   1081c:	f002                	sd	zero,32(sp)
   1081e:	4401                	li	s0,0
   10820:	05a00d13          	li	s10,90
   10824:	4c29                	li	s8,10
   10826:	0007cb03          	lbu	s6,0(a5)
   1082a:	00178713          	addi	a4,a5,1
   1082e:	e83a                	sd	a4,16(sp)
   10830:	46a5                	li	a3,9
   10832:	02a00613          	li	a2,42
   10836:	fe0b079b          	addiw	a5,s6,-32
   1083a:	0007871b          	sext.w	a4,a5
   1083e:	3aed68e3          	bltu	s10,a4,113ee <_vfprintf_r+0xd7c>
   10842:	676a                	ld	a4,152(sp)
   10844:	1782                	slli	a5,a5,0x20
   10846:	83f9                	srli	a5,a5,0x1e
   10848:	97ba                	add	a5,a5,a4
   1084a:	439c                	lw	a5,0(a5)
   1084c:	8782                	jr	a5
   1084e:	0405                	addi	s0,s0,1
   10850:	b7b5                	j	107bc <_vfprintf_r+0x14a>
   10852:	0001a7b7          	lui	a5,0x1a
   10856:	00878793          	addi	a5,a5,8 # 1a008 <zeroes.4441+0x80>
   1085a:	f0be                	sd	a5,96(sp)
   1085c:	008b8793          	addi	a5,s7,8
   10860:	f83e                	sd	a5,48(sp)
   10862:	02047793          	andi	a5,s0,32
   10866:	24078de3          	beqz	a5,112c0 <_vfprintf_r+0xc4e>
   1086a:	000bbb83          	ld	s7,0(s7)
   1086e:	00147793          	andi	a5,s0,1
   10872:	cf81                	beqz	a5,1088a <_vfprintf_r+0x218>
   10874:	000b8b63          	beqz	s7,1088a <_vfprintf_r+0x218>
   10878:	03000793          	li	a5,48
   1087c:	00246413          	ori	s0,s0,2
   10880:	0cf10823          	sb	a5,208(sp)
   10884:	0d6108a3          	sb	s6,209(sp)
   10888:	2401                	sext.w	s0,s0
   1088a:	bff47413          	andi	s0,s0,-1025
   1088e:	2401                	sext.w	s0,s0
   10890:	4789                	li	a5,2
   10892:	12b0006f          	j	111bc <_vfprintf_r+0xb4a>
   10896:	854e                	mv	a0,s3
   10898:	6da030ef          	jal	ra,13f72 <_localeconv_r>
   1089c:	651c                	ld	a5,8(a0)
   1089e:	853e                	mv	a0,a5
   108a0:	e8be                	sd	a5,80(sp)
   108a2:	dbfff0ef          	jal	ra,10660 <strlen>
   108a6:	e0aa                	sd	a0,64(sp)
   108a8:	854e                	mv	a0,s3
   108aa:	6c8030ef          	jal	ra,13f72 <_localeconv_r>
   108ae:	691c                	ld	a5,16(a0)
   108b0:	e03e                	sd	a5,0(sp)
   108b2:	6786                	ld	a5,64(sp)
   108b4:	c38d                	beqz	a5,108d6 <_vfprintf_r+0x264>
   108b6:	6782                	ld	a5,0(sp)
   108b8:	cf99                	beqz	a5,108d6 <_vfprintf_r+0x264>
   108ba:	0007c783          	lbu	a5,0(a5)
   108be:	cf81                	beqz	a5,108d6 <_vfprintf_r+0x264>
   108c0:	40046413          	ori	s0,s0,1024
   108c4:	2401                	sext.w	s0,s0
   108c6:	a801                	j	108d6 <_vfprintf_r+0x264>
   108c8:	0cf14783          	lbu	a5,207(sp)
   108cc:	e789                	bnez	a5,108d6 <_vfprintf_r+0x264>
   108ce:	02000793          	li	a5,32
   108d2:	0cf107a3          	sb	a5,207(sp)
   108d6:	67c2                	ld	a5,16(sp)
   108d8:	b7b9                	j	10826 <_vfprintf_r+0x1b4>
   108da:	00146413          	ori	s0,s0,1
   108de:	b7dd                	j	108c4 <_vfprintf_r+0x252>
   108e0:	000ba783          	lw	a5,0(s7)
   108e4:	0ba1                	addi	s7,s7,8
   108e6:	f03e                	sd	a5,32(sp)
   108e8:	fe07d7e3          	bgez	a5,108d6 <_vfprintf_r+0x264>
   108ec:	5782                	lw	a5,32(sp)
   108ee:	40f007bb          	negw	a5,a5
   108f2:	f03e                	sd	a5,32(sp)
   108f4:	00446413          	ori	s0,s0,4
   108f8:	b7f1                	j	108c4 <_vfprintf_r+0x252>
   108fa:	02b00793          	li	a5,43
   108fe:	bfd1                	j	108d2 <_vfprintf_r+0x260>
   10900:	6742                	ld	a4,16(sp)
   10902:	67c2                	ld	a5,16(sp)
   10904:	00074b03          	lbu	s6,0(a4)
   10908:	0785                	addi	a5,a5,1
   1090a:	02cb1c63          	bne	s6,a2,10942 <_vfprintf_r+0x2d0>
   1090e:	000bae03          	lw	t3,0(s7)
   10912:	008b8713          	addi	a4,s7,8
   10916:	000e5363          	bgez	t3,1091c <_vfprintf_r+0x2aa>
   1091a:	5e7d                	li	t3,-1
   1091c:	000e0d9b          	sext.w	s11,t3
   10920:	8bba                	mv	s7,a4
   10922:	e83e                	sd	a5,16(sp)
   10924:	bf4d                	j	108d6 <_vfprintf_r+0x264>
   10926:	03bc0e3b          	mulw	t3,s8,s11
   1092a:	0785                	addi	a5,a5,1
   1092c:	fff7cb03          	lbu	s6,-1(a5)
   10930:	00ee0dbb          	addw	s11,t3,a4
   10934:	fd0b059b          	addiw	a1,s6,-48
   10938:	872e                	mv	a4,a1
   1093a:	feb6f6e3          	bleu	a1,a3,10926 <_vfprintf_r+0x2b4>
   1093e:	e83e                	sd	a5,16(sp)
   10940:	bddd                	j	10836 <_vfprintf_r+0x1c4>
   10942:	4d81                	li	s11,0
   10944:	bfc5                	j	10934 <_vfprintf_r+0x2c2>
   10946:	08046413          	ori	s0,s0,128
   1094a:	bfad                	j	108c4 <_vfprintf_r+0x252>
   1094c:	67c2                	ld	a5,16(sp)
   1094e:	f002                	sd	zero,32(sp)
   10950:	5702                	lw	a4,32(sp)
   10952:	fd0b0b1b          	addiw	s6,s6,-48
   10956:	0785                	addi	a5,a5,1
   10958:	02ec073b          	mulw	a4,s8,a4
   1095c:	00eb073b          	addw	a4,s6,a4
   10960:	fff7cb03          	lbu	s6,-1(a5)
   10964:	f03a                	sd	a4,32(sp)
   10966:	fd0b071b          	addiw	a4,s6,-48
   1096a:	fee6f3e3          	bleu	a4,a3,10950 <_vfprintf_r+0x2de>
   1096e:	bfc1                	j	1093e <_vfprintf_r+0x2cc>
   10970:	00846413          	ori	s0,s0,8
   10974:	bf81                	j	108c4 <_vfprintf_r+0x252>
   10976:	67c2                	ld	a5,16(sp)
   10978:	0007c703          	lbu	a4,0(a5)
   1097c:	06800793          	li	a5,104
   10980:	00f71863          	bne	a4,a5,10990 <_vfprintf_r+0x31e>
   10984:	67c2                	ld	a5,16(sp)
   10986:	20046413          	ori	s0,s0,512
   1098a:	0785                	addi	a5,a5,1
   1098c:	e83e                	sd	a5,16(sp)
   1098e:	bf1d                	j	108c4 <_vfprintf_r+0x252>
   10990:	04046413          	ori	s0,s0,64
   10994:	bf05                	j	108c4 <_vfprintf_r+0x252>
   10996:	67c2                	ld	a5,16(sp)
   10998:	0007c703          	lbu	a4,0(a5)
   1099c:	06c00793          	li	a5,108
   109a0:	00f71863          	bne	a4,a5,109b0 <_vfprintf_r+0x33e>
   109a4:	67c2                	ld	a5,16(sp)
   109a6:	0785                	addi	a5,a5,1
   109a8:	e83e                	sd	a5,16(sp)
   109aa:	02046413          	ori	s0,s0,32
   109ae:	bf19                	j	108c4 <_vfprintf_r+0x252>
   109b0:	01046413          	ori	s0,s0,16
   109b4:	bf01                	j	108c4 <_vfprintf_r+0x252>
   109b6:	008b8793          	addi	a5,s7,8
   109ba:	f83e                	sd	a5,48(sp)
   109bc:	000ba783          	lw	a5,0(s7)
   109c0:	0c0107a3          	sb	zero,207(sp)
   109c4:	10f10c23          	sb	a5,280(sp)
   109c8:	4b81                	li	s7,0
   109ca:	4d85                	li	s11,1
   109cc:	4701                	li	a4,0
   109ce:	e402                	sd	zero,8(sp)
   109d0:	4c01                	li	s8,0
   109d2:	4d01                	li	s10,0
   109d4:	0a24                	addi	s1,sp,280
   109d6:	86ba                	mv	a3,a4
   109d8:	01b75363          	ble	s11,a4,109de <_vfprintf_r+0x36c>
   109dc:	86ee                	mv	a3,s11
   109de:	0cf14603          	lbu	a2,207(sp)
   109e2:	0006879b          	sext.w	a5,a3
   109e6:	fc3e                	sd	a5,56(sp)
   109e8:	c601                	beqz	a2,109f0 <_vfprintf_r+0x37e>
   109ea:	0016879b          	addiw	a5,a3,1
   109ee:	fc3e                	sd	a5,56(sp)
   109f0:	00247693          	andi	a3,s0,2
   109f4:	0006879b          	sext.w	a5,a3
   109f8:	f4be                	sd	a5,104(sp)
   109fa:	c781                	beqz	a5,10a02 <_vfprintf_r+0x390>
   109fc:	57e2                	lw	a5,56(sp)
   109fe:	2789                	addiw	a5,a5,2
   10a00:	fc3e                	sd	a5,56(sp)
   10a02:	08447793          	andi	a5,s0,132
   10a06:	f8be                	sd	a5,112(sp)
   10a08:	efa9                	bnez	a5,10a62 <_vfprintf_r+0x3f0>
   10a0a:	5782                	lw	a5,32(sp)
   10a0c:	56e2                	lw	a3,56(sp)
   10a0e:	40d786bb          	subw	a3,a5,a3
   10a12:	04d05863          	blez	a3,10a62 <_vfprintf_r+0x3f0>
   10a16:	6869                	lui	a6,0x1a
   10a18:	48c1                	li	a7,16
   10a1a:	f7880813          	addi	a6,a6,-136 # 19f78 <blanks.4440>
   10a1e:	4e9d                	li	t4,7
   10a20:	10812583          	lw	a1,264(sp)
   10a24:	010cb023          	sd	a6,0(s9)
   10a28:	6652                	ld	a2,272(sp)
   10a2a:	0015851b          	addiw	a0,a1,1
   10a2e:	85aa                	mv	a1,a0
   10a30:	010c8f13          	addi	t5,s9,16
   10a34:	1cd8c6e3          	blt	a7,a3,11400 <_vfprintf_r+0xd8e>
   10a38:	00dcb423          	sd	a3,8(s9)
   10a3c:	96b2                	add	a3,a3,a2
   10a3e:	ea36                	sd	a3,272(sp)
   10a40:	10a12423          	sw	a0,264(sp)
   10a44:	469d                	li	a3,7
   10a46:	8cfa                	mv	s9,t5
   10a48:	00a6dd63          	ble	a0,a3,10a62 <_vfprintf_r+0x3f0>
   10a4c:	0210                	addi	a2,sp,256
   10a4e:	85ca                	mv	a1,s2
   10a50:	854e                	mv	a0,s3
   10a52:	fcba                	sd	a4,120(sp)
   10a54:	392060ef          	jal	ra,16de6 <__sprint_r>
   10a58:	c119                	beqz	a0,10a5e <_vfprintf_r+0x3ec>
   10a5a:	17a0106f          	j	11bd4 <_vfprintf_r+0x1562>
   10a5e:	7766                	ld	a4,120(sp)
   10a60:	8cd6                	mv	s9,s5
   10a62:	0cf14683          	lbu	a3,207(sp)
   10a66:	c2a1                	beqz	a3,10aa6 <_vfprintf_r+0x434>
   10a68:	0cf10693          	addi	a3,sp,207
   10a6c:	00dcb023          	sd	a3,0(s9)
   10a70:	4685                	li	a3,1
   10a72:	00dcb423          	sd	a3,8(s9)
   10a76:	66d2                	ld	a3,272(sp)
   10a78:	0cc1                	addi	s9,s9,16
   10a7a:	0685                	addi	a3,a3,1
   10a7c:	ea36                	sd	a3,272(sp)
   10a7e:	10812683          	lw	a3,264(sp)
   10a82:	0016861b          	addiw	a2,a3,1
   10a86:	10c12423          	sw	a2,264(sp)
   10a8a:	469d                	li	a3,7
   10a8c:	00c6dd63          	ble	a2,a3,10aa6 <_vfprintf_r+0x434>
   10a90:	0210                	addi	a2,sp,256
   10a92:	85ca                	mv	a1,s2
   10a94:	854e                	mv	a0,s3
   10a96:	fcba                	sd	a4,120(sp)
   10a98:	34e060ef          	jal	ra,16de6 <__sprint_r>
   10a9c:	c119                	beqz	a0,10aa2 <_vfprintf_r+0x430>
   10a9e:	1360106f          	j	11bd4 <_vfprintf_r+0x1562>
   10aa2:	7766                	ld	a4,120(sp)
   10aa4:	8cd6                	mv	s9,s5
   10aa6:	77a6                	ld	a5,104(sp)
   10aa8:	cf9d                	beqz	a5,10ae6 <_vfprintf_r+0x474>
   10aaa:	0994                	addi	a3,sp,208
   10aac:	00dcb023          	sd	a3,0(s9)
   10ab0:	4689                	li	a3,2
   10ab2:	00dcb423          	sd	a3,8(s9)
   10ab6:	66d2                	ld	a3,272(sp)
   10ab8:	0cc1                	addi	s9,s9,16
   10aba:	0689                	addi	a3,a3,2
   10abc:	ea36                	sd	a3,272(sp)
   10abe:	10812683          	lw	a3,264(sp)
   10ac2:	0016861b          	addiw	a2,a3,1
   10ac6:	10c12423          	sw	a2,264(sp)
   10aca:	469d                	li	a3,7
   10acc:	00c6dd63          	ble	a2,a3,10ae6 <_vfprintf_r+0x474>
   10ad0:	0210                	addi	a2,sp,256
   10ad2:	85ca                	mv	a1,s2
   10ad4:	854e                	mv	a0,s3
   10ad6:	f4ba                	sd	a4,104(sp)
   10ad8:	30e060ef          	jal	ra,16de6 <__sprint_r>
   10adc:	c119                	beqz	a0,10ae2 <_vfprintf_r+0x470>
   10ade:	0f60106f          	j	11bd4 <_vfprintf_r+0x1562>
   10ae2:	7726                	ld	a4,104(sp)
   10ae4:	8cd6                	mv	s9,s5
   10ae6:	77c6                	ld	a5,112(sp)
   10ae8:	08000693          	li	a3,128
   10aec:	04d79e63          	bne	a5,a3,10b48 <_vfprintf_r+0x4d6>
   10af0:	5782                	lw	a5,32(sp)
   10af2:	56e2                	lw	a3,56(sp)
   10af4:	40d786bb          	subw	a3,a5,a3
   10af8:	04d05863          	blez	a3,10b48 <_vfprintf_r+0x4d6>
   10afc:	6869                	lui	a6,0x1a
   10afe:	48c1                	li	a7,16
   10b00:	f8880813          	addi	a6,a6,-120 # 19f88 <zeroes.4441>
   10b04:	4e9d                	li	t4,7
   10b06:	10812583          	lw	a1,264(sp)
   10b0a:	010cb023          	sd	a6,0(s9)
   10b0e:	6652                	ld	a2,272(sp)
   10b10:	0015851b          	addiw	a0,a1,1
   10b14:	85aa                	mv	a1,a0
   10b16:	010c8f13          	addi	t5,s9,16
   10b1a:	12d8c1e3          	blt	a7,a3,1143c <_vfprintf_r+0xdca>
   10b1e:	00dcb423          	sd	a3,8(s9)
   10b22:	96b2                	add	a3,a3,a2
   10b24:	ea36                	sd	a3,272(sp)
   10b26:	10a12423          	sw	a0,264(sp)
   10b2a:	469d                	li	a3,7
   10b2c:	8cfa                	mv	s9,t5
   10b2e:	00a6dd63          	ble	a0,a3,10b48 <_vfprintf_r+0x4d6>
   10b32:	0210                	addi	a2,sp,256
   10b34:	85ca                	mv	a1,s2
   10b36:	854e                	mv	a0,s3
   10b38:	f4ba                	sd	a4,104(sp)
   10b3a:	2ac060ef          	jal	ra,16de6 <__sprint_r>
   10b3e:	c119                	beqz	a0,10b44 <_vfprintf_r+0x4d2>
   10b40:	0940106f          	j	11bd4 <_vfprintf_r+0x1562>
   10b44:	7726                	ld	a4,104(sp)
   10b46:	8cd6                	mv	s9,s5
   10b48:	41b7073b          	subw	a4,a4,s11
   10b4c:	04e05663          	blez	a4,10b98 <_vfprintf_r+0x526>
   10b50:	6869                	lui	a6,0x1a
   10b52:	48c1                	li	a7,16
   10b54:	f8880813          	addi	a6,a6,-120 # 19f88 <zeroes.4441>
   10b58:	4e9d                	li	t4,7
   10b5a:	10812603          	lw	a2,264(sp)
   10b5e:	010cb023          	sd	a6,0(s9)
   10b62:	66d2                	ld	a3,272(sp)
   10b64:	0016059b          	addiw	a1,a2,1
   10b68:	862e                	mv	a2,a1
   10b6a:	010c8513          	addi	a0,s9,16
   10b6e:	10e8c5e3          	blt	a7,a4,11478 <_vfprintf_r+0xe06>
   10b72:	00ecb423          	sd	a4,8(s9)
   10b76:	9736                	add	a4,a4,a3
   10b78:	ea3a                	sd	a4,272(sp)
   10b7a:	10b12423          	sw	a1,264(sp)
   10b7e:	471d                	li	a4,7
   10b80:	8caa                	mv	s9,a0
   10b82:	00b75b63          	ble	a1,a4,10b98 <_vfprintf_r+0x526>
   10b86:	0210                	addi	a2,sp,256
   10b88:	85ca                	mv	a1,s2
   10b8a:	854e                	mv	a0,s3
   10b8c:	25a060ef          	jal	ra,16de6 <__sprint_r>
   10b90:	c119                	beqz	a0,10b96 <_vfprintf_r+0x524>
   10b92:	0420106f          	j	11bd4 <_vfprintf_r+0x1562>
   10b96:	8cd6                	mv	s9,s5
   10b98:	10047693          	andi	a3,s0,256
   10b9c:	6752                	ld	a4,272(sp)
   10b9e:	100699e3          	bnez	a3,114b0 <_vfprintf_r+0xe3e>
   10ba2:	10812783          	lw	a5,264(sp)
   10ba6:	00ed8e33          	add	t3,s11,a4
   10baa:	009cb023          	sd	s1,0(s9)
   10bae:	0017871b          	addiw	a4,a5,1
   10bb2:	01bcb423          	sd	s11,8(s9)
   10bb6:	ea72                	sd	t3,272(sp)
   10bb8:	10e12423          	sw	a4,264(sp)
   10bbc:	479d                	li	a5,7
   10bbe:	0cc1                	addi	s9,s9,16
   10bc0:	1ce7d4e3          	ble	a4,a5,11588 <_vfprintf_r+0xf16>
   10bc4:	0210                	addi	a2,sp,256
   10bc6:	85ca                	mv	a1,s2
   10bc8:	854e                	mv	a0,s3
   10bca:	21c060ef          	jal	ra,16de6 <__sprint_r>
   10bce:	c119                	beqz	a0,10bd4 <_vfprintf_r+0x562>
   10bd0:	0040106f          	j	11bd4 <_vfprintf_r+0x1562>
   10bd4:	8cd6                	mv	s9,s5
   10bd6:	1b30006f          	j	11588 <_vfprintf_r+0xf16>
   10bda:	01046413          	ori	s0,s0,16
   10bde:	2401                	sext.w	s0,s0
   10be0:	008b8793          	addi	a5,s7,8
   10be4:	f83e                	sd	a5,48(sp)
   10be6:	02047793          	andi	a5,s0,32
   10bea:	cb85                	beqz	a5,10c1a <_vfprintf_r+0x5a8>
   10bec:	000bbb83          	ld	s7,0(s7)
   10bf0:	000bd863          	bgez	s7,10c00 <_vfprintf_r+0x58e>
   10bf4:	02d00793          	li	a5,45
   10bf8:	41700bb3          	neg	s7,s7
   10bfc:	0cf107a3          	sb	a5,207(sp)
   10c00:	57fd                	li	a5,-1
   10c02:	6efd9963          	bne	s11,a5,112f4 <_vfprintf_r+0xc82>
   10c06:	47a5                	li	a5,9
   10c08:	7577e463          	bltu	a5,s7,11350 <_vfprintf_r+0xcde>
   10c0c:	030b8b9b          	addiw	s7,s7,48
   10c10:	17710da3          	sb	s7,379(sp)
   10c14:	17b10493          	addi	s1,sp,379
   10c18:	af39                	j	11336 <_vfprintf_r+0xcc4>
   10c1a:	01047793          	andi	a5,s0,16
   10c1e:	f7f9                	bnez	a5,10bec <_vfprintf_r+0x57a>
   10c20:	04047793          	andi	a5,s0,64
   10c24:	c781                	beqz	a5,10c2c <_vfprintf_r+0x5ba>
   10c26:	000b9b83          	lh	s7,0(s7)
   10c2a:	b7d9                	j	10bf0 <_vfprintf_r+0x57e>
   10c2c:	20047793          	andi	a5,s0,512
   10c30:	c781                	beqz	a5,10c38 <_vfprintf_r+0x5c6>
   10c32:	000b8b83          	lb	s7,0(s7)
   10c36:	bf6d                	j	10bf0 <_vfprintf_r+0x57e>
   10c38:	000bab83          	lw	s7,0(s7)
   10c3c:	bf55                	j	10bf0 <_vfprintf_r+0x57e>
   10c3e:	00847793          	andi	a5,s0,8
   10c42:	cfb9                	beqz	a5,10ca0 <_vfprintf_r+0x62e>
   10c44:	0bbd                	addi	s7,s7,15
   10c46:	ff0bfb93          	andi	s7,s7,-16
   10c4a:	010b8793          	addi	a5,s7,16
   10c4e:	f83e                	sd	a5,48(sp)
   10c50:	000bb783          	ld	a5,0(s7)
   10c54:	f9be                	sd	a5,240(sp)
   10c56:	008bb783          	ld	a5,8(s7)
   10c5a:	fdbe                	sd	a5,248(sp)
   10c5c:	1988                	addi	a0,sp,240
   10c5e:	2d8030ef          	jal	ra,13f36 <_ldcheck>
   10c62:	cdaa                	sw	a0,216(sp)
   10c64:	4789                	li	a5,2
   10c66:	04f51c63          	bne	a0,a5,10cbe <_vfprintf_r+0x64c>
   10c6a:	754e                	ld	a0,240(sp)
   10c6c:	75ee                	ld	a1,248(sp)
   10c6e:	4601                	li	a2,0
   10c70:	4681                	li	a3,0
   10c72:	583070ef          	jal	ra,189f4 <__letf2>
   10c76:	00055663          	bgez	a0,10c82 <_vfprintf_r+0x610>
   10c7a:	02d00793          	li	a5,45
   10c7e:	0cf107a3          	sb	a5,207(sp)
   10c82:	04700793          	li	a5,71
   10c86:	0367c763          	blt	a5,s6,10cb4 <_vfprintf_r+0x642>
   10c8a:	0001a4b7          	lui	s1,0x1a
   10c8e:	fd048493          	addi	s1,s1,-48 # 19fd0 <zeroes.4441+0x48>
   10c92:	f7f47413          	andi	s0,s0,-129
   10c96:	2401                	sext.w	s0,s0
   10c98:	4b81                	li	s7,0
   10c9a:	4d8d                	li	s11,3
   10c9c:	4701                	li	a4,0
   10c9e:	a555                	j	11342 <_vfprintf_r+0xcd0>
   10ca0:	000bb507          	fld	fa0,0(s7)
   10ca4:	008b8793          	addi	a5,s7,8
   10ca8:	f83e                	sd	a5,48(sp)
   10caa:	575080ef          	jal	ra,19a1e <__extenddftf2>
   10cae:	f9aa                	sd	a0,240(sp)
   10cb0:	fdae                	sd	a1,248(sp)
   10cb2:	b76d                	j	10c5c <_vfprintf_r+0x5ea>
   10cb4:	0001a4b7          	lui	s1,0x1a
   10cb8:	fd848493          	addi	s1,s1,-40 # 19fd8 <zeroes.4441+0x50>
   10cbc:	bfd9                	j	10c92 <_vfprintf_r+0x620>
   10cbe:	4785                	li	a5,1
   10cc0:	02f51763          	bne	a0,a5,10cee <_vfprintf_r+0x67c>
   10cc4:	77ee                	ld	a5,248(sp)
   10cc6:	0007d663          	bgez	a5,10cd2 <_vfprintf_r+0x660>
   10cca:	02d00793          	li	a5,45
   10cce:	0cf107a3          	sb	a5,207(sp)
   10cd2:	04700793          	li	a5,71
   10cd6:	0167c763          	blt	a5,s6,10ce4 <_vfprintf_r+0x672>
   10cda:	0001a4b7          	lui	s1,0x1a
   10cde:	fe048493          	addi	s1,s1,-32 # 19fe0 <zeroes.4441+0x58>
   10ce2:	bf45                	j	10c92 <_vfprintf_r+0x620>
   10ce4:	0001a4b7          	lui	s1,0x1a
   10ce8:	fe848493          	addi	s1,s1,-24 # 19fe8 <zeroes.4441+0x60>
   10cec:	b75d                	j	10c92 <_vfprintf_r+0x620>
   10cee:	fdfb7c13          	andi	s8,s6,-33
   10cf2:	04100793          	li	a5,65
   10cf6:	04fc1c63          	bne	s8,a5,10d4e <_vfprintf_r+0x6dc>
   10cfa:	03000793          	li	a5,48
   10cfe:	0cf10823          	sb	a5,208(sp)
   10d02:	06100713          	li	a4,97
   10d06:	05800793          	li	a5,88
   10d0a:	00eb1463          	bne	s6,a4,10d12 <_vfprintf_r+0x6a0>
   10d0e:	07800793          	li	a5,120
   10d12:	0cf108a3          	sb	a5,209(sp)
   10d16:	00246413          	ori	s0,s0,2
   10d1a:	06300793          	li	a5,99
   10d1e:	2401                	sext.w	s0,s0
   10d20:	15b7db63          	ble	s11,a5,10e76 <_vfprintf_r+0x804>
   10d24:	001d859b          	addiw	a1,s11,1
   10d28:	854e                	mv	a0,s3
   10d2a:	3fc030ef          	jal	ra,14126 <_malloc_r>
   10d2e:	84aa                	mv	s1,a0
   10d30:	14051663          	bnez	a0,10e7c <_vfprintf_r+0x80a>
   10d34:	01095783          	lhu	a5,16(s2)
   10d38:	0407e793          	ori	a5,a5,64
   10d3c:	00f91823          	sh	a5,16(s2)
   10d40:	01095783          	lhu	a5,16(s2)
   10d44:	0407f793          	andi	a5,a5,64
   10d48:	9e0780e3          	beqz	a5,10728 <_vfprintf_r+0xb6>
   10d4c:	b40d                	j	1076e <_vfprintf_r+0xfc>
   10d4e:	57fd                	li	a5,-1
   10d50:	12fd8863          	beq	s11,a5,10e80 <_vfprintf_r+0x80e>
   10d54:	04700793          	li	a5,71
   10d58:	4b81                	li	s7,0
   10d5a:	00fc1463          	bne	s8,a5,10d62 <_vfprintf_r+0x6f0>
   10d5e:	120d8463          	beqz	s11,10e86 <_vfprintf_r+0x814>
   10d62:	10046793          	ori	a5,s0,256
   10d66:	7a6e                	ld	s4,248(sp)
   10d68:	2781                	sext.w	a5,a5
   10d6a:	fc3e                	sd	a5,56(sp)
   10d6c:	fc82                	sd	zero,120(sp)
   10d6e:	7ece                	ld	t4,240(sp)
   10d70:	000a5963          	bgez	s4,10d82 <_vfprintf_r+0x710>
   10d74:	57fd                	li	a5,-1
   10d76:	17fe                	slli	a5,a5,0x3f
   10d78:	00fa4a33          	xor	s4,s4,a5
   10d7c:	02d00793          	li	a5,45
   10d80:	fcbe                	sd	a5,120(sp)
   10d82:	04100793          	li	a5,65
   10d86:	22fc1363          	bne	s8,a5,10fac <_vfprintf_r+0x93a>
   10d8a:	8576                	mv	a0,t4
   10d8c:	85d2                	mv	a1,s4
   10d8e:	575080ef          	jal	ra,19b02 <__trunctfdf2>
   10d92:	09a8                	addi	a0,sp,216
   10d94:	7ec040ef          	jal	ra,15580 <frexp>
   10d98:	487080ef          	jal	ra,19a1e <__extenddftf2>
   10d9c:	768a                	ld	a3,160(sp)
   10d9e:	4601                	li	a2,0
   10da0:	519070ef          	jal	ra,18ab8 <__multf3>
   10da4:	4601                	li	a2,0
   10da6:	4681                	li	a3,0
   10da8:	e12a                	sd	a0,128(sp)
   10daa:	e52e                	sd	a1,136(sp)
   10dac:	2e1070ef          	jal	ra,1888c <__eqtf2>
   10db0:	e119                	bnez	a0,10db6 <_vfprintf_r+0x744>
   10db2:	4785                	li	a5,1
   10db4:	cdbe                	sw	a5,216(sp)
   10db6:	06100793          	li	a5,97
   10dba:	0cfb1963          	bne	s6,a5,10e8c <_vfprintf_r+0x81a>
   10dbe:	0001a7b7          	lui	a5,0x1a
   10dc2:	ff078793          	addi	a5,a5,-16 # 19ff0 <zeroes.4441+0x68>
   10dc6:	e43e                	sd	a5,8(sp)
   10dc8:	fffd871b          	addiw	a4,s11,-1
   10dcc:	8a26                	mv	s4,s1
   10dce:	76aa                	ld	a3,168(sp)
   10dd0:	650a                	ld	a0,128(sp)
   10dd2:	65aa                	ld	a1,136(sp)
   10dd4:	4601                	li	a2,0
   10dd6:	f93a                	sd	a4,176(sp)
   10dd8:	4e1070ef          	jal	ra,18ab8 <__multf3>
   10ddc:	8d2a                	mv	s10,a0
   10dde:	f4ae                	sd	a1,104(sp)
   10de0:	32f080ef          	jal	ra,1990e <__fixtfsi>
   10de4:	0005079b          	sext.w	a5,a0
   10de8:	f8be                	sd	a5,112(sp)
   10dea:	3b7080ef          	jal	ra,199a0 <__floatsitf>
   10dee:	77a6                	ld	a5,104(sp)
   10df0:	86ae                	mv	a3,a1
   10df2:	862a                	mv	a2,a0
   10df4:	85be                	mv	a1,a5
   10df6:	856a                	mv	a0,s10
   10df8:	306080ef          	jal	ra,190fe <__subtf3>
   10dfc:	67a2                	ld	a5,8(sp)
   10dfe:	7746                	ld	a4,112(sp)
   10e00:	0a05                	addi	s4,s4,1
   10e02:	e12a                	sd	a0,128(sp)
   10e04:	00e786b3          	add	a3,a5,a4
   10e08:	774a                	ld	a4,176(sp)
   10e0a:	0006c683          	lbu	a3,0(a3) # 2000 <_start-0xe0b0>
   10e0e:	e52e                	sd	a1,136(sp)
   10e10:	0007079b          	sext.w	a5,a4
   10e14:	f4be                	sd	a5,104(sp)
   10e16:	feda0fa3          	sb	a3,-1(s4)
   10e1a:	57fd                	li	a5,-1
   10e1c:	88aa                	mv	a7,a0
   10e1e:	8d2e                	mv	s10,a1
   10e20:	06f70b63          	beq	a4,a5,10e96 <_vfprintf_r+0x824>
   10e24:	377d                	addiw	a4,a4,-1
   10e26:	4601                	li	a2,0
   10e28:	4681                	li	a3,0
   10e2a:	f93a                	sd	a4,176(sp)
   10e2c:	fd2a                	sd	a0,184(sp)
   10e2e:	25f070ef          	jal	ra,1888c <__eqtf2>
   10e32:	774a                	ld	a4,176(sp)
   10e34:	78ea                	ld	a7,184(sp)
   10e36:	fd41                	bnez	a0,10dce <_vfprintf_r+0x75c>
   10e38:	66ca                	ld	a3,144(sp)
   10e3a:	4601                	li	a2,0
   10e3c:	8546                	mv	a0,a7
   10e3e:	85ea                	mv	a1,s10
   10e40:	e146                	sd	a7,128(sp)
   10e42:	2ef070ef          	jal	ra,18930 <__getf2>
   10e46:	04a04b63          	bgtz	a0,10e9c <_vfprintf_r+0x82a>
   10e4a:	688a                	ld	a7,128(sp)
   10e4c:	66ca                	ld	a3,144(sp)
   10e4e:	4601                	li	a2,0
   10e50:	8546                	mv	a0,a7
   10e52:	85ea                	mv	a1,s10
   10e54:	239070ef          	jal	ra,1888c <__eqtf2>
   10e58:	e509                	bnez	a0,10e62 <_vfprintf_r+0x7f0>
   10e5a:	77c6                	ld	a5,112(sp)
   10e5c:	0017f713          	andi	a4,a5,1
   10e60:	ef15                	bnez	a4,10e9c <_vfprintf_r+0x82a>
   10e62:	5726                	lw	a4,104(sp)
   10e64:	03000693          	li	a3,48
   10e68:	06074163          	bltz	a4,10eca <_vfprintf_r+0x858>
   10e6c:	0a05                	addi	s4,s4,1
   10e6e:	feda0fa3          	sb	a3,-1(s4)
   10e72:	377d                	addiw	a4,a4,-1
   10e74:	bfd5                	j	10e68 <_vfprintf_r+0x7f6>
   10e76:	4b81                	li	s7,0
   10e78:	0a24                	addi	s1,sp,280
   10e7a:	b5e5                	j	10d62 <_vfprintf_r+0x6f0>
   10e7c:	8baa                	mv	s7,a0
   10e7e:	b5d5                	j	10d62 <_vfprintf_r+0x6f0>
   10e80:	4b81                	li	s7,0
   10e82:	4d99                	li	s11,6
   10e84:	bdf9                	j	10d62 <_vfprintf_r+0x6f0>
   10e86:	8bee                	mv	s7,s11
   10e88:	4d85                	li	s11,1
   10e8a:	bde1                	j	10d62 <_vfprintf_r+0x6f0>
   10e8c:	0001a7b7          	lui	a5,0x1a
   10e90:	00878793          	addi	a5,a5,8 # 1a008 <zeroes.4441+0x80>
   10e94:	bf0d                	j	10dc6 <_vfprintf_r+0x754>
   10e96:	57fd                	li	a5,-1
   10e98:	f4be                	sd	a5,104(sp)
   10e9a:	bf79                	j	10e38 <_vfprintf_r+0x7c6>
   10e9c:	67a2                	ld	a5,8(sp)
   10e9e:	f5d2                	sd	s4,232(sp)
   10ea0:	03000593          	li	a1,48
   10ea4:	00f7c603          	lbu	a2,15(a5)
   10ea8:	76ae                	ld	a3,232(sp)
   10eaa:	fff68713          	addi	a4,a3,-1
   10eae:	f5ba                	sd	a4,232(sp)
   10eb0:	fff6c703          	lbu	a4,-1(a3)
   10eb4:	0ec70563          	beq	a4,a2,10f9e <_vfprintf_r+0x92c>
   10eb8:	03900613          	li	a2,57
   10ebc:	0ec71463          	bne	a4,a2,10fa4 <_vfprintf_r+0x932>
   10ec0:	67a2                	ld	a5,8(sp)
   10ec2:	00a7c703          	lbu	a4,10(a5)
   10ec6:	fee68fa3          	sb	a4,-1(a3)
   10eca:	04700713          	li	a4,71
   10ece:	409a0a3b          	subw	s4,s4,s1
   10ed2:	4d6e                	lw	s10,216(sp)
   10ed4:	18ec1463          	bne	s8,a4,1105c <_vfprintf_r+0x9ea>
   10ed8:	5775                	li	a4,-3
   10eda:	00ed4463          	blt	s10,a4,10ee2 <_vfprintf_r+0x870>
   10ede:	1fadd463          	ble	s10,s11,110c6 <_vfprintf_r+0xa54>
   10ee2:	3b79                	addiw	s6,s6,-2
   10ee4:	fffd069b          	addiw	a3,s10,-1
   10ee8:	cdb6                	sw	a3,216(sp)
   10eea:	fdfb7613          	andi	a2,s6,-33
   10eee:	04100513          	li	a0,65
   10ef2:	0ffb7713          	andi	a4,s6,255
   10ef6:	4581                	li	a1,0
   10ef8:	00a61663          	bne	a2,a0,10f04 <_vfprintf_r+0x892>
   10efc:	273d                	addiw	a4,a4,15
   10efe:	0ff77713          	andi	a4,a4,255
   10f02:	4585                	li	a1,1
   10f04:	0ee10023          	sb	a4,224(sp)
   10f08:	02b00793          	li	a5,43
   10f0c:	0006d763          	bgez	a3,10f1a <_vfprintf_r+0x8a8>
   10f10:	4685                	li	a3,1
   10f12:	41a686bb          	subw	a3,a3,s10
   10f16:	02d00793          	li	a5,45
   10f1a:	0ef100a3          	sb	a5,225(sp)
   10f1e:	47a5                	li	a5,9
   10f20:	16d7da63          	ble	a3,a5,11094 <_vfprintf_r+0xa22>
   10f24:	0ef10713          	addi	a4,sp,239
   10f28:	853a                	mv	a0,a4
   10f2a:	45a9                	li	a1,10
   10f2c:	4825                	li	a6,9
   10f2e:	02b6e7bb          	remw	a5,a3,a1
   10f32:	fff70613          	addi	a2,a4,-1
   10f36:	02b6c6bb          	divw	a3,a3,a1
   10f3a:	0307879b          	addiw	a5,a5,48
   10f3e:	fef70fa3          	sb	a5,-1(a4)
   10f42:	14d84063          	blt	a6,a3,11082 <_vfprintf_r+0xa10>
   10f46:	0306879b          	addiw	a5,a3,48
   10f4a:	fef60fa3          	sb	a5,-1(a2)
   10f4e:	1779                	addi	a4,a4,-2
   10f50:	0e210613          	addi	a2,sp,226
   10f54:	12a76963          	bltu	a4,a0,11086 <_vfprintf_r+0xa14>
   10f58:	119c                	addi	a5,sp,224
   10f5a:	40f607bb          	subw	a5,a2,a5
   10f5e:	ecbe                	sd	a5,88(sp)
   10f60:	47e6                	lw	a5,88(sp)
   10f62:	4705                	li	a4,1
   10f64:	01478dbb          	addw	s11,a5,s4
   10f68:	87ee                	mv	a5,s11
   10f6a:	01474563          	blt	a4,s4,10f74 <_vfprintf_r+0x902>
   10f6e:	00147713          	andi	a4,s0,1
   10f72:	c701                	beqz	a4,10f7a <_vfprintf_r+0x908>
   10f74:	4762                	lw	a4,24(sp)
   10f76:	00e78dbb          	addw	s11,a5,a4
   10f7a:	bff47413          	andi	s0,s0,-1025
   10f7e:	2401                	sext.w	s0,s0
   10f80:	10046793          	ori	a5,s0,256
   10f84:	fc3e                	sd	a5,56(sp)
   10f86:	e402                	sd	zero,8(sp)
   10f88:	4c01                	li	s8,0
   10f8a:	4d01                	li	s10,0
   10f8c:	77e6                	ld	a5,120(sp)
   10f8e:	c789                	beqz	a5,10f98 <_vfprintf_r+0x926>
   10f90:	02d00713          	li	a4,45
   10f94:	0ce107a3          	sb	a4,207(sp)
   10f98:	7462                	ld	s0,56(sp)
   10f9a:	4701                	li	a4,0
   10f9c:	bc2d                	j	109d6 <_vfprintf_r+0x364>
   10f9e:	feb68fa3          	sb	a1,-1(a3)
   10fa2:	b719                	j	10ea8 <_vfprintf_r+0x836>
   10fa4:	2705                	addiw	a4,a4,1
   10fa6:	0ff77713          	andi	a4,a4,255
   10faa:	bf31                	j	10ec6 <_vfprintf_r+0x854>
   10fac:	04600793          	li	a5,70
   10fb0:	00fc0b63          	beq	s8,a5,10fc6 <_vfprintf_r+0x954>
   10fb4:	04500793          	li	a5,69
   10fb8:	8d6e                	mv	s10,s11
   10fba:	00fc1463          	bne	s8,a5,10fc2 <_vfprintf_r+0x950>
   10fbe:	001d8d1b          	addiw	s10,s11,1
   10fc2:	4689                	li	a3,2
   10fc4:	a019                	j	10fca <_vfprintf_r+0x958>
   10fc6:	8d6e                	mv	s10,s11
   10fc8:	468d                	li	a3,3
   10fca:	09bc                	addi	a5,sp,216
   10fcc:	85f6                	mv	a1,t4
   10fce:	0e810893          	addi	a7,sp,232
   10fd2:	0dc10813          	addi	a6,sp,220
   10fd6:	876a                	mv	a4,s10
   10fd8:	8652                	mv	a2,s4
   10fda:	854e                	mv	a0,s3
   10fdc:	e476                	sd	t4,8(sp)
   10fde:	642020ef          	jal	ra,13620 <_ldtoa_r>
   10fe2:	04700793          	li	a5,71
   10fe6:	84aa                	mv	s1,a0
   10fe8:	6ea2                	ld	t4,8(sp)
   10fea:	00fc1563          	bne	s8,a5,10ff4 <_vfprintf_r+0x982>
   10fee:	00147793          	andi	a5,s0,1
   10ff2:	cbb1                	beqz	a5,11046 <_vfprintf_r+0x9d4>
   10ff4:	04600713          	li	a4,70
   10ff8:	01a487b3          	add	a5,s1,s10
   10ffc:	02ec1963          	bne	s8,a4,1102e <_vfprintf_r+0x9bc>
   11000:	0004c683          	lbu	a3,0(s1)
   11004:	03000713          	li	a4,48
   11008:	02e69163          	bne	a3,a4,1102a <_vfprintf_r+0x9b8>
   1100c:	8576                	mv	a0,t4
   1100e:	4601                	li	a2,0
   11010:	4681                	li	a3,0
   11012:	85d2                	mv	a1,s4
   11014:	f4be                	sd	a5,104(sp)
   11016:	e476                	sd	t4,8(sp)
   11018:	075070ef          	jal	ra,1888c <__eqtf2>
   1101c:	6ea2                	ld	t4,8(sp)
   1101e:	77a6                	ld	a5,104(sp)
   11020:	c509                	beqz	a0,1102a <_vfprintf_r+0x9b8>
   11022:	4705                	li	a4,1
   11024:	41a70d3b          	subw	s10,a4,s10
   11028:	cdea                	sw	s10,216(sp)
   1102a:	476e                	lw	a4,216(sp)
   1102c:	97ba                	add	a5,a5,a4
   1102e:	4681                	li	a3,0
   11030:	4601                	li	a2,0
   11032:	8576                	mv	a0,t4
   11034:	85d2                	mv	a1,s4
   11036:	e43e                	sd	a5,8(sp)
   11038:	055070ef          	jal	ra,1888c <__eqtf2>
   1103c:	67a2                	ld	a5,8(sp)
   1103e:	03000693          	li	a3,48
   11042:	e909                	bnez	a0,11054 <_vfprintf_r+0x9e2>
   11044:	f5be                	sd	a5,232(sp)
   11046:	7a2e                	ld	s4,232(sp)
   11048:	b549                	j	10eca <_vfprintf_r+0x858>
   1104a:	00170613          	addi	a2,a4,1
   1104e:	f5b2                	sd	a2,232(sp)
   11050:	00d70023          	sb	a3,0(a4)
   11054:	772e                	ld	a4,232(sp)
   11056:	fef76ae3          	bltu	a4,a5,1104a <_vfprintf_r+0x9d8>
   1105a:	b7f5                	j	11046 <_vfprintf_r+0x9d4>
   1105c:	04600713          	li	a4,70
   11060:	e8ec12e3          	bne	s8,a4,10ee4 <_vfprintf_r+0x872>
   11064:	05a05863          	blez	s10,110b4 <_vfprintf_r+0xa42>
   11068:	000d9563          	bnez	s11,11072 <_vfprintf_r+0xa00>
   1106c:	00147713          	andi	a4,s0,1
   11070:	cf59                	beqz	a4,1110e <_vfprintf_r+0xa9c>
   11072:	47e2                	lw	a5,24(sp)
   11074:	01a7873b          	addw	a4,a5,s10
   11078:	01b70dbb          	addw	s11,a4,s11
   1107c:	06600b13          	li	s6,102
   11080:	a895                	j	110f4 <_vfprintf_r+0xa82>
   11082:	8732                	mv	a4,a2
   11084:	b56d                	j	10f2e <_vfprintf_r+0x8bc>
   11086:	0705                	addi	a4,a4,1
   11088:	fff74783          	lbu	a5,-1(a4)
   1108c:	0605                	addi	a2,a2,1
   1108e:	fef60fa3          	sb	a5,-1(a2)
   11092:	b5c9                	j	10f54 <_vfprintf_r+0x8e2>
   11094:	0e210713          	addi	a4,sp,226
   11098:	e599                	bnez	a1,110a6 <_vfprintf_r+0xa34>
   1109a:	03000793          	li	a5,48
   1109e:	0ef10123          	sb	a5,226(sp)
   110a2:	0e310713          	addi	a4,sp,227
   110a6:	0306879b          	addiw	a5,a3,48
   110aa:	00170613          	addi	a2,a4,1
   110ae:	00f70023          	sb	a5,0(a4)
   110b2:	b55d                	j	10f58 <_vfprintf_r+0x8e6>
   110b4:	000d9563          	bnez	s11,110be <_vfprintf_r+0xa4c>
   110b8:	00147713          	andi	a4,s0,1
   110bc:	cb39                	beqz	a4,11112 <_vfprintf_r+0xaa0>
   110be:	47e2                	lw	a5,24(sp)
   110c0:	0017871b          	addiw	a4,a5,1
   110c4:	bf55                	j	11078 <_vfprintf_r+0xa06>
   110c6:	014d4c63          	blt	s10,s4,110de <_vfprintf_r+0xa6c>
   110ca:	00147713          	andi	a4,s0,1
   110ce:	8dea                	mv	s11,s10
   110d0:	c701                	beqz	a4,110d8 <_vfprintf_r+0xa66>
   110d2:	47e2                	lw	a5,24(sp)
   110d4:	01a78dbb          	addw	s11,a5,s10
   110d8:	06700b13          	li	s6,103
   110dc:	a821                	j	110f4 <_vfprintf_r+0xa82>
   110de:	47e2                	lw	a5,24(sp)
   110e0:	06700b13          	li	s6,103
   110e4:	01478dbb          	addw	s11,a5,s4
   110e8:	01a04663          	bgtz	s10,110f4 <_vfprintf_r+0xa82>
   110ec:	41ad8e3b          	subw	t3,s11,s10
   110f0:	001e0d9b          	addiw	s11,t3,1
   110f4:	40047413          	andi	s0,s0,1024
   110f8:	00040c1b          	sext.w	s8,s0
   110fc:	e402                	sd	zero,8(sp)
   110fe:	e80c07e3          	beqz	s8,10f8c <_vfprintf_r+0x91a>
   11102:	4c01                	li	s8,0
   11104:	e9a054e3          	blez	s10,10f8c <_vfprintf_r+0x91a>
   11108:	0ff00693          	li	a3,255
   1110c:	a01d                	j	11132 <_vfprintf_r+0xac0>
   1110e:	8dea                	mv	s11,s10
   11110:	b7b5                	j	1107c <_vfprintf_r+0xa0a>
   11112:	06600b13          	li	s6,102
   11116:	4d85                	li	s11,1
   11118:	bff1                	j	110f4 <_vfprintf_r+0xa82>
   1111a:	2701                	sext.w	a4,a4
   1111c:	03a75063          	ble	s10,a4,1113c <_vfprintf_r+0xaca>
   11120:	6782                	ld	a5,0(sp)
   11122:	40ed0d3b          	subw	s10,s10,a4
   11126:	0017c703          	lbu	a4,1(a5)
   1112a:	c315                	beqz	a4,1114e <_vfprintf_r+0xadc>
   1112c:	0785                	addi	a5,a5,1
   1112e:	2c05                	addiw	s8,s8,1
   11130:	e03e                	sd	a5,0(sp)
   11132:	6782                	ld	a5,0(sp)
   11134:	0007c703          	lbu	a4,0(a5)
   11138:	fed711e3          	bne	a4,a3,1111a <_vfprintf_r+0xaa8>
   1113c:	47a2                	lw	a5,8(sp)
   1113e:	00fc073b          	addw	a4,s8,a5
   11142:	4786                	lw	a5,64(sp)
   11144:	02f7073b          	mulw	a4,a4,a5
   11148:	01b70dbb          	addw	s11,a4,s11
   1114c:	b581                	j	10f8c <_vfprintf_r+0x91a>
   1114e:	47a2                	lw	a5,8(sp)
   11150:	2785                	addiw	a5,a5,1
   11152:	e43e                	sd	a5,8(sp)
   11154:	bff9                	j	11132 <_vfprintf_r+0xac0>
   11156:	008b8713          	addi	a4,s7,8
   1115a:	f83a                	sd	a4,48(sp)
   1115c:	02047713          	andi	a4,s0,32
   11160:	000bb783          	ld	a5,0(s7)
   11164:	c719                	beqz	a4,11172 <_vfprintf_r+0xb00>
   11166:	7722                	ld	a4,40(sp)
   11168:	e398                	sd	a4,0(a5)
   1116a:	7bc2                	ld	s7,48(sp)
   1116c:	64c2                	ld	s1,16(sp)
   1116e:	e48ff06f          	j	107b6 <_vfprintf_r+0x144>
   11172:	01047713          	andi	a4,s0,16
   11176:	fb65                	bnez	a4,11166 <_vfprintf_r+0xaf4>
   11178:	04047713          	andi	a4,s0,64
   1117c:	c711                	beqz	a4,11188 <_vfprintf_r+0xb16>
   1117e:	02815703          	lhu	a4,40(sp)
   11182:	00e79023          	sh	a4,0(a5)
   11186:	b7d5                	j	1116a <_vfprintf_r+0xaf8>
   11188:	20047413          	andi	s0,s0,512
   1118c:	c411                	beqz	s0,11198 <_vfprintf_r+0xb26>
   1118e:	02814703          	lbu	a4,40(sp)
   11192:	00e78023          	sb	a4,0(a5)
   11196:	bfd1                	j	1116a <_vfprintf_r+0xaf8>
   11198:	5722                	lw	a4,40(sp)
   1119a:	c398                	sw	a4,0(a5)
   1119c:	b7f9                	j	1116a <_vfprintf_r+0xaf8>
   1119e:	01046413          	ori	s0,s0,16
   111a2:	2401                	sext.w	s0,s0
   111a4:	008b8793          	addi	a5,s7,8
   111a8:	f83e                	sd	a5,48(sp)
   111aa:	02047793          	andi	a5,s0,32
   111ae:	cb85                	beqz	a5,111de <_vfprintf_r+0xb6c>
   111b0:	000bbb83          	ld	s7,0(s7)
   111b4:	bff47413          	andi	s0,s0,-1025
   111b8:	2401                	sext.w	s0,s0
   111ba:	4781                	li	a5,0
   111bc:	0c0107a3          	sb	zero,207(sp)
   111c0:	577d                	li	a4,-1
   111c2:	12ed8c63          	beq	s11,a4,112fa <_vfprintf_r+0xc88>
   111c6:	8722                	mv	a4,s0
   111c8:	f7f47413          	andi	s0,s0,-129
   111cc:	2401                	sext.w	s0,s0
   111ce:	120b9663          	bnez	s7,112fa <_vfprintf_r+0xc88>
   111d2:	200d8463          	beqz	s11,113da <_vfprintf_r+0xd68>
   111d6:	4705                	li	a4,1
   111d8:	12e79463          	bne	a5,a4,11300 <_vfprintf_r+0xc8e>
   111dc:	bc05                	j	10c0c <_vfprintf_r+0x59a>
   111de:	01047793          	andi	a5,s0,16
   111e2:	f7f9                	bnez	a5,111b0 <_vfprintf_r+0xb3e>
   111e4:	04047793          	andi	a5,s0,64
   111e8:	000bab83          	lw	s7,0(s7)
   111ec:	c789                	beqz	a5,111f6 <_vfprintf_r+0xb84>
   111ee:	1bc2                	slli	s7,s7,0x30
   111f0:	030bdb93          	srli	s7,s7,0x30
   111f4:	b7c1                	j	111b4 <_vfprintf_r+0xb42>
   111f6:	20047793          	andi	a5,s0,512
   111fa:	c781                	beqz	a5,11202 <_vfprintf_r+0xb90>
   111fc:	0ffbfb93          	andi	s7,s7,255
   11200:	bf55                	j	111b4 <_vfprintf_r+0xb42>
   11202:	1b82                	slli	s7,s7,0x20
   11204:	020bdb93          	srli	s7,s7,0x20
   11208:	b775                	j	111b4 <_vfprintf_r+0xb42>
   1120a:	008b8793          	addi	a5,s7,8
   1120e:	f83e                	sd	a5,48(sp)
   11210:	77e1                	lui	a5,0xffff8
   11212:	8307c793          	xori	a5,a5,-2000
   11216:	0cf11823          	sh	a5,208(sp)
   1121a:	0001a7b7          	lui	a5,0x1a
   1121e:	ff078793          	addi	a5,a5,-16 # 19ff0 <zeroes.4441+0x68>
   11222:	00246413          	ori	s0,s0,2
   11226:	f0be                	sd	a5,96(sp)
   11228:	000bbb83          	ld	s7,0(s7)
   1122c:	2401                	sext.w	s0,s0
   1122e:	4789                	li	a5,2
   11230:	07800b13          	li	s6,120
   11234:	b761                	j	111bc <_vfprintf_r+0xb4a>
   11236:	008b8793          	addi	a5,s7,8
   1123a:	f83e                	sd	a5,48(sp)
   1123c:	0c0107a3          	sb	zero,207(sp)
   11240:	57fd                	li	a5,-1
   11242:	000bb483          	ld	s1,0(s7)
   11246:	00fd8e63          	beq	s11,a5,11262 <_vfprintf_r+0xbf0>
   1124a:	866e                	mv	a2,s11
   1124c:	4581                	li	a1,0
   1124e:	8526                	mv	a0,s1
   11250:	404030ef          	jal	ra,14654 <memchr>
   11254:	8baa                	mv	s7,a0
   11256:	a40503e3          	beqz	a0,10c9c <_vfprintf_r+0x62a>
   1125a:	40950dbb          	subw	s11,a0,s1
   1125e:	4b81                	li	s7,0
   11260:	bc35                	j	10c9c <_vfprintf_r+0x62a>
   11262:	8526                	mv	a0,s1
   11264:	bfcff0ef          	jal	ra,10660 <strlen>
   11268:	00050d9b          	sext.w	s11,a0
   1126c:	bfcd                	j	1125e <_vfprintf_r+0xbec>
   1126e:	01046413          	ori	s0,s0,16
   11272:	2401                	sext.w	s0,s0
   11274:	008b8793          	addi	a5,s7,8
   11278:	f83e                	sd	a5,48(sp)
   1127a:	02047793          	andi	a5,s0,32
   1127e:	c789                	beqz	a5,11288 <_vfprintf_r+0xc16>
   11280:	000bbb83          	ld	s7,0(s7)
   11284:	4785                	li	a5,1
   11286:	bf1d                	j	111bc <_vfprintf_r+0xb4a>
   11288:	01047793          	andi	a5,s0,16
   1128c:	fbf5                	bnez	a5,11280 <_vfprintf_r+0xc0e>
   1128e:	04047793          	andi	a5,s0,64
   11292:	000bab83          	lw	s7,0(s7)
   11296:	c789                	beqz	a5,112a0 <_vfprintf_r+0xc2e>
   11298:	1bc2                	slli	s7,s7,0x30
   1129a:	030bdb93          	srli	s7,s7,0x30
   1129e:	b7dd                	j	11284 <_vfprintf_r+0xc12>
   112a0:	20047793          	andi	a5,s0,512
   112a4:	c781                	beqz	a5,112ac <_vfprintf_r+0xc3a>
   112a6:	0ffbfb93          	andi	s7,s7,255
   112aa:	bfe9                	j	11284 <_vfprintf_r+0xc12>
   112ac:	1b82                	slli	s7,s7,0x20
   112ae:	020bdb93          	srli	s7,s7,0x20
   112b2:	bfc9                	j	11284 <_vfprintf_r+0xc12>
   112b4:	0001a7b7          	lui	a5,0x1a
   112b8:	ff078793          	addi	a5,a5,-16 # 19ff0 <zeroes.4441+0x68>
   112bc:	d9eff06f          	j	1085a <_vfprintf_r+0x1e8>
   112c0:	01047793          	andi	a5,s0,16
   112c4:	da079363          	bnez	a5,1086a <_vfprintf_r+0x1f8>
   112c8:	04047793          	andi	a5,s0,64
   112cc:	000bab83          	lw	s7,0(s7)
   112d0:	c791                	beqz	a5,112dc <_vfprintf_r+0xc6a>
   112d2:	1bc2                	slli	s7,s7,0x30
   112d4:	030bdb93          	srli	s7,s7,0x30
   112d8:	d96ff06f          	j	1086e <_vfprintf_r+0x1fc>
   112dc:	20047793          	andi	a5,s0,512
   112e0:	c789                	beqz	a5,112ea <_vfprintf_r+0xc78>
   112e2:	0ffbfb93          	andi	s7,s7,255
   112e6:	d88ff06f          	j	1086e <_vfprintf_r+0x1fc>
   112ea:	1b82                	slli	s7,s7,0x20
   112ec:	020bdb93          	srli	s7,s7,0x20
   112f0:	d7eff06f          	j	1086e <_vfprintf_r+0x1fc>
   112f4:	8722                	mv	a4,s0
   112f6:	4785                	li	a5,1
   112f8:	bdc1                	j	111c8 <_vfprintf_r+0xb56>
   112fa:	4705                	li	a4,1
   112fc:	90e785e3          	beq	a5,a4,10c06 <_vfprintf_r+0x594>
   11300:	4709                	li	a4,2
   11302:	0ae78d63          	beq	a5,a4,113bc <_vfprintf_r+0xd4a>
   11306:	1afc                	addi	a5,sp,380
   11308:	007bf713          	andi	a4,s7,7
   1130c:	03070713          	addi	a4,a4,48
   11310:	fee78fa3          	sb	a4,-1(a5)
   11314:	003bdb93          	srli	s7,s7,0x3
   11318:	fff78493          	addi	s1,a5,-1
   1131c:	020b9863          	bnez	s7,1134c <_vfprintf_r+0xcda>
   11320:	00147693          	andi	a3,s0,1
   11324:	ca89                	beqz	a3,11336 <_vfprintf_r+0xcc4>
   11326:	03000693          	li	a3,48
   1132a:	00d70663          	beq	a4,a3,11336 <_vfprintf_r+0xcc4>
   1132e:	fed48fa3          	sb	a3,-1(s1)
   11332:	ffe78493          	addi	s1,a5,-2
   11336:	17c10e13          	addi	t3,sp,380
   1133a:	876e                	mv	a4,s11
   1133c:	4b81                	li	s7,0
   1133e:	409e0dbb          	subw	s11,t3,s1
   11342:	e402                	sd	zero,8(sp)
   11344:	4c01                	li	s8,0
   11346:	4d01                	li	s10,0
   11348:	e8eff06f          	j	109d6 <_vfprintf_r+0x364>
   1134c:	87a6                	mv	a5,s1
   1134e:	bf6d                	j	11308 <_vfprintf_r+0xc96>
   11350:	40047c13          	andi	s8,s0,1024
   11354:	4a01                	li	s4,0
   11356:	1afc                	addi	a5,sp,380
   11358:	4d29                	li	s10,10
   1135a:	2c01                	sext.w	s8,s8
   1135c:	0ff00693          	li	a3,255
   11360:	4825                	li	a6,9
   11362:	03abf733          	remu	a4,s7,s10
   11366:	fff78493          	addi	s1,a5,-1
   1136a:	2a05                	addiw	s4,s4,1
   1136c:	0307071b          	addiw	a4,a4,48
   11370:	fee78fa3          	sb	a4,-1(a5)
   11374:	020c0e63          	beqz	s8,113b0 <_vfprintf_r+0xd3e>
   11378:	6782                	ld	a5,0(sp)
   1137a:	0007c783          	lbu	a5,0(a5)
   1137e:	02fa1963          	bne	s4,a5,113b0 <_vfprintf_r+0xd3e>
   11382:	02d78763          	beq	a5,a3,113b0 <_vfprintf_r+0xd3e>
   11386:	03787563          	bleu	s7,a6,113b0 <_vfprintf_r+0xd3e>
   1138a:	6786                	ld	a5,64(sp)
   1138c:	65c6                	ld	a1,80(sp)
   1138e:	fc42                	sd	a6,56(sp)
   11390:	8c9d                	sub	s1,s1,a5
   11392:	863e                	mv	a2,a5
   11394:	8526                	mv	a0,s1
   11396:	e436                	sd	a3,8(sp)
   11398:	4a6040ef          	jal	ra,1583e <strncpy>
   1139c:	6782                	ld	a5,0(sp)
   1139e:	4a01                	li	s4,0
   113a0:	66a2                	ld	a3,8(sp)
   113a2:	0017c783          	lbu	a5,1(a5)
   113a6:	7862                	ld	a6,56(sp)
   113a8:	c781                	beqz	a5,113b0 <_vfprintf_r+0xd3e>
   113aa:	6782                	ld	a5,0(sp)
   113ac:	0785                	addi	a5,a5,1
   113ae:	e03e                	sd	a5,0(sp)
   113b0:	03abdbb3          	divu	s7,s7,s10
   113b4:	f80b81e3          	beqz	s7,11336 <_vfprintf_r+0xcc4>
   113b8:	87a6                	mv	a5,s1
   113ba:	b765                	j	11362 <_vfprintf_r+0xcf0>
   113bc:	1ae4                	addi	s1,sp,380
   113be:	7706                	ld	a4,96(sp)
   113c0:	00fbf793          	andi	a5,s7,15
   113c4:	14fd                	addi	s1,s1,-1
   113c6:	97ba                	add	a5,a5,a4
   113c8:	0007c783          	lbu	a5,0(a5)
   113cc:	004bdb93          	srli	s7,s7,0x4
   113d0:	00f48023          	sb	a5,0(s1)
   113d4:	fe0b95e3          	bnez	s7,113be <_vfprintf_r+0xd4c>
   113d8:	bfb9                	j	11336 <_vfprintf_r+0xcc4>
   113da:	1ae4                	addi	s1,sp,380
   113dc:	ffa9                	bnez	a5,11336 <_vfprintf_r+0xcc4>
   113de:	8b05                	andi	a4,a4,1
   113e0:	db39                	beqz	a4,11336 <_vfprintf_r+0xcc4>
   113e2:	03000793          	li	a5,48
   113e6:	16f10da3          	sb	a5,379(sp)
   113ea:	82bff06f          	j	10c14 <_vfprintf_r+0x5a2>
   113ee:	020b02e3          	beqz	s6,11c12 <_vfprintf_r+0x15a0>
   113f2:	11610c23          	sb	s6,280(sp)
   113f6:	0c0107a3          	sb	zero,207(sp)
   113fa:	f85e                	sd	s7,48(sp)
   113fc:	dccff06f          	j	109c8 <_vfprintf_r+0x356>
   11400:	0641                	addi	a2,a2,16
   11402:	011cb423          	sd	a7,8(s9)
   11406:	ea32                	sd	a2,272(sp)
   11408:	10b12423          	sw	a1,264(sp)
   1140c:	02aed463          	ble	a0,t4,11434 <_vfprintf_r+0xdc2>
   11410:	0210                	addi	a2,sp,256
   11412:	85ca                	mv	a1,s2
   11414:	854e                	mv	a0,s3
   11416:	fd76                	sd	t4,184(sp)
   11418:	f942                	sd	a6,176(sp)
   1141a:	e546                	sd	a7,136(sp)
   1141c:	e13a                	sd	a4,128(sp)
   1141e:	fcb6                	sd	a3,120(sp)
   11420:	1c7050ef          	jal	ra,16de6 <__sprint_r>
   11424:	7a051863          	bnez	a0,11bd4 <_vfprintf_r+0x1562>
   11428:	7eea                	ld	t4,184(sp)
   1142a:	784a                	ld	a6,176(sp)
   1142c:	68aa                	ld	a7,136(sp)
   1142e:	670a                	ld	a4,128(sp)
   11430:	76e6                	ld	a3,120(sp)
   11432:	8f56                	mv	t5,s5
   11434:	36c1                	addiw	a3,a3,-16
   11436:	8cfa                	mv	s9,t5
   11438:	de8ff06f          	j	10a20 <_vfprintf_r+0x3ae>
   1143c:	0641                	addi	a2,a2,16
   1143e:	011cb423          	sd	a7,8(s9)
   11442:	ea32                	sd	a2,272(sp)
   11444:	10b12423          	sw	a1,264(sp)
   11448:	02aed463          	ble	a0,t4,11470 <_vfprintf_r+0xdfe>
   1144c:	0210                	addi	a2,sp,256
   1144e:	85ca                	mv	a1,s2
   11450:	854e                	mv	a0,s3
   11452:	e576                	sd	t4,136(sp)
   11454:	e142                	sd	a6,128(sp)
   11456:	fcc6                	sd	a7,120(sp)
   11458:	f8ba                	sd	a4,112(sp)
   1145a:	f4b6                	sd	a3,104(sp)
   1145c:	18b050ef          	jal	ra,16de6 <__sprint_r>
   11460:	76051a63          	bnez	a0,11bd4 <_vfprintf_r+0x1562>
   11464:	6eaa                	ld	t4,136(sp)
   11466:	680a                	ld	a6,128(sp)
   11468:	78e6                	ld	a7,120(sp)
   1146a:	7746                	ld	a4,112(sp)
   1146c:	76a6                	ld	a3,104(sp)
   1146e:	8f56                	mv	t5,s5
   11470:	36c1                	addiw	a3,a3,-16
   11472:	8cfa                	mv	s9,t5
   11474:	e92ff06f          	j	10b06 <_vfprintf_r+0x494>
   11478:	06c1                	addi	a3,a3,16
   1147a:	011cb423          	sd	a7,8(s9)
   1147e:	ea36                	sd	a3,272(sp)
   11480:	10c12423          	sw	a2,264(sp)
   11484:	02bed263          	ble	a1,t4,114a8 <_vfprintf_r+0xe36>
   11488:	0210                	addi	a2,sp,256
   1148a:	85ca                	mv	a1,s2
   1148c:	854e                	mv	a0,s3
   1148e:	e176                	sd	t4,128(sp)
   11490:	fcc2                	sd	a6,120(sp)
   11492:	f8c6                	sd	a7,112(sp)
   11494:	f4ba                	sd	a4,104(sp)
   11496:	151050ef          	jal	ra,16de6 <__sprint_r>
   1149a:	72051d63          	bnez	a0,11bd4 <_vfprintf_r+0x1562>
   1149e:	6e8a                	ld	t4,128(sp)
   114a0:	7866                	ld	a6,120(sp)
   114a2:	78c6                	ld	a7,112(sp)
   114a4:	7726                	ld	a4,104(sp)
   114a6:	8556                	mv	a0,s5
   114a8:	3741                	addiw	a4,a4,-16
   114aa:	8caa                	mv	s9,a0
   114ac:	eaeff06f          	j	10b5a <_vfprintf_r+0x4e8>
   114b0:	06500693          	li	a3,101
   114b4:	5766df63          	ble	s6,a3,11a32 <_vfprintf_r+0x13c0>
   114b8:	754e                	ld	a0,240(sp)
   114ba:	75ee                	ld	a1,248(sp)
   114bc:	4601                	li	a2,0
   114be:	4681                	li	a3,0
   114c0:	f4ba                	sd	a4,104(sp)
   114c2:	3ca070ef          	jal	ra,1888c <__eqtf2>
   114c6:	7726                	ld	a4,104(sp)
   114c8:	10051e63          	bnez	a0,115e4 <_vfprintf_r+0xf72>
   114cc:	0001a7b7          	lui	a5,0x1a
   114d0:	02078793          	addi	a5,a5,32 # 1a020 <zeroes.4441+0x98>
   114d4:	00fcb023          	sd	a5,0(s9)
   114d8:	4785                	li	a5,1
   114da:	00fcb423          	sd	a5,8(s9)
   114de:	10812783          	lw	a5,264(sp)
   114e2:	0705                	addi	a4,a4,1
   114e4:	ea3a                	sd	a4,272(sp)
   114e6:	0017871b          	addiw	a4,a5,1
   114ea:	10e12423          	sw	a4,264(sp)
   114ee:	479d                	li	a5,7
   114f0:	0cc1                	addi	s9,s9,16
   114f2:	00e7da63          	ble	a4,a5,11506 <_vfprintf_r+0xe94>
   114f6:	0210                	addi	a2,sp,256
   114f8:	85ca                	mv	a1,s2
   114fa:	854e                	mv	a0,s3
   114fc:	0eb050ef          	jal	ra,16de6 <__sprint_r>
   11500:	6c051a63          	bnez	a0,11bd4 <_vfprintf_r+0x1562>
   11504:	8cd6                	mv	s9,s5
   11506:	47ee                	lw	a5,216(sp)
   11508:	0147c563          	blt	a5,s4,11512 <_vfprintf_r+0xea0>
   1150c:	00147793          	andi	a5,s0,1
   11510:	cfa5                	beqz	a5,11588 <_vfprintf_r+0xf16>
   11512:	67a6                	ld	a5,72(sp)
   11514:	6762                	ld	a4,24(sp)
   11516:	0cc1                	addi	s9,s9,16
   11518:	fefcb823          	sd	a5,-16(s9)
   1151c:	67e2                	ld	a5,24(sp)
   1151e:	fefcbc23          	sd	a5,-8(s9)
   11522:	67d2                	ld	a5,272(sp)
   11524:	97ba                	add	a5,a5,a4
   11526:	ea3e                	sd	a5,272(sp)
   11528:	10812783          	lw	a5,264(sp)
   1152c:	0017871b          	addiw	a4,a5,1
   11530:	10e12423          	sw	a4,264(sp)
   11534:	479d                	li	a5,7
   11536:	00e7da63          	ble	a4,a5,1154a <_vfprintf_r+0xed8>
   1153a:	0210                	addi	a2,sp,256
   1153c:	85ca                	mv	a1,s2
   1153e:	854e                	mv	a0,s3
   11540:	0a7050ef          	jal	ra,16de6 <__sprint_r>
   11544:	68051863          	bnez	a0,11bd4 <_vfprintf_r+0x1562>
   11548:	8cd6                	mv	s9,s5
   1154a:	fffa049b          	addiw	s1,s4,-1
   1154e:	02905d63          	blez	s1,11588 <_vfprintf_r+0xf16>
   11552:	6b69                	lui	s6,0x1a
   11554:	4c41                	li	s8,16
   11556:	f88b0b13          	addi	s6,s6,-120 # 19f88 <zeroes.4441>
   1155a:	4d1d                	li	s10,7
   1155c:	10812703          	lw	a4,264(sp)
   11560:	016cb023          	sd	s6,0(s9)
   11564:	67d2                	ld	a5,272(sp)
   11566:	0017069b          	addiw	a3,a4,1
   1156a:	8736                	mv	a4,a3
   1156c:	010c8613          	addi	a2,s9,16
   11570:	049c4763          	blt	s8,s1,115be <_vfprintf_r+0xf4c>
   11574:	009cb423          	sd	s1,8(s9)
   11578:	94be                	add	s1,s1,a5
   1157a:	ea26                	sd	s1,272(sp)
   1157c:	10d12423          	sw	a3,264(sp)
   11580:	479d                	li	a5,7
   11582:	8cb2                	mv	s9,a2
   11584:	e4d7c063          	blt	a5,a3,10bc4 <_vfprintf_r+0x552>
   11588:	8811                	andi	s0,s0,4
   1158a:	60041063          	bnez	s0,11b8a <_vfprintf_r+0x1518>
   1158e:	7702                	ld	a4,32(sp)
   11590:	76e2                	ld	a3,56(sp)
   11592:	5782                	lw	a5,32(sp)
   11594:	00d75363          	ble	a3,a4,1159a <_vfprintf_r+0xf28>
   11598:	57e2                	lw	a5,56(sp)
   1159a:	5722                	lw	a4,40(sp)
   1159c:	9fb9                	addw	a5,a5,a4
   1159e:	f43e                	sd	a5,40(sp)
   115a0:	67d2                	ld	a5,272(sp)
   115a2:	cb81                	beqz	a5,115b2 <_vfprintf_r+0xf40>
   115a4:	0210                	addi	a2,sp,256
   115a6:	85ca                	mv	a1,s2
   115a8:	854e                	mv	a0,s3
   115aa:	03d050ef          	jal	ra,16de6 <__sprint_r>
   115ae:	62051363          	bnez	a0,11bd4 <_vfprintf_r+0x1562>
   115b2:	10012423          	sw	zero,264(sp)
   115b6:	640b9963          	bnez	s7,11c08 <_vfprintf_r+0x1596>
   115ba:	8cd6                	mv	s9,s5
   115bc:	b67d                	j	1116a <_vfprintf_r+0xaf8>
   115be:	07c1                	addi	a5,a5,16
   115c0:	018cb423          	sd	s8,8(s9)
   115c4:	ea3e                	sd	a5,272(sp)
   115c6:	10e12423          	sw	a4,264(sp)
   115ca:	00dd5a63          	ble	a3,s10,115de <_vfprintf_r+0xf6c>
   115ce:	0210                	addi	a2,sp,256
   115d0:	85ca                	mv	a1,s2
   115d2:	854e                	mv	a0,s3
   115d4:	013050ef          	jal	ra,16de6 <__sprint_r>
   115d8:	5e051e63          	bnez	a0,11bd4 <_vfprintf_r+0x1562>
   115dc:	8656                	mv	a2,s5
   115de:	34c1                	addiw	s1,s1,-16
   115e0:	8cb2                	mv	s9,a2
   115e2:	bfad                	j	1155c <_vfprintf_r+0xeea>
   115e4:	46ee                	lw	a3,216(sp)
   115e6:	12d04163          	bgtz	a3,11708 <_vfprintf_r+0x1096>
   115ea:	0001a7b7          	lui	a5,0x1a
   115ee:	02078793          	addi	a5,a5,32 # 1a020 <zeroes.4441+0x98>
   115f2:	00fcb023          	sd	a5,0(s9)
   115f6:	4785                	li	a5,1
   115f8:	00fcb423          	sd	a5,8(s9)
   115fc:	10812783          	lw	a5,264(sp)
   11600:	0705                	addi	a4,a4,1
   11602:	ea3a                	sd	a4,272(sp)
   11604:	0017871b          	addiw	a4,a5,1
   11608:	10e12423          	sw	a4,264(sp)
   1160c:	479d                	li	a5,7
   1160e:	0cc1                	addi	s9,s9,16
   11610:	00e7da63          	ble	a4,a5,11624 <_vfprintf_r+0xfb2>
   11614:	0210                	addi	a2,sp,256
   11616:	85ca                	mv	a1,s2
   11618:	854e                	mv	a0,s3
   1161a:	7cc050ef          	jal	ra,16de6 <__sprint_r>
   1161e:	5a051b63          	bnez	a0,11bd4 <_vfprintf_r+0x1562>
   11622:	8cd6                	mv	s9,s5
   11624:	47ee                	lw	a5,216(sp)
   11626:	e791                	bnez	a5,11632 <_vfprintf_r+0xfc0>
   11628:	000a1563          	bnez	s4,11632 <_vfprintf_r+0xfc0>
   1162c:	00147793          	andi	a5,s0,1
   11630:	dfa1                	beqz	a5,11588 <_vfprintf_r+0xf16>
   11632:	67a6                	ld	a5,72(sp)
   11634:	6762                	ld	a4,24(sp)
   11636:	010c8313          	addi	t1,s9,16
   1163a:	00fcb023          	sd	a5,0(s9)
   1163e:	67e2                	ld	a5,24(sp)
   11640:	00fcb423          	sd	a5,8(s9)
   11644:	67d2                	ld	a5,272(sp)
   11646:	97ba                	add	a5,a5,a4
   11648:	ea3e                	sd	a5,272(sp)
   1164a:	10812783          	lw	a5,264(sp)
   1164e:	0017871b          	addiw	a4,a5,1
   11652:	10e12423          	sw	a4,264(sp)
   11656:	479d                	li	a5,7
   11658:	00e7da63          	ble	a4,a5,1166c <_vfprintf_r+0xffa>
   1165c:	0210                	addi	a2,sp,256
   1165e:	85ca                	mv	a1,s2
   11660:	854e                	mv	a0,s3
   11662:	784050ef          	jal	ra,16de6 <__sprint_r>
   11666:	56051763          	bnez	a0,11bd4 <_vfprintf_r+0x1562>
   1166a:	8356                	mv	t1,s5
   1166c:	4b6e                	lw	s6,216(sp)
   1166e:	040b5663          	bgez	s6,116ba <_vfprintf_r+0x1048>
   11672:	6c69                	lui	s8,0x1a
   11674:	41600b3b          	negw	s6,s6
   11678:	879a                	mv	a5,t1
   1167a:	4d41                	li	s10,16
   1167c:	f88c0c13          	addi	s8,s8,-120 # 19f88 <zeroes.4441>
   11680:	4c9d                	li	s9,7
   11682:	10812683          	lw	a3,264(sp)
   11686:	0187b023          	sd	s8,0(a5)
   1168a:	6752                	ld	a4,272(sp)
   1168c:	0016861b          	addiw	a2,a3,1
   11690:	86b2                	mv	a3,a2
   11692:	0341                	addi	t1,t1,16
   11694:	056d4763          	blt	s10,s6,116e2 <_vfprintf_r+0x1070>
   11698:	0167b423          	sd	s6,8(a5)
   1169c:	9b3a                	add	s6,s6,a4
   1169e:	ea5a                	sd	s6,272(sp)
   116a0:	10c12423          	sw	a2,264(sp)
   116a4:	479d                	li	a5,7
   116a6:	00c7da63          	ble	a2,a5,116ba <_vfprintf_r+0x1048>
   116aa:	0210                	addi	a2,sp,256
   116ac:	85ca                	mv	a1,s2
   116ae:	854e                	mv	a0,s3
   116b0:	736050ef          	jal	ra,16de6 <__sprint_r>
   116b4:	52051063          	bnez	a0,11bd4 <_vfprintf_r+0x1562>
   116b8:	8356                	mv	t1,s5
   116ba:	67d2                	ld	a5,272(sp)
   116bc:	00933023          	sd	s1,0(t1) # 0 <_start-0x100b0>
   116c0:	01433423          	sd	s4,8(t1)
   116c4:	97d2                	add	a5,a5,s4
   116c6:	ea3e                	sd	a5,272(sp)
   116c8:	10812783          	lw	a5,264(sp)
   116cc:	01030c93          	addi	s9,t1,16
   116d0:	0017871b          	addiw	a4,a5,1
   116d4:	10e12423          	sw	a4,264(sp)
   116d8:	479d                	li	a5,7
   116da:	eae7d7e3          	ble	a4,a5,11588 <_vfprintf_r+0xf16>
   116de:	ce6ff06f          	j	10bc4 <_vfprintf_r+0x552>
   116e2:	0741                	addi	a4,a4,16
   116e4:	01a7b423          	sd	s10,8(a5)
   116e8:	ea3a                	sd	a4,272(sp)
   116ea:	10d12423          	sw	a3,264(sp)
   116ee:	00ccda63          	ble	a2,s9,11702 <_vfprintf_r+0x1090>
   116f2:	0210                	addi	a2,sp,256
   116f4:	85ca                	mv	a1,s2
   116f6:	854e                	mv	a0,s3
   116f8:	6ee050ef          	jal	ra,16de6 <__sprint_r>
   116fc:	4c051c63          	bnez	a0,11bd4 <_vfprintf_r+0x1562>
   11700:	8356                	mv	t1,s5
   11702:	3b41                	addiw	s6,s6,-16
   11704:	879a                	mv	a5,t1
   11706:	bfb5                	j	11682 <_vfprintf_r+0x1010>
   11708:	000d0b1b          	sext.w	s6,s10
   1170c:	01aa5463          	ble	s10,s4,11714 <_vfprintf_r+0x10a2>
   11710:	000a0b1b          	sext.w	s6,s4
   11714:	03605a63          	blez	s6,11748 <_vfprintf_r+0x10d6>
   11718:	975a                	add	a4,a4,s6
   1171a:	ea3a                	sd	a4,272(sp)
   1171c:	10812703          	lw	a4,264(sp)
   11720:	009cb023          	sd	s1,0(s9)
   11724:	016cb423          	sd	s6,8(s9)
   11728:	0017069b          	addiw	a3,a4,1
   1172c:	10d12423          	sw	a3,264(sp)
   11730:	471d                	li	a4,7
   11732:	0cc1                	addi	s9,s9,16
   11734:	00d75a63          	ble	a3,a4,11748 <_vfprintf_r+0x10d6>
   11738:	0210                	addi	a2,sp,256
   1173a:	85ca                	mv	a1,s2
   1173c:	854e                	mv	a0,s3
   1173e:	6a8050ef          	jal	ra,16de6 <__sprint_r>
   11742:	48051963          	bnez	a0,11bd4 <_vfprintf_r+0x1562>
   11746:	8cd6                	mv	s9,s5
   11748:	875a                	mv	a4,s6
   1174a:	000b5363          	bgez	s6,11750 <_vfprintf_r+0x10de>
   1174e:	4701                	li	a4,0
   11750:	40ed0b3b          	subw	s6,s10,a4
   11754:	05605563          	blez	s6,1179e <_vfprintf_r+0x112c>
   11758:	66e9                	lui	a3,0x1a
   1175a:	4841                	li	a6,16
   1175c:	f8868d93          	addi	s11,a3,-120 # 19f88 <zeroes.4441>
   11760:	489d                	li	a7,7
   11762:	10812603          	lw	a2,264(sp)
   11766:	01bcb023          	sd	s11,0(s9)
   1176a:	6752                	ld	a4,272(sp)
   1176c:	0016059b          	addiw	a1,a2,1
   11770:	862e                	mv	a2,a1
   11772:	010c8513          	addi	a0,s9,16
   11776:	15684263          	blt	a6,s6,118ba <_vfprintf_r+0x1248>
   1177a:	016cb423          	sd	s6,8(s9)
   1177e:	9b3a                	add	s6,s6,a4
   11780:	ea5a                	sd	s6,272(sp)
   11782:	10b12423          	sw	a1,264(sp)
   11786:	471d                	li	a4,7
   11788:	8caa                	mv	s9,a0
   1178a:	00b75a63          	ble	a1,a4,1179e <_vfprintf_r+0x112c>
   1178e:	0210                	addi	a2,sp,256
   11790:	85ca                	mv	a1,s2
   11792:	854e                	mv	a0,s3
   11794:	652050ef          	jal	ra,16de6 <__sprint_r>
   11798:	42051e63          	bnez	a0,11bd4 <_vfprintf_r+0x1562>
   1179c:	8cd6                	mv	s9,s5
   1179e:	40047793          	andi	a5,s0,1024
   117a2:	01a48b33          	add	s6,s1,s10
   117a6:	c39d                	beqz	a5,117cc <_vfprintf_r+0x115a>
   117a8:	014487b3          	add	a5,s1,s4
   117ac:	f4be                	sd	a5,104(sp)
   117ae:	67e9                	lui	a5,0x1a
   117b0:	f8878793          	addi	a5,a5,-120 # 19f88 <zeroes.4441>
   117b4:	4d9d                	li	s11,7
   117b6:	8d3e                	mv	s10,a5
   117b8:	67a2                	ld	a5,8(sp)
   117ba:	120c1763          	bnez	s8,118e8 <_vfprintf_r+0x1276>
   117be:	12079663          	bnez	a5,118ea <_vfprintf_r+0x1278>
   117c2:	014487b3          	add	a5,s1,s4
   117c6:	0167f363          	bleu	s6,a5,117cc <_vfprintf_r+0x115a>
   117ca:	8b3e                	mv	s6,a5
   117cc:	47ee                	lw	a5,216(sp)
   117ce:	0147c563          	blt	a5,s4,117d8 <_vfprintf_r+0x1166>
   117d2:	00147793          	andi	a5,s0,1
   117d6:	cf8d                	beqz	a5,11810 <_vfprintf_r+0x119e>
   117d8:	67a6                	ld	a5,72(sp)
   117da:	6762                	ld	a4,24(sp)
   117dc:	0cc1                	addi	s9,s9,16
   117de:	fefcb823          	sd	a5,-16(s9)
   117e2:	67e2                	ld	a5,24(sp)
   117e4:	fefcbc23          	sd	a5,-8(s9)
   117e8:	67d2                	ld	a5,272(sp)
   117ea:	97ba                	add	a5,a5,a4
   117ec:	ea3e                	sd	a5,272(sp)
   117ee:	10812783          	lw	a5,264(sp)
   117f2:	0017871b          	addiw	a4,a5,1
   117f6:	10e12423          	sw	a4,264(sp)
   117fa:	479d                	li	a5,7
   117fc:	00e7da63          	ble	a4,a5,11810 <_vfprintf_r+0x119e>
   11800:	0210                	addi	a2,sp,256
   11802:	85ca                	mv	a1,s2
   11804:	854e                	mv	a0,s3
   11806:	5e0050ef          	jal	ra,16de6 <__sprint_r>
   1180a:	3c051563          	bnez	a0,11bd4 <_vfprintf_r+0x1562>
   1180e:	8cd6                	mv	s9,s5
   11810:	4c6e                	lw	s8,216(sp)
   11812:	94d2                	add	s1,s1,s4
   11814:	416484bb          	subw	s1,s1,s6
   11818:	418a07bb          	subw	a5,s4,s8
   1181c:	8c3e                	mv	s8,a5
   1181e:	00f4d463          	ble	a5,s1,11826 <_vfprintf_r+0x11b4>
   11822:	00048c1b          	sext.w	s8,s1
   11826:	03805b63          	blez	s8,1185c <_vfprintf_r+0x11ea>
   1182a:	67d2                	ld	a5,272(sp)
   1182c:	016cb023          	sd	s6,0(s9)
   11830:	018cb423          	sd	s8,8(s9)
   11834:	97e2                	add	a5,a5,s8
   11836:	ea3e                	sd	a5,272(sp)
   11838:	10812783          	lw	a5,264(sp)
   1183c:	0cc1                	addi	s9,s9,16
   1183e:	0017871b          	addiw	a4,a5,1
   11842:	10e12423          	sw	a4,264(sp)
   11846:	479d                	li	a5,7
   11848:	00e7da63          	ble	a4,a5,1185c <_vfprintf_r+0x11ea>
   1184c:	0210                	addi	a2,sp,256
   1184e:	85ca                	mv	a1,s2
   11850:	854e                	mv	a0,s3
   11852:	594050ef          	jal	ra,16de6 <__sprint_r>
   11856:	36051f63          	bnez	a0,11bd4 <_vfprintf_r+0x1562>
   1185a:	8cd6                	mv	s9,s5
   1185c:	87e2                	mv	a5,s8
   1185e:	000c5363          	bgez	s8,11864 <_vfprintf_r+0x11f2>
   11862:	4781                	li	a5,0
   11864:	44ee                	lw	s1,216(sp)
   11866:	409a04bb          	subw	s1,s4,s1
   1186a:	9c9d                	subw	s1,s1,a5
   1186c:	d0905ee3          	blez	s1,11588 <_vfprintf_r+0xf16>
   11870:	6b69                	lui	s6,0x1a
   11872:	4c41                	li	s8,16
   11874:	f88b0b13          	addi	s6,s6,-120 # 19f88 <zeroes.4441>
   11878:	4d1d                	li	s10,7
   1187a:	10812703          	lw	a4,264(sp)
   1187e:	016cb023          	sd	s6,0(s9)
   11882:	67d2                	ld	a5,272(sp)
   11884:	0017069b          	addiw	a3,a4,1
   11888:	8736                	mv	a4,a3
   1188a:	010c8613          	addi	a2,s9,16
   1188e:	169c4f63          	blt	s8,s1,11a0c <_vfprintf_r+0x139a>
   11892:	009cb423          	sd	s1,8(s9)
   11896:	94be                	add	s1,s1,a5
   11898:	ea26                	sd	s1,272(sp)
   1189a:	10d12423          	sw	a3,264(sp)
   1189e:	479d                	li	a5,7
   118a0:	8cb2                	mv	s9,a2
   118a2:	ced7d3e3          	ble	a3,a5,11588 <_vfprintf_r+0xf16>
   118a6:	0210                	addi	a2,sp,256
   118a8:	85ca                	mv	a1,s2
   118aa:	854e                	mv	a0,s3
   118ac:	53a050ef          	jal	ra,16de6 <__sprint_r>
   118b0:	32051263          	bnez	a0,11bd4 <_vfprintf_r+0x1562>
   118b4:	18010c93          	addi	s9,sp,384
   118b8:	b9c1                	j	11588 <_vfprintf_r+0xf16>
   118ba:	0741                	addi	a4,a4,16
   118bc:	010cb423          	sd	a6,8(s9)
   118c0:	ea3a                	sd	a4,272(sp)
   118c2:	10c12423          	sw	a2,264(sp)
   118c6:	00b8de63          	ble	a1,a7,118e2 <_vfprintf_r+0x1270>
   118ca:	0210                	addi	a2,sp,256
   118cc:	85ca                	mv	a1,s2
   118ce:	854e                	mv	a0,s3
   118d0:	f8c6                	sd	a7,112(sp)
   118d2:	f4c2                	sd	a6,104(sp)
   118d4:	512050ef          	jal	ra,16de6 <__sprint_r>
   118d8:	2e051e63          	bnez	a0,11bd4 <_vfprintf_r+0x1562>
   118dc:	78c6                	ld	a7,112(sp)
   118de:	7826                	ld	a6,104(sp)
   118e0:	8556                	mv	a0,s5
   118e2:	3b41                	addiw	s6,s6,-16
   118e4:	8caa                	mv	s9,a0
   118e6:	bdb5                	j	11762 <_vfprintf_r+0x10f0>
   118e8:	c7d5                	beqz	a5,11994 <_vfprintf_r+0x1322>
   118ea:	47a2                	lw	a5,8(sp)
   118ec:	37fd                	addiw	a5,a5,-1
   118ee:	e43e                	sd	a5,8(sp)
   118f0:	67c6                	ld	a5,80(sp)
   118f2:	6706                	ld	a4,64(sp)
   118f4:	0cc1                	addi	s9,s9,16
   118f6:	fefcb823          	sd	a5,-16(s9)
   118fa:	6786                	ld	a5,64(sp)
   118fc:	fefcbc23          	sd	a5,-8(s9)
   11900:	67d2                	ld	a5,272(sp)
   11902:	97ba                	add	a5,a5,a4
   11904:	ea3e                	sd	a5,272(sp)
   11906:	10812783          	lw	a5,264(sp)
   1190a:	0017871b          	addiw	a4,a5,1
   1190e:	10e12423          	sw	a4,264(sp)
   11912:	00edda63          	ble	a4,s11,11926 <_vfprintf_r+0x12b4>
   11916:	0210                	addi	a2,sp,256
   11918:	85ca                	mv	a1,s2
   1191a:	854e                	mv	a0,s3
   1191c:	4ca050ef          	jal	ra,16de6 <__sprint_r>
   11920:	2a051a63          	bnez	a0,11bd4 <_vfprintf_r+0x1562>
   11924:	8cd6                	mv	s9,s5
   11926:	6702                	ld	a4,0(sp)
   11928:	57a6                	lw	a5,104(sp)
   1192a:	00074703          	lbu	a4,0(a4)
   1192e:	416787bb          	subw	a5,a5,s6
   11932:	00e7d463          	ble	a4,a5,1193a <_vfprintf_r+0x12c8>
   11936:	0007871b          	sext.w	a4,a5
   1193a:	02e05d63          	blez	a4,11974 <_vfprintf_r+0x1302>
   1193e:	67d2                	ld	a5,272(sp)
   11940:	016cb023          	sd	s6,0(s9)
   11944:	00ecb423          	sd	a4,8(s9)
   11948:	97ba                	add	a5,a5,a4
   1194a:	ea3e                	sd	a5,272(sp)
   1194c:	10812783          	lw	a5,264(sp)
   11950:	0cc1                	addi	s9,s9,16
   11952:	0017869b          	addiw	a3,a5,1
   11956:	10d12423          	sw	a3,264(sp)
   1195a:	00dddd63          	ble	a3,s11,11974 <_vfprintf_r+0x1302>
   1195e:	0210                	addi	a2,sp,256
   11960:	85ca                	mv	a1,s2
   11962:	854e                	mv	a0,s3
   11964:	f8ba                	sd	a4,112(sp)
   11966:	480050ef          	jal	ra,16de6 <__sprint_r>
   1196a:	26051563          	bnez	a0,11bd4 <_vfprintf_r+0x1562>
   1196e:	7746                	ld	a4,112(sp)
   11970:	18010c93          	addi	s9,sp,384
   11974:	86ba                	mv	a3,a4
   11976:	00075363          	bgez	a4,1197c <_vfprintf_r+0x130a>
   1197a:	4681                	li	a3,0
   1197c:	6782                	ld	a5,0(sp)
   1197e:	4841                	li	a6,16
   11980:	0007c783          	lbu	a5,0(a5)
   11984:	9f95                	subw	a5,a5,a3
   11986:	04f04463          	bgtz	a5,119ce <_vfprintf_r+0x135c>
   1198a:	6782                	ld	a5,0(sp)
   1198c:	0007c783          	lbu	a5,0(a5)
   11990:	9b3e                	add	s6,s6,a5
   11992:	b51d                	j	117b8 <_vfprintf_r+0x1146>
   11994:	6782                	ld	a5,0(sp)
   11996:	3c7d                	addiw	s8,s8,-1
   11998:	17fd                	addi	a5,a5,-1
   1199a:	e03e                	sd	a5,0(sp)
   1199c:	bf91                	j	118f0 <_vfprintf_r+0x127e>
   1199e:	0741                	addi	a4,a4,16
   119a0:	01acb023          	sd	s10,0(s9)
   119a4:	010cb423          	sd	a6,8(s9)
   119a8:	ea3a                	sd	a4,272(sp)
   119aa:	10d12423          	sw	a3,264(sp)
   119ae:	00cdde63          	ble	a2,s11,119ca <_vfprintf_r+0x1358>
   119b2:	0210                	addi	a2,sp,256
   119b4:	85ca                	mv	a1,s2
   119b6:	854e                	mv	a0,s3
   119b8:	fcc2                	sd	a6,120(sp)
   119ba:	f8be                	sd	a5,112(sp)
   119bc:	42a050ef          	jal	ra,16de6 <__sprint_r>
   119c0:	20051a63          	bnez	a0,11bd4 <_vfprintf_r+0x1562>
   119c4:	7866                	ld	a6,120(sp)
   119c6:	77c6                	ld	a5,112(sp)
   119c8:	030c                	addi	a1,sp,384
   119ca:	37c1                	addiw	a5,a5,-16
   119cc:	8cae                	mv	s9,a1
   119ce:	10812683          	lw	a3,264(sp)
   119d2:	6752                	ld	a4,272(sp)
   119d4:	010c8593          	addi	a1,s9,16
   119d8:	0016861b          	addiw	a2,a3,1
   119dc:	86b2                	mv	a3,a2
   119de:	fcf840e3          	blt	a6,a5,1199e <_vfprintf_r+0x132c>
   119e2:	00fcb423          	sd	a5,8(s9)
   119e6:	97ba                	add	a5,a5,a4
   119e8:	01acb023          	sd	s10,0(s9)
   119ec:	ea3e                	sd	a5,272(sp)
   119ee:	10c12423          	sw	a2,264(sp)
   119f2:	8cae                	mv	s9,a1
   119f4:	f8cddbe3          	ble	a2,s11,1198a <_vfprintf_r+0x1318>
   119f8:	0210                	addi	a2,sp,256
   119fa:	85ca                	mv	a1,s2
   119fc:	854e                	mv	a0,s3
   119fe:	3e8050ef          	jal	ra,16de6 <__sprint_r>
   11a02:	1c051963          	bnez	a0,11bd4 <_vfprintf_r+0x1562>
   11a06:	18010c93          	addi	s9,sp,384
   11a0a:	b741                	j	1198a <_vfprintf_r+0x1318>
   11a0c:	07c1                	addi	a5,a5,16
   11a0e:	018cb423          	sd	s8,8(s9)
   11a12:	ea3e                	sd	a5,272(sp)
   11a14:	10e12423          	sw	a4,264(sp)
   11a18:	00dd5a63          	ble	a3,s10,11a2c <_vfprintf_r+0x13ba>
   11a1c:	0210                	addi	a2,sp,256
   11a1e:	85ca                	mv	a1,s2
   11a20:	854e                	mv	a0,s3
   11a22:	3c4050ef          	jal	ra,16de6 <__sprint_r>
   11a26:	1a051763          	bnez	a0,11bd4 <_vfprintf_r+0x1562>
   11a2a:	0310                	addi	a2,sp,384
   11a2c:	34c1                	addiw	s1,s1,-16
   11a2e:	8cb2                	mv	s9,a2
   11a30:	b5a9                	j	1187a <_vfprintf_r+0x1208>
   11a32:	10812783          	lw	a5,264(sp)
   11a36:	4605                	li	a2,1
   11a38:	009cb023          	sd	s1,0(s9)
   11a3c:	0017869b          	addiw	a3,a5,1
   11a40:	0705                	addi	a4,a4,1
   11a42:	87b6                	mv	a5,a3
   11a44:	010c8c13          	addi	s8,s9,16
   11a48:	01464663          	blt	a2,s4,11a54 <_vfprintf_r+0x13e2>
   11a4c:	00147593          	andi	a1,s0,1
   11a50:	12058663          	beqz	a1,11b7c <_vfprintf_r+0x150a>
   11a54:	4605                	li	a2,1
   11a56:	10f12423          	sw	a5,264(sp)
   11a5a:	00ccb423          	sd	a2,8(s9)
   11a5e:	ea3a                	sd	a4,272(sp)
   11a60:	479d                	li	a5,7
   11a62:	00d7da63          	ble	a3,a5,11a76 <_vfprintf_r+0x1404>
   11a66:	0210                	addi	a2,sp,256
   11a68:	85ca                	mv	a1,s2
   11a6a:	854e                	mv	a0,s3
   11a6c:	37a050ef          	jal	ra,16de6 <__sprint_r>
   11a70:	16051263          	bnez	a0,11bd4 <_vfprintf_r+0x1562>
   11a74:	8c56                	mv	s8,s5
   11a76:	67a6                	ld	a5,72(sp)
   11a78:	6762                	ld	a4,24(sp)
   11a7a:	0c41                	addi	s8,s8,16
   11a7c:	fefc3823          	sd	a5,-16(s8)
   11a80:	67e2                	ld	a5,24(sp)
   11a82:	fefc3c23          	sd	a5,-8(s8)
   11a86:	67d2                	ld	a5,272(sp)
   11a88:	97ba                	add	a5,a5,a4
   11a8a:	ea3e                	sd	a5,272(sp)
   11a8c:	10812783          	lw	a5,264(sp)
   11a90:	0017871b          	addiw	a4,a5,1
   11a94:	10e12423          	sw	a4,264(sp)
   11a98:	479d                	li	a5,7
   11a9a:	00e7da63          	ble	a4,a5,11aae <_vfprintf_r+0x143c>
   11a9e:	0210                	addi	a2,sp,256
   11aa0:	85ca                	mv	a1,s2
   11aa2:	854e                	mv	a0,s3
   11aa4:	342050ef          	jal	ra,16de6 <__sprint_r>
   11aa8:	12051663          	bnez	a0,11bd4 <_vfprintf_r+0x1562>
   11aac:	8c56                	mv	s8,s5
   11aae:	754e                	ld	a0,240(sp)
   11ab0:	75ee                	ld	a1,248(sp)
   11ab2:	4601                	li	a2,0
   11ab4:	4681                	li	a3,0
   11ab6:	fffa0b1b          	addiw	s6,s4,-1
   11aba:	5d3060ef          	jal	ra,1888c <__eqtf2>
   11abe:	c12d                	beqz	a0,11b20 <_vfprintf_r+0x14ae>
   11ac0:	10812703          	lw	a4,264(sp)
   11ac4:	67d2                	ld	a5,272(sp)
   11ac6:	0485                	addi	s1,s1,1
   11ac8:	0017069b          	addiw	a3,a4,1
   11acc:	97da                	add	a5,a5,s6
   11ace:	009c3023          	sd	s1,0(s8)
   11ad2:	016c3423          	sd	s6,8(s8)
   11ad6:	ea3e                	sd	a5,272(sp)
   11ad8:	10d12423          	sw	a3,264(sp)
   11adc:	479d                	li	a5,7
   11ade:	0c41                	addi	s8,s8,16
   11ae0:	00d7d963          	ble	a3,a5,11af2 <_vfprintf_r+0x1480>
   11ae4:	0210                	addi	a2,sp,256
   11ae6:	85ca                	mv	a1,s2
   11ae8:	854e                	mv	a0,s3
   11aea:	2fc050ef          	jal	ra,16de6 <__sprint_r>
   11aee:	e17d                	bnez	a0,11bd4 <_vfprintf_r+0x1562>
   11af0:	8c56                	mv	s8,s5
   11af2:	119c                	addi	a5,sp,224
   11af4:	00fc3023          	sd	a5,0(s8)
   11af8:	67e6                	ld	a5,88(sp)
   11afa:	6766                	ld	a4,88(sp)
   11afc:	010c0c93          	addi	s9,s8,16
   11b00:	00fc3423          	sd	a5,8(s8)
   11b04:	67d2                	ld	a5,272(sp)
   11b06:	97ba                	add	a5,a5,a4
   11b08:	ea3e                	sd	a5,272(sp)
   11b0a:	10812783          	lw	a5,264(sp)
   11b0e:	0017871b          	addiw	a4,a5,1
   11b12:	10e12423          	sw	a4,264(sp)
   11b16:	479d                	li	a5,7
   11b18:	a6e7d8e3          	ble	a4,a5,11588 <_vfprintf_r+0xf16>
   11b1c:	8a8ff06f          	j	10bc4 <_vfprintf_r+0x552>
   11b20:	fd6059e3          	blez	s6,11af2 <_vfprintf_r+0x1480>
   11b24:	64e9                	lui	s1,0x1a
   11b26:	4d41                	li	s10,16
   11b28:	f8848493          	addi	s1,s1,-120 # 19f88 <zeroes.4441>
   11b2c:	4c9d                	li	s9,7
   11b2e:	10812703          	lw	a4,264(sp)
   11b32:	009c3023          	sd	s1,0(s8)
   11b36:	67d2                	ld	a5,272(sp)
   11b38:	0017069b          	addiw	a3,a4,1
   11b3c:	8736                	mv	a4,a3
   11b3e:	010c0613          	addi	a2,s8,16
   11b42:	016d4b63          	blt	s10,s6,11b58 <_vfprintf_r+0x14e6>
   11b46:	97da                	add	a5,a5,s6
   11b48:	016c3423          	sd	s6,8(s8)
   11b4c:	ea3e                	sd	a5,272(sp)
   11b4e:	10d12423          	sw	a3,264(sp)
   11b52:	479d                	li	a5,7
   11b54:	8c32                	mv	s8,a2
   11b56:	b769                	j	11ae0 <_vfprintf_r+0x146e>
   11b58:	07c1                	addi	a5,a5,16
   11b5a:	01ac3423          	sd	s10,8(s8)
   11b5e:	ea3e                	sd	a5,272(sp)
   11b60:	10e12423          	sw	a4,264(sp)
   11b64:	00dcd963          	ble	a3,s9,11b76 <_vfprintf_r+0x1504>
   11b68:	0210                	addi	a2,sp,256
   11b6a:	85ca                	mv	a1,s2
   11b6c:	854e                	mv	a0,s3
   11b6e:	278050ef          	jal	ra,16de6 <__sprint_r>
   11b72:	e12d                	bnez	a0,11bd4 <_vfprintf_r+0x1562>
   11b74:	8656                	mv	a2,s5
   11b76:	3b41                	addiw	s6,s6,-16
   11b78:	8c32                	mv	s8,a2
   11b7a:	bf55                	j	11b2e <_vfprintf_r+0x14bc>
   11b7c:	00ccb423          	sd	a2,8(s9)
   11b80:	ea3a                	sd	a4,272(sp)
   11b82:	10d12423          	sw	a3,264(sp)
   11b86:	479d                	li	a5,7
   11b88:	bfa1                	j	11ae0 <_vfprintf_r+0x146e>
   11b8a:	5782                	lw	a5,32(sp)
   11b8c:	5762                	lw	a4,56(sp)
   11b8e:	40e7843b          	subw	s0,a5,a4
   11b92:	9e805ee3          	blez	s0,1158e <_vfprintf_r+0xf1c>
   11b96:	64e9                	lui	s1,0x1a
   11b98:	4b41                	li	s6,16
   11b9a:	f7848493          	addi	s1,s1,-136 # 19f78 <blanks.4440>
   11b9e:	4c1d                	li	s8,7
   11ba0:	10812703          	lw	a4,264(sp)
   11ba4:	009cb023          	sd	s1,0(s9)
   11ba8:	67d2                	ld	a5,272(sp)
   11baa:	0017069b          	addiw	a3,a4,1
   11bae:	8736                	mv	a4,a3
   11bb0:	028b4a63          	blt	s6,s0,11be4 <_vfprintf_r+0x1572>
   11bb4:	008cb423          	sd	s0,8(s9)
   11bb8:	943e                	add	s0,s0,a5
   11bba:	ea22                	sd	s0,272(sp)
   11bbc:	10d12423          	sw	a3,264(sp)
   11bc0:	479d                	li	a5,7
   11bc2:	9cd7d6e3          	ble	a3,a5,1158e <_vfprintf_r+0xf1c>
   11bc6:	0210                	addi	a2,sp,256
   11bc8:	85ca                	mv	a1,s2
   11bca:	854e                	mv	a0,s3
   11bcc:	21a050ef          	jal	ra,16de6 <__sprint_r>
   11bd0:	9a050fe3          	beqz	a0,1158e <_vfprintf_r+0xf1c>
   11bd4:	960b8663          	beqz	s7,10d40 <_vfprintf_r+0x6ce>
   11bd8:	85de                	mv	a1,s7
   11bda:	854e                	mv	a0,s3
   11bdc:	71c000ef          	jal	ra,122f8 <_free_r>
   11be0:	960ff06f          	j	10d40 <_vfprintf_r+0x6ce>
   11be4:	07c1                	addi	a5,a5,16
   11be6:	016cb423          	sd	s6,8(s9)
   11bea:	ea3e                	sd	a5,272(sp)
   11bec:	10e12423          	sw	a4,264(sp)
   11bf0:	0cc1                	addi	s9,s9,16
   11bf2:	00dc5963          	ble	a3,s8,11c04 <_vfprintf_r+0x1592>
   11bf6:	0210                	addi	a2,sp,256
   11bf8:	85ca                	mv	a1,s2
   11bfa:	854e                	mv	a0,s3
   11bfc:	1ea050ef          	jal	ra,16de6 <__sprint_r>
   11c00:	f971                	bnez	a0,11bd4 <_vfprintf_r+0x1562>
   11c02:	8cd6                	mv	s9,s5
   11c04:	3441                	addiw	s0,s0,-16
   11c06:	bf69                	j	11ba0 <_vfprintf_r+0x152e>
   11c08:	85de                	mv	a1,s7
   11c0a:	854e                	mv	a0,s3
   11c0c:	6ec000ef          	jal	ra,122f8 <_free_r>
   11c10:	b26d                	j	115ba <_vfprintf_r+0xf48>
   11c12:	67d2                	ld	a5,272(sp)
   11c14:	92078663          	beqz	a5,10d40 <_vfprintf_r+0x6ce>
   11c18:	0210                	addi	a2,sp,256
   11c1a:	85ca                	mv	a1,s2
   11c1c:	854e                	mv	a0,s3
   11c1e:	1c8050ef          	jal	ra,16de6 <__sprint_r>
   11c22:	91eff06f          	j	10d40 <_vfprintf_r+0x6ce>

0000000000011c26 <vfprintf>:
   11c26:	86b2                	mv	a3,a2
   11c28:	862e                	mv	a2,a1
   11c2a:	85aa                	mv	a1,a0
   11c2c:	8401b503          	ld	a0,-1984(gp) # 1c158 <_impure_ptr>
   11c30:	a43fe06f          	j	10672 <_vfprintf_r>

0000000000011c34 <__sbprintf>:
   11c34:	0105d783          	lhu	a5,16(a1)
   11c38:	b3010113          	addi	sp,sp,-1232
   11c3c:	4c813023          	sd	s0,1216(sp)
   11c40:	9bf5                	andi	a5,a5,-3
   11c42:	00f11823          	sh	a5,16(sp)
   11c46:	0ac5a783          	lw	a5,172(a1)
   11c4a:	842e                	mv	s0,a1
   11c4c:	4a913c23          	sd	s1,1208(sp)
   11c50:	d73e                	sw	a5,172(sp)
   11c52:	0125d783          	lhu	a5,18(a1)
   11c56:	4b213823          	sd	s2,1200(sp)
   11c5a:	4c113423          	sd	ra,1224(sp)
   11c5e:	00f11923          	sh	a5,18(sp)
   11c62:	799c                	ld	a5,48(a1)
   11c64:	892a                	mv	s2,a0
   11c66:	d402                	sw	zero,40(sp)
   11c68:	f83e                	sd	a5,48(sp)
   11c6a:	61bc                	ld	a5,64(a1)
   11c6c:	858a                	mv	a1,sp
   11c6e:	e0be                	sd	a5,64(sp)
   11c70:	191c                	addi	a5,sp,176
   11c72:	e03e                	sd	a5,0(sp)
   11c74:	ec3e                	sd	a5,24(sp)
   11c76:	40000793          	li	a5,1024
   11c7a:	c63e                	sw	a5,12(sp)
   11c7c:	d03e                	sw	a5,32(sp)
   11c7e:	9f5fe0ef          	jal	ra,10672 <_vfprintf_r>
   11c82:	84aa                	mv	s1,a0
   11c84:	00054863          	bltz	a0,11c94 <__sbprintf+0x60>
   11c88:	858a                	mv	a1,sp
   11c8a:	854a                	mv	a0,s2
   11c8c:	384000ef          	jal	ra,12010 <_fflush_r>
   11c90:	c111                	beqz	a0,11c94 <__sbprintf+0x60>
   11c92:	54fd                	li	s1,-1
   11c94:	01015783          	lhu	a5,16(sp)
   11c98:	0407f793          	andi	a5,a5,64
   11c9c:	c799                	beqz	a5,11caa <__sbprintf+0x76>
   11c9e:	01045783          	lhu	a5,16(s0)
   11ca2:	0407e793          	ori	a5,a5,64
   11ca6:	00f41823          	sh	a5,16(s0)
   11caa:	4c813083          	ld	ra,1224(sp)
   11cae:	4c013403          	ld	s0,1216(sp)
   11cb2:	8526                	mv	a0,s1
   11cb4:	4b013903          	ld	s2,1200(sp)
   11cb8:	4b813483          	ld	s1,1208(sp)
   11cbc:	4d010113          	addi	sp,sp,1232
   11cc0:	8082                	ret

0000000000011cc2 <__swsetup_r>:
   11cc2:	1101                	addi	sp,sp,-32
   11cc4:	e426                	sd	s1,8(sp)
   11cc6:	84aa                	mv	s1,a0
   11cc8:	8401b503          	ld	a0,-1984(gp) # 1c158 <_impure_ptr>
   11ccc:	e822                	sd	s0,16(sp)
   11cce:	ec06                	sd	ra,24(sp)
   11cd0:	842e                	mv	s0,a1
   11cd2:	c509                	beqz	a0,11cdc <__swsetup_r+0x1a>
   11cd4:	493c                	lw	a5,80(a0)
   11cd6:	e399                	bnez	a5,11cdc <__swsetup_r+0x1a>
   11cd8:	450000ef          	jal	ra,12128 <__sinit>
   11cdc:	01041703          	lh	a4,16(s0)
   11ce0:	03071793          	slli	a5,a4,0x30
   11ce4:	93c1                	srli	a5,a5,0x30
   11ce6:	0087f693          	andi	a3,a5,8
   11cea:	eea9                	bnez	a3,11d44 <__swsetup_r+0x82>
   11cec:	0107f693          	andi	a3,a5,16
   11cf0:	ee89                	bnez	a3,11d0a <__swsetup_r+0x48>
   11cf2:	47a5                	li	a5,9
   11cf4:	c09c                	sw	a5,0(s1)
   11cf6:	04076713          	ori	a4,a4,64
   11cfa:	00e41823          	sh	a4,16(s0)
   11cfe:	557d                	li	a0,-1
   11d00:	60e2                	ld	ra,24(sp)
   11d02:	6442                	ld	s0,16(sp)
   11d04:	64a2                	ld	s1,8(sp)
   11d06:	6105                	addi	sp,sp,32
   11d08:	8082                	ret
   11d0a:	8b91                	andi	a5,a5,4
   11d0c:	c795                	beqz	a5,11d38 <__swsetup_r+0x76>
   11d0e:	6c2c                	ld	a1,88(s0)
   11d10:	c991                	beqz	a1,11d24 <__swsetup_r+0x62>
   11d12:	07440793          	addi	a5,s0,116
   11d16:	00f58563          	beq	a1,a5,11d20 <__swsetup_r+0x5e>
   11d1a:	8526                	mv	a0,s1
   11d1c:	5dc000ef          	jal	ra,122f8 <_free_r>
   11d20:	04043c23          	sd	zero,88(s0)
   11d24:	01045783          	lhu	a5,16(s0)
   11d28:	00042423          	sw	zero,8(s0)
   11d2c:	fdb7f793          	andi	a5,a5,-37
   11d30:	00f41823          	sh	a5,16(s0)
   11d34:	6c1c                	ld	a5,24(s0)
   11d36:	e01c                	sd	a5,0(s0)
   11d38:	01045783          	lhu	a5,16(s0)
   11d3c:	0087e793          	ori	a5,a5,8
   11d40:	00f41823          	sh	a5,16(s0)
   11d44:	6c1c                	ld	a5,24(s0)
   11d46:	ef89                	bnez	a5,11d60 <__swsetup_r+0x9e>
   11d48:	01045783          	lhu	a5,16(s0)
   11d4c:	20000713          	li	a4,512
   11d50:	2807f793          	andi	a5,a5,640
   11d54:	00e78663          	beq	a5,a4,11d60 <__swsetup_r+0x9e>
   11d58:	85a2                	mv	a1,s0
   11d5a:	8526                	mv	a0,s1
   11d5c:	328020ef          	jal	ra,14084 <__smakebuf_r>
   11d60:	01045783          	lhu	a5,16(s0)
   11d64:	0017f713          	andi	a4,a5,1
   11d68:	c705                	beqz	a4,11d90 <__swsetup_r+0xce>
   11d6a:	501c                	lw	a5,32(s0)
   11d6c:	00042623          	sw	zero,12(s0)
   11d70:	40f007bb          	negw	a5,a5
   11d74:	d41c                	sw	a5,40(s0)
   11d76:	6c1c                	ld	a5,24(s0)
   11d78:	4501                	li	a0,0
   11d7a:	f3d9                	bnez	a5,11d00 <__swsetup_r+0x3e>
   11d7c:	01041783          	lh	a5,16(s0)
   11d80:	0807f713          	andi	a4,a5,128
   11d84:	df35                	beqz	a4,11d00 <__swsetup_r+0x3e>
   11d86:	0407e793          	ori	a5,a5,64
   11d8a:	00f41823          	sh	a5,16(s0)
   11d8e:	bf85                	j	11cfe <__swsetup_r+0x3c>
   11d90:	8b89                	andi	a5,a5,2
   11d92:	4701                	li	a4,0
   11d94:	e391                	bnez	a5,11d98 <__swsetup_r+0xd6>
   11d96:	5018                	lw	a4,32(s0)
   11d98:	c458                	sw	a4,12(s0)
   11d9a:	bff1                	j	11d76 <__swsetup_r+0xb4>

0000000000011d9c <__register_exitproc>:
   11d9c:	8381b703          	ld	a4,-1992(gp) # 1c150 <_global_impure_ptr>
   11da0:	832a                	mv	t1,a0
   11da2:	1f873783          	ld	a5,504(a4)
   11da6:	e789                	bnez	a5,11db0 <__register_exitproc+0x14>
   11da8:	20070793          	addi	a5,a4,512
   11dac:	1ef73c23          	sd	a5,504(a4)
   11db0:	4798                	lw	a4,8(a5)
   11db2:	487d                	li	a6,31
   11db4:	557d                	li	a0,-1
   11db6:	04e84463          	blt	a6,a4,11dfe <__register_exitproc+0x62>
   11dba:	02030a63          	beqz	t1,11dee <__register_exitproc+0x52>
   11dbe:	00371813          	slli	a6,a4,0x3
   11dc2:	983e                	add	a6,a6,a5
   11dc4:	10c83823          	sd	a2,272(a6)
   11dc8:	3107a883          	lw	a7,784(a5)
   11dcc:	4605                	li	a2,1
   11dce:	00e6163b          	sllw	a2,a2,a4
   11dd2:	00c8e8b3          	or	a7,a7,a2
   11dd6:	3117a823          	sw	a7,784(a5)
   11dda:	20d83823          	sd	a3,528(a6)
   11dde:	4689                	li	a3,2
   11de0:	00d31763          	bne	t1,a3,11dee <__register_exitproc+0x52>
   11de4:	3147a683          	lw	a3,788(a5)
   11de8:	8e55                	or	a2,a2,a3
   11dea:	30c7aa23          	sw	a2,788(a5)
   11dee:	0017069b          	addiw	a3,a4,1
   11df2:	0709                	addi	a4,a4,2
   11df4:	070e                	slli	a4,a4,0x3
   11df6:	c794                	sw	a3,8(a5)
   11df8:	97ba                	add	a5,a5,a4
   11dfa:	e38c                	sd	a1,0(a5)
   11dfc:	4501                	li	a0,0
   11dfe:	8082                	ret

0000000000011e00 <__call_exitprocs>:
   11e00:	715d                	addi	sp,sp,-80
   11e02:	f44e                	sd	s3,40(sp)
   11e04:	8381b983          	ld	s3,-1992(gp) # 1c150 <_global_impure_ptr>
   11e08:	f052                	sd	s4,32(sp)
   11e0a:	ec56                	sd	s5,24(sp)
   11e0c:	e85a                	sd	s6,16(sp)
   11e0e:	e486                	sd	ra,72(sp)
   11e10:	e0a2                	sd	s0,64(sp)
   11e12:	fc26                	sd	s1,56(sp)
   11e14:	f84a                	sd	s2,48(sp)
   11e16:	e45e                	sd	s7,8(sp)
   11e18:	8aaa                	mv	s5,a0
   11e1a:	8a2e                	mv	s4,a1
   11e1c:	4b05                	li	s6,1
   11e1e:	1f89b403          	ld	s0,504(s3)
   11e22:	c801                	beqz	s0,11e32 <__call_exitprocs+0x32>
   11e24:	4404                	lw	s1,8(s0)
   11e26:	34fd                	addiw	s1,s1,-1
   11e28:	00349913          	slli	s2,s1,0x3
   11e2c:	9922                	add	s2,s2,s0
   11e2e:	0004dd63          	bgez	s1,11e48 <__call_exitprocs+0x48>
   11e32:	60a6                	ld	ra,72(sp)
   11e34:	6406                	ld	s0,64(sp)
   11e36:	74e2                	ld	s1,56(sp)
   11e38:	7942                	ld	s2,48(sp)
   11e3a:	79a2                	ld	s3,40(sp)
   11e3c:	7a02                	ld	s4,32(sp)
   11e3e:	6ae2                	ld	s5,24(sp)
   11e40:	6b42                	ld	s6,16(sp)
   11e42:	6ba2                	ld	s7,8(sp)
   11e44:	6161                	addi	sp,sp,80
   11e46:	8082                	ret
   11e48:	000a0963          	beqz	s4,11e5a <__call_exitprocs+0x5a>
   11e4c:	21093783          	ld	a5,528(s2)
   11e50:	01478563          	beq	a5,s4,11e5a <__call_exitprocs+0x5a>
   11e54:	34fd                	addiw	s1,s1,-1
   11e56:	1961                	addi	s2,s2,-8
   11e58:	bfd9                	j	11e2e <__call_exitprocs+0x2e>
   11e5a:	441c                	lw	a5,8(s0)
   11e5c:	01093683          	ld	a3,16(s2)
   11e60:	37fd                	addiw	a5,a5,-1
   11e62:	02979663          	bne	a5,s1,11e8e <__call_exitprocs+0x8e>
   11e66:	c404                	sw	s1,8(s0)
   11e68:	d6f5                	beqz	a3,11e54 <__call_exitprocs+0x54>
   11e6a:	31042703          	lw	a4,784(s0)
   11e6e:	009b163b          	sllw	a2,s6,s1
   11e72:	00842b83          	lw	s7,8(s0)
   11e76:	8f71                	and	a4,a4,a2
   11e78:	2701                	sext.w	a4,a4
   11e7a:	ef09                	bnez	a4,11e94 <__call_exitprocs+0x94>
   11e7c:	9682                	jalr	a3
   11e7e:	4418                	lw	a4,8(s0)
   11e80:	1f89b783          	ld	a5,504(s3)
   11e84:	f9771de3          	bne	a4,s7,11e1e <__call_exitprocs+0x1e>
   11e88:	fcf406e3          	beq	s0,a5,11e54 <__call_exitprocs+0x54>
   11e8c:	bf49                	j	11e1e <__call_exitprocs+0x1e>
   11e8e:	00093823          	sd	zero,16(s2)
   11e92:	bfd9                	j	11e68 <__call_exitprocs+0x68>
   11e94:	31442783          	lw	a5,788(s0)
   11e98:	11093583          	ld	a1,272(s2)
   11e9c:	8ff1                	and	a5,a5,a2
   11e9e:	2781                	sext.w	a5,a5
   11ea0:	e781                	bnez	a5,11ea8 <__call_exitprocs+0xa8>
   11ea2:	8556                	mv	a0,s5
   11ea4:	9682                	jalr	a3
   11ea6:	bfe1                	j	11e7e <__call_exitprocs+0x7e>
   11ea8:	852e                	mv	a0,a1
   11eaa:	9682                	jalr	a3
   11eac:	bfc9                	j	11e7e <__call_exitprocs+0x7e>

0000000000011eae <__sflush_r>:
   11eae:	01059783          	lh	a5,16(a1)
   11eb2:	7179                	addi	sp,sp,-48
   11eb4:	f022                	sd	s0,32(sp)
   11eb6:	03079713          	slli	a4,a5,0x30
   11eba:	9341                	srli	a4,a4,0x30
   11ebc:	ec26                	sd	s1,24(sp)
   11ebe:	f406                	sd	ra,40(sp)
   11ec0:	e84a                	sd	s2,16(sp)
   11ec2:	e44e                	sd	s3,8(sp)
   11ec4:	00877693          	andi	a3,a4,8
   11ec8:	84aa                	mv	s1,a0
   11eca:	842e                	mv	s0,a1
   11ecc:	10069063          	bnez	a3,11fcc <__sflush_r+0x11e>
   11ed0:	6705                	lui	a4,0x1
   11ed2:	80070713          	addi	a4,a4,-2048 # 800 <_start-0xf8b0>
   11ed6:	8fd9                	or	a5,a5,a4
   11ed8:	4598                	lw	a4,8(a1)
   11eda:	00f59823          	sh	a5,16(a1)
   11ede:	00e04d63          	bgtz	a4,11ef8 <__sflush_r+0x4a>
   11ee2:	59b8                	lw	a4,112(a1)
   11ee4:	00e04a63          	bgtz	a4,11ef8 <__sflush_r+0x4a>
   11ee8:	4501                	li	a0,0
   11eea:	70a2                	ld	ra,40(sp)
   11eec:	7402                	ld	s0,32(sp)
   11eee:	64e2                	ld	s1,24(sp)
   11ef0:	6942                	ld	s2,16(sp)
   11ef2:	69a2                	ld	s3,8(sp)
   11ef4:	6145                	addi	sp,sp,48
   11ef6:	8082                	ret
   11ef8:	6438                	ld	a4,72(s0)
   11efa:	d77d                	beqz	a4,11ee8 <__sflush_r+0x3a>
   11efc:	0004a903          	lw	s2,0(s1)
   11f00:	03379693          	slli	a3,a5,0x33
   11f04:	0004a023          	sw	zero,0(s1)
   11f08:	780c                	ld	a1,48(s0)
   11f0a:	0806d863          	bgez	a3,11f9a <__sflush_r+0xec>
   11f0e:	6850                	ld	a2,144(s0)
   11f10:	01045783          	lhu	a5,16(s0)
   11f14:	8b91                	andi	a5,a5,4
   11f16:	c799                	beqz	a5,11f24 <__sflush_r+0x76>
   11f18:	441c                	lw	a5,8(s0)
   11f1a:	8e1d                	sub	a2,a2,a5
   11f1c:	6c3c                	ld	a5,88(s0)
   11f1e:	c399                	beqz	a5,11f24 <__sflush_r+0x76>
   11f20:	583c                	lw	a5,112(s0)
   11f22:	8e1d                	sub	a2,a2,a5
   11f24:	643c                	ld	a5,72(s0)
   11f26:	780c                	ld	a1,48(s0)
   11f28:	4681                	li	a3,0
   11f2a:	8526                	mv	a0,s1
   11f2c:	9782                	jalr	a5
   11f2e:	57fd                	li	a5,-1
   11f30:	01045683          	lhu	a3,16(s0)
   11f34:	00f51d63          	bne	a0,a5,11f4e <__sflush_r+0xa0>
   11f38:	409c                	lw	a5,0(s1)
   11f3a:	4775                	li	a4,29
   11f3c:	08f76263          	bltu	a4,a5,11fc0 <__sflush_r+0x112>
   11f40:	20400737          	lui	a4,0x20400
   11f44:	0705                	addi	a4,a4,1
   11f46:	00f75733          	srl	a4,a4,a5
   11f4a:	8b05                	andi	a4,a4,1
   11f4c:	cb35                	beqz	a4,11fc0 <__sflush_r+0x112>
   11f4e:	77fd                	lui	a5,0xfffff
   11f50:	7ff78793          	addi	a5,a5,2047 # fffffffffffff7ff <_end+0xffffffffffdd2dff>
   11f54:	6c18                	ld	a4,24(s0)
   11f56:	8ff5                	and	a5,a5,a3
   11f58:	0107979b          	slliw	a5,a5,0x10
   11f5c:	4107d79b          	sraiw	a5,a5,0x10
   11f60:	e018                	sd	a4,0(s0)
   11f62:	00f41823          	sh	a5,16(s0)
   11f66:	00042423          	sw	zero,8(s0)
   11f6a:	03379713          	slli	a4,a5,0x33
   11f6e:	00075863          	bgez	a4,11f7e <__sflush_r+0xd0>
   11f72:	57fd                	li	a5,-1
   11f74:	00f51463          	bne	a0,a5,11f7c <__sflush_r+0xce>
   11f78:	409c                	lw	a5,0(s1)
   11f7a:	e391                	bnez	a5,11f7e <__sflush_r+0xd0>
   11f7c:	e848                	sd	a0,144(s0)
   11f7e:	6c2c                	ld	a1,88(s0)
   11f80:	0124a023          	sw	s2,0(s1)
   11f84:	d1b5                	beqz	a1,11ee8 <__sflush_r+0x3a>
   11f86:	07440793          	addi	a5,s0,116
   11f8a:	00f58563          	beq	a1,a5,11f94 <__sflush_r+0xe6>
   11f8e:	8526                	mv	a0,s1
   11f90:	368000ef          	jal	ra,122f8 <_free_r>
   11f94:	04043c23          	sd	zero,88(s0)
   11f98:	bf81                	j	11ee8 <__sflush_r+0x3a>
   11f9a:	4601                	li	a2,0
   11f9c:	4685                	li	a3,1
   11f9e:	8526                	mv	a0,s1
   11fa0:	9702                	jalr	a4
   11fa2:	57fd                	li	a5,-1
   11fa4:	862a                	mv	a2,a0
   11fa6:	f6f515e3          	bne	a0,a5,11f10 <__sflush_r+0x62>
   11faa:	409c                	lw	a5,0(s1)
   11fac:	d3b5                	beqz	a5,11f10 <__sflush_r+0x62>
   11fae:	4775                	li	a4,29
   11fb0:	00e78563          	beq	a5,a4,11fba <__sflush_r+0x10c>
   11fb4:	4759                	li	a4,22
   11fb6:	04e79463          	bne	a5,a4,11ffe <__sflush_r+0x150>
   11fba:	0124a023          	sw	s2,0(s1)
   11fbe:	b72d                	j	11ee8 <__sflush_r+0x3a>
   11fc0:	0406e793          	ori	a5,a3,64
   11fc4:	00f41823          	sh	a5,16(s0)
   11fc8:	557d                	li	a0,-1
   11fca:	b705                	j	11eea <__sflush_r+0x3c>
   11fcc:	0185b983          	ld	s3,24(a1)
   11fd0:	f0098ce3          	beqz	s3,11ee8 <__sflush_r+0x3a>
   11fd4:	0005b903          	ld	s2,0(a1)
   11fd8:	8b0d                	andi	a4,a4,3
   11fda:	0135b023          	sd	s3,0(a1)
   11fde:	4139093b          	subw	s2,s2,s3
   11fe2:	4781                	li	a5,0
   11fe4:	e311                	bnez	a4,11fe8 <__sflush_r+0x13a>
   11fe6:	519c                	lw	a5,32(a1)
   11fe8:	c45c                	sw	a5,12(s0)
   11fea:	ef205fe3          	blez	s2,11ee8 <__sflush_r+0x3a>
   11fee:	603c                	ld	a5,64(s0)
   11ff0:	780c                	ld	a1,48(s0)
   11ff2:	86ca                	mv	a3,s2
   11ff4:	864e                	mv	a2,s3
   11ff6:	8526                	mv	a0,s1
   11ff8:	9782                	jalr	a5
   11ffa:	00a04763          	bgtz	a0,12008 <__sflush_r+0x15a>
   11ffe:	01045783          	lhu	a5,16(s0)
   12002:	0407e793          	ori	a5,a5,64
   12006:	bf7d                	j	11fc4 <__sflush_r+0x116>
   12008:	99aa                	add	s3,s3,a0
   1200a:	40a9093b          	subw	s2,s2,a0
   1200e:	bff1                	j	11fea <__sflush_r+0x13c>

0000000000012010 <_fflush_r>:
   12010:	1101                	addi	sp,sp,-32
   12012:	e822                	sd	s0,16(sp)
   12014:	ec06                	sd	ra,24(sp)
   12016:	842a                	mv	s0,a0
   12018:	c519                	beqz	a0,12026 <_fflush_r+0x16>
   1201a:	493c                	lw	a5,80(a0)
   1201c:	e789                	bnez	a5,12026 <_fflush_r+0x16>
   1201e:	e42e                	sd	a1,8(sp)
   12020:	108000ef          	jal	ra,12128 <__sinit>
   12024:	65a2                	ld	a1,8(sp)
   12026:	01059783          	lh	a5,16(a1)
   1202a:	c799                	beqz	a5,12038 <_fflush_r+0x28>
   1202c:	8522                	mv	a0,s0
   1202e:	6442                	ld	s0,16(sp)
   12030:	60e2                	ld	ra,24(sp)
   12032:	6105                	addi	sp,sp,32
   12034:	e7bff06f          	j	11eae <__sflush_r>
   12038:	60e2                	ld	ra,24(sp)
   1203a:	6442                	ld	s0,16(sp)
   1203c:	4501                	li	a0,0
   1203e:	6105                	addi	sp,sp,32
   12040:	8082                	ret

0000000000012042 <fflush>:
   12042:	85aa                	mv	a1,a0
   12044:	e909                	bnez	a0,12056 <fflush+0x14>
   12046:	8381b503          	ld	a0,-1992(gp) # 1c150 <_global_impure_ptr>
   1204a:	000125b7          	lui	a1,0x12
   1204e:	01058593          	addi	a1,a1,16 # 12010 <_fflush_r>
   12052:	7a60006f          	j	127f8 <_fwalk_reent>
   12056:	8401b503          	ld	a0,-1984(gp) # 1c158 <_impure_ptr>
   1205a:	fb7ff06f          	j	12010 <_fflush_r>

000000000001205e <__fp_lock>:
   1205e:	4501                	li	a0,0
   12060:	8082                	ret

0000000000012062 <_cleanup_r>:
   12062:	000185b7          	lui	a1,0x18
   12066:	89e58593          	addi	a1,a1,-1890 # 1789e <_fclose_r>
   1206a:	78e0006f          	j	127f8 <_fwalk_reent>

000000000001206e <std.isra.0>:
   1206e:	1141                	addi	sp,sp,-16
   12070:	e022                	sd	s0,0(sp)
   12072:	e406                	sd	ra,8(sp)
   12074:	842a                	mv	s0,a0
   12076:	00b51823          	sh	a1,16(a0) # 1b010 <__init_array_end>
   1207a:	00c51923          	sh	a2,18(a0)
   1207e:	00053023          	sd	zero,0(a0)
   12082:	00053423          	sd	zero,8(a0)
   12086:	0a052623          	sw	zero,172(a0)
   1208a:	00053c23          	sd	zero,24(a0)
   1208e:	02052023          	sw	zero,32(a0)
   12092:	02052423          	sw	zero,40(a0)
   12096:	4621                	li	a2,8
   12098:	4581                	li	a1,0
   1209a:	0a450513          	addi	a0,a0,164
   1209e:	c20fe0ef          	jal	ra,104be <memset>
   120a2:	000157b7          	lui	a5,0x15
   120a6:	67a78793          	addi	a5,a5,1658 # 1567a <__sread>
   120aa:	fc1c                	sd	a5,56(s0)
   120ac:	000157b7          	lui	a5,0x15
   120b0:	6b078793          	addi	a5,a5,1712 # 156b0 <__swrite>
   120b4:	e03c                	sd	a5,64(s0)
   120b6:	000157b7          	lui	a5,0x15
   120ba:	70278793          	addi	a5,a5,1794 # 15702 <__sseek>
   120be:	e43c                	sd	a5,72(s0)
   120c0:	000157b7          	lui	a5,0x15
   120c4:	73a78793          	addi	a5,a5,1850 # 1573a <__sclose>
   120c8:	f800                	sd	s0,48(s0)
   120ca:	e83c                	sd	a5,80(s0)
   120cc:	60a2                	ld	ra,8(sp)
   120ce:	6402                	ld	s0,0(sp)
   120d0:	0141                	addi	sp,sp,16
   120d2:	8082                	ret

00000000000120d4 <__fp_unlock>:
   120d4:	4501                	li	a0,0
   120d6:	8082                	ret

00000000000120d8 <__sfmoreglue>:
   120d8:	1101                	addi	sp,sp,-32
   120da:	e426                	sd	s1,8(sp)
   120dc:	0b000613          	li	a2,176
   120e0:	fff5849b          	addiw	s1,a1,-1
   120e4:	02c484b3          	mul	s1,s1,a2
   120e8:	e04a                	sd	s2,0(sp)
   120ea:	892e                	mv	s2,a1
   120ec:	e822                	sd	s0,16(sp)
   120ee:	ec06                	sd	ra,24(sp)
   120f0:	0c848593          	addi	a1,s1,200
   120f4:	032020ef          	jal	ra,14126 <_malloc_r>
   120f8:	842a                	mv	s0,a0
   120fa:	cd01                	beqz	a0,12112 <__sfmoreglue+0x3a>
   120fc:	00053023          	sd	zero,0(a0)
   12100:	01252423          	sw	s2,8(a0)
   12104:	0561                	addi	a0,a0,24
   12106:	e808                	sd	a0,16(s0)
   12108:	0b048613          	addi	a2,s1,176
   1210c:	4581                	li	a1,0
   1210e:	bb0fe0ef          	jal	ra,104be <memset>
   12112:	8522                	mv	a0,s0
   12114:	60e2                	ld	ra,24(sp)
   12116:	6442                	ld	s0,16(sp)
   12118:	64a2                	ld	s1,8(sp)
   1211a:	6902                	ld	s2,0(sp)
   1211c:	6105                	addi	sp,sp,32
   1211e:	8082                	ret

0000000000012120 <_cleanup>:
   12120:	8381b503          	ld	a0,-1992(gp) # 1c150 <_global_impure_ptr>
   12124:	f3fff06f          	j	12062 <_cleanup_r>

0000000000012128 <__sinit>:
   12128:	493c                	lw	a5,80(a0)
   1212a:	eba1                	bnez	a5,1217a <__sinit+0x52>
   1212c:	1141                	addi	sp,sp,-16
   1212e:	000127b7          	lui	a5,0x12
   12132:	e406                	sd	ra,8(sp)
   12134:	e022                	sd	s0,0(sp)
   12136:	06278793          	addi	a5,a5,98 # 12062 <_cleanup_r>
   1213a:	ed3c                	sd	a5,88(a0)
   1213c:	478d                	li	a5,3
   1213e:	52f52423          	sw	a5,1320(a0)
   12142:	53850793          	addi	a5,a0,1336
   12146:	842a                	mv	s0,a0
   12148:	52f53823          	sd	a5,1328(a0)
   1214c:	52053023          	sd	zero,1312(a0)
   12150:	6508                	ld	a0,8(a0)
   12152:	4601                	li	a2,0
   12154:	4591                	li	a1,4
   12156:	f19ff0ef          	jal	ra,1206e <std.isra.0>
   1215a:	6808                	ld	a0,16(s0)
   1215c:	4605                	li	a2,1
   1215e:	45a5                	li	a1,9
   12160:	f0fff0ef          	jal	ra,1206e <std.isra.0>
   12164:	6c08                	ld	a0,24(s0)
   12166:	4609                	li	a2,2
   12168:	45c9                	li	a1,18
   1216a:	f05ff0ef          	jal	ra,1206e <std.isra.0>
   1216e:	4785                	li	a5,1
   12170:	c83c                	sw	a5,80(s0)
   12172:	60a2                	ld	ra,8(sp)
   12174:	6402                	ld	s0,0(sp)
   12176:	0141                	addi	sp,sp,16
   12178:	8082                	ret
   1217a:	8082                	ret

000000000001217c <__sfp>:
   1217c:	1101                	addi	sp,sp,-32
   1217e:	e426                	sd	s1,8(sp)
   12180:	8381b483          	ld	s1,-1992(gp) # 1c150 <_global_impure_ptr>
   12184:	e04a                	sd	s2,0(sp)
   12186:	ec06                	sd	ra,24(sp)
   12188:	48bc                	lw	a5,80(s1)
   1218a:	e822                	sd	s0,16(sp)
   1218c:	892a                	mv	s2,a0
   1218e:	e781                	bnez	a5,12196 <__sfp+0x1a>
   12190:	8526                	mv	a0,s1
   12192:	f97ff0ef          	jal	ra,12128 <__sinit>
   12196:	52048493          	addi	s1,s1,1312
   1219a:	6880                	ld	s0,16(s1)
   1219c:	449c                	lw	a5,8(s1)
   1219e:	37fd                	addiw	a5,a5,-1
   121a0:	0007d663          	bgez	a5,121ac <__sfp+0x30>
   121a4:	609c                	ld	a5,0(s1)
   121a6:	cb89                	beqz	a5,121b8 <__sfp+0x3c>
   121a8:	6084                	ld	s1,0(s1)
   121aa:	bfc5                	j	1219a <__sfp+0x1e>
   121ac:	01041703          	lh	a4,16(s0)
   121b0:	c70d                	beqz	a4,121da <__sfp+0x5e>
   121b2:	0b040413          	addi	s0,s0,176
   121b6:	b7e5                	j	1219e <__sfp+0x22>
   121b8:	4591                	li	a1,4
   121ba:	854a                	mv	a0,s2
   121bc:	f1dff0ef          	jal	ra,120d8 <__sfmoreglue>
   121c0:	e088                	sd	a0,0(s1)
   121c2:	f17d                	bnez	a0,121a8 <__sfp+0x2c>
   121c4:	47b1                	li	a5,12
   121c6:	00f92023          	sw	a5,0(s2)
   121ca:	4401                	li	s0,0
   121cc:	8522                	mv	a0,s0
   121ce:	60e2                	ld	ra,24(sp)
   121d0:	6442                	ld	s0,16(sp)
   121d2:	64a2                	ld	s1,8(sp)
   121d4:	6902                	ld	s2,0(sp)
   121d6:	6105                	addi	sp,sp,32
   121d8:	8082                	ret
   121da:	77c1                	lui	a5,0xffff0
   121dc:	2785                	addiw	a5,a5,1
   121de:	0a042623          	sw	zero,172(s0)
   121e2:	00043023          	sd	zero,0(s0)
   121e6:	00043423          	sd	zero,8(s0)
   121ea:	c81c                	sw	a5,16(s0)
   121ec:	00043c23          	sd	zero,24(s0)
   121f0:	02042023          	sw	zero,32(s0)
   121f4:	02042423          	sw	zero,40(s0)
   121f8:	4621                	li	a2,8
   121fa:	4581                	li	a1,0
   121fc:	0a440513          	addi	a0,s0,164
   12200:	abefe0ef          	jal	ra,104be <memset>
   12204:	04043c23          	sd	zero,88(s0)
   12208:	06042023          	sw	zero,96(s0)
   1220c:	06043c23          	sd	zero,120(s0)
   12210:	08042023          	sw	zero,128(s0)
   12214:	bf65                	j	121cc <__sfp+0x50>

0000000000012216 <__sfp_lock_acquire>:
   12216:	8082                	ret

0000000000012218 <__sfp_lock_release>:
   12218:	8082                	ret

000000000001221a <__sinit_lock_acquire>:
   1221a:	8082                	ret

000000000001221c <__sinit_lock_release>:
   1221c:	8082                	ret

000000000001221e <__fp_lock_all>:
   1221e:	8401b503          	ld	a0,-1984(gp) # 1c158 <_impure_ptr>
   12222:	000125b7          	lui	a1,0x12
   12226:	05e58593          	addi	a1,a1,94 # 1205e <__fp_lock>
   1222a:	56a0006f          	j	12794 <_fwalk>

000000000001222e <__fp_unlock_all>:
   1222e:	8401b503          	ld	a0,-1984(gp) # 1c158 <_impure_ptr>
   12232:	000125b7          	lui	a1,0x12
   12236:	0d458593          	addi	a1,a1,212 # 120d4 <__fp_unlock>
   1223a:	55a0006f          	j	12794 <_fwalk>

000000000001223e <_malloc_trim_r>:
   1223e:	7139                	addi	sp,sp,-64
   12240:	f04a                	sd	s2,32(sp)
   12242:	6971                	lui	s2,0x1c
   12244:	f822                	sd	s0,48(sp)
   12246:	f426                	sd	s1,40(sp)
   12248:	ec4e                	sd	s3,24(sp)
   1224a:	e42e                	sd	a1,8(sp)
   1224c:	fc06                	sd	ra,56(sp)
   1224e:	89aa                	mv	s3,a0
   12250:	90890913          	addi	s2,s2,-1784 # 1b908 <__malloc_av_>
   12254:	516020ef          	jal	ra,1476a <__malloc_lock>
   12258:	01093783          	ld	a5,16(s2)
   1225c:	65a2                	ld	a1,8(sp)
   1225e:	6784                	ld	s1,8(a5)
   12260:	6785                	lui	a5,0x1
   12262:	fdf78413          	addi	s0,a5,-33 # fdf <_start-0xf0d1>
   12266:	98f1                	andi	s1,s1,-4
   12268:	8c0d                	sub	s0,s0,a1
   1226a:	9426                	add	s0,s0,s1
   1226c:	8031                	srli	s0,s0,0xc
   1226e:	147d                	addi	s0,s0,-1
   12270:	0432                	slli	s0,s0,0xc
   12272:	00f45d63          	ble	a5,s0,1228c <_malloc_trim_r+0x4e>
   12276:	854e                	mv	a0,s3
   12278:	4f4020ef          	jal	ra,1476c <__malloc_unlock>
   1227c:	4501                	li	a0,0
   1227e:	70e2                	ld	ra,56(sp)
   12280:	7442                	ld	s0,48(sp)
   12282:	74a2                	ld	s1,40(sp)
   12284:	7902                	ld	s2,32(sp)
   12286:	69e2                	ld	s3,24(sp)
   12288:	6121                	addi	sp,sp,64
   1228a:	8082                	ret
   1228c:	4581                	li	a1,0
   1228e:	854e                	mv	a0,s3
   12290:	2c0030ef          	jal	ra,15550 <_sbrk_r>
   12294:	01093783          	ld	a5,16(s2)
   12298:	97a6                	add	a5,a5,s1
   1229a:	fcf51ee3          	bne	a0,a5,12276 <_malloc_trim_r+0x38>
   1229e:	408005b3          	neg	a1,s0
   122a2:	854e                	mv	a0,s3
   122a4:	2ac030ef          	jal	ra,15550 <_sbrk_r>
   122a8:	57fd                	li	a5,-1
   122aa:	02f51663          	bne	a0,a5,122d6 <_malloc_trim_r+0x98>
   122ae:	4581                	li	a1,0
   122b0:	854e                	mv	a0,s3
   122b2:	29e030ef          	jal	ra,15550 <_sbrk_r>
   122b6:	01093703          	ld	a4,16(s2)
   122ba:	46fd                	li	a3,31
   122bc:	40e507b3          	sub	a5,a0,a4
   122c0:	faf6dbe3          	ble	a5,a3,12276 <_malloc_trim_r+0x38>
   122c4:	8481b683          	ld	a3,-1976(gp) # 1c160 <__malloc_sbrk_base>
   122c8:	0017e793          	ori	a5,a5,1
   122cc:	e71c                	sd	a5,8(a4)
   122ce:	8d15                	sub	a0,a0,a3
   122d0:	0aa1ac23          	sw	a0,184(gp) # 1c9d0 <__malloc_current_mallinfo>
   122d4:	b74d                	j	12276 <_malloc_trim_r+0x38>
   122d6:	01093783          	ld	a5,16(s2)
   122da:	8c81                	sub	s1,s1,s0
   122dc:	0014e493          	ori	s1,s1,1
   122e0:	e784                	sd	s1,8(a5)
   122e2:	0b81a783          	lw	a5,184(gp) # 1c9d0 <__malloc_current_mallinfo>
   122e6:	854e                	mv	a0,s3
   122e8:	4087843b          	subw	s0,a5,s0
   122ec:	0a81ac23          	sw	s0,184(gp) # 1c9d0 <__malloc_current_mallinfo>
   122f0:	47c020ef          	jal	ra,1476c <__malloc_unlock>
   122f4:	4505                	li	a0,1
   122f6:	b761                	j	1227e <_malloc_trim_r+0x40>

00000000000122f8 <_free_r>:
   122f8:	1a058863          	beqz	a1,124a8 <_free_r+0x1b0>
   122fc:	1101                	addi	sp,sp,-32
   122fe:	e822                	sd	s0,16(sp)
   12300:	e426                	sd	s1,8(sp)
   12302:	842a                	mv	s0,a0
   12304:	84ae                	mv	s1,a1
   12306:	ec06                	sd	ra,24(sp)
   12308:	462020ef          	jal	ra,1476a <__malloc_lock>
   1230c:	ff84b503          	ld	a0,-8(s1)
   12310:	6671                	lui	a2,0x1c
   12312:	ff048693          	addi	a3,s1,-16
   12316:	ffe57793          	andi	a5,a0,-2
   1231a:	90860813          	addi	a6,a2,-1784 # 1b908 <__malloc_av_>
   1231e:	00f685b3          	add	a1,a3,a5
   12322:	6598                	ld	a4,8(a1)
   12324:	01083803          	ld	a6,16(a6)
   12328:	90860613          	addi	a2,a2,-1784
   1232c:	9b71                	andi	a4,a4,-4
   1232e:	8905                	andi	a0,a0,1
   12330:	04b81063          	bne	a6,a1,12370 <_free_r+0x78>
   12334:	97ba                	add	a5,a5,a4
   12336:	e909                	bnez	a0,12348 <_free_r+0x50>
   12338:	ff04b703          	ld	a4,-16(s1)
   1233c:	8e99                	sub	a3,a3,a4
   1233e:	6a8c                	ld	a1,16(a3)
   12340:	97ba                	add	a5,a5,a4
   12342:	6e98                	ld	a4,24(a3)
   12344:	ed98                	sd	a4,24(a1)
   12346:	eb0c                	sd	a1,16(a4)
   12348:	0017e713          	ori	a4,a5,1
   1234c:	e698                	sd	a4,8(a3)
   1234e:	8501b703          	ld	a4,-1968(gp) # 1c168 <__malloc_trim_threshold>
   12352:	ea14                	sd	a3,16(a2)
   12354:	00e7e763          	bltu	a5,a4,12362 <_free_r+0x6a>
   12358:	8701b583          	ld	a1,-1936(gp) # 1c188 <__malloc_top_pad>
   1235c:	8522                	mv	a0,s0
   1235e:	ee1ff0ef          	jal	ra,1223e <_malloc_trim_r>
   12362:	8522                	mv	a0,s0
   12364:	6442                	ld	s0,16(sp)
   12366:	60e2                	ld	ra,24(sp)
   12368:	64a2                	ld	s1,8(sp)
   1236a:	6105                	addi	sp,sp,32
   1236c:	4000206f          	j	1476c <__malloc_unlock>
   12370:	e598                	sd	a4,8(a1)
   12372:	4801                	li	a6,0
   12374:	e10d                	bnez	a0,12396 <_free_r+0x9e>
   12376:	ff04b503          	ld	a0,-16(s1)
   1237a:	68f1                	lui	a7,0x1c
   1237c:	91888893          	addi	a7,a7,-1768 # 1b918 <__malloc_av_+0x10>
   12380:	8e89                	sub	a3,a3,a0
   12382:	97aa                	add	a5,a5,a0
   12384:	6a88                	ld	a0,16(a3)
   12386:	07150e63          	beq	a0,a7,12402 <_free_r+0x10a>
   1238a:	0186b883          	ld	a7,24(a3)
   1238e:	01153c23          	sd	a7,24(a0)
   12392:	00a8b823          	sd	a0,16(a7)
   12396:	00e58533          	add	a0,a1,a4
   1239a:	6508                	ld	a0,8(a0)
   1239c:	8905                	andi	a0,a0,1
   1239e:	ed19                	bnez	a0,123bc <_free_r+0xc4>
   123a0:	97ba                	add	a5,a5,a4
   123a2:	6998                	ld	a4,16(a1)
   123a4:	06081163          	bnez	a6,12406 <_free_r+0x10e>
   123a8:	6571                	lui	a0,0x1c
   123aa:	91850513          	addi	a0,a0,-1768 # 1b918 <__malloc_av_+0x10>
   123ae:	04a71c63          	bne	a4,a0,12406 <_free_r+0x10e>
   123b2:	f614                	sd	a3,40(a2)
   123b4:	f214                	sd	a3,32(a2)
   123b6:	ee98                	sd	a4,24(a3)
   123b8:	ea98                	sd	a4,16(a3)
   123ba:	4805                	li	a6,1
   123bc:	0017e713          	ori	a4,a5,1
   123c0:	e698                	sd	a4,8(a3)
   123c2:	00f68733          	add	a4,a3,a5
   123c6:	e31c                	sd	a5,0(a4)
   123c8:	f8081de3          	bnez	a6,12362 <_free_r+0x6a>
   123cc:	1ff00713          	li	a4,511
   123d0:	02f76f63          	bltu	a4,a5,1240e <_free_r+0x116>
   123d4:	838d                	srli	a5,a5,0x3
   123d6:	2781                	sext.w	a5,a5
   123d8:	4027d59b          	sraiw	a1,a5,0x2
   123dc:	4705                	li	a4,1
   123de:	00b71733          	sll	a4,a4,a1
   123e2:	2785                	addiw	a5,a5,1
   123e4:	660c                	ld	a1,8(a2)
   123e6:	0017979b          	slliw	a5,a5,0x1
   123ea:	078e                	slli	a5,a5,0x3
   123ec:	97b2                	add	a5,a5,a2
   123ee:	8f4d                	or	a4,a4,a1
   123f0:	e618                	sd	a4,8(a2)
   123f2:	6398                	ld	a4,0(a5)
   123f4:	ff078613          	addi	a2,a5,-16
   123f8:	ee90                	sd	a2,24(a3)
   123fa:	ea98                	sd	a4,16(a3)
   123fc:	e394                	sd	a3,0(a5)
   123fe:	ef14                	sd	a3,24(a4)
   12400:	b78d                	j	12362 <_free_r+0x6a>
   12402:	4805                	li	a6,1
   12404:	bf49                	j	12396 <_free_r+0x9e>
   12406:	6d8c                	ld	a1,24(a1)
   12408:	ef0c                	sd	a1,24(a4)
   1240a:	e998                	sd	a4,16(a1)
   1240c:	bf45                	j	123bc <_free_r+0xc4>
   1240e:	0097d593          	srli	a1,a5,0x9
   12412:	4711                	li	a4,4
   12414:	02b76e63          	bltu	a4,a1,12450 <_free_r+0x158>
   12418:	0067d713          	srli	a4,a5,0x6
   1241c:	0387071b          	addiw	a4,a4,56
   12420:	0017059b          	addiw	a1,a4,1
   12424:	0015959b          	slliw	a1,a1,0x1
   12428:	058e                	slli	a1,a1,0x3
   1242a:	95b2                	add	a1,a1,a2
   1242c:	ff058513          	addi	a0,a1,-16
   12430:	618c                	ld	a1,0(a1)
   12432:	06b51563          	bne	a0,a1,1249c <_free_r+0x1a4>
   12436:	4785                	li	a5,1
   12438:	4027571b          	sraiw	a4,a4,0x2
   1243c:	00e79733          	sll	a4,a5,a4
   12440:	661c                	ld	a5,8(a2)
   12442:	8f5d                	or	a4,a4,a5
   12444:	e618                	sd	a4,8(a2)
   12446:	ee88                	sd	a0,24(a3)
   12448:	ea8c                	sd	a1,16(a3)
   1244a:	e914                	sd	a3,16(a0)
   1244c:	ed94                	sd	a3,24(a1)
   1244e:	bf11                	j	12362 <_free_r+0x6a>
   12450:	4751                	li	a4,20
   12452:	00b76563          	bltu	a4,a1,1245c <_free_r+0x164>
   12456:	05b5871b          	addiw	a4,a1,91
   1245a:	b7d9                	j	12420 <_free_r+0x128>
   1245c:	05400713          	li	a4,84
   12460:	00b76763          	bltu	a4,a1,1246e <_free_r+0x176>
   12464:	00c7d713          	srli	a4,a5,0xc
   12468:	06e7071b          	addiw	a4,a4,110
   1246c:	bf55                	j	12420 <_free_r+0x128>
   1246e:	15400713          	li	a4,340
   12472:	00b76763          	bltu	a4,a1,12480 <_free_r+0x188>
   12476:	00f7d713          	srli	a4,a5,0xf
   1247a:	0777071b          	addiw	a4,a4,119
   1247e:	b74d                	j	12420 <_free_r+0x128>
   12480:	55400513          	li	a0,1364
   12484:	07e00713          	li	a4,126
   12488:	f8b56ce3          	bltu	a0,a1,12420 <_free_r+0x128>
   1248c:	0127d713          	srli	a4,a5,0x12
   12490:	07c7071b          	addiw	a4,a4,124
   12494:	b771                	j	12420 <_free_r+0x128>
   12496:	698c                	ld	a1,16(a1)
   12498:	00b50663          	beq	a0,a1,124a4 <_free_r+0x1ac>
   1249c:	6598                	ld	a4,8(a1)
   1249e:	9b71                	andi	a4,a4,-4
   124a0:	fee7ebe3          	bltu	a5,a4,12496 <_free_r+0x19e>
   124a4:	6d88                	ld	a0,24(a1)
   124a6:	b745                	j	12446 <_free_r+0x14e>
   124a8:	8082                	ret

00000000000124aa <__sfvwrite_r>:
   124aa:	6a1c                	ld	a5,16(a2)
   124ac:	e781                	bnez	a5,124b4 <__sfvwrite_r+0xa>
   124ae:	4781                	li	a5,0
   124b0:	853e                	mv	a0,a5
   124b2:	8082                	ret
   124b4:	0105d783          	lhu	a5,16(a1)
   124b8:	7119                	addi	sp,sp,-128
   124ba:	f8a2                	sd	s0,112(sp)
   124bc:	f0ca                	sd	s2,96(sp)
   124be:	e8d2                	sd	s4,80(sp)
   124c0:	fc86                	sd	ra,120(sp)
   124c2:	f4a6                	sd	s1,104(sp)
   124c4:	ecce                	sd	s3,88(sp)
   124c6:	e4d6                	sd	s5,72(sp)
   124c8:	e0da                	sd	s6,64(sp)
   124ca:	fc5e                	sd	s7,56(sp)
   124cc:	f862                	sd	s8,48(sp)
   124ce:	f466                	sd	s9,40(sp)
   124d0:	f06a                	sd	s10,32(sp)
   124d2:	ec6e                	sd	s11,24(sp)
   124d4:	8ba1                	andi	a5,a5,8
   124d6:	8a32                	mv	s4,a2
   124d8:	842e                	mv	s0,a1
   124da:	892a                	mv	s2,a0
   124dc:	cfd1                	beqz	a5,12578 <__sfvwrite_r+0xce>
   124de:	6d9c                	ld	a5,24(a1)
   124e0:	cfc1                	beqz	a5,12578 <__sfvwrite_r+0xce>
   124e2:	01045783          	lhu	a5,16(s0)
   124e6:	000a3983          	ld	s3,0(s4)
   124ea:	0027f713          	andi	a4,a5,2
   124ee:	0e071863          	bnez	a4,125de <__sfvwrite_r+0x134>
   124f2:	8b85                	andi	a5,a5,1
   124f4:	4a81                	li	s5,0
   124f6:	16078463          	beqz	a5,1265e <__sfvwrite_r+0x1b4>
   124fa:	4501                	li	a0,0
   124fc:	4b81                	li	s7,0
   124fe:	4b01                	li	s6,0
   12500:	240b0863          	beqz	s6,12750 <__sfvwrite_r+0x2a6>
   12504:	e919                	bnez	a0,1251a <__sfvwrite_r+0x70>
   12506:	865a                	mv	a2,s6
   12508:	45a9                	li	a1,10
   1250a:	855e                	mv	a0,s7
   1250c:	148020ef          	jal	ra,14654 <memchr>
   12510:	24050763          	beqz	a0,1275e <__sfvwrite_r+0x2b4>
   12514:	0505                	addi	a0,a0,1
   12516:	41750abb          	subw	s5,a0,s7
   1251a:	8c56                	mv	s8,s5
   1251c:	015b7363          	bleu	s5,s6,12522 <__sfvwrite_r+0x78>
   12520:	8c5a                	mv	s8,s6
   12522:	6008                	ld	a0,0(s0)
   12524:	6c1c                	ld	a5,24(s0)
   12526:	5014                	lw	a3,32(s0)
   12528:	22a7fe63          	bleu	a0,a5,12764 <__sfvwrite_r+0x2ba>
   1252c:	4444                	lw	s1,12(s0)
   1252e:	9cb5                	addw	s1,s1,a3
   12530:	2384da63          	ble	s8,s1,12764 <__sfvwrite_r+0x2ba>
   12534:	85de                	mv	a1,s7
   12536:	8626                	mv	a2,s1
   12538:	1f4020ef          	jal	ra,1472c <memmove>
   1253c:	601c                	ld	a5,0(s0)
   1253e:	85a2                	mv	a1,s0
   12540:	854a                	mv	a0,s2
   12542:	97a6                	add	a5,a5,s1
   12544:	e01c                	sd	a5,0(s0)
   12546:	acbff0ef          	jal	ra,12010 <_fflush_r>
   1254a:	10051263          	bnez	a0,1264e <__sfvwrite_r+0x1a4>
   1254e:	409a8abb          	subw	s5,s5,s1
   12552:	4505                	li	a0,1
   12554:	000a9763          	bnez	s5,12562 <__sfvwrite_r+0xb8>
   12558:	85a2                	mv	a1,s0
   1255a:	854a                	mv	a0,s2
   1255c:	ab5ff0ef          	jal	ra,12010 <_fflush_r>
   12560:	e57d                	bnez	a0,1264e <__sfvwrite_r+0x1a4>
   12562:	010a3783          	ld	a5,16(s4)
   12566:	9ba6                	add	s7,s7,s1
   12568:	409b0b33          	sub	s6,s6,s1
   1256c:	409784b3          	sub	s1,a5,s1
   12570:	009a3823          	sd	s1,16(s4)
   12574:	f4d1                	bnez	s1,12500 <__sfvwrite_r+0x56>
   12576:	a099                	j	125bc <__sfvwrite_r+0x112>
   12578:	85a2                	mv	a1,s0
   1257a:	854a                	mv	a0,s2
   1257c:	f46ff0ef          	jal	ra,11cc2 <__swsetup_r>
   12580:	57fd                	li	a5,-1
   12582:	d125                	beqz	a0,124e2 <__sfvwrite_r+0x38>
   12584:	a82d                	j	125be <__sfvwrite_r+0x114>
   12586:	0009ba83          	ld	s5,0(s3)
   1258a:	0089b483          	ld	s1,8(s3)
   1258e:	09c1                	addi	s3,s3,16
   12590:	d8fd                	beqz	s1,12586 <__sfvwrite_r+0xdc>
   12592:	86a6                	mv	a3,s1
   12594:	009b7363          	bleu	s1,s6,1259a <__sfvwrite_r+0xf0>
   12598:	86da                	mv	a3,s6
   1259a:	603c                	ld	a5,64(s0)
   1259c:	780c                	ld	a1,48(s0)
   1259e:	2681                	sext.w	a3,a3
   125a0:	8656                	mv	a2,s5
   125a2:	854a                	mv	a0,s2
   125a4:	9782                	jalr	a5
   125a6:	0aa05463          	blez	a0,1264e <__sfvwrite_r+0x1a4>
   125aa:	010a3783          	ld	a5,16(s4)
   125ae:	9aaa                	add	s5,s5,a0
   125b0:	8c89                	sub	s1,s1,a0
   125b2:	40a78533          	sub	a0,a5,a0
   125b6:	00aa3823          	sd	a0,16(s4)
   125ba:	f979                	bnez	a0,12590 <__sfvwrite_r+0xe6>
   125bc:	4781                	li	a5,0
   125be:	70e6                	ld	ra,120(sp)
   125c0:	7446                	ld	s0,112(sp)
   125c2:	74a6                	ld	s1,104(sp)
   125c4:	7906                	ld	s2,96(sp)
   125c6:	69e6                	ld	s3,88(sp)
   125c8:	6a46                	ld	s4,80(sp)
   125ca:	6aa6                	ld	s5,72(sp)
   125cc:	6b06                	ld	s6,64(sp)
   125ce:	7be2                	ld	s7,56(sp)
   125d0:	7c42                	ld	s8,48(sp)
   125d2:	7ca2                	ld	s9,40(sp)
   125d4:	7d02                	ld	s10,32(sp)
   125d6:	6de2                	ld	s11,24(sp)
   125d8:	853e                	mv	a0,a5
   125da:	6109                	addi	sp,sp,128
   125dc:	8082                	ret
   125de:	80000b37          	lui	s6,0x80000
   125e2:	4a81                	li	s5,0
   125e4:	4481                	li	s1,0
   125e6:	c00b4b13          	xori	s6,s6,-1024
   125ea:	b75d                	j	12590 <__sfvwrite_r+0xe6>
   125ec:	0009ba83          	ld	s5,0(s3)
   125f0:	0089bd03          	ld	s10,8(s3)
   125f4:	09c1                	addi	s3,s3,16
   125f6:	4444                	lw	s1,12(s0)
   125f8:	87a6                	mv	a5,s1
   125fa:	fe0d09e3          	beqz	s10,125ec <__sfvwrite_r+0x142>
   125fe:	01045703          	lhu	a4,16(s0)
   12602:	6008                	ld	a0,0(s0)
   12604:	20077693          	andi	a3,a4,512
   12608:	0e068863          	beqz	a3,126f8 <__sfvwrite_r+0x24e>
   1260c:	089d6963          	bltu	s10,s1,1269e <__sfvwrite_r+0x1f4>
   12610:	48077693          	andi	a3,a4,1152
   12614:	c6c9                	beqz	a3,1269e <__sfvwrite_r+0x1f4>
   12616:	5004                	lw	s1,32(s0)
   12618:	6c0c                	ld	a1,24(s0)
   1261a:	029c04bb          	mulw	s1,s8,s1
   1261e:	8d0d                	sub	a0,a0,a1
   12620:	00050d9b          	sext.w	s11,a0
   12624:	001d8793          	addi	a5,s11,1
   12628:	97ea                	add	a5,a5,s10
   1262a:	0394c4bb          	divw	s1,s1,s9
   1262e:	00f4f563          	bleu	a5,s1,12638 <__sfvwrite_r+0x18e>
   12632:	2505                	addiw	a0,a0,1
   12634:	01a504bb          	addw	s1,a0,s10
   12638:	40077713          	andi	a4,a4,1024
   1263c:	cf49                	beqz	a4,126d6 <__sfvwrite_r+0x22c>
   1263e:	85a6                	mv	a1,s1
   12640:	854a                	mv	a0,s2
   12642:	2e5010ef          	jal	ra,14126 <_malloc_r>
   12646:	e515                	bnez	a0,12672 <__sfvwrite_r+0x1c8>
   12648:	47b1                	li	a5,12
   1264a:	00f92023          	sw	a5,0(s2)
   1264e:	01045783          	lhu	a5,16(s0)
   12652:	0407e793          	ori	a5,a5,64
   12656:	00f41823          	sh	a5,16(s0)
   1265a:	57fd                	li	a5,-1
   1265c:	b78d                	j	125be <__sfvwrite_r+0x114>
   1265e:	80000b37          	lui	s6,0x80000
   12662:	ffeb4b93          	xori	s7,s6,-2
   12666:	4d01                	li	s10,0
   12668:	fffb4b13          	not	s6,s6
   1266c:	4c0d                	li	s8,3
   1266e:	4c89                	li	s9,2
   12670:	b759                	j	125f6 <__sfvwrite_r+0x14c>
   12672:	6c0c                	ld	a1,24(s0)
   12674:	866e                	mv	a2,s11
   12676:	e42a                	sd	a0,8(sp)
   12678:	7f7010ef          	jal	ra,1466e <memcpy>
   1267c:	01045703          	lhu	a4,16(s0)
   12680:	67a2                	ld	a5,8(sp)
   12682:	b7f77713          	andi	a4,a4,-1153
   12686:	08076713          	ori	a4,a4,128
   1268a:	00e41823          	sh	a4,16(s0)
   1268e:	ec1c                	sd	a5,24(s0)
   12690:	d004                	sw	s1,32(s0)
   12692:	97ee                	add	a5,a5,s11
   12694:	41b484bb          	subw	s1,s1,s11
   12698:	e01c                	sd	a5,0(s0)
   1269a:	c444                	sw	s1,12(s0)
   1269c:	87ea                	mv	a5,s10
   1269e:	84ea                	mv	s1,s10
   126a0:	00fd7363          	bleu	a5,s10,126a6 <__sfvwrite_r+0x1fc>
   126a4:	87ea                	mv	a5,s10
   126a6:	6008                	ld	a0,0(s0)
   126a8:	863e                	mv	a2,a5
   126aa:	85d6                	mv	a1,s5
   126ac:	e43e                	sd	a5,8(sp)
   126ae:	07e020ef          	jal	ra,1472c <memmove>
   126b2:	4458                	lw	a4,12(s0)
   126b4:	67a2                	ld	a5,8(sp)
   126b6:	9f1d                	subw	a4,a4,a5
   126b8:	c458                	sw	a4,12(s0)
   126ba:	6018                	ld	a4,0(s0)
   126bc:	97ba                	add	a5,a5,a4
   126be:	e01c                	sd	a5,0(s0)
   126c0:	010a3783          	ld	a5,16(s4)
   126c4:	9aa6                	add	s5,s5,s1
   126c6:	409d0d33          	sub	s10,s10,s1
   126ca:	409784b3          	sub	s1,a5,s1
   126ce:	009a3823          	sd	s1,16(s4)
   126d2:	f095                	bnez	s1,125f6 <__sfvwrite_r+0x14c>
   126d4:	b5e5                	j	125bc <__sfvwrite_r+0x112>
   126d6:	8626                	mv	a2,s1
   126d8:	854a                	mv	a0,s2
   126da:	2ad020ef          	jal	ra,15186 <_realloc_r>
   126de:	87aa                	mv	a5,a0
   126e0:	f55d                	bnez	a0,1268e <__sfvwrite_r+0x1e4>
   126e2:	6c0c                	ld	a1,24(s0)
   126e4:	854a                	mv	a0,s2
   126e6:	c13ff0ef          	jal	ra,122f8 <_free_r>
   126ea:	01045783          	lhu	a5,16(s0)
   126ee:	f7f7f793          	andi	a5,a5,-129
   126f2:	00f41823          	sh	a5,16(s0)
   126f6:	bf89                	j	12648 <__sfvwrite_r+0x19e>
   126f8:	6c1c                	ld	a5,24(s0)
   126fa:	00a7e563          	bltu	a5,a0,12704 <__sfvwrite_r+0x25a>
   126fe:	5014                	lw	a3,32(s0)
   12700:	02dd7763          	bleu	a3,s10,1272e <__sfvwrite_r+0x284>
   12704:	009d7363          	bleu	s1,s10,1270a <__sfvwrite_r+0x260>
   12708:	84ea                	mv	s1,s10
   1270a:	8626                	mv	a2,s1
   1270c:	85d6                	mv	a1,s5
   1270e:	01e020ef          	jal	ra,1472c <memmove>
   12712:	445c                	lw	a5,12(s0)
   12714:	4097873b          	subw	a4,a5,s1
   12718:	601c                	ld	a5,0(s0)
   1271a:	c458                	sw	a4,12(s0)
   1271c:	97a6                	add	a5,a5,s1
   1271e:	e01c                	sd	a5,0(s0)
   12720:	f345                	bnez	a4,126c0 <__sfvwrite_r+0x216>
   12722:	85a2                	mv	a1,s0
   12724:	854a                	mv	a0,s2
   12726:	8ebff0ef          	jal	ra,12010 <_fflush_r>
   1272a:	d959                	beqz	a0,126c0 <__sfvwrite_r+0x216>
   1272c:	b70d                	j	1264e <__sfvwrite_r+0x1a4>
   1272e:	87da                	mv	a5,s6
   12730:	01abe363          	bltu	s7,s10,12736 <__sfvwrite_r+0x28c>
   12734:	87ea                	mv	a5,s10
   12736:	02d7c7bb          	divw	a5,a5,a3
   1273a:	6038                	ld	a4,64(s0)
   1273c:	780c                	ld	a1,48(s0)
   1273e:	8656                	mv	a2,s5
   12740:	854a                	mv	a0,s2
   12742:	02d786bb          	mulw	a3,a5,a3
   12746:	9702                	jalr	a4
   12748:	84aa                	mv	s1,a0
   1274a:	f6a04be3          	bgtz	a0,126c0 <__sfvwrite_r+0x216>
   1274e:	b701                	j	1264e <__sfvwrite_r+0x1a4>
   12750:	0009bb83          	ld	s7,0(s3)
   12754:	0089bb03          	ld	s6,8(s3)
   12758:	4501                	li	a0,0
   1275a:	09c1                	addi	s3,s3,16
   1275c:	b355                	j	12500 <__sfvwrite_r+0x56>
   1275e:	001b0a9b          	addiw	s5,s6,1
   12762:	bb65                	j	1251a <__sfvwrite_r+0x70>
   12764:	00dc4b63          	blt	s8,a3,1277a <__sfvwrite_r+0x2d0>
   12768:	603c                	ld	a5,64(s0)
   1276a:	780c                	ld	a1,48(s0)
   1276c:	865e                	mv	a2,s7
   1276e:	854a                	mv	a0,s2
   12770:	9782                	jalr	a5
   12772:	84aa                	mv	s1,a0
   12774:	dca04de3          	bgtz	a0,1254e <__sfvwrite_r+0xa4>
   12778:	bdd9                	j	1264e <__sfvwrite_r+0x1a4>
   1277a:	8662                	mv	a2,s8
   1277c:	85de                	mv	a1,s7
   1277e:	7af010ef          	jal	ra,1472c <memmove>
   12782:	445c                	lw	a5,12(s0)
   12784:	84e2                	mv	s1,s8
   12786:	418787bb          	subw	a5,a5,s8
   1278a:	c45c                	sw	a5,12(s0)
   1278c:	601c                	ld	a5,0(s0)
   1278e:	97e2                	add	a5,a5,s8
   12790:	e01c                	sd	a5,0(s0)
   12792:	bb75                	j	1254e <__sfvwrite_r+0xa4>

0000000000012794 <_fwalk>:
   12794:	715d                	addi	sp,sp,-80
   12796:	e0a2                	sd	s0,64(sp)
   12798:	fc26                	sd	s1,56(sp)
   1279a:	f052                	sd	s4,32(sp)
   1279c:	ec56                	sd	s5,24(sp)
   1279e:	e486                	sd	ra,72(sp)
   127a0:	f84a                	sd	s2,48(sp)
   127a2:	f44e                	sd	s3,40(sp)
   127a4:	52050493          	addi	s1,a0,1312
   127a8:	4401                	li	s0,0
   127aa:	4a05                	li	s4,1
   127ac:	5afd                	li	s5,-1
   127ae:	e899                	bnez	s1,127c4 <_fwalk+0x30>
   127b0:	8522                	mv	a0,s0
   127b2:	60a6                	ld	ra,72(sp)
   127b4:	6406                	ld	s0,64(sp)
   127b6:	74e2                	ld	s1,56(sp)
   127b8:	7942                	ld	s2,48(sp)
   127ba:	79a2                	ld	s3,40(sp)
   127bc:	7a02                	ld	s4,32(sp)
   127be:	6ae2                	ld	s5,24(sp)
   127c0:	6161                	addi	sp,sp,80
   127c2:	8082                	ret
   127c4:	0104b903          	ld	s2,16(s1)
   127c8:	0084a983          	lw	s3,8(s1)
   127cc:	39fd                	addiw	s3,s3,-1
   127ce:	0009d463          	bgez	s3,127d6 <_fwalk+0x42>
   127d2:	6084                	ld	s1,0(s1)
   127d4:	bfe9                	j	127ae <_fwalk+0x1a>
   127d6:	01095783          	lhu	a5,16(s2)
   127da:	00fa7c63          	bleu	a5,s4,127f2 <_fwalk+0x5e>
   127de:	01291783          	lh	a5,18(s2)
   127e2:	01578863          	beq	a5,s5,127f2 <_fwalk+0x5e>
   127e6:	854a                	mv	a0,s2
   127e8:	e42e                	sd	a1,8(sp)
   127ea:	9582                	jalr	a1
   127ec:	65a2                	ld	a1,8(sp)
   127ee:	8c49                	or	s0,s0,a0
   127f0:	2401                	sext.w	s0,s0
   127f2:	0b090913          	addi	s2,s2,176
   127f6:	bfd9                	j	127cc <_fwalk+0x38>

00000000000127f8 <_fwalk_reent>:
   127f8:	715d                	addi	sp,sp,-80
   127fa:	e0a2                	sd	s0,64(sp)
   127fc:	fc26                	sd	s1,56(sp)
   127fe:	f052                	sd	s4,32(sp)
   12800:	ec56                	sd	s5,24(sp)
   12802:	e85a                	sd	s6,16(sp)
   12804:	e45e                	sd	s7,8(sp)
   12806:	e486                	sd	ra,72(sp)
   12808:	f84a                	sd	s2,48(sp)
   1280a:	f44e                	sd	s3,40(sp)
   1280c:	8a2a                	mv	s4,a0
   1280e:	8aae                	mv	s5,a1
   12810:	52050493          	addi	s1,a0,1312
   12814:	4401                	li	s0,0
   12816:	4b05                	li	s6,1
   12818:	5bfd                	li	s7,-1
   1281a:	ec89                	bnez	s1,12834 <_fwalk_reent+0x3c>
   1281c:	8522                	mv	a0,s0
   1281e:	60a6                	ld	ra,72(sp)
   12820:	6406                	ld	s0,64(sp)
   12822:	74e2                	ld	s1,56(sp)
   12824:	7942                	ld	s2,48(sp)
   12826:	79a2                	ld	s3,40(sp)
   12828:	7a02                	ld	s4,32(sp)
   1282a:	6ae2                	ld	s5,24(sp)
   1282c:	6b42                	ld	s6,16(sp)
   1282e:	6ba2                	ld	s7,8(sp)
   12830:	6161                	addi	sp,sp,80
   12832:	8082                	ret
   12834:	0104b903          	ld	s2,16(s1)
   12838:	0084a983          	lw	s3,8(s1)
   1283c:	39fd                	addiw	s3,s3,-1
   1283e:	0009d463          	bgez	s3,12846 <_fwalk_reent+0x4e>
   12842:	6084                	ld	s1,0(s1)
   12844:	bfd9                	j	1281a <_fwalk_reent+0x22>
   12846:	01095783          	lhu	a5,16(s2)
   1284a:	00fb7b63          	bleu	a5,s6,12860 <_fwalk_reent+0x68>
   1284e:	01291783          	lh	a5,18(s2)
   12852:	01778763          	beq	a5,s7,12860 <_fwalk_reent+0x68>
   12856:	85ca                	mv	a1,s2
   12858:	8552                	mv	a0,s4
   1285a:	9a82                	jalr	s5
   1285c:	8c49                	or	s0,s0,a0
   1285e:	2401                	sext.w	s0,s0
   12860:	0b090913          	addi	s2,s2,176
   12864:	bfe1                	j	1283c <_fwalk_reent+0x44>

0000000000012866 <eclear>:
   12866:	01450793          	addi	a5,a0,20
   1286a:	0509                	addi	a0,a0,2
   1286c:	fe051f23          	sh	zero,-2(a0)
   12870:	fef51de3          	bne	a0,a5,1286a <eclear+0x4>
   12874:	8082                	ret

0000000000012876 <emov>:
   12876:	01450793          	addi	a5,a0,20
   1287a:	0509                	addi	a0,a0,2
   1287c:	ffe55703          	lhu	a4,-2(a0)
   12880:	0589                	addi	a1,a1,2
   12882:	fee59f23          	sh	a4,-2(a1)
   12886:	fea79ae3          	bne	a5,a0,1287a <emov+0x4>
   1288a:	8082                	ret

000000000001288c <ecleaz>:
   1288c:	01a50793          	addi	a5,a0,26
   12890:	0509                	addi	a0,a0,2
   12892:	fe051f23          	sh	zero,-2(a0)
   12896:	fef51de3          	bne	a0,a5,12890 <ecleaz+0x4>
   1289a:	8082                	ret

000000000001289c <emovz>:
   1289c:	01850713          	addi	a4,a0,24
   128a0:	87ae                	mv	a5,a1
   128a2:	0509                	addi	a0,a0,2
   128a4:	ffe55683          	lhu	a3,-2(a0)
   128a8:	0789                	addi	a5,a5,2
   128aa:	fed79f23          	sh	a3,-2(a5)
   128ae:	fea71ae3          	bne	a4,a0,128a2 <emovz+0x6>
   128b2:	00059c23          	sh	zero,24(a1)
   128b6:	8082                	ret

00000000000128b8 <ecmpm>:
   128b8:	00450793          	addi	a5,a0,4
   128bc:	0591                	addi	a1,a1,4
   128be:	0569                	addi	a0,a0,26
   128c0:	0789                	addi	a5,a5,2
   128c2:	0589                	addi	a1,a1,2
   128c4:	ffe7d683          	lhu	a3,-2(a5)
   128c8:	ffe5d703          	lhu	a4,-2(a1)
   128cc:	00e69663          	bne	a3,a4,128d8 <ecmpm+0x20>
   128d0:	fef518e3          	bne	a0,a5,128c0 <ecmpm+0x8>
   128d4:	4501                	li	a0,0
   128d6:	8082                	ret
   128d8:	4505                	li	a0,1
   128da:	00d76363          	bltu	a4,a3,128e0 <ecmpm+0x28>
   128de:	557d                	li	a0,-1
   128e0:	8082                	ret

00000000000128e2 <eshdn1>:
   128e2:	00450693          	addi	a3,a0,4
   128e6:	4781                	li	a5,0
   128e8:	0569                	addi	a0,a0,26
   128ea:	7661                	lui	a2,0xffff8
   128ec:	0006d703          	lhu	a4,0(a3)
   128f0:	00177593          	andi	a1,a4,1
   128f4:	c199                	beqz	a1,128fa <eshdn1+0x18>
   128f6:	0017e793          	ori	a5,a5,1
   128fa:	0027f593          	andi	a1,a5,2
   128fe:	8305                	srli	a4,a4,0x1
   12900:	e999                	bnez	a1,12916 <eshdn1+0x34>
   12902:	0017979b          	slliw	a5,a5,0x1
   12906:	00e69023          	sh	a4,0(a3)
   1290a:	17c2                	slli	a5,a5,0x30
   1290c:	0689                	addi	a3,a3,2
   1290e:	93c1                	srli	a5,a5,0x30
   12910:	fcd51ee3          	bne	a0,a3,128ec <eshdn1+0xa>
   12914:	8082                	ret
   12916:	8f51                	or	a4,a4,a2
   12918:	b7ed                	j	12902 <eshdn1+0x20>

000000000001291a <eshup1>:
   1291a:	01650693          	addi	a3,a0,22
   1291e:	4701                	li	a4,0
   12920:	0026d783          	lhu	a5,2(a3)
   12924:	0107961b          	slliw	a2,a5,0x10
   12928:	4106561b          	sraiw	a2,a2,0x10
   1292c:	00065463          	bgez	a2,12934 <eshup1+0x1a>
   12930:	00176713          	ori	a4,a4,1
   12934:	0017979b          	slliw	a5,a5,0x1
   12938:	17c2                	slli	a5,a5,0x30
   1293a:	00277613          	andi	a2,a4,2
   1293e:	93c1                	srli	a5,a5,0x30
   12940:	ea19                	bnez	a2,12956 <eshup1+0x3c>
   12942:	0017171b          	slliw	a4,a4,0x1
   12946:	00f69123          	sh	a5,2(a3)
   1294a:	1742                	slli	a4,a4,0x30
   1294c:	16f9                	addi	a3,a3,-2
   1294e:	9341                	srli	a4,a4,0x30
   12950:	fcd518e3          	bne	a0,a3,12920 <eshup1+0x6>
   12954:	8082                	ret
   12956:	0017e793          	ori	a5,a5,1
   1295a:	b7e5                	j	12942 <eshup1+0x28>

000000000001295c <eshdn8>:
   1295c:	00450793          	addi	a5,a0,4
   12960:	4701                	li	a4,0
   12962:	0569                	addi	a0,a0,26
   12964:	0007d683          	lhu	a3,0(a5)
   12968:	0789                	addi	a5,a5,2
   1296a:	0086d61b          	srliw	a2,a3,0x8
   1296e:	8f51                	or	a4,a4,a2
   12970:	fee79f23          	sh	a4,-2(a5)
   12974:	0086971b          	slliw	a4,a3,0x8
   12978:	1742                	slli	a4,a4,0x30
   1297a:	9341                	srli	a4,a4,0x30
   1297c:	fef514e3          	bne	a0,a5,12964 <eshdn8+0x8>
   12980:	8082                	ret

0000000000012982 <eshup8>:
   12982:	01650793          	addi	a5,a0,22
   12986:	4701                	li	a4,0
   12988:	0027d683          	lhu	a3,2(a5)
   1298c:	17f9                	addi	a5,a5,-2
   1298e:	00869613          	slli	a2,a3,0x8
   12992:	8f51                	or	a4,a4,a2
   12994:	00e79223          	sh	a4,4(a5)
   12998:	0086d713          	srli	a4,a3,0x8
   1299c:	fef516e3          	bne	a0,a5,12988 <eshup8+0x6>
   129a0:	8082                	ret

00000000000129a2 <eshup6>:
   129a2:	00450793          	addi	a5,a0,4
   129a6:	01850713          	addi	a4,a0,24
   129aa:	0789                	addi	a5,a5,2
   129ac:	0007d683          	lhu	a3,0(a5)
   129b0:	fed79f23          	sh	a3,-2(a5)
   129b4:	fef71be3          	bne	a4,a5,129aa <eshup6+0x8>
   129b8:	00051c23          	sh	zero,24(a0)
   129bc:	8082                	ret

00000000000129be <eshdn6>:
   129be:	01850793          	addi	a5,a0,24
   129c2:	01a50713          	addi	a4,a0,26
   129c6:	00450693          	addi	a3,a0,4
   129ca:	17f9                	addi	a5,a5,-2
   129cc:	0007d603          	lhu	a2,0(a5)
   129d0:	1779                	addi	a4,a4,-2
   129d2:	00c71023          	sh	a2,0(a4) # 20400000 <_end+0x201d3600>
   129d6:	fef69ae3          	bne	a3,a5,129ca <eshdn6+0xc>
   129da:	00051223          	sh	zero,4(a0)
   129de:	8082                	ret

00000000000129e0 <eaddm>:
   129e0:	05e1                	addi	a1,a1,24
   129e2:	01650713          	addi	a4,a0,22
   129e6:	4681                	li	a3,0
   129e8:	0005d783          	lhu	a5,0(a1)
   129ec:	1779                	addi	a4,a4,-2
   129ee:	15f9                	addi	a1,a1,-2
   129f0:	97b6                	add	a5,a5,a3
   129f2:	00475683          	lhu	a3,4(a4)
   129f6:	97b6                	add	a5,a5,a3
   129f8:	00f59123          	sh	a5,2(a1)
   129fc:	83c1                	srli	a5,a5,0x10
   129fe:	0017f693          	andi	a3,a5,1
   12a02:	fee513e3          	bne	a0,a4,129e8 <eaddm+0x8>
   12a06:	8082                	ret

0000000000012a08 <esubm>:
   12a08:	05e1                	addi	a1,a1,24
   12a0a:	01650713          	addi	a4,a0,22
   12a0e:	4681                	li	a3,0
   12a10:	0005d783          	lhu	a5,0(a1)
   12a14:	00275603          	lhu	a2,2(a4)
   12a18:	1779                	addi	a4,a4,-2
   12a1a:	15f9                	addi	a1,a1,-2
   12a1c:	8f91                	sub	a5,a5,a2
   12a1e:	8f95                	sub	a5,a5,a3
   12a20:	00f59123          	sh	a5,2(a1)
   12a24:	83c1                	srli	a5,a5,0x10
   12a26:	0017f693          	andi	a3,a5,1
   12a2a:	fee513e3          	bne	a0,a4,12a10 <esubm+0x8>
   12a2e:	8082                	ret

0000000000012a30 <m16m>:
   12a30:	1101                	addi	sp,sp,-32
   12a32:	6341                	lui	t1,0x10
   12a34:	01858893          	addi	a7,a1,24
   12a38:	00011b23          	sh	zero,22(sp)
   12a3c:	00011c23          	sh	zero,24(sp)
   12a40:	0591                	addi	a1,a1,4
   12a42:	0834                	addi	a3,sp,24
   12a44:	137d                	addi	t1,t1,-1
   12a46:	0008d703          	lhu	a4,0(a7)
   12a4a:	16f9                	addi	a3,a3,-2
   12a4c:	18f9                	addi	a7,a7,-2
   12a4e:	e705                	bnez	a4,12a76 <m16m+0x46>
   12a50:	fe069f23          	sh	zero,-2(a3)
   12a54:	ff1599e3          	bne	a1,a7,12a46 <m16m+0x16>
   12a58:	4791                	li	a5,4
   12a5a:	4769                	li	a4,26
   12a5c:	00f105b3          	add	a1,sp,a5
   12a60:	0005d583          	lhu	a1,0(a1)
   12a64:	00f606b3          	add	a3,a2,a5
   12a68:	0789                	addi	a5,a5,2
   12a6a:	00b69023          	sh	a1,0(a3)
   12a6e:	fee797e3          	bne	a5,a4,12a5c <m16m+0x2c>
   12a72:	6105                	addi	sp,sp,32
   12a74:	8082                	ret
   12a76:	02a70733          	mul	a4,a4,a0
   12a7a:	0026d803          	lhu	a6,2(a3)
   12a7e:	006777b3          	and	a5,a4,t1
   12a82:	97c2                	add	a5,a5,a6
   12a84:	0107d813          	srli	a6,a5,0x10
   12a88:	00f69123          	sh	a5,2(a3)
   12a8c:	01075793          	srli	a5,a4,0x10
   12a90:	0006d703          	lhu	a4,0(a3)
   12a94:	97ba                	add	a5,a5,a4
   12a96:	97c2                	add	a5,a5,a6
   12a98:	00f69023          	sh	a5,0(a3)
   12a9c:	83c1                	srli	a5,a5,0x10
   12a9e:	fef69f23          	sh	a5,-2(a3)
   12aa2:	bf4d                	j	12a54 <m16m+0x24>

0000000000012aa4 <eisnan>:
   12aa4:	01255783          	lhu	a5,18(a0)
   12aa8:	fff7c793          	not	a5,a5
   12aac:	03179713          	slli	a4,a5,0x31
   12ab0:	eb09                	bnez	a4,12ac2 <eisnan+0x1e>
   12ab2:	01250793          	addi	a5,a0,18
   12ab6:	0509                	addi	a0,a0,2
   12ab8:	ffe55703          	lhu	a4,-2(a0)
   12abc:	e709                	bnez	a4,12ac6 <eisnan+0x22>
   12abe:	fea79ce3          	bne	a5,a0,12ab6 <eisnan+0x12>
   12ac2:	4501                	li	a0,0
   12ac4:	8082                	ret
   12ac6:	4505                	li	a0,1
   12ac8:	8082                	ret

0000000000012aca <eisneg>:
   12aca:	1141                	addi	sp,sp,-16
   12acc:	e022                	sd	s0,0(sp)
   12ace:	e406                	sd	ra,8(sp)
   12ad0:	842a                	mv	s0,a0
   12ad2:	fd3ff0ef          	jal	ra,12aa4 <eisnan>
   12ad6:	e901                	bnez	a0,12ae6 <eisneg+0x1c>
   12ad8:	01344503          	lbu	a0,19(s0)
   12adc:	811d                	srli	a0,a0,0x7
   12ade:	60a2                	ld	ra,8(sp)
   12ae0:	6402                	ld	s0,0(sp)
   12ae2:	0141                	addi	sp,sp,16
   12ae4:	8082                	ret
   12ae6:	4501                	li	a0,0
   12ae8:	bfdd                	j	12ade <eisneg+0x14>

0000000000012aea <emovi>:
   12aea:	01251783          	lh	a5,18(a0)
   12aee:	1101                	addi	sp,sp,-32
   12af0:	ec06                	sd	ra,24(sp)
   12af2:	e822                	sd	s0,16(sp)
   12af4:	e426                	sd	s1,8(sp)
   12af6:	e04a                	sd	s2,0(sp)
   12af8:	0407d963          	bgez	a5,12b4a <emovi+0x60>
   12afc:	57fd                	li	a5,-1
   12afe:	00f59023          	sh	a5,0(a1)
   12b02:	01255703          	lhu	a4,18(a0)
   12b06:	67a1                	lui	a5,0x8
   12b08:	17fd                	addi	a5,a5,-1
   12b0a:	8f7d                	and	a4,a4,a5
   12b0c:	00e59123          	sh	a4,2(a1)
   12b10:	01050913          	addi	s2,a0,16
   12b14:	04f71863          	bne	a4,a5,12b64 <emovi+0x7a>
   12b18:	842e                	mv	s0,a1
   12b1a:	84aa                	mv	s1,a0
   12b1c:	f89ff0ef          	jal	ra,12aa4 <eisnan>
   12b20:	c905                	beqz	a0,12b50 <emovi+0x66>
   12b22:	00640793          	addi	a5,s0,6
   12b26:	00041223          	sh	zero,4(s0)
   12b2a:	ffc48513          	addi	a0,s1,-4
   12b2e:	1979                	addi	s2,s2,-2
   12b30:	00295703          	lhu	a4,2(s2)
   12b34:	0789                	addi	a5,a5,2
   12b36:	fee79f23          	sh	a4,-2(a5) # 7ffe <_start-0x80b2>
   12b3a:	fea91ae3          	bne	s2,a0,12b2e <emovi+0x44>
   12b3e:	60e2                	ld	ra,24(sp)
   12b40:	6442                	ld	s0,16(sp)
   12b42:	64a2                	ld	s1,8(sp)
   12b44:	6902                	ld	s2,0(sp)
   12b46:	6105                	addi	sp,sp,32
   12b48:	8082                	ret
   12b4a:	00059023          	sh	zero,0(a1)
   12b4e:	bf55                	j	12b02 <emovi+0x18>
   12b50:	00440793          	addi	a5,s0,4
   12b54:	01a40593          	addi	a1,s0,26
   12b58:	0789                	addi	a5,a5,2
   12b5a:	fe079f23          	sh	zero,-2(a5)
   12b5e:	feb79de3          	bne	a5,a1,12b58 <emovi+0x6e>
   12b62:	bff1                	j	12b3e <emovi+0x54>
   12b64:	00658793          	addi	a5,a1,6
   12b68:	00059223          	sh	zero,4(a1)
   12b6c:	1579                	addi	a0,a0,-2
   12b6e:	1979                	addi	s2,s2,-2
   12b70:	00295703          	lhu	a4,2(s2)
   12b74:	0789                	addi	a5,a5,2
   12b76:	fee79f23          	sh	a4,-2(a5)
   12b7a:	fea91ae3          	bne	s2,a0,12b6e <emovi+0x84>
   12b7e:	00059c23          	sh	zero,24(a1)
   12b82:	bf75                	j	12b3e <emovi+0x54>

0000000000012b84 <ecmp>:
   12b84:	711d                	addi	sp,sp,-96
   12b86:	e4a6                	sd	s1,72(sp)
   12b88:	e0ca                	sd	s2,64(sp)
   12b8a:	ec86                	sd	ra,88(sp)
   12b8c:	e8a2                	sd	s0,80(sp)
   12b8e:	892a                	mv	s2,a0
   12b90:	84ae                	mv	s1,a1
   12b92:	f13ff0ef          	jal	ra,12aa4 <eisnan>
   12b96:	e559                	bnez	a0,12c24 <ecmp+0xa0>
   12b98:	8526                	mv	a0,s1
   12b9a:	f0bff0ef          	jal	ra,12aa4 <eisnan>
   12b9e:	842a                	mv	s0,a0
   12ba0:	e151                	bnez	a0,12c24 <ecmp+0xa0>
   12ba2:	858a                	mv	a1,sp
   12ba4:	854a                	mv	a0,s2
   12ba6:	f45ff0ef          	jal	ra,12aea <emovi>
   12baa:	100c                	addi	a1,sp,32
   12bac:	8526                	mv	a0,s1
   12bae:	f3dff0ef          	jal	ra,12aea <emovi>
   12bb2:	00015703          	lhu	a4,0(sp)
   12bb6:	02015783          	lhu	a5,32(sp)
   12bba:	02e78c63          	beq	a5,a4,12bf2 <ecmp+0x6e>
   12bbe:	4789                	li	a5,2
   12bc0:	46e1                	li	a3,24
   12bc2:	00f10633          	add	a2,sp,a5
   12bc6:	00065603          	lhu	a2,0(a2) # ffffffffffff8000 <_end+0xffffffffffdcb600>
   12bca:	e205                	bnez	a2,12bea <ecmp+0x66>
   12bcc:	1010                	addi	a2,sp,32
   12bce:	963e                	add	a2,a2,a5
   12bd0:	00065603          	lhu	a2,0(a2)
   12bd4:	ea19                	bnez	a2,12bea <ecmp+0x66>
   12bd6:	0789                	addi	a5,a5,2
   12bd8:	fed795e3          	bne	a5,a3,12bc2 <ecmp+0x3e>
   12bdc:	8522                	mv	a0,s0
   12bde:	60e6                	ld	ra,88(sp)
   12be0:	6446                	ld	s0,80(sp)
   12be2:	64a6                	ld	s1,72(sp)
   12be4:	6906                	ld	s2,64(sp)
   12be6:	6125                	addi	sp,sp,96
   12be8:	8082                	ret
   12bea:	4405                	li	s0,1
   12bec:	db65                	beqz	a4,12bdc <ecmp+0x58>
   12bee:	547d                	li	s0,-1
   12bf0:	b7f5                	j	12bdc <ecmp+0x58>
   12bf2:	4605                	li	a2,1
   12bf4:	c311                	beqz	a4,12bf8 <ecmp+0x74>
   12bf6:	567d                	li	a2,-1
   12bf8:	4781                	li	a5,0
   12bfa:	45e1                	li	a1,24
   12bfc:	00f10733          	add	a4,sp,a5
   12c00:	00075683          	lhu	a3,0(a4)
   12c04:	1018                	addi	a4,sp,32
   12c06:	973e                	add	a4,a4,a5
   12c08:	00075703          	lhu	a4,0(a4)
   12c0c:	00e69663          	bne	a3,a4,12c18 <ecmp+0x94>
   12c10:	0789                	addi	a5,a5,2
   12c12:	feb795e3          	bne	a5,a1,12bfc <ecmp+0x78>
   12c16:	b7d9                	j	12bdc <ecmp+0x58>
   12c18:	8432                	mv	s0,a2
   12c1a:	fcd761e3          	bltu	a4,a3,12bdc <ecmp+0x58>
   12c1e:	40c0043b          	negw	s0,a2
   12c22:	bf6d                	j	12bdc <ecmp+0x58>
   12c24:	5479                	li	s0,-2
   12c26:	bf5d                	j	12bdc <ecmp+0x58>

0000000000012c28 <eisinf>:
   12c28:	01255783          	lhu	a5,18(a0)
   12c2c:	fff7c793          	not	a5,a5
   12c30:	03179713          	slli	a4,a5,0x31
   12c34:	eb11                	bnez	a4,12c48 <eisinf+0x20>
   12c36:	1141                	addi	sp,sp,-16
   12c38:	e406                	sd	ra,8(sp)
   12c3a:	e6bff0ef          	jal	ra,12aa4 <eisnan>
   12c3e:	60a2                	ld	ra,8(sp)
   12c40:	00153513          	seqz	a0,a0
   12c44:	0141                	addi	sp,sp,16
   12c46:	8082                	ret
   12c48:	4501                	li	a0,0
   12c4a:	8082                	ret

0000000000012c4c <einfin.isra.2>:
   12c4c:	01250793          	addi	a5,a0,18
   12c50:	0509                	addi	a0,a0,2
   12c52:	fe051f23          	sh	zero,-2(a0)
   12c56:	fef51de3          	bne	a0,a5,12c50 <einfin.isra.2+0x4>
   12c5a:	00055783          	lhu	a5,0(a0)
   12c5e:	6721                	lui	a4,0x8
   12c60:	177d                	addi	a4,a4,-1
   12c62:	8fd9                	or	a5,a5,a4
   12c64:	00f51023          	sh	a5,0(a0)
   12c68:	8082                	ret

0000000000012c6a <eshift.part.3>:
   12c6a:	7139                	addi	sp,sp,-64
   12c6c:	f822                	sd	s0,48(sp)
   12c6e:	ec4e                	sd	s3,24(sp)
   12c70:	fc06                	sd	ra,56(sp)
   12c72:	f426                	sd	s1,40(sp)
   12c74:	f04a                	sd	s2,32(sp)
   12c76:	e852                	sd	s4,16(sp)
   12c78:	e456                	sd	s5,8(sp)
   12c7a:	89aa                	mv	s3,a0
   12c7c:	842e                	mv	s0,a1
   12c7e:	0a05d963          	bgez	a1,12d30 <eshift.part.3+0xc6>
   12c82:	40b00a3b          	negw	s4,a1
   12c86:	8952                	mv	s2,s4
   12c88:	4481                	li	s1,0
   12c8a:	4abd                	li	s5,15
   12c8c:	034ac763          	blt	s5,s4,12cba <eshift.part.3+0x50>
   12c90:	0049591b          	srliw	s2,s2,0x4
   12c94:	55c1                	li	a1,-16
   12c96:	02b905bb          	mulw	a1,s2,a1
   12c9a:	4a1d                	li	s4,7
   12c9c:	4085893b          	subw	s2,a1,s0
   12ca0:	844a                	mv	s0,s2
   12ca2:	032a4463          	blt	s4,s2,12cca <eshift.part.3+0x60>
   12ca6:	0034559b          	srliw	a1,s0,0x3
   12caa:	57e1                	li	a5,-8
   12cac:	02f585bb          	mulw	a1,a1,a5
   12cb0:	9c2d                	addw	s0,s0,a1
   12cb2:	e405                	bnez	s0,12cda <eshift.part.3+0x70>
   12cb4:	00903533          	snez	a0,s1
   12cb8:	a09d                	j	12d1e <eshift.part.3+0xb4>
   12cba:	0189d783          	lhu	a5,24(s3)
   12cbe:	854e                	mv	a0,s3
   12cc0:	3a41                	addiw	s4,s4,-16
   12cc2:	8cdd                	or	s1,s1,a5
   12cc4:	cfbff0ef          	jal	ra,129be <eshdn6>
   12cc8:	b7d1                	j	12c8c <eshift.part.3+0x22>
   12cca:	0189c783          	lbu	a5,24(s3)
   12cce:	854e                	mv	a0,s3
   12cd0:	3961                	addiw	s2,s2,-8
   12cd2:	8cdd                	or	s1,s1,a5
   12cd4:	c89ff0ef          	jal	ra,1295c <eshdn8>
   12cd8:	b7e9                	j	12ca2 <eshift.part.3+0x38>
   12cda:	0189d783          	lhu	a5,24(s3)
   12cde:	854e                	mv	a0,s3
   12ce0:	347d                	addiw	s0,s0,-1
   12ce2:	8b85                	andi	a5,a5,1
   12ce4:	8cdd                	or	s1,s1,a5
   12ce6:	bfdff0ef          	jal	ra,128e2 <eshdn1>
   12cea:	b7e1                	j	12cb2 <eshift.part.3+0x48>
   12cec:	854e                	mv	a0,s3
   12cee:	cb5ff0ef          	jal	ra,129a2 <eshup6>
   12cf2:	34c1                	addiw	s1,s1,-16
   12cf4:	fe994ce3          	blt	s2,s1,12cec <eshift.part.3+0x82>
   12cf8:	0044559b          	srliw	a1,s0,0x4
   12cfc:	57c1                	li	a5,-16
   12cfe:	02f585bb          	mulw	a1,a1,a5
   12d02:	491d                	li	s2,7
   12d04:	00b404bb          	addw	s1,s0,a1
   12d08:	8426                	mv	s0,s1
   12d0a:	02994663          	blt	s2,s1,12d36 <eshift.part.3+0xcc>
   12d0e:	0034559b          	srliw	a1,s0,0x3
   12d12:	57e1                	li	a5,-8
   12d14:	02f585bb          	mulw	a1,a1,a5
   12d18:	9c2d                	addw	s0,s0,a1
   12d1a:	e01d                	bnez	s0,12d40 <eshift.part.3+0xd6>
   12d1c:	4501                	li	a0,0
   12d1e:	70e2                	ld	ra,56(sp)
   12d20:	7442                	ld	s0,48(sp)
   12d22:	74a2                	ld	s1,40(sp)
   12d24:	7902                	ld	s2,32(sp)
   12d26:	69e2                	ld	s3,24(sp)
   12d28:	6a42                	ld	s4,16(sp)
   12d2a:	6aa2                	ld	s5,8(sp)
   12d2c:	6121                	addi	sp,sp,64
   12d2e:	8082                	ret
   12d30:	84ae                	mv	s1,a1
   12d32:	493d                	li	s2,15
   12d34:	b7c1                	j	12cf4 <eshift.part.3+0x8a>
   12d36:	854e                	mv	a0,s3
   12d38:	c4bff0ef          	jal	ra,12982 <eshup8>
   12d3c:	34e1                	addiw	s1,s1,-8
   12d3e:	b7f1                	j	12d0a <eshift.part.3+0xa0>
   12d40:	854e                	mv	a0,s3
   12d42:	bd9ff0ef          	jal	ra,1291a <eshup1>
   12d46:	347d                	addiw	s0,s0,-1
   12d48:	bfc9                	j	12d1a <eshift.part.3+0xb0>

0000000000012d4a <enormlz>:
   12d4a:	00455783          	lhu	a5,4(a0)
   12d4e:	1101                	addi	sp,sp,-32
   12d50:	e426                	sd	s1,8(sp)
   12d52:	ec06                	sd	ra,24(sp)
   12d54:	e822                	sd	s0,16(sp)
   12d56:	e04a                	sd	s2,0(sp)
   12d58:	84aa                	mv	s1,a0
   12d5a:	efb9                	bnez	a5,12db8 <enormlz+0x6e>
   12d5c:	00651783          	lh	a5,6(a0)
   12d60:	4401                	li	s0,0
   12d62:	0a000913          	li	s2,160
   12d66:	0007df63          	bgez	a5,12d84 <enormlz+0x3a>
   12d6a:	8522                	mv	a0,s0
   12d6c:	60e2                	ld	ra,24(sp)
   12d6e:	6442                	ld	s0,16(sp)
   12d70:	64a2                	ld	s1,8(sp)
   12d72:	6902                	ld	s2,0(sp)
   12d74:	6105                	addi	sp,sp,32
   12d76:	8082                	ret
   12d78:	8526                	mv	a0,s1
   12d7a:	2441                	addiw	s0,s0,16
   12d7c:	c27ff0ef          	jal	ra,129a2 <eshup6>
   12d80:	ff2405e3          	beq	s0,s2,12d6a <enormlz+0x20>
   12d84:	0064d783          	lhu	a5,6(s1)
   12d88:	dbe5                	beqz	a5,12d78 <enormlz+0x2e>
   12d8a:	0064d783          	lhu	a5,6(s1)
   12d8e:	f007f793          	andi	a5,a5,-256
   12d92:	cf91                	beqz	a5,12dae <enormlz+0x64>
   12d94:	0a000913          	li	s2,160
   12d98:	00649783          	lh	a5,6(s1)
   12d9c:	fc07c7e3          	bltz	a5,12d6a <enormlz+0x20>
   12da0:	8526                	mv	a0,s1
   12da2:	2405                	addiw	s0,s0,1
   12da4:	b77ff0ef          	jal	ra,1291a <eshup1>
   12da8:	fe8958e3          	ble	s0,s2,12d98 <enormlz+0x4e>
   12dac:	bf7d                	j	12d6a <enormlz+0x20>
   12dae:	8526                	mv	a0,s1
   12db0:	bd3ff0ef          	jal	ra,12982 <eshup8>
   12db4:	2421                	addiw	s0,s0,8
   12db6:	bfd1                	j	12d8a <enormlz+0x40>
   12db8:	f007f793          	andi	a5,a5,-256
   12dbc:	4401                	li	s0,0
   12dbe:	c781                	beqz	a5,12dc6 <enormlz+0x7c>
   12dc0:	b9dff0ef          	jal	ra,1295c <eshdn8>
   12dc4:	5461                	li	s0,-8
   12dc6:	f7000913          	li	s2,-144
   12dca:	a039                	j	12dd8 <enormlz+0x8e>
   12dcc:	8526                	mv	a0,s1
   12dce:	347d                	addiw	s0,s0,-1
   12dd0:	b13ff0ef          	jal	ra,128e2 <eshdn1>
   12dd4:	f9244be3          	blt	s0,s2,12d6a <enormlz+0x20>
   12dd8:	0044d783          	lhu	a5,4(s1)
   12ddc:	fbe5                	bnez	a5,12dcc <enormlz+0x82>
   12dde:	b771                	j	12d6a <enormlz+0x20>

0000000000012de0 <enan.constprop.12>:
   12de0:	01050793          	addi	a5,a0,16
   12de4:	0509                	addi	a0,a0,2
   12de6:	fe051f23          	sh	zero,-2(a0)
   12dea:	fef51de3          	bne	a0,a5,12de4 <enan.constprop.12+0x4>
   12dee:	77f1                	lui	a5,0xffffc
   12df0:	00f51023          	sh	a5,0(a0)
   12df4:	77e1                	lui	a5,0xffff8
   12df6:	fff7c793          	not	a5,a5
   12dfa:	00f51123          	sh	a5,2(a0)
   12dfe:	8082                	ret

0000000000012e00 <emovo.isra.6>:
   12e00:	872a                	mv	a4,a0
   12e02:	00075683          	lhu	a3,0(a4) # 8000 <_start-0x80b0>
   12e06:	852e                	mv	a0,a1
   12e08:	00275783          	lhu	a5,2(a4)
   12e0c:	c299                	beqz	a3,12e12 <emovo.isra.6+0x12>
   12e0e:	76e1                	lui	a3,0xffff8
   12e10:	8fd5                	or	a5,a5,a3
   12e12:	00f51923          	sh	a5,18(a0)
   12e16:	00275603          	lhu	a2,2(a4)
   12e1a:	66a1                	lui	a3,0x8
   12e1c:	16fd                	addi	a3,a3,-1
   12e1e:	00670793          	addi	a5,a4,6
   12e22:	00d61b63          	bne	a2,a3,12e38 <emovo.isra.6+0x38>
   12e26:	0769                	addi	a4,a4,26
   12e28:	0007d683          	lhu	a3,0(a5) # ffffffffffff8000 <_end+0xffffffffffdcb600>
   12e2c:	e28d                	bnez	a3,12e4e <emovo.isra.6+0x4e>
   12e2e:	0789                	addi	a5,a5,2
   12e30:	fee79ce3          	bne	a5,a4,12e28 <emovo.isra.6+0x28>
   12e34:	e19ff06f          	j	12c4c <einfin.isra.2>
   12e38:	0541                	addi	a0,a0,16
   12e3a:	0761                	addi	a4,a4,24
   12e3c:	0789                	addi	a5,a5,2
   12e3e:	ffe7d683          	lhu	a3,-2(a5)
   12e42:	1579                	addi	a0,a0,-2
   12e44:	00d51123          	sh	a3,2(a0)
   12e48:	fee79ae3          	bne	a5,a4,12e3c <emovo.isra.6+0x3c>
   12e4c:	8082                	ret
   12e4e:	f93ff06f          	j	12de0 <enan.constprop.12>

0000000000012e52 <e113toe.isra.8>:
   12e52:	7139                	addi	sp,sp,-64
   12e54:	f426                	sd	s1,40(sp)
   12e56:	84aa                	mv	s1,a0
   12e58:	850a                	mv	a0,sp
   12e5a:	f822                	sd	s0,48(sp)
   12e5c:	fc06                	sd	ra,56(sp)
   12e5e:	842e                	mv	s0,a1
   12e60:	a2dff0ef          	jal	ra,1288c <ecleaz>
   12e64:	00e4d703          	lhu	a4,14(s1)
   12e68:	0107179b          	slliw	a5,a4,0x10
   12e6c:	4107d79b          	sraiw	a5,a5,0x10
   12e70:	0207c763          	bltz	a5,12e9e <e113toe.isra.8+0x4c>
   12e74:	00011023          	sh	zero,0(sp)
   12e78:	66a1                	lui	a3,0x8
   12e7a:	16fd                	addi	a3,a3,-1
   12e7c:	8f75                	and	a4,a4,a3
   12e7e:	00e48793          	addi	a5,s1,14
   12e82:	04d71a63          	bne	a4,a3,12ed6 <e113toe.isra.8+0x84>
   12e86:	8726                	mv	a4,s1
   12e88:	00075683          	lhu	a3,0(a4)
   12e8c:	ce89                	beqz	a3,12ea6 <e113toe.isra.8+0x54>
   12e8e:	8522                	mv	a0,s0
   12e90:	f51ff0ef          	jal	ra,12de0 <enan.constprop.12>
   12e94:	70e2                	ld	ra,56(sp)
   12e96:	7442                	ld	s0,48(sp)
   12e98:	74a2                	ld	s1,40(sp)
   12e9a:	6121                	addi	sp,sp,64
   12e9c:	8082                	ret
   12e9e:	57fd                	li	a5,-1
   12ea0:	00f11023          	sh	a5,0(sp)
   12ea4:	bfd1                	j	12e78 <e113toe.isra.8+0x26>
   12ea6:	0709                	addi	a4,a4,2
   12ea8:	fee790e3          	bne	a5,a4,12e88 <e113toe.isra.8+0x36>
   12eac:	8522                	mv	a0,s0
   12eae:	9b9ff0ef          	jal	ra,12866 <eclear>
   12eb2:	8522                	mv	a0,s0
   12eb4:	d99ff0ef          	jal	ra,12c4c <einfin.isra.2>
   12eb8:	00e49783          	lh	a5,14(s1)
   12ebc:	fc07dce3          	bgez	a5,12e94 <e113toe.isra.8+0x42>
   12ec0:	8522                	mv	a0,s0
   12ec2:	be3ff0ef          	jal	ra,12aa4 <eisnan>
   12ec6:	f579                	bnez	a0,12e94 <e113toe.isra.8+0x42>
   12ec8:	01245783          	lhu	a5,18(s0)
   12ecc:	7761                	lui	a4,0xffff8
   12ece:	8fb9                	xor	a5,a5,a4
   12ed0:	00f41923          	sh	a5,18(s0)
   12ed4:	b7c1                	j	12e94 <e113toe.isra.8+0x42>
   12ed6:	00e11123          	sh	a4,2(sp)
   12eda:	868a                	mv	a3,sp
   12edc:	17f9                	addi	a5,a5,-2
   12ede:	0007d603          	lhu	a2,0(a5)
   12ee2:	0689                	addi	a3,a3,2
   12ee4:	00c69223          	sh	a2,4(a3) # 8004 <_start-0x80ac>
   12ee8:	fef49ae3          	bne	s1,a5,12edc <e113toe.isra.8+0x8a>
   12eec:	eb01                	bnez	a4,12efc <e113toe.isra.8+0xaa>
   12eee:	00011223          	sh	zero,4(sp)
   12ef2:	85a2                	mv	a1,s0
   12ef4:	850a                	mv	a0,sp
   12ef6:	f0bff0ef          	jal	ra,12e00 <emovo.isra.6>
   12efa:	bf69                	j	12e94 <e113toe.isra.8+0x42>
   12efc:	4785                	li	a5,1
   12efe:	55fd                	li	a1,-1
   12f00:	850a                	mv	a0,sp
   12f02:	00f11223          	sh	a5,4(sp)
   12f06:	d65ff0ef          	jal	ra,12c6a <eshift.part.3>
   12f0a:	b7e5                	j	12ef2 <e113toe.isra.8+0xa0>

0000000000012f0c <emdnorm>:
   12f0c:	7139                	addi	sp,sp,-64
   12f0e:	f822                	sd	s0,48(sp)
   12f10:	f426                	sd	s1,40(sp)
   12f12:	f04a                	sd	s2,32(sp)
   12f14:	ec4e                	sd	s3,24(sp)
   12f16:	e852                	sd	s4,16(sp)
   12f18:	e456                	sd	s5,8(sp)
   12f1a:	8936                	mv	s2,a3
   12f1c:	843e                	mv	s0,a5
   12f1e:	fc06                	sd	ra,56(sp)
   12f20:	84aa                	mv	s1,a0
   12f22:	89ae                	mv	s3,a1
   12f24:	8a32                	mv	s4,a2
   12f26:	8aba                	mv	s5,a4
   12f28:	e23ff0ef          	jal	ra,12d4a <enormlz>
   12f2c:	09000793          	li	a5,144
   12f30:	40a90933          	sub	s2,s2,a0
   12f34:	02a7d763          	ble	a0,a5,12f62 <emdnorm+0x56>
   12f38:	67a1                	lui	a5,0x8
   12f3a:	17f9                	addi	a5,a5,-2
   12f3c:	2327c663          	blt	a5,s2,13168 <emdnorm+0x25c>
   12f40:	00248793          	addi	a5,s1,2
   12f44:	04e9                	addi	s1,s1,26
   12f46:	0789                	addi	a5,a5,2
   12f48:	fe079f23          	sh	zero,-2(a5) # 7ffe <_start-0x80b2>
   12f4c:	fe979de3          	bne	a5,s1,12f46 <emdnorm+0x3a>
   12f50:	70e2                	ld	ra,56(sp)
   12f52:	7442                	ld	s0,48(sp)
   12f54:	74a2                	ld	s1,40(sp)
   12f56:	7902                	ld	s2,32(sp)
   12f58:	69e2                	ld	s3,24(sp)
   12f5a:	6a42                	ld	s4,16(sp)
   12f5c:	6aa2                	ld	s5,8(sp)
   12f5e:	6121                	addi	sp,sp,64
   12f60:	8082                	ret
   12f62:	00095d63          	bgez	s2,12f7c <emdnorm+0x70>
   12f66:	f7000793          	li	a5,-144
   12f6a:	0ef94a63          	blt	s2,a5,1305e <emdnorm+0x152>
   12f6e:	0009059b          	sext.w	a1,s2
   12f72:	8526                	mv	a0,s1
   12f74:	cf7ff0ef          	jal	ra,12c6a <eshift.part.3>
   12f78:	0e051c63          	bnez	a0,13070 <emdnorm+0x164>
   12f7c:	1a0a8a63          	beqz	s5,13130 <emdnorm+0x224>
   12f80:	4058                	lw	a4,4(s0)
   12f82:	401c                	lw	a5,0(s0)
   12f84:	04f70863          	beq	a4,a5,12fd4 <emdnorm+0xc8>
   12f88:	01a40513          	addi	a0,s0,26
   12f8c:	901ff0ef          	jal	ra,1288c <ecleaz>
   12f90:	405c                	lw	a5,4(s0)
   12f92:	03800713          	li	a4,56
   12f96:	10e78d63          	beq	a5,a4,130b0 <emdnorm+0x1a4>
   12f9a:	0cf74d63          	blt	a4,a5,13074 <emdnorm+0x168>
   12f9e:	4761                	li	a4,24
   12fa0:	12e78e63          	beq	a5,a4,130dc <emdnorm+0x1d0>
   12fa4:	03500713          	li	a4,53
   12fa8:	12e78163          	beq	a5,a4,130ca <emdnorm+0x1be>
   12fac:	80010737          	lui	a4,0x80010
   12fb0:	377d                	addiw	a4,a4,-1
   12fb2:	c858                	sw	a4,20(s0)
   12fb4:	4705                	li	a4,1
   12fb6:	00e41c23          	sh	a4,24(s0)
   12fba:	472d                	li	a4,11
   12fbc:	1702                	slli	a4,a4,0x20
   12fbe:	0731                	addi	a4,a4,12
   12fc0:	e418                	sd	a4,8(s0)
   12fc2:	4458                	lw	a4,12(s0)
   12fc4:	01845683          	lhu	a3,24(s0)
   12fc8:	0721                	addi	a4,a4,8
   12fca:	0706                	slli	a4,a4,0x1
   12fcc:	9722                	add	a4,a4,s0
   12fce:	00d71523          	sh	a3,10(a4) # ffffffff8001000a <_end+0xffffffff7fde360a>
   12fd2:	c01c                	sw	a5,0(s0)
   12fd4:	01204f63          	bgtz	s2,12ff2 <emdnorm+0xe6>
   12fd8:	4058                	lw	a4,4(s0)
   12fda:	09000793          	li	a5,144
   12fde:	00f70a63          	beq	a4,a5,12ff2 <emdnorm+0xe6>
   12fe2:	0184d783          	lhu	a5,24(s1)
   12fe6:	8526                	mv	a0,s1
   12fe8:	8b85                	andi	a5,a5,1
   12fea:	00f9e9b3          	or	s3,s3,a5
   12fee:	8f5ff0ef          	jal	ra,128e2 <eshdn1>
   12ff2:	4414                	lw	a3,8(s0)
   12ff4:	01445583          	lhu	a1,20(s0)
   12ff8:	4048                	lw	a0,4(s0)
   12ffa:	00169793          	slli	a5,a3,0x1
   12ffe:	00f48633          	add	a2,s1,a5
   13002:	00065703          	lhu	a4,0(a2)
   13006:	8f6d                	and	a4,a4,a1
   13008:	08f00593          	li	a1,143
   1300c:	00a5c863          	blt	a1,a0,1301c <emdnorm+0x110>
   13010:	0789                	addi	a5,a5,2
   13012:	2685                	addiw	a3,a3,1
   13014:	97a6                	add	a5,a5,s1
   13016:	45b1                	li	a1,12
   13018:	0cd5df63          	ble	a3,a1,130f6 <emdnorm+0x1ea>
   1301c:	01445783          	lhu	a5,20(s0)
   13020:	00065683          	lhu	a3,0(a2)
   13024:	fff7c793          	not	a5,a5
   13028:	8ff5                	and	a5,a5,a3
   1302a:	00f61023          	sh	a5,0(a2)
   1302e:	01645783          	lhu	a5,22(s0)
   13032:	00e7f6b3          	and	a3,a5,a4
   13036:	cee1                	beqz	a3,1310e <emdnorm+0x202>
   13038:	00e79d63          	bne	a5,a4,13052 <emdnorm+0x146>
   1303c:	0c099763          	bnez	s3,1310a <emdnorm+0x1fe>
   13040:	445c                	lw	a5,12(s0)
   13042:	01845703          	lhu	a4,24(s0)
   13046:	0786                	slli	a5,a5,0x1
   13048:	97a6                	add	a5,a5,s1
   1304a:	0007d783          	lhu	a5,0(a5)
   1304e:	8ff9                	and	a5,a5,a4
   13050:	cfdd                	beqz	a5,1310e <emdnorm+0x202>
   13052:	85a6                	mv	a1,s1
   13054:	01a40513          	addi	a0,s0,26
   13058:	989ff0ef          	jal	ra,129e0 <eaddm>
   1305c:	a84d                	j	1310e <emdnorm+0x202>
   1305e:	00248793          	addi	a5,s1,2
   13062:	04e9                	addi	s1,s1,26
   13064:	0789                	addi	a5,a5,2
   13066:	fe079f23          	sh	zero,-2(a5)
   1306a:	fe979de3          	bne	a5,s1,13064 <emdnorm+0x158>
   1306e:	b5cd                	j	12f50 <emdnorm+0x44>
   13070:	4985                	li	s3,1
   13072:	b729                	j	12f7c <emdnorm+0x70>
   13074:	04000713          	li	a4,64
   13078:	02e78163          	beq	a5,a4,1309a <emdnorm+0x18e>
   1307c:	07100713          	li	a4,113
   13080:	f2e796e3          	bne	a5,a4,12fac <emdnorm+0xa0>
   13084:	40008737          	lui	a4,0x40008
   13088:	377d                	addiw	a4,a4,-1
   1308a:	c858                	sw	a4,20(s0)
   1308c:	7761                	lui	a4,0xffff8
   1308e:	00e41c23          	sh	a4,24(s0)
   13092:	4729                	li	a4,10
   13094:	1702                	slli	a4,a4,0x20
   13096:	0729                	addi	a4,a4,10
   13098:	b725                	j	12fc0 <emdnorm+0xb4>
   1309a:	80010737          	lui	a4,0x80010
   1309e:	377d                	addiw	a4,a4,-1
   130a0:	c858                	sw	a4,20(s0)
   130a2:	4705                	li	a4,1
   130a4:	00e41c23          	sh	a4,24(s0)
   130a8:	470d                	li	a4,3
   130aa:	1706                	slli	a4,a4,0x21
   130ac:	071d                	addi	a4,a4,7
   130ae:	bf09                	j	12fc0 <emdnorm+0xb4>
   130b0:	00800737          	lui	a4,0x800
   130b4:	0ff7071b          	addiw	a4,a4,255
   130b8:	c858                	sw	a4,20(s0)
   130ba:	10000713          	li	a4,256
   130be:	00e41c23          	sh	a4,24(s0)
   130c2:	4719                	li	a4,6
   130c4:	1702                	slli	a4,a4,0x20
   130c6:	0719                	addi	a4,a4,6
   130c8:	bde5                	j	12fc0 <emdnorm+0xb4>
   130ca:	04000737          	lui	a4,0x4000
   130ce:	7ff7071b          	addiw	a4,a4,2047
   130d2:	c858                	sw	a4,20(s0)
   130d4:	6705                	lui	a4,0x1
   130d6:	8007071b          	addiw	a4,a4,-2048
   130da:	b7d5                	j	130be <emdnorm+0x1b2>
   130dc:	00800737          	lui	a4,0x800
   130e0:	0ff7071b          	addiw	a4,a4,255
   130e4:	c858                	sw	a4,20(s0)
   130e6:	10000713          	li	a4,256
   130ea:	00e41c23          	sh	a4,24(s0)
   130ee:	4711                	li	a4,4
   130f0:	1702                	slli	a4,a4,0x20
   130f2:	0711                	addi	a4,a4,4
   130f4:	b5f1                	j	12fc0 <emdnorm+0xb4>
   130f6:	0007d503          	lhu	a0,0(a5)
   130fa:	c119                	beqz	a0,13100 <emdnorm+0x1f4>
   130fc:	00176713          	ori	a4,a4,1
   13100:	00079023          	sh	zero,0(a5)
   13104:	2685                	addiw	a3,a3,1
   13106:	0789                	addi	a5,a5,2
   13108:	bf01                	j	13018 <emdnorm+0x10c>
   1310a:	f40a04e3          	beqz	s4,13052 <emdnorm+0x146>
   1310e:	01204a63          	bgtz	s2,13122 <emdnorm+0x216>
   13112:	4058                	lw	a4,4(s0)
   13114:	09000793          	li	a5,144
   13118:	00f70563          	beq	a4,a5,13122 <emdnorm+0x216>
   1311c:	8526                	mv	a0,s1
   1311e:	ffcff0ef          	jal	ra,1291a <eshup1>
   13122:	0044d783          	lhu	a5,4(s1)
   13126:	c789                	beqz	a5,13130 <emdnorm+0x224>
   13128:	8526                	mv	a0,s1
   1312a:	fb8ff0ef          	jal	ra,128e2 <eshdn1>
   1312e:	0905                	addi	s2,s2,1
   13130:	67a1                	lui	a5,0x8
   13132:	00049c23          	sh	zero,24(s1)
   13136:	17f9                	addi	a5,a5,-2
   13138:	0327d063          	ble	s2,a5,13158 <emdnorm+0x24c>
   1313c:	77e1                	lui	a5,0xffff8
   1313e:	fff7c793          	not	a5,a5
   13142:	00f49123          	sh	a5,2(s1)
   13146:	00448793          	addi	a5,s1,4
   1314a:	04e1                	addi	s1,s1,24
   1314c:	00079023          	sh	zero,0(a5) # ffffffffffff8000 <_end+0xffffffffffdcb600>
   13150:	0789                	addi	a5,a5,2
   13152:	fef49de3          	bne	s1,a5,1314c <emdnorm+0x240>
   13156:	bbed                	j	12f50 <emdnorm+0x44>
   13158:	00095563          	bgez	s2,13162 <emdnorm+0x256>
   1315c:	00049123          	sh	zero,2(s1)
   13160:	bbc5                	j	12f50 <emdnorm+0x44>
   13162:	01249123          	sh	s2,2(s1)
   13166:	b3ed                	j	12f50 <emdnorm+0x44>
   13168:	e00a9ce3          	bnez	s5,12f80 <emdnorm+0x74>
   1316c:	00049c23          	sh	zero,24(s1)
   13170:	b7f1                	j	1313c <emdnorm+0x230>

0000000000013172 <eiremain>:
   13172:	7139                	addi	sp,sp,-64
   13174:	e852                	sd	s4,16(sp)
   13176:	00255a03          	lhu	s4,2(a0)
   1317a:	f822                	sd	s0,48(sp)
   1317c:	842e                	mv	s0,a1
   1317e:	fc06                	sd	ra,56(sp)
   13180:	f426                	sd	s1,40(sp)
   13182:	f04a                	sd	s2,32(sp)
   13184:	e456                	sd	s5,8(sp)
   13186:	e05a                	sd	s6,0(sp)
   13188:	8932                	mv	s2,a2
   1318a:	03460b13          	addi	s6,a2,52
   1318e:	ec4e                	sd	s3,24(sp)
   13190:	8aaa                	mv	s5,a0
   13192:	bb9ff0ef          	jal	ra,12d4a <enormlz>
   13196:	00245483          	lhu	s1,2(s0)
   1319a:	40aa0a33          	sub	s4,s4,a0
   1319e:	8522                	mv	a0,s0
   131a0:	babff0ef          	jal	ra,12d4a <enormlz>
   131a4:	8c89                	sub	s1,s1,a0
   131a6:	855a                	mv	a0,s6
   131a8:	ee4ff0ef          	jal	ra,1288c <ecleaz>
   131ac:	0344d363          	ble	s4,s1,131d2 <eiremain+0x60>
   131b0:	8522                	mv	a0,s0
   131b2:	7442                	ld	s0,48(sp)
   131b4:	70e2                	ld	ra,56(sp)
   131b6:	69e2                	ld	s3,24(sp)
   131b8:	6a42                	ld	s4,16(sp)
   131ba:	6aa2                	ld	s5,8(sp)
   131bc:	6b02                	ld	s6,0(sp)
   131be:	87ca                	mv	a5,s2
   131c0:	86a6                	mv	a3,s1
   131c2:	7902                	ld	s2,32(sp)
   131c4:	74a2                	ld	s1,40(sp)
   131c6:	4701                	li	a4,0
   131c8:	4601                	li	a2,0
   131ca:	4581                	li	a1,0
   131cc:	6121                	addi	sp,sp,64
   131ce:	d3fff06f          	j	12f0c <emdnorm>
   131d2:	85a2                	mv	a1,s0
   131d4:	8556                	mv	a0,s5
   131d6:	ee2ff0ef          	jal	ra,128b8 <ecmpm>
   131da:	4981                	li	s3,0
   131dc:	00a04763          	bgtz	a0,131ea <eiremain+0x78>
   131e0:	85a2                	mv	a1,s0
   131e2:	8556                	mv	a0,s5
   131e4:	825ff0ef          	jal	ra,12a08 <esubm>
   131e8:	4985                	li	s3,1
   131ea:	855a                	mv	a0,s6
   131ec:	f2eff0ef          	jal	ra,1291a <eshup1>
   131f0:	04c95783          	lhu	a5,76(s2)
   131f4:	8522                	mv	a0,s0
   131f6:	14fd                	addi	s1,s1,-1
   131f8:	00f9e9b3          	or	s3,s3,a5
   131fc:	05391623          	sh	s3,76(s2)
   13200:	f1aff0ef          	jal	ra,1291a <eshup1>
   13204:	b765                	j	131ac <eiremain+0x3a>

0000000000013206 <emul>:
   13206:	7131                	addi	sp,sp,-192
   13208:	f922                	sd	s0,176(sp)
   1320a:	f526                	sd	s1,168(sp)
   1320c:	f14a                	sd	s2,160(sp)
   1320e:	ed4e                	sd	s3,152(sp)
   13210:	fd06                	sd	ra,184(sp)
   13212:	e952                	sd	s4,144(sp)
   13214:	e556                	sd	s5,136(sp)
   13216:	e15a                	sd	s6,128(sp)
   13218:	fcde                	sd	s7,120(sp)
   1321a:	f8e2                	sd	s8,112(sp)
   1321c:	f4e6                	sd	s9,104(sp)
   1321e:	84aa                	mv	s1,a0
   13220:	842e                	mv	s0,a1
   13222:	8932                	mv	s2,a2
   13224:	89b6                	mv	s3,a3
   13226:	87fff0ef          	jal	ra,12aa4 <eisnan>
   1322a:	c115                	beqz	a0,1324e <emul+0x48>
   1322c:	85ca                	mv	a1,s2
   1322e:	8526                	mv	a0,s1
   13230:	e46ff0ef          	jal	ra,12876 <emov>
   13234:	70ea                	ld	ra,184(sp)
   13236:	744a                	ld	s0,176(sp)
   13238:	74aa                	ld	s1,168(sp)
   1323a:	790a                	ld	s2,160(sp)
   1323c:	69ea                	ld	s3,152(sp)
   1323e:	6a4a                	ld	s4,144(sp)
   13240:	6aaa                	ld	s5,136(sp)
   13242:	6b0a                	ld	s6,128(sp)
   13244:	7be6                	ld	s7,120(sp)
   13246:	7c46                	ld	s8,112(sp)
   13248:	7ca6                	ld	s9,104(sp)
   1324a:	6129                	addi	sp,sp,192
   1324c:	8082                	ret
   1324e:	8522                	mv	a0,s0
   13250:	855ff0ef          	jal	ra,12aa4 <eisnan>
   13254:	c501                	beqz	a0,1325c <emul+0x56>
   13256:	85ca                	mv	a1,s2
   13258:	8522                	mv	a0,s0
   1325a:	bfd9                	j	13230 <emul+0x2a>
   1325c:	8526                	mv	a0,s1
   1325e:	9cbff0ef          	jal	ra,12c28 <eisinf>
   13262:	e521                	bnez	a0,132aa <emul+0xa4>
   13264:	8522                	mv	a0,s0
   13266:	9c3ff0ef          	jal	ra,12c28 <eisinf>
   1326a:	c901                	beqz	a0,1327a <emul+0x74>
   1326c:	65e9                	lui	a1,0x1a
   1326e:	02858593          	addi	a1,a1,40 # 1a028 <ezero>
   13272:	8526                	mv	a0,s1
   13274:	911ff0ef          	jal	ra,12b84 <ecmp>
   13278:	c121                	beqz	a0,132b8 <emul+0xb2>
   1327a:	8526                	mv	a0,s1
   1327c:	9adff0ef          	jal	ra,12c28 <eisinf>
   13280:	e509                	bnez	a0,1328a <emul+0x84>
   13282:	8522                	mv	a0,s0
   13284:	9a5ff0ef          	jal	ra,12c28 <eisinf>
   13288:	cd1d                	beqz	a0,132c6 <emul+0xc0>
   1328a:	8526                	mv	a0,s1
   1328c:	83fff0ef          	jal	ra,12aca <eisneg>
   13290:	84aa                	mv	s1,a0
   13292:	8522                	mv	a0,s0
   13294:	837ff0ef          	jal	ra,12aca <eisneg>
   13298:	02a48463          	beq	s1,a0,132c0 <emul+0xba>
   1329c:	77e1                	lui	a5,0xffff8
   1329e:	00f91923          	sh	a5,18(s2)
   132a2:	854a                	mv	a0,s2
   132a4:	9a9ff0ef          	jal	ra,12c4c <einfin.isra.2>
   132a8:	b771                	j	13234 <emul+0x2e>
   132aa:	65e9                	lui	a1,0x1a
   132ac:	02858593          	addi	a1,a1,40 # 1a028 <ezero>
   132b0:	8522                	mv	a0,s0
   132b2:	8d3ff0ef          	jal	ra,12b84 <ecmp>
   132b6:	f55d                	bnez	a0,13264 <emul+0x5e>
   132b8:	854a                	mv	a0,s2
   132ba:	b27ff0ef          	jal	ra,12de0 <enan.constprop.12>
   132be:	bf9d                	j	13234 <emul+0x2e>
   132c0:	00091923          	sh	zero,18(s2)
   132c4:	bff9                	j	132a2 <emul+0x9c>
   132c6:	8526                	mv	a0,s1
   132c8:	858a                	mv	a1,sp
   132ca:	821ff0ef          	jal	ra,12aea <emovi>
   132ce:	8522                	mv	a0,s0
   132d0:	100c                	addi	a1,sp,32
   132d2:	819ff0ef          	jal	ra,12aea <emovi>
   132d6:	00215403          	lhu	s0,2(sp)
   132da:	02215483          	lhu	s1,34(sp)
   132de:	ec09                	bnez	s0,132f8 <emul+0xf2>
   132e0:	4781                	li	a5,0
   132e2:	4759                	li	a4,22
   132e4:	00f106b3          	add	a3,sp,a5
   132e8:	0026d683          	lhu	a3,2(a3)
   132ec:	c6e9                	beqz	a3,133b6 <emul+0x1b0>
   132ee:	850a                	mv	a0,sp
   132f0:	a5bff0ef          	jal	ra,12d4a <enormlz>
   132f4:	40a00433          	neg	s0,a0
   132f8:	02215783          	lhu	a5,34(sp)
   132fc:	8c26                	mv	s8,s1
   132fe:	ef81                	bnez	a5,13316 <emul+0x110>
   13300:	4759                	li	a4,22
   13302:	1014                	addi	a3,sp,32
   13304:	96be                	add	a3,a3,a5
   13306:	0026d683          	lhu	a3,2(a3)
   1330a:	cecd                	beqz	a3,133c4 <emul+0x1be>
   1330c:	1008                	addi	a0,sp,32
   1330e:	a3dff0ef          	jal	ra,12d4a <enormlz>
   13312:	40a48c33          	sub	s8,s1,a0
   13316:	02015783          	lhu	a5,32(sp)
   1331a:	03498b93          	addi	s7,s3,52
   1331e:	03898493          	addi	s1,s3,56
   13322:	02f99a23          	sh	a5,52(s3)
   13326:	02215783          	lhu	a5,34(sp)
   1332a:	8a5e                	mv	s4,s7
   1332c:	02f99b23          	sh	a5,54(s3)
   13330:	04e98793          	addi	a5,s3,78
   13334:	00049023          	sh	zero,0(s1)
   13338:	0489                	addi	s1,s1,2
   1333a:	fe979de3          	bne	a5,s1,13334 <emul+0x12e>
   1333e:	4a81                	li	s5,0
   13340:	4b01                	li	s6,0
   13342:	5cb1                	li	s9,-20
   13344:	015107b3          	add	a5,sp,s5
   13348:	0187d503          	lhu	a0,24(a5) # ffffffffffff8018 <_end+0xffffffffffdcb618>
   1334c:	c909                	beqz	a0,1335e <emul+0x158>
   1334e:	100c                	addi	a1,sp,32
   13350:	0090                	addi	a2,sp,64
   13352:	edeff0ef          	jal	ra,12a30 <m16m>
   13356:	85de                	mv	a1,s7
   13358:	0088                	addi	a0,sp,64
   1335a:	e86ff0ef          	jal	ra,129e0 <eaddm>
   1335e:	04c9d783          	lhu	a5,76(s3)
   13362:	855e                	mv	a0,s7
   13364:	1af9                	addi	s5,s5,-2
   13366:	00fb6b33          	or	s6,s6,a5
   1336a:	e54ff0ef          	jal	ra,129be <eshdn6>
   1336e:	fd9a9be3          	bne	s5,s9,13344 <emul+0x13e>
   13372:	101c                	addi	a5,sp,32
   13374:	000a5703          	lhu	a4,0(s4)
   13378:	0a09                	addi	s4,s4,2
   1337a:	0789                	addi	a5,a5,2
   1337c:	fee79f23          	sh	a4,-2(a5)
   13380:	fe9a1ae3          	bne	s4,s1,13374 <emul+0x16e>
   13384:	76f1                	lui	a3,0xffffc
   13386:	9462                	add	s0,s0,s8
   13388:	0689                	addi	a3,a3,2
   1338a:	87ce                	mv	a5,s3
   1338c:	04000713          	li	a4,64
   13390:	96a2                	add	a3,a3,s0
   13392:	4601                	li	a2,0
   13394:	85da                	mv	a1,s6
   13396:	1008                	addi	a0,sp,32
   13398:	b75ff0ef          	jal	ra,12f0c <emdnorm>
   1339c:	00015703          	lhu	a4,0(sp)
   133a0:	02015783          	lhu	a5,32(sp)
   133a4:	02f71463          	bne	a4,a5,133cc <emul+0x1c6>
   133a8:	02011023          	sh	zero,32(sp)
   133ac:	85ca                	mv	a1,s2
   133ae:	1008                	addi	a0,sp,32
   133b0:	a51ff0ef          	jal	ra,12e00 <emovo.isra.6>
   133b4:	b541                	j	13234 <emul+0x2e>
   133b6:	0789                	addi	a5,a5,2
   133b8:	f2e796e3          	bne	a5,a4,132e4 <emul+0xde>
   133bc:	854a                	mv	a0,s2
   133be:	ca8ff0ef          	jal	ra,12866 <eclear>
   133c2:	bd8d                	j	13234 <emul+0x2e>
   133c4:	0789                	addi	a5,a5,2
   133c6:	f2e79ee3          	bne	a5,a4,13302 <emul+0xfc>
   133ca:	bfcd                	j	133bc <emul+0x1b6>
   133cc:	57fd                	li	a5,-1
   133ce:	02f11023          	sh	a5,32(sp)
   133d2:	bfe9                	j	133ac <emul+0x1a6>

00000000000133d4 <ediv>:
   133d4:	7131                	addi	sp,sp,-192
   133d6:	f922                	sd	s0,176(sp)
   133d8:	f526                	sd	s1,168(sp)
   133da:	f14a                	sd	s2,160(sp)
   133dc:	e556                	sd	s5,136(sp)
   133de:	fd06                	sd	ra,184(sp)
   133e0:	ed4e                	sd	s3,152(sp)
   133e2:	e952                	sd	s4,144(sp)
   133e4:	e15a                	sd	s6,128(sp)
   133e6:	fcde                	sd	s7,120(sp)
   133e8:	f8e2                	sd	s8,112(sp)
   133ea:	f4e6                	sd	s9,104(sp)
   133ec:	f0ea                	sd	s10,96(sp)
   133ee:	84aa                	mv	s1,a0
   133f0:	842e                	mv	s0,a1
   133f2:	8932                	mv	s2,a2
   133f4:	8ab6                	mv	s5,a3
   133f6:	eaeff0ef          	jal	ra,12aa4 <eisnan>
   133fa:	c11d                	beqz	a0,13420 <ediv+0x4c>
   133fc:	85ca                	mv	a1,s2
   133fe:	8526                	mv	a0,s1
   13400:	c76ff0ef          	jal	ra,12876 <emov>
   13404:	70ea                	ld	ra,184(sp)
   13406:	744a                	ld	s0,176(sp)
   13408:	74aa                	ld	s1,168(sp)
   1340a:	790a                	ld	s2,160(sp)
   1340c:	69ea                	ld	s3,152(sp)
   1340e:	6a4a                	ld	s4,144(sp)
   13410:	6aaa                	ld	s5,136(sp)
   13412:	6b0a                	ld	s6,128(sp)
   13414:	7be6                	ld	s7,120(sp)
   13416:	7c46                	ld	s8,112(sp)
   13418:	7ca6                	ld	s9,104(sp)
   1341a:	7d06                	ld	s10,96(sp)
   1341c:	6129                	addi	sp,sp,192
   1341e:	8082                	ret
   13420:	8522                	mv	a0,s0
   13422:	e82ff0ef          	jal	ra,12aa4 <eisnan>
   13426:	c501                	beqz	a0,1342e <ediv+0x5a>
   13428:	85ca                	mv	a1,s2
   1342a:	8522                	mv	a0,s0
   1342c:	bfd1                	j	13400 <ediv+0x2c>
   1342e:	69e9                	lui	s3,0x1a
   13430:	02898593          	addi	a1,s3,40 # 1a028 <ezero>
   13434:	8526                	mv	a0,s1
   13436:	f4eff0ef          	jal	ra,12b84 <ecmp>
   1343a:	16050763          	beqz	a0,135a8 <ediv+0x1d4>
   1343e:	8526                	mv	a0,s1
   13440:	fe8ff0ef          	jal	ra,12c28 <eisinf>
   13444:	89aa                	mv	s3,a0
   13446:	8522                	mv	a0,s0
   13448:	fe0ff0ef          	jal	ra,12c28 <eisinf>
   1344c:	16099963          	bnez	s3,135be <ediv+0x1ea>
   13450:	16051c63          	bnez	a0,135c8 <ediv+0x1f4>
   13454:	8526                	mv	a0,s1
   13456:	858a                	mv	a1,sp
   13458:	e92ff0ef          	jal	ra,12aea <emovi>
   1345c:	8522                	mv	a0,s0
   1345e:	100c                	addi	a1,sp,32
   13460:	e8aff0ef          	jal	ra,12aea <emovi>
   13464:	02215483          	lhu	s1,34(sp)
   13468:	00215403          	lhu	s0,2(sp)
   1346c:	ec91                	bnez	s1,13488 <ediv+0xb4>
   1346e:	4781                	li	a5,0
   13470:	4759                	li	a4,22
   13472:	1014                	addi	a3,sp,32
   13474:	96be                	add	a3,a3,a5
   13476:	0026d683          	lhu	a3,2(a3) # ffffffffffffc002 <_end+0xffffffffffdcf602>
   1347a:	16068763          	beqz	a3,135e8 <ediv+0x214>
   1347e:	1008                	addi	a0,sp,32
   13480:	8cbff0ef          	jal	ra,12d4a <enormlz>
   13484:	40a004b3          	neg	s1,a0
   13488:	00215783          	lhu	a5,2(sp)
   1348c:	8ba2                	mv	s7,s0
   1348e:	ef89                	bnez	a5,134a8 <ediv+0xd4>
   13490:	4759                	li	a4,22
   13492:	00f106b3          	add	a3,sp,a5
   13496:	0026d683          	lhu	a3,2(a3)
   1349a:	14068b63          	beqz	a3,135f0 <ediv+0x21c>
   1349e:	850a                	mv	a0,sp
   134a0:	8abff0ef          	jal	ra,12d4a <enormlz>
   134a4:	40a40bb3          	sub	s7,s0,a0
   134a8:	02015783          	lhu	a5,32(sp)
   134ac:	02215703          	lhu	a4,34(sp)
   134b0:	034a8993          	addi	s3,s5,52
   134b4:	02fa9a23          	sh	a5,52(s5)
   134b8:	038a8793          	addi	a5,s5,56
   134bc:	02ea9b23          	sh	a4,54(s5)
   134c0:	8a3e                	mv	s4,a5
   134c2:	04ea8713          	addi	a4,s5,78
   134c6:	0789                	addi	a5,a5,2
   134c8:	fe079f23          	sh	zero,-2(a5)
   134cc:	fee79de3          	bne	a5,a4,134c6 <ediv+0xf2>
   134d0:	1008                	addi	a0,sp,32
   134d2:	c10ff0ef          	jal	ra,128e2 <eshdn1>
   134d6:	00615c03          	lhu	s8,6(sp)
   134da:	6b41                	lui	s6,0x10
   134dc:	1b7d                	addi	s6,s6,-1
   134de:	036c0d33          	mul	s10,s8,s6
   134e2:	01a98c93          	addi	s9,s3,26
   134e6:	02415783          	lhu	a5,36(sp)
   134ea:	02615403          	lhu	s0,38(sp)
   134ee:	07c2                	slli	a5,a5,0x10
   134f0:	97a2                	add	a5,a5,s0
   134f2:	845a                	mv	s0,s6
   134f4:	00fd6663          	bltu	s10,a5,13500 <ediv+0x12c>
   134f8:	0387d433          	divu	s0,a5,s8
   134fc:	1442                	slli	s0,s0,0x30
   134fe:	9041                	srli	s0,s0,0x30
   13500:	858a                	mv	a1,sp
   13502:	8522                	mv	a0,s0
   13504:	0090                	addi	a2,sp,64
   13506:	d2aff0ef          	jal	ra,12a30 <m16m>
   1350a:	100c                	addi	a1,sp,32
   1350c:	0088                	addi	a0,sp,64
   1350e:	baaff0ef          	jal	ra,128b8 <ecmpm>
   13512:	00a05f63          	blez	a0,13530 <ediv+0x15c>
   13516:	008c                	addi	a1,sp,64
   13518:	850a                	mv	a0,sp
   1351a:	ceeff0ef          	jal	ra,12a08 <esubm>
   1351e:	100c                	addi	a1,sp,32
   13520:	0088                	addi	a0,sp,64
   13522:	b96ff0ef          	jal	ra,128b8 <ecmpm>
   13526:	0ea04163          	bgtz	a0,13608 <ediv+0x234>
   1352a:	347d                	addiw	s0,s0,-1
   1352c:	1442                	slli	s0,s0,0x30
   1352e:	9041                	srli	s0,s0,0x30
   13530:	100c                	addi	a1,sp,32
   13532:	0088                	addi	a0,sp,64
   13534:	cd4ff0ef          	jal	ra,12a08 <esubm>
   13538:	1008                	addi	a0,sp,32
   1353a:	008a1023          	sh	s0,0(s4)
   1353e:	0a09                	addi	s4,s4,2
   13540:	c62ff0ef          	jal	ra,129a2 <eshup6>
   13544:	fb9a11e3          	bne	s4,s9,134e6 <ediv+0x112>
   13548:	4781                	li	a5,0
   1354a:	4581                	li	a1,0
   1354c:	4759                	li	a4,22
   1354e:	1014                	addi	a3,sp,32
   13550:	96be                	add	a3,a3,a5
   13552:	0046d683          	lhu	a3,4(a3)
   13556:	0789                	addi	a5,a5,2
   13558:	8dd5                	or	a1,a1,a3
   1355a:	fee79ae3          	bne	a5,a4,1354e <ediv+0x17a>
   1355e:	2581                	sext.w	a1,a1
   13560:	00b035b3          	snez	a1,a1
   13564:	101c                	addi	a5,sp,32
   13566:	0009d703          	lhu	a4,0(s3)
   1356a:	0989                	addi	s3,s3,2
   1356c:	0789                	addi	a5,a5,2
   1356e:	fee79f23          	sh	a4,-2(a5)
   13572:	ff3a1ae3          	bne	s4,s3,13566 <ediv+0x192>
   13576:	6691                	lui	a3,0x4
   13578:	417484b3          	sub	s1,s1,s7
   1357c:	16fd                	addi	a3,a3,-1
   1357e:	87d6                	mv	a5,s5
   13580:	04000713          	li	a4,64
   13584:	96a6                	add	a3,a3,s1
   13586:	4601                	li	a2,0
   13588:	1008                	addi	a0,sp,32
   1358a:	983ff0ef          	jal	ra,12f0c <emdnorm>
   1358e:	00015703          	lhu	a4,0(sp)
   13592:	02015783          	lhu	a5,32(sp)
   13596:	08f71163          	bne	a4,a5,13618 <ediv+0x244>
   1359a:	02011023          	sh	zero,32(sp)
   1359e:	85ca                	mv	a1,s2
   135a0:	1008                	addi	a0,sp,32
   135a2:	85fff0ef          	jal	ra,12e00 <emovo.isra.6>
   135a6:	bdb9                	j	13404 <ediv+0x30>
   135a8:	02898593          	addi	a1,s3,40
   135ac:	8522                	mv	a0,s0
   135ae:	dd6ff0ef          	jal	ra,12b84 <ecmp>
   135b2:	e80516e3          	bnez	a0,1343e <ediv+0x6a>
   135b6:	854a                	mv	a0,s2
   135b8:	829ff0ef          	jal	ra,12de0 <enan.constprop.12>
   135bc:	b5a1                	j	13404 <ediv+0x30>
   135be:	fd65                	bnez	a0,135b6 <ediv+0x1e2>
   135c0:	854a                	mv	a0,s2
   135c2:	aa4ff0ef          	jal	ra,12866 <eclear>
   135c6:	bd3d                	j	13404 <ediv+0x30>
   135c8:	8526                	mv	a0,s1
   135ca:	d00ff0ef          	jal	ra,12aca <eisneg>
   135ce:	84aa                	mv	s1,a0
   135d0:	8522                	mv	a0,s0
   135d2:	cf8ff0ef          	jal	ra,12aca <eisneg>
   135d6:	02a48663          	beq	s1,a0,13602 <ediv+0x22e>
   135da:	77e1                	lui	a5,0xffff8
   135dc:	00f91923          	sh	a5,18(s2)
   135e0:	854a                	mv	a0,s2
   135e2:	e6aff0ef          	jal	ra,12c4c <einfin.isra.2>
   135e6:	bd39                	j	13404 <ediv+0x30>
   135e8:	0789                	addi	a5,a5,2
   135ea:	e8e794e3          	bne	a5,a4,13472 <ediv+0x9e>
   135ee:	bfc9                	j	135c0 <ediv+0x1ec>
   135f0:	0789                	addi	a5,a5,2
   135f2:	eae790e3          	bne	a5,a4,13492 <ediv+0xbe>
   135f6:	00015703          	lhu	a4,0(sp)
   135fa:	02015783          	lhu	a5,32(sp)
   135fe:	fcf71ee3          	bne	a4,a5,135da <ediv+0x206>
   13602:	00091923          	sh	zero,18(s2)
   13606:	bfe9                	j	135e0 <ediv+0x20c>
   13608:	3479                	addiw	s0,s0,-2
   1360a:	1442                	slli	s0,s0,0x30
   1360c:	008c                	addi	a1,sp,64
   1360e:	850a                	mv	a0,sp
   13610:	9041                	srli	s0,s0,0x30
   13612:	bf6ff0ef          	jal	ra,12a08 <esubm>
   13616:	bf29                	j	13530 <ediv+0x15c>
   13618:	57fd                	li	a5,-1
   1361a:	02f11023          	sh	a5,32(sp)
   1361e:	b741                	j	1359e <ediv+0x1ca>

0000000000013620 <_ldtoa_r>:
   13620:	db010113          	addi	sp,sp,-592
   13624:	ffe6                	sd	s9,504(sp)
   13626:	8cbe                	mv	s9,a5
   13628:	09100793          	li	a5,145
   1362c:	e0ae                	sd	a1,64(sp)
   1362e:	1782                	slli	a5,a5,0x20
   13630:	712c                	ld	a1,96(a0)
   13632:	17fd                	addi	a5,a5,-1
   13634:	24813023          	sd	s0,576(sp)
   13638:	23413023          	sd	s4,544(sp)
   1363c:	21513c23          	sd	s5,536(sp)
   13640:	21713423          	sd	s7,520(sp)
   13644:	24113423          	sd	ra,584(sp)
   13648:	22913c23          	sd	s1,568(sp)
   1364c:	23213823          	sd	s2,560(sp)
   13650:	23313423          	sd	s3,552(sp)
   13654:	21613823          	sd	s6,528(sp)
   13658:	21813023          	sd	s8,512(sp)
   1365c:	fbea                	sd	s10,496(sp)
   1365e:	f7ee                	sd	s11,488(sp)
   13660:	ec46                	sd	a7,24(sp)
   13662:	e4b2                	sd	a2,72(sp)
   13664:	eb3e                	sd	a5,400(sp)
   13666:	8a2a                	mv	s4,a0
   13668:	8bb6                	mv	s7,a3
   1366a:	8aba                	mv	s5,a4
   1366c:	8442                	mv	s0,a6
   1366e:	c999                	beqz	a1,13684 <_ldtoa_r+0x64>
   13670:	5538                	lw	a4,104(a0)
   13672:	4785                	li	a5,1
   13674:	00e797bb          	sllw	a5,a5,a4
   13678:	c598                	sw	a4,8(a1)
   1367a:	c5dc                	sw	a5,12(a1)
   1367c:	156010ef          	jal	ra,147d2 <_Bfree>
   13680:	060a3023          	sd	zero,96(s4)
   13684:	0088                	addi	a0,sp,64
   13686:	188c                	addi	a1,sp,112
   13688:	fcaff0ef          	jal	ra,12e52 <e113toe.isra.8>
   1368c:	1888                	addi	a0,sp,112
   1368e:	c3cff0ef          	jal	ra,12aca <eisneg>
   13692:	cd4d                	beqz	a0,1374c <_ldtoa_r+0x12c>
   13694:	4785                	li	a5,1
   13696:	c01c                	sw	a5,0(s0)
   13698:	478d                	li	a5,3
   1369a:	0afb8c63          	beq	s7,a5,13752 <_ldtoa_r+0x132>
   1369e:	4951                	li	s2,20
   136a0:	000b8c63          	beqz	s7,136b8 <_ldtoa_r+0x98>
   136a4:	fffa879b          	addiw	a5,s5,-1
   136a8:	02a00713          	li	a4,42
   136ac:	0007891b          	sext.w	s2,a5
   136b0:	00f75463          	ble	a5,a4,136b8 <_ldtoa_r+0x98>
   136b4:	02a00913          	li	s2,42
   136b8:	19412783          	lw	a5,404(sp)
   136bc:	1888                	addi	a0,sp,112
   136be:	f03e                	sd	a5,32(sp)
   136c0:	be4ff0ef          	jal	ra,12aa4 <eisnan>
   136c4:	842a                	mv	s0,a0
   136c6:	c941                	beqz	a0,13756 <_ldtoa_r+0x136>
   136c8:	0001a5b7          	lui	a1,0x1a
   136cc:	29058593          	addi	a1,a1,656 # 1a290 <emtens+0x108>
   136d0:	0a88                	addi	a0,sp,336
   136d2:	6409                	lui	s0,0x2
   136d4:	763010ef          	jal	ra,15636 <sprintf>
   136d8:	70f40413          	addi	s0,s0,1807 # 270f <_start-0xd9a1>
   136dc:	5782                	lw	a5,32(sp)
   136de:	1888                	addi	a0,sp,112
   136e0:	1a812023          	sw	s0,416(sp)
   136e4:	18f12a23          	sw	a5,404(sp)
   136e8:	d40ff0ef          	jal	ra,12c28 <eisinf>
   136ec:	15010993          	addi	s3,sp,336
   136f0:	e511                	bnez	a0,136fc <_ldtoa_r+0xdc>
   136f2:	1888                	addi	a0,sp,112
   136f4:	bb0ff0ef          	jal	ra,12aa4 <eisnan>
   136f8:	6e050e63          	beqz	a0,13df4 <_ldtoa_r+0x7d4>
   136fc:	6789                	lui	a5,0x2
   136fe:	70f7879b          	addiw	a5,a5,1807
   13702:	00fca023          	sw	a5,0(s9)
   13706:	87ce                	mv	a5,s3
   13708:	02000613          	li	a2,32
   1370c:	02d00693          	li	a3,45
   13710:	0007c703          	lbu	a4,0(a5) # 2000 <_start-0xe0b0>
   13714:	72c70463          	beq	a4,a2,13e3c <_ldtoa_r+0x81c>
   13718:	72d70263          	beq	a4,a3,13e3c <_ldtoa_r+0x81c>
   1371c:	844e                	mv	s0,s3
   1371e:	0785                	addi	a5,a5,1
   13720:	fff7c703          	lbu	a4,-1(a5)
   13724:	00140693          	addi	a3,s0,1
   13728:	fee68fa3          	sb	a4,-1(a3) # 3fff <_start-0xc0b1>
   1372c:	70071b63          	bnez	a4,13e42 <_ldtoa_r+0x822>
   13730:	4709                	li	a4,2
   13732:	4785                	li	a5,1
   13734:	00eb8863          	beq	s7,a4,13744 <_ldtoa_r+0x124>
   13738:	1a012783          	lw	a5,416(sp)
   1373c:	0127d363          	ble	s2,a5,13742 <_ldtoa_r+0x122>
   13740:	87ca                	mv	a5,s2
   13742:	2781                	sext.w	a5,a5
   13744:	03000693          	li	a3,48
   13748:	7060006f          	j	13e4e <_ldtoa_r+0x82e>
   1374c:	00042023          	sw	zero,0(s0)
   13750:	b7a1                	j	13698 <_ldtoa_r+0x78>
   13752:	87d6                	mv	a5,s5
   13754:	bf91                	j	136a8 <_ldtoa_r+0x88>
   13756:	09000793          	li	a5,144
   1375a:	090c                	addi	a1,sp,144
   1375c:	1888                	addi	a0,sp,112
   1375e:	18f12a23          	sw	a5,404(sp)
   13762:	914ff0ef          	jal	ra,12876 <emov>
   13766:	0a215783          	lhu	a5,162(sp)
   1376a:	e402                	sd	zero,8(sp)
   1376c:	0107971b          	slliw	a4,a5,0x10
   13770:	4107571b          	sraiw	a4,a4,0x10
   13774:	00075a63          	bgez	a4,13788 <_ldtoa_r+0x168>
   13778:	6721                	lui	a4,0x8
   1377a:	177d                	addi	a4,a4,-1
   1377c:	8ff9                	and	a5,a5,a4
   1377e:	0af11123          	sh	a5,162(sp)
   13782:	67c1                	lui	a5,0x10
   13784:	17fd                	addi	a5,a5,-1
   13786:	e43e                	sd	a5,8(sp)
   13788:	6b69                	lui	s6,0x1a
   1378a:	028b0513          	addi	a0,s6,40 # 1a028 <ezero>
   1378e:	190c                	addi	a1,sp,176
   13790:	0561                	addi	a0,a0,24
   13792:	8e4ff0ef          	jal	ra,12876 <emov>
   13796:	0a215703          	lhu	a4,162(sp)
   1379a:	64e9                	lui	s1,0x1a
   1379c:	028b0993          	addi	s3,s6,40
   137a0:	04048493          	addi	s1,s1,64 # 1a040 <eone>
   137a4:	74071963          	bnez	a4,13ef6 <_ldtoa_r+0x8d6>
   137a8:	091c                	addi	a5,sp,144
   137aa:	0a210713          	addi	a4,sp,162
   137ae:	0007d683          	lhu	a3,0(a5) # 10000 <_start-0xb0>
   137b2:	e6e1                	bnez	a3,1387a <_ldtoa_r+0x25a>
   137b4:	0789                	addi	a5,a5,2
   137b6:	fef71ce3          	bne	a4,a5,137ae <_ldtoa_r+0x18e>
   137ba:	198c                	addi	a1,sp,240
   137bc:	1908                	addi	a0,sp,176
   137be:	b2cff0ef          	jal	ra,12aea <emovi>
   137c2:	190c                	addi	a1,sp,176
   137c4:	1988                	addi	a0,sp,240
   137c6:	8d6ff0ef          	jal	ra,1289c <emovz>
   137ca:	198c                	addi	a1,sp,240
   137cc:	0908                	addi	a0,sp,144
   137ce:	b1cff0ef          	jal	ra,12aea <emovi>
   137d2:	090c                	addi	a1,sp,144
   137d4:	1988                	addi	a0,sp,240
   137d6:	8c6ff0ef          	jal	ra,1289c <emovz>
   137da:	0b10                	addi	a2,sp,400
   137dc:	090c                	addi	a1,sp,144
   137de:	1908                	addi	a0,sp,176
   137e0:	993ff0ef          	jal	ra,13172 <eiremain>
   137e4:	1dc15483          	lhu	s1,476(sp)
   137e8:	e881                	bnez	s1,137f8 <_ldtoa_r+0x1d8>
   137ea:	028b0593          	addi	a1,s6,40
   137ee:	0908                	addi	a0,sp,144
   137f0:	b94ff0ef          	jal	ra,12b84 <ecmp>
   137f4:	4c051463          	bnez	a0,13cbc <_ldtoa_r+0x69c>
   137f8:	67a2                	ld	a5,8(sp)
   137fa:	4e078b63          	beqz	a5,13cf0 <_ldtoa_r+0x6d0>
   137fe:	02d00793          	li	a5,45
   13802:	14f10823          	sb	a5,336(sp)
   13806:	478d                	li	a5,3
   13808:	89ca                	mv	s3,s2
   1380a:	00fb9863          	bne	s7,a5,1381a <_ldtoa_r+0x1fa>
   1380e:	008909bb          	addw	s3,s2,s0
   13812:	02a00793          	li	a5,42
   13816:	6f37cd63          	blt	a5,s3,13f10 <_ldtoa_r+0x8f0>
   1381a:	47a9                	li	a5,10
   1381c:	4cf49d63          	bne	s1,a5,13cf6 <_ldtoa_r+0x6d6>
   13820:	03100793          	li	a5,49
   13824:	14f108a3          	sb	a5,337(sp)
   13828:	02e00793          	li	a5,46
   1382c:	14f10923          	sb	a5,338(sp)
   13830:	15310c13          	addi	s8,sp,339
   13834:	01305963          	blez	s3,13846 <_ldtoa_r+0x226>
   13838:	03000793          	li	a5,48
   1383c:	14f109a3          	sb	a5,339(sp)
   13840:	39fd                	addiw	s3,s3,-1
   13842:	15410c13          	addi	s8,sp,340
   13846:	2405                	addiw	s0,s0,1
   13848:	4c09d163          	bgez	s3,13d0a <_ldtoa_r+0x6ea>
   1384c:	0001a5b7          	lui	a1,0x1a
   13850:	8622                	mv	a2,s0
   13852:	2c058593          	addi	a1,a1,704 # 1a2c0 <emtens+0x138>
   13856:	8562                	mv	a0,s8
   13858:	5df010ef          	jal	ra,15636 <sprintf>
   1385c:	b541                	j	136dc <_ldtoa_r+0xbc>
   1385e:	0001a5b7          	lui	a1,0x1a
   13862:	2a858593          	addi	a1,a1,680 # 1a2a8 <emtens+0x120>
   13866:	b5ad                	j	136d0 <_ldtoa_r+0xb0>
   13868:	0a011783          	lh	a5,160(sp)
   1386c:	0007c763          	bltz	a5,1387a <_ldtoa_r+0x25a>
   13870:	0001a5b7          	lui	a1,0x1a
   13874:	2b858593          	addi	a1,a1,696 # 1a2b8 <emtens+0x130>
   13878:	bda1                	j	136d0 <_ldtoa_r+0xb0>
   1387a:	090c                	addi	a1,sp,144
   1387c:	8526                	mv	a0,s1
   1387e:	b06ff0ef          	jal	ra,12b84 <ecmp>
   13882:	dd05                	beqz	a0,137ba <_ldtoa_r+0x19a>
   13884:	32055063          	bgez	a0,13ba4 <_ldtoa_r+0x584>
   13888:	098c                	addi	a1,sp,208
   1388a:	0908                	addi	a0,sp,144
   1388c:	febfe0ef          	jal	ra,12876 <emov>
   13890:	6791                	lui	a5,0x4
   13892:	08e7879b          	addiw	a5,a5,142
   13896:	0ef11123          	sh	a5,226(sp)
   1389a:	47c1                	li	a5,16
   1389c:	e83e                	sd	a5,16(sp)
   1389e:	67a1                	lui	a5,0x8
   138a0:	17fd                	addi	a5,a5,-1
   138a2:	f43e                	sd	a5,40(sp)
   138a4:	77f1                	lui	a5,0xffffc
   138a6:	2789                	addiw	a5,a5,2
   138a8:	4d01                	li	s10,0
   138aa:	da3e                	sw	a5,52(sp)
   138ac:	67e9                	lui	a5,0x1a
   138ae:	0f878793          	addi	a5,a5,248 # 1a0f8 <etens+0xa0>
   138b2:	01a78533          	add	a0,a5,s10
   138b6:	0b14                	addi	a3,sp,400
   138b8:	1910                	addi	a2,sp,176
   138ba:	098c                	addi	a1,sp,208
   138bc:	b19ff0ef          	jal	ra,133d4 <ediv>
   138c0:	08ac                	addi	a1,sp,88
   138c2:	1908                	addi	a0,sp,176
   138c4:	fb3fe0ef          	jal	ra,12876 <emov>
   138c8:	77a2                	ld	a5,40(sp)
   138ca:	06a15c03          	lhu	s8,106(sp)
   138ce:	00fc76b3          	and	a3,s8,a5
   138d2:	57d2                	lw	a5,52(sp)
   138d4:	9ebd                	addw	a3,a3,a5
   138d6:	02d04f63          	bgtz	a3,13914 <_ldtoa_r+0x2f4>
   138da:	1988                	addi	a0,sp,240
   138dc:	f8bfe0ef          	jal	ra,12866 <eclear>
   138e0:	010c1c1b          	slliw	s8,s8,0x10
   138e4:	410c5c1b          	sraiw	s8,s8,0x10
   138e8:	0c0c5063          	bgez	s8,139a8 <_ldtoa_r+0x388>
   138ec:	4781                	li	a5,0
   138ee:	08b8                	addi	a4,sp,88
   138f0:	973e                	add	a4,a4,a5
   138f2:	00075683          	lhu	a3,0(a4) # 8000 <_start-0x80b0>
   138f6:	1998                	addi	a4,sp,240
   138f8:	973e                	add	a4,a4,a5
   138fa:	00075703          	lhu	a4,0(a4)
   138fe:	28e68e63          	beq	a3,a4,13b9a <_ldtoa_r+0x57a>
   13902:	8526                	mv	a0,s1
   13904:	9a0ff0ef          	jal	ra,12aa4 <eisnan>
   13908:	c135                	beqz	a0,1396c <_ldtoa_r+0x34c>
   1390a:	198c                	addi	a1,sp,240
   1390c:	8526                	mv	a0,s1
   1390e:	f69fe0ef          	jal	ra,12876 <emov>
   13912:	a859                	j	139a8 <_ldtoa_r+0x388>
   13914:	09000793          	li	a5,144
   13918:	40d7873b          	subw	a4,a5,a3
   1391c:	198c                	addi	a1,sp,240
   1391e:	08a8                	addi	a0,sp,88
   13920:	8dba                	mv	s11,a4
   13922:	fc3a                	sd	a4,56(sp)
   13924:	f53fe0ef          	jal	ra,12876 <emov>
   13928:	7762                	ld	a4,56(sp)
   1392a:	06e05f63          	blez	a4,139a8 <_ldtoa_r+0x388>
   1392e:	199c                	addi	a5,sp,240
   13930:	463d                	li	a2,15
   13932:	02e64863          	blt	a2,a4,13962 <_ldtoa_r+0x342>
   13936:	004dd61b          	srliw	a2,s11,0x4
   1393a:	02061713          	slli	a4,a2,0x20
   1393e:	199c                	addi	a5,sp,240
   13940:	837d                	srli	a4,a4,0x1f
   13942:	973e                	add	a4,a4,a5
   13944:	57c1                	li	a5,-16
   13946:	02c787bb          	mulw	a5,a5,a2
   1394a:	00075683          	lhu	a3,0(a4)
   1394e:	01b787bb          	addw	a5,a5,s11
   13952:	0786                	slli	a5,a5,0x1
   13954:	97ce                	add	a5,a5,s3
   13956:	1387d783          	lhu	a5,312(a5)
   1395a:	8ff5                	and	a5,a5,a3
   1395c:	00f71023          	sh	a5,0(a4)
   13960:	b741                	j	138e0 <_ldtoa_r+0x2c0>
   13962:	00079023          	sh	zero,0(a5)
   13966:	3741                	addiw	a4,a4,-16
   13968:	0789                	addi	a5,a5,2
   1396a:	b7e1                	j	13932 <_ldtoa_r+0x312>
   1396c:	1988                	addi	a0,sp,240
   1396e:	936ff0ef          	jal	ra,12aa4 <eisnan>
   13972:	c501                	beqz	a0,1397a <_ldtoa_r+0x35a>
   13974:	198c                	addi	a1,sp,240
   13976:	852e                	mv	a0,a1
   13978:	bf59                	j	1390e <_ldtoa_r+0x2ee>
   1397a:	8526                	mv	a0,s1
   1397c:	aacff0ef          	jal	ra,12c28 <eisinf>
   13980:	8daa                	mv	s11,a0
   13982:	1988                	addi	a0,sp,240
   13984:	aa4ff0ef          	jal	ra,12c28 <eisinf>
   13988:	8c2a                	mv	s8,a0
   1398a:	0e0d8963          	beqz	s11,13a7c <_ldtoa_r+0x45c>
   1398e:	c961                	beqz	a0,13a5e <_ldtoa_r+0x43e>
   13990:	8526                	mv	a0,s1
   13992:	938ff0ef          	jal	ra,12aca <eisneg>
   13996:	8c2a                	mv	s8,a0
   13998:	1988                	addi	a0,sp,240
   1399a:	930ff0ef          	jal	ra,12aca <eisneg>
   1399e:	0cac1063          	bne	s8,a0,13a5e <_ldtoa_r+0x43e>
   139a2:	1988                	addi	a0,sp,240
   139a4:	c3cff0ef          	jal	ra,12de0 <enan.constprop.12>
   139a8:	4781                	li	a5,0
   139aa:	1918                	addi	a4,sp,176
   139ac:	973e                	add	a4,a4,a5
   139ae:	00075683          	lhu	a3,0(a4)
   139b2:	1998                	addi	a4,sp,240
   139b4:	973e                	add	a4,a4,a5
   139b6:	00075703          	lhu	a4,0(a4)
   139ba:	00e69c63          	bne	a3,a4,139d2 <_ldtoa_r+0x3b2>
   139be:	0789                	addi	a5,a5,2
   139c0:	4749                	li	a4,18
   139c2:	fee794e3          	bne	a5,a4,139aa <_ldtoa_r+0x38a>
   139c6:	098c                	addi	a1,sp,208
   139c8:	1908                	addi	a0,sp,176
   139ca:	eadfe0ef          	jal	ra,12876 <emov>
   139ce:	47c2                	lw	a5,16(sp)
   139d0:	9c3d                	addw	s0,s0,a5
   139d2:	67c2                	ld	a5,16(sp)
   139d4:	0d51                	addi	s10,s10,20
   139d6:	8385                	srli	a5,a5,0x1
   139d8:	e83e                	sd	a5,16(sp)
   139da:	06400793          	li	a5,100
   139de:	ecfd17e3          	bne	s10,a5,138ac <_ldtoa_r+0x28c>
   139e2:	0e215783          	lhu	a5,226(sp)
   139e6:	0a215703          	lhu	a4,162(sp)
   139ea:	090c                	addi	a1,sp,144
   139ec:	0988                	addi	a0,sp,208
   139ee:	9fb9                	addw	a5,a5,a4
   139f0:	7771                	lui	a4,0xffffc
   139f2:	f727071b          	addiw	a4,a4,-142
   139f6:	9fb9                	addw	a5,a5,a4
   139f8:	0ef11123          	sh	a5,226(sp)
   139fc:	e7bfe0ef          	jal	ra,12876 <emov>
   13a00:	8526                	mv	a0,s1
   13a02:	190c                	addi	a1,sp,176
   13a04:	e73fe0ef          	jal	ra,12876 <emov>
   13a08:	4481                	li	s1,0
   13a0a:	6d05                	lui	s10,0x1
   13a0c:	12098993          	addi	s3,s3,288
   13a10:	10400d93          	li	s11,260
   13a14:	67e9                	lui	a5,0x1a
   13a16:	05878793          	addi	a5,a5,88 # 1a058 <etens>
   13a1a:	098c                	addi	a1,sp,208
   13a1c:	854e                	mv	a0,s3
   13a1e:	00f48c33          	add	s8,s1,a5
   13a22:	962ff0ef          	jal	ra,12b84 <ecmp>
   13a26:	d8a04ae3          	bgtz	a0,137ba <_ldtoa_r+0x19a>
   13a2a:	098c                	addi	a1,sp,208
   13a2c:	8562                	mv	a0,s8
   13a2e:	956ff0ef          	jal	ra,12b84 <ecmp>
   13a32:	02a04063          	bgtz	a0,13a52 <_ldtoa_r+0x432>
   13a36:	0990                	addi	a2,sp,208
   13a38:	85b2                	mv	a1,a2
   13a3a:	0b14                	addi	a3,sp,400
   13a3c:	8562                	mv	a0,s8
   13a3e:	997ff0ef          	jal	ra,133d4 <ediv>
   13a42:	1910                	addi	a2,sp,176
   13a44:	0b14                	addi	a3,sp,400
   13a46:	85b2                	mv	a1,a2
   13a48:	8562                	mv	a0,s8
   13a4a:	fbcff0ef          	jal	ra,13206 <emul>
   13a4e:	008d043b          	addw	s0,s10,s0
   13a52:	04d1                	addi	s1,s1,20
   13a54:	001d5d13          	srli	s10,s10,0x1
   13a58:	fbb49ee3          	bne	s1,s11,13a14 <_ldtoa_r+0x3f4>
   13a5c:	bbb9                	j	137ba <_ldtoa_r+0x19a>
   13a5e:	8526                	mv	a0,s1
   13a60:	198c                	addi	a1,sp,240
   13a62:	e15fe0ef          	jal	ra,12876 <emov>
   13a66:	1988                	addi	a0,sp,240
   13a68:	83cff0ef          	jal	ra,12aa4 <eisnan>
   13a6c:	fd15                	bnez	a0,139a8 <_ldtoa_r+0x388>
   13a6e:	10215783          	lhu	a5,258(sp)
   13a72:	7761                	lui	a4,0xffff8
   13a74:	8fb9                	xor	a5,a5,a4
   13a76:	10f11123          	sh	a5,258(sp)
   13a7a:	b73d                	j	139a8 <_ldtoa_r+0x388>
   13a7c:	ee051ce3          	bnez	a0,13974 <_ldtoa_r+0x354>
   13a80:	0a0c                	addi	a1,sp,272
   13a82:	8526                	mv	a0,s1
   13a84:	866ff0ef          	jal	ra,12aea <emovi>
   13a88:	1a0c                	addi	a1,sp,304
   13a8a:	1988                	addi	a0,sp,240
   13a8c:	85eff0ef          	jal	ra,12aea <emovi>
   13a90:	11015703          	lhu	a4,272(sp)
   13a94:	13215d83          	lhu	s11,306(sp)
   13a98:	11215783          	lhu	a5,274(sp)
   13a9c:	fff74713          	not	a4,a4
   13aa0:	1742                	slli	a4,a4,0x30
   13aa2:	9341                	srli	a4,a4,0x30
   13aa4:	10e11823          	sh	a4,272(sp)
   13aa8:	41b787b3          	sub	a5,a5,s11
   13aac:	06f05363          	blez	a5,13b12 <_ldtoa_r+0x4f2>
   13ab0:	0a8c                	addi	a1,sp,336
   13ab2:	1a08                	addi	a0,sp,304
   13ab4:	fc3e                	sd	a5,56(sp)
   13ab6:	de7fe0ef          	jal	ra,1289c <emovz>
   13aba:	1a0c                	addi	a1,sp,304
   13abc:	0a08                	addi	a0,sp,272
   13abe:	ddffe0ef          	jal	ra,1289c <emovz>
   13ac2:	0a0c                	addi	a1,sp,272
   13ac4:	0a88                	addi	a0,sp,336
   13ac6:	dd7fe0ef          	jal	ra,1289c <emovz>
   13aca:	77e2                	ld	a5,56(sp)
   13acc:	13215d83          	lhu	s11,306(sp)
   13ad0:	40f007b3          	neg	a5,a5
   13ad4:	f6f00713          	li	a4,-145
   13ad8:	06e7c763          	blt	a5,a4,13b46 <_ldtoa_r+0x526>
   13adc:	85be                	mv	a1,a5
   13ade:	0a08                	addi	a0,sp,272
   13ae0:	98aff0ef          	jal	ra,12c6a <eshift.part.3>
   13ae4:	882a                	mv	a6,a0
   13ae6:	11015703          	lhu	a4,272(sp)
   13aea:	13015783          	lhu	a5,304(sp)
   13aee:	fc42                	sd	a6,56(sp)
   13af0:	1a0c                	addi	a1,sp,304
   13af2:	0a08                	addi	a0,sp,272
   13af4:	08f71f63          	bne	a4,a5,13b92 <_ldtoa_r+0x572>
   13af8:	ee9fe0ef          	jal	ra,129e0 <eaddm>
   13afc:	7862                	ld	a6,56(sp)
   13afe:	0b1c                	addi	a5,sp,400
   13b00:	04000713          	li	a4,64
   13b04:	86ee                	mv	a3,s11
   13b06:	8662                	mv	a2,s8
   13b08:	85c2                	mv	a1,a6
   13b0a:	1a08                	addi	a0,sp,304
   13b0c:	c00ff0ef          	jal	ra,12f0c <emdnorm>
   13b10:	a81d                	j	13b46 <_ldtoa_r+0x526>
   13b12:	f3e9                	bnez	a5,13ad4 <_ldtoa_r+0x4b4>
   13b14:	1a0c                	addi	a1,sp,304
   13b16:	0a08                	addi	a0,sp,272
