
bin/dcacheTest.riscv：     文件格式 elf64-littleriscv


Disassembly of section .text:

00000000000100b0 <_start>:
   100b0:	0000d197          	auipc	gp,0xd
   100b4:	40818193          	addi	gp,gp,1032 # 1d4b8 <__global_pointer$>
   100b8:	84818513          	addi	a0,gp,-1976 # 1cd00 <_edata>
   100bc:	000b1617          	auipc	a2,0xb1
   100c0:	cdc60613          	addi	a2,a2,-804 # c0d98 <_end>
   100c4:	8e09                	sub	a2,a2,a0
   100c6:	4581                	li	a1,0
   100c8:	418000ef          	jal	ra,104e0 <memset>
   100cc:	00000517          	auipc	a0,0x0
   100d0:	36a50513          	addi	a0,a0,874 # 10436 <__libc_fini_array>
   100d4:	338000ef          	jal	ra,1040c <atexit>
   100d8:	3a6000ef          	jal	ra,1047e <__libc_init_array>
   100dc:	4502                	lw	a0,0(sp)
   100de:	002c                	addi	a1,sp,8
   100e0:	4601                	li	a2,0
   100e2:	18a000ef          	jal	ra,1026c <main>
   100e6:	3320006f          	j	10418 <exit>

00000000000100ea <_fini>:
   100ea:	8082                	ret

00000000000100ec <deregister_tm_clones>:
   100ec:	6575                	lui	a0,0x1d
   100ee:	67f5                	lui	a5,0x1d
   100f0:	cb850713          	addi	a4,a0,-840 # 1ccb8 <__TMC_END__>
   100f4:	cb878793          	addi	a5,a5,-840 # 1ccb8 <__TMC_END__>
   100f8:	00e78b63          	beq	a5,a4,1010e <deregister_tm_clones+0x22>
   100fc:	00000337          	lui	t1,0x0
   10100:	00030313          	mv	t1,t1
   10104:	00030563          	beqz	t1,1010e <deregister_tm_clones+0x22>
   10108:	cb850513          	addi	a0,a0,-840
   1010c:	8302                	jr	t1
   1010e:	8082                	ret

0000000000010110 <register_tm_clones>:
   10110:	67f5                	lui	a5,0x1d
   10112:	6575                	lui	a0,0x1d
   10114:	cb878593          	addi	a1,a5,-840 # 1ccb8 <__TMC_END__>
   10118:	cb850793          	addi	a5,a0,-840 # 1ccb8 <__TMC_END__>
   1011c:	8d9d                	sub	a1,a1,a5
   1011e:	858d                	srai	a1,a1,0x3
   10120:	4789                	li	a5,2
   10122:	02f5c5b3          	div	a1,a1,a5
   10126:	c991                	beqz	a1,1013a <register_tm_clones+0x2a>
   10128:	00000337          	lui	t1,0x0
   1012c:	00030313          	mv	t1,t1
   10130:	00030563          	beqz	t1,1013a <register_tm_clones+0x2a>
   10134:	cb850513          	addi	a0,a0,-840
   10138:	8302                	jr	t1
   1013a:	8082                	ret

000000000001013c <__do_global_dtors_aux>:
   1013c:	8781c703          	lbu	a4,-1928(gp) # 1cd30 <completed.5212>
   10140:	eb15                	bnez	a4,10174 <__do_global_dtors_aux+0x38>
   10142:	1141                	addi	sp,sp,-16
   10144:	e022                	sd	s0,0(sp)
   10146:	e406                	sd	ra,8(sp)
   10148:	843e                	mv	s0,a5
   1014a:	fa3ff0ef          	jal	ra,100ec <deregister_tm_clones>
   1014e:	000007b7          	lui	a5,0x0
   10152:	00078793          	mv	a5,a5
   10156:	cb81                	beqz	a5,10166 <__do_global_dtors_aux+0x2a>
   10158:	6571                	lui	a0,0x1c
   1015a:	ba050513          	addi	a0,a0,-1120 # 1bba0 <__EH_FRAME_BEGIN__>
   1015e:	ffff0097          	auipc	ra,0xffff0
   10162:	ea2080e7          	jalr	-350(ra) # 0 <_start-0x100b0>
   10166:	4785                	li	a5,1
   10168:	86f18c23          	sb	a5,-1928(gp) # 1cd30 <completed.5212>
   1016c:	60a2                	ld	ra,8(sp)
   1016e:	6402                	ld	s0,0(sp)
   10170:	0141                	addi	sp,sp,16
   10172:	8082                	ret
   10174:	8082                	ret

0000000000010176 <frame_dummy>:
   10176:	000007b7          	lui	a5,0x0
   1017a:	00078793          	mv	a5,a5
   1017e:	cf91                	beqz	a5,1019a <frame_dummy+0x24>
   10180:	6571                	lui	a0,0x1c
   10182:	1141                	addi	sp,sp,-16
   10184:	88018593          	addi	a1,gp,-1920 # 1cd38 <object.5217>
   10188:	ba050513          	addi	a0,a0,-1120 # 1bba0 <__EH_FRAME_BEGIN__>
   1018c:	e406                	sd	ra,8(sp)
   1018e:	ffff0097          	auipc	ra,0xffff0
   10192:	e72080e7          	jalr	-398(ra) # 0 <_start-0x100b0>
   10196:	60a2                	ld	ra,8(sp)
   10198:	0141                	addi	sp,sp,16
   1019a:	f77ff06f          	j	10110 <register_tm_clones>

000000000001019e <flushCache>:
 * cache.
 *
 * @param addr starting address to clear the cache
 * @param sz size of the data to remove in bytes
 */
void flushCache(uint64_t addr, uint64_t sz){
   1019e:	711d                	addi	sp,sp,-96
   101a0:	eca2                	sd	s0,88(sp)
   101a2:	1080                	addi	s0,sp,96
   101a4:	faa43423          	sd	a0,-88(s0)
   101a8:	fab43023          	sd	a1,-96(s0)
    //printf("L1_SZ_BYTES = %luKB,SETS= %d, Block = %dBytes\n",L1_SZ_BYTES/(1024),L1_SETS,L1_BLOCK_SZ_BYTES);
    //printf("Flushed addr(0x%x) tag(0x%x) set(0x%x) off(0x%x) sz(%d)\n", addr, (addr & TAG_MASK) >> (L1_SET_BITS + L1_BLOCK_BITS), (addr & SET_MASK) >> L1_BLOCK_BITS, addr & OFF_MASK, sz);

    // // find out the amount of blocks you want to clear
    //计算需要清除的缓存行数
    volatile uint64_t numSetsClear = sz >> L1_BLOCK_BITS;
   101ac:	fa043783          	ld	a5,-96(s0)
   101b0:	8399                	srli	a5,a5,0x6
   101b2:	fef43423          	sd	a5,-24(s0)
    if ((sz & OFF_MASK) != 0){
   101b6:	fa043783          	ld	a5,-96(s0)
   101ba:	03f7f793          	andi	a5,a5,63
   101be:	c791                	beqz	a5,101ca <flushCache+0x2c>
        numSetsClear += 1;
   101c0:	fe843783          	ld	a5,-24(s0)
   101c4:	0785                	addi	a5,a5,1
   101c6:	fef43423          	sd	a5,-24(s0)
    }
    if (numSetsClear > L1_SETS){
   101ca:	fe843703          	ld	a4,-24(s0)
   101ce:	20000793          	li	a5,512
   101d2:	00e7f663          	bleu	a4,a5,101de <flushCache+0x40>
        //flush entire cache with no rollover (makes the function finish faster) 
        numSetsClear = L1_SETS;
   101d6:	20000793          	li	a5,512
   101da:	fef43423          	sd	a5,-24(s0)
    
    //volatile uint64_t numSetsClear = L1_SETS*2;
    //printf("numSetsClear(%d)\n", numSetsClear);

    // temp variable used for nothing
    volatile uint8_t dummy = 0;
   101de:	fe0403a3          	sb	zero,-25(s0)
    // 是连续的一组地址，将会填充cache ,计算存放的位置
    // thus it has the following properties
    // 1. dummyMem <= alignedMem < dummyMem + sizeof(dummyMem)
    // 2. alignedMem has idx = 0 and offset = 0 
    
    volatile uint64_t alignedMem = (((uint64_t)&dummyMem) + L1_SZ_BYTES) & TAG_MASK;
   101e2:	000217b7          	lui	a5,0x21
   101e6:	d9078713          	addi	a4,a5,-624 # 20d90 <dummyMem>
   101ea:	67c1                	lui	a5,0x10
   101ec:	973e                	add	a4,a4,a5
   101ee:	77e1                	lui	a5,0xffff8
   101f0:	8ff9                	and	a5,a5,a4
   101f2:	fcf43c23          	sd	a5,-40(s0)

    //printf("alignedMem(0x%x)\n", alignedMem);
        
    for (volatile uint64_t i = 0; i < numSetsClear; ++i){
   101f6:	fc043823          	sd	zero,-48(s0)
   101fa:	a8b9                	j	10258 <flushCache+0xba>
        // offset to move across the sets that you want to flush
        volatile uint64_t setOffset = (((addr & SET_MASK) >> L1_BLOCK_BITS) + i) << L1_BLOCK_BITS;
   101fc:	fa843783          	ld	a5,-88(s0)
   10200:	8399                	srli	a5,a5,0x6
   10202:	1ff7f713          	andi	a4,a5,511
   10206:	fd043783          	ld	a5,-48(s0)
   1020a:	97ba                	add	a5,a5,a4
   1020c:	079a                	slli	a5,a5,0x6
   1020e:	fcf43423          	sd	a5,-56(s0)
        //printf("setOffset(0x%x)\n", setOffset);

        // since there are L1_WAYS you need to flush the entire set
        //cache默认采用的是随机替换策略从而需要更多次的驱逐
        for(volatile uint64_t j = 0; j < 4*L1_WAYS; ++j){
   10212:	fc043023          	sd	zero,-64(s0)
   10216:	a03d                	j	10244 <flushCache+0xa6>
            // offset to reaccess the set
            volatile uint64_t wayOffset = j << (L1_BLOCK_BITS + L1_SET_BITS);
   10218:	fc043783          	ld	a5,-64(s0)
   1021c:	07be                	slli	a5,a5,0xf
   1021e:	faf43c23          	sd	a5,-72(s0)

            // evict the previous cache block and put in the dummy mem
            // 来加载指定地址的垃圾数据到dummy数组中
            // 同时CPU会把这些垃圾数据更新到data cache
            // 从而实现对data cache指定空间的刷新操作
            dummy = *((uint8_t*)(alignedMem + setOffset + wayOffset));
   10222:	fd843703          	ld	a4,-40(s0)
   10226:	fc843783          	ld	a5,-56(s0)
   1022a:	973e                	add	a4,a4,a5
   1022c:	fb843783          	ld	a5,-72(s0)
   10230:	97ba                	add	a5,a5,a4
   10232:	0007c783          	lbu	a5,0(a5) # ffffffffffff8000 <_end+0xfffffffffff37268>
   10236:	fef403a3          	sb	a5,-25(s0)
        for(volatile uint64_t j = 0; j < 4*L1_WAYS; ++j){
   1023a:	fc043783          	ld	a5,-64(s0)
   1023e:	0785                	addi	a5,a5,1
   10240:	fcf43023          	sd	a5,-64(s0)
   10244:	fc043703          	ld	a4,-64(s0)
   10248:	479d                	li	a5,7
   1024a:	fce7f7e3          	bleu	a4,a5,10218 <flushCache+0x7a>
    for (volatile uint64_t i = 0; i < numSetsClear; ++i){
   1024e:	fd043783          	ld	a5,-48(s0)
   10252:	0785                	addi	a5,a5,1
   10254:	fcf43823          	sd	a5,-48(s0)
   10258:	fd043703          	ld	a4,-48(s0)
   1025c:	fe843783          	ld	a5,-24(s0)
   10260:	f8f76ee3          	bltu	a4,a5,101fc <flushCache+0x5e>
            //printf("evict read(0x%x)\n", alignedMem + setOffset + wayOffset);
        }
    }
    //printf("%d ",dummy);
}
   10264:	0001                	nop
   10266:	6466                	ld	s0,88(sp)
   10268:	6125                	addi	sp,sp,96
   1026a:	8082                	ret

000000000001026c <main>:
#define SET_IDX  4   //This is critical, SET_IDX =2,3, sometimes it does not work; but SET_IDX =4 is ok
uint8_t array2[256 * L1_BLOCK_SZ_BYTES]={0};
int j=0;

int main(void)
{
   1026c:	7159                	addi	sp,sp,-112
   1026e:	f486                	sd	ra,104(sp)
   10270:	f0a2                	sd	s0,96(sp)
   10272:	1880                	addi	s0,sp,112
    uint8_t    dummy = 0;
   10274:	fe0405a3          	sb	zero,-21(s0)
    uint64_t   start=0, diff=0;
   10278:	fe043023          	sd	zero,-32(s0)
   1027c:	fc043c23          	sd	zero,-40(s0)
    printf("================= data cache test ========================= \n");
   10280:	67e9                	lui	a5,0x1a
   10282:	d8078513          	addi	a0,a5,-640 # 19d80 <__clzdi2+0x36>
   10286:	3ca000ef          	jal	ra,10650 <puts>

    //flush the above element from data cache then read from RAM
    for(int i=0; i<10; i++)
   1028a:	fe042623          	sw	zero,-20(s0)
   1028e:	a295                	j	103f2 <main+0x186>
    {  
        // make sure the array you read from is not in the cache
        flushCache((uint64_t)array2, sizeof(array2));
   10290:	67f5                	lui	a5,0x1d
   10292:	d6878793          	addi	a5,a5,-664 # 1cd68 <array2>
   10296:	6591                	lui	a1,0x4
   10298:	853e                	mv	a0,a5
   1029a:	f05ff0ef          	jal	ra,1019e <flushCache>
        //     csrc mcor, x3;\
        //     li x3, 0x12;\
        //     csrs mcor, x3"
        // );
        //read from the RAM        
        start = rdcycle();
   1029e:	c00027f3          	rdcycle	a5
   102a2:	fcf43823          	sd	a5,-48(s0)
   102a6:	fd043783          	ld	a5,-48(s0)
   102aa:	fef43023          	sd	a5,-32(s0)
        dummy = array2[0 * L1_BLOCK_SZ_BYTES];
   102ae:	67f5                	lui	a5,0x1d
   102b0:	d687c783          	lbu	a5,-664(a5) # 1cd68 <array2>
   102b4:	fef405a3          	sb	a5,-21(s0)
        diff = (rdcycle() - start);
   102b8:	c00027f3          	rdcycle	a5
   102bc:	fcf43423          	sd	a5,-56(s0)
   102c0:	fc843703          	ld	a4,-56(s0)
   102c4:	fe043783          	ld	a5,-32(s0)
   102c8:	40f707b3          	sub	a5,a4,a5
   102cc:	fcf43c23          	sd	a5,-40(s0)
        printf("iteration=%d, read from ram, cycles = %lu\n", i, diff);   
   102d0:	fec42783          	lw	a5,-20(s0)
   102d4:	fd843603          	ld	a2,-40(s0)
   102d8:	85be                	mv	a1,a5
   102da:	67e9                	lui	a5,0x1a
   102dc:	dc078513          	addi	a0,a5,-576 # 19dc0 <__clzdi2+0x76>
   102e0:	2cc000ef          	jal	ra,105ac <printf>

        //preload the data into data cache
        dummy = array2[SET_IDX*L1_BLOCK_SZ_BYTES];
   102e4:	67f5                	lui	a5,0x1d
   102e6:	d6878793          	addi	a5,a5,-664 # 1cd68 <array2>
   102ea:	1007c783          	lbu	a5,256(a5)
   102ee:	fef405a3          	sb	a5,-21(s0)

        //read from data cache
        start = rdcycle();
   102f2:	c00027f3          	rdcycle	a5
   102f6:	fcf43023          	sd	a5,-64(s0)
   102fa:	fc043783          	ld	a5,-64(s0)
   102fe:	fef43023          	sd	a5,-32(s0)
        dummy = array2[SET_IDX * L1_BLOCK_SZ_BYTES];
   10302:	67f5                	lui	a5,0x1d
   10304:	d6878793          	addi	a5,a5,-664 # 1cd68 <array2>
   10308:	1007c783          	lbu	a5,256(a5)
   1030c:	fef405a3          	sb	a5,-21(s0)
        diff = (rdcycle() - start);
   10310:	c00027f3          	rdcycle	a5
   10314:	faf43c23          	sd	a5,-72(s0)
   10318:	fb843703          	ld	a4,-72(s0)
   1031c:	fe043783          	ld	a5,-32(s0)
   10320:	40f707b3          	sub	a5,a4,a5
   10324:	fcf43c23          	sd	a5,-40(s0)
        printf("iteration=%d, read from data cache, cycles = %lu\n", i, diff);   
   10328:	fec42783          	lw	a5,-20(s0)
   1032c:	fd843603          	ld	a2,-40(s0)
   10330:	85be                	mv	a1,a5
   10332:	67e9                	lui	a5,0x1a
   10334:	df078513          	addi	a0,a5,-528 # 19df0 <__clzdi2+0xa6>
   10338:	274000ef          	jal	ra,105ac <printf>

        //read from ram after flush
        uint64_t addr = (uint64_t)array2 + SET_IDX * L1_BLOCK_SZ_BYTES;
   1033c:	67f5                	lui	a5,0x1d
   1033e:	d6878793          	addi	a5,a5,-664 # 1cd68 <array2>
   10342:	10078793          	addi	a5,a5,256
   10346:	faf43823          	sd	a5,-80(s0)
        //printf("flush the addr:0x%lx , array2 =0x%lx\n", addr, (uint64_t)array2);
        flushCache(addr, sizeof(uint8_t));
   1034a:	4585                	li	a1,1
   1034c:	fb043503          	ld	a0,-80(s0)
   10350:	e4fff0ef          	jal	ra,1019e <flushCache>
        //read from cache after flush
        start = rdcycle();
   10354:	c00027f3          	rdcycle	a5
   10358:	faf43423          	sd	a5,-88(s0)
   1035c:	fa843783          	ld	a5,-88(s0)
   10360:	fef43023          	sd	a5,-32(s0)
        dummy = array2[SET_IDX * L1_BLOCK_SZ_BYTES];
   10364:	67f5                	lui	a5,0x1d
   10366:	d6878793          	addi	a5,a5,-664 # 1cd68 <array2>
   1036a:	1007c783          	lbu	a5,256(a5)
   1036e:	fef405a3          	sb	a5,-21(s0)
        diff = (rdcycle() - start);
   10372:	c00027f3          	rdcycle	a5
   10376:	faf43023          	sd	a5,-96(s0)
   1037a:	fa043703          	ld	a4,-96(s0)
   1037e:	fe043783          	ld	a5,-32(s0)
   10382:	40f707b3          	sub	a5,a4,a5
   10386:	fcf43c23          	sd	a5,-40(s0)
        printf("iteration=%d, flush and then read from ram, cycles = %lu\n", i, diff); 
   1038a:	fec42783          	lw	a5,-20(s0)
   1038e:	fd843603          	ld	a2,-40(s0)
   10392:	85be                	mv	a1,a5
   10394:	67e9                	lui	a5,0x1a
   10396:	e2878513          	addi	a0,a5,-472 # 19e28 <__clzdi2+0xde>
   1039a:	212000ef          	jal	ra,105ac <printf>

        //read from cache after flush
        start = rdcycle();
   1039e:	c00027f3          	rdcycle	a5
   103a2:	f8f43c23          	sd	a5,-104(s0)
   103a6:	f9843783          	ld	a5,-104(s0)
   103aa:	fef43023          	sd	a5,-32(s0)
        dummy = array2[SET_IDX * L1_BLOCK_SZ_BYTES];
   103ae:	67f5                	lui	a5,0x1d
   103b0:	d6878793          	addi	a5,a5,-664 # 1cd68 <array2>
   103b4:	1007c783          	lbu	a5,256(a5)
   103b8:	fef405a3          	sb	a5,-21(s0)
        diff = (rdcycle() - start);
   103bc:	c00027f3          	rdcycle	a5
   103c0:	f8f43823          	sd	a5,-112(s0)
   103c4:	f9043703          	ld	a4,-112(s0)
   103c8:	fe043783          	ld	a5,-32(s0)
   103cc:	40f707b3          	sub	a5,a4,a5
   103d0:	fcf43c23          	sd	a5,-40(s0)
        printf("iteration=%d, read from data cache after flush, cycles = %lu\n\n", i, diff);          
   103d4:	fec42783          	lw	a5,-20(s0)
   103d8:	fd843603          	ld	a2,-40(s0)
   103dc:	85be                	mv	a1,a5
   103de:	67e9                	lui	a5,0x1a
   103e0:	e6878513          	addi	a0,a5,-408 # 19e68 <__clzdi2+0x11e>
   103e4:	1c8000ef          	jal	ra,105ac <printf>
    for(int i=0; i<10; i++)
   103e8:	fec42783          	lw	a5,-20(s0)
   103ec:	2785                	addiw	a5,a5,1
   103ee:	fef42623          	sw	a5,-20(s0)
   103f2:	fec42783          	lw	a5,-20(s0)
   103f6:	0007871b          	sext.w	a4,a5
   103fa:	47a5                	li	a5,9
   103fc:	e8e7dae3          	ble	a4,a5,10290 <main+0x24>
    }
    return 0;
   10400:	4781                	li	a5,0
}
   10402:	853e                	mv	a0,a5
   10404:	70a6                	ld	ra,104(sp)
   10406:	7406                	ld	s0,96(sp)
   10408:	6165                	addi	sp,sp,112
   1040a:	8082                	ret

000000000001040c <atexit>:
   1040c:	85aa                	mv	a1,a0
   1040e:	4681                	li	a3,0
   10410:	4601                	li	a2,0
   10412:	4501                	li	a0,0
   10414:	1830106f          	j	11d96 <__register_exitproc>

0000000000010418 <exit>:
   10418:	1141                	addi	sp,sp,-16
   1041a:	4581                	li	a1,0
   1041c:	e022                	sd	s0,0(sp)
   1041e:	e406                	sd	ra,8(sp)
   10420:	842a                	mv	s0,a0
   10422:	1d9010ef          	jal	ra,11dfa <__call_exitprocs>
   10426:	8281b503          	ld	a0,-2008(gp) # 1cce0 <_global_impure_ptr>
   1042a:	6d3c                	ld	a5,88(a0)
   1042c:	c391                	beqz	a5,10430 <exit+0x18>
   1042e:	9782                	jalr	a5
   10430:	8522                	mv	a0,s0
   10432:	276080ef          	jal	ra,186a8 <_exit>

0000000000010436 <__libc_fini_array>:
   10436:	7179                	addi	sp,sp,-48
   10438:	67f1                	lui	a5,0x1c
   1043a:	6771                	lui	a4,0x1c
   1043c:	f022                	sd	s0,32(sp)
   1043e:	bb070713          	addi	a4,a4,-1104 # 1bbb0 <__init_array_end>
   10442:	bb878413          	addi	s0,a5,-1096 # 1bbb8 <__fini_array_end>
   10446:	8c19                	sub	s0,s0,a4
   10448:	ec26                	sd	s1,24(sp)
   1044a:	e84a                	sd	s2,16(sp)
   1044c:	e44e                	sd	s3,8(sp)
   1044e:	f406                	sd	ra,40(sp)
   10450:	840d                	srai	s0,s0,0x3
   10452:	4481                	li	s1,0
   10454:	bb878913          	addi	s2,a5,-1096
   10458:	59e1                	li	s3,-8
   1045a:	00941a63          	bne	s0,s1,1046e <__libc_fini_array+0x38>
   1045e:	7402                	ld	s0,32(sp)
   10460:	70a2                	ld	ra,40(sp)
   10462:	64e2                	ld	s1,24(sp)
   10464:	6942                	ld	s2,16(sp)
   10466:	69a2                	ld	s3,8(sp)
   10468:	6145                	addi	sp,sp,48
   1046a:	c81ff06f          	j	100ea <_fini>
   1046e:	033487b3          	mul	a5,s1,s3
   10472:	0485                	addi	s1,s1,1
   10474:	97ca                	add	a5,a5,s2
   10476:	ff87b783          	ld	a5,-8(a5)
   1047a:	9782                	jalr	a5
   1047c:	bff9                	j	1045a <__libc_fini_array+0x24>

000000000001047e <__libc_init_array>:
   1047e:	1101                	addi	sp,sp,-32
   10480:	e822                	sd	s0,16(sp)
   10482:	e426                	sd	s1,8(sp)
   10484:	6471                	lui	s0,0x1c
   10486:	64f1                	lui	s1,0x1c
   10488:	ba448793          	addi	a5,s1,-1116 # 1bba4 <__preinit_array_end>
   1048c:	ba440413          	addi	s0,s0,-1116 # 1bba4 <__preinit_array_end>
   10490:	8c1d                	sub	s0,s0,a5
   10492:	e04a                	sd	s2,0(sp)
   10494:	ec06                	sd	ra,24(sp)
   10496:	840d                	srai	s0,s0,0x3
   10498:	ba448493          	addi	s1,s1,-1116
   1049c:	4901                	li	s2,0
   1049e:	02891763          	bne	s2,s0,104cc <__libc_init_array+0x4e>
   104a2:	64f1                	lui	s1,0x1c
   104a4:	c47ff0ef          	jal	ra,100ea <_fini>
   104a8:	6471                	lui	s0,0x1c
   104aa:	ba848793          	addi	a5,s1,-1112 # 1bba8 <__frame_dummy_init_array_entry>
   104ae:	bb040413          	addi	s0,s0,-1104 # 1bbb0 <__init_array_end>
   104b2:	8c1d                	sub	s0,s0,a5
   104b4:	840d                	srai	s0,s0,0x3
   104b6:	ba848493          	addi	s1,s1,-1112
   104ba:	4901                	li	s2,0
   104bc:	00891d63          	bne	s2,s0,104d6 <__libc_init_array+0x58>
   104c0:	60e2                	ld	ra,24(sp)
   104c2:	6442                	ld	s0,16(sp)
   104c4:	64a2                	ld	s1,8(sp)
   104c6:	6902                	ld	s2,0(sp)
   104c8:	6105                	addi	sp,sp,32
   104ca:	8082                	ret
   104cc:	609c                	ld	a5,0(s1)
   104ce:	0905                	addi	s2,s2,1
   104d0:	04a1                	addi	s1,s1,8
   104d2:	9782                	jalr	a5
   104d4:	b7e9                	j	1049e <__libc_init_array+0x20>
   104d6:	609c                	ld	a5,0(s1)
   104d8:	0905                	addi	s2,s2,1
   104da:	04a1                	addi	s1,s1,8
   104dc:	9782                	jalr	a5
   104de:	bff9                	j	104bc <__libc_init_array+0x3e>

00000000000104e0 <memset>:
   104e0:	433d                	li	t1,15
   104e2:	872a                	mv	a4,a0
   104e4:	02c37163          	bleu	a2,t1,10506 <memset+0x26>
   104e8:	00f77793          	andi	a5,a4,15
   104ec:	e3c1                	bnez	a5,1056c <memset+0x8c>
   104ee:	e1bd                	bnez	a1,10554 <memset+0x74>
   104f0:	ff067693          	andi	a3,a2,-16
   104f4:	8a3d                	andi	a2,a2,15
   104f6:	96ba                	add	a3,a3,a4
   104f8:	e30c                	sd	a1,0(a4)
   104fa:	e70c                	sd	a1,8(a4)
   104fc:	0741                	addi	a4,a4,16
   104fe:	fed76de3          	bltu	a4,a3,104f8 <memset+0x18>
   10502:	e211                	bnez	a2,10506 <memset+0x26>
   10504:	8082                	ret
   10506:	40c306b3          	sub	a3,t1,a2
   1050a:	068a                	slli	a3,a3,0x2
   1050c:	00000297          	auipc	t0,0x0
   10510:	9696                	add	a3,a3,t0
   10512:	00a68067          	jr	10(a3)
   10516:	00b70723          	sb	a1,14(a4)
   1051a:	00b706a3          	sb	a1,13(a4)
   1051e:	00b70623          	sb	a1,12(a4)
   10522:	00b705a3          	sb	a1,11(a4)
   10526:	00b70523          	sb	a1,10(a4)
   1052a:	00b704a3          	sb	a1,9(a4)
   1052e:	00b70423          	sb	a1,8(a4)
   10532:	00b703a3          	sb	a1,7(a4)
   10536:	00b70323          	sb	a1,6(a4)
   1053a:	00b702a3          	sb	a1,5(a4)
   1053e:	00b70223          	sb	a1,4(a4)
   10542:	00b701a3          	sb	a1,3(a4)
   10546:	00b70123          	sb	a1,2(a4)
   1054a:	00b700a3          	sb	a1,1(a4)
   1054e:	00b70023          	sb	a1,0(a4)
   10552:	8082                	ret
   10554:	0ff5f593          	andi	a1,a1,255
   10558:	00859693          	slli	a3,a1,0x8
   1055c:	8dd5                	or	a1,a1,a3
   1055e:	01059693          	slli	a3,a1,0x10
   10562:	8dd5                	or	a1,a1,a3
   10564:	02059693          	slli	a3,a1,0x20
   10568:	8dd5                	or	a1,a1,a3
   1056a:	b759                	j	104f0 <memset+0x10>
   1056c:	00279693          	slli	a3,a5,0x2
   10570:	00000297          	auipc	t0,0x0
   10574:	9696                	add	a3,a3,t0
   10576:	8286                	mv	t0,ra
   10578:	fa2680e7          	jalr	-94(a3)
   1057c:	8096                	mv	ra,t0
   1057e:	17c1                	addi	a5,a5,-16
   10580:	8f1d                	sub	a4,a4,a5
   10582:	963e                	add	a2,a2,a5
   10584:	f8c371e3          	bleu	a2,t1,10506 <memset+0x26>
   10588:	b79d                	j	104ee <memset+0xe>

000000000001058a <_printf_r>:
   1058a:	715d                	addi	sp,sp,-80
   1058c:	f032                	sd	a2,32(sp)
   1058e:	f436                	sd	a3,40(sp)
   10590:	f83a                	sd	a4,48(sp)
   10592:	fc3e                	sd	a5,56(sp)
   10594:	e0c2                	sd	a6,64(sp)
   10596:	e4c6                	sd	a7,72(sp)
   10598:	862e                	mv	a2,a1
   1059a:	690c                	ld	a1,16(a0)
   1059c:	1014                	addi	a3,sp,32
   1059e:	ec06                	sd	ra,24(sp)
   105a0:	e436                	sd	a3,8(sp)
   105a2:	0ca000ef          	jal	ra,1066c <_vfprintf_r>
   105a6:	60e2                	ld	ra,24(sp)
   105a8:	6161                	addi	sp,sp,80
   105aa:	8082                	ret

00000000000105ac <printf>:
   105ac:	711d                	addi	sp,sp,-96
   105ae:	e4be                	sd	a5,72(sp)
   105b0:	8301b783          	ld	a5,-2000(gp) # 1cce8 <_impure_ptr>
   105b4:	f832                	sd	a2,48(sp)
   105b6:	fc36                	sd	a3,56(sp)
   105b8:	f42e                	sd	a1,40(sp)
   105ba:	e0ba                	sd	a4,64(sp)
   105bc:	e8c2                	sd	a6,80(sp)
   105be:	ecc6                	sd	a7,88(sp)
   105c0:	6b8c                	ld	a1,16(a5)
   105c2:	1034                	addi	a3,sp,40
   105c4:	862a                	mv	a2,a0
   105c6:	853e                	mv	a0,a5
   105c8:	ec06                	sd	ra,24(sp)
   105ca:	e436                	sd	a3,8(sp)
   105cc:	0a0000ef          	jal	ra,1066c <_vfprintf_r>
   105d0:	60e2                	ld	ra,24(sp)
   105d2:	6125                	addi	sp,sp,96
   105d4:	8082                	ret

00000000000105d6 <_puts_r>:
   105d6:	711d                	addi	sp,sp,-96
   105d8:	e8a2                	sd	s0,80(sp)
   105da:	842a                	mv	s0,a0
   105dc:	852e                	mv	a0,a1
   105de:	e42e                	sd	a1,8(sp)
   105e0:	ec86                	sd	ra,88(sp)
   105e2:	078000ef          	jal	ra,1065a <strlen>
   105e6:	0001a7b7          	lui	a5,0x1a
   105ea:	ea878793          	addi	a5,a5,-344 # 19ea8 <__clzdi2+0x15e>
   105ee:	e0be                	sd	a5,64(sp)
   105f0:	4785                	li	a5,1
   105f2:	e4be                	sd	a5,72(sp)
   105f4:	181c                	addi	a5,sp,48
   105f6:	65a2                	ld	a1,8(sp)
   105f8:	ec3e                	sd	a5,24(sp)
   105fa:	4789                	li	a5,2
   105fc:	d03e                	sw	a5,32(sp)
   105fe:	483c                	lw	a5,80(s0)
   10600:	fc2a                	sd	a0,56(sp)
   10602:	0505                	addi	a0,a0,1
   10604:	f82e                	sd	a1,48(sp)
   10606:	f42a                	sd	a0,40(sp)
   10608:	680c                	ld	a1,16(s0)
   1060a:	e791                	bnez	a5,10616 <_puts_r+0x40>
   1060c:	8522                	mv	a0,s0
   1060e:	e42e                	sd	a1,8(sp)
   10610:	313010ef          	jal	ra,12122 <__sinit>
   10614:	65a2                	ld	a1,8(sp)
   10616:	01059783          	lh	a5,16(a1) # 4010 <_start-0xc0a0>
   1061a:	03279713          	slli	a4,a5,0x32
   1061e:	00074d63          	bltz	a4,10638 <_puts_r+0x62>
   10622:	6689                	lui	a3,0x2
   10624:	0ac5a703          	lw	a4,172(a1)
   10628:	8fd5                	or	a5,a5,a3
   1062a:	00f59823          	sh	a5,16(a1)
   1062e:	77f9                	lui	a5,0xffffe
   10630:	17fd                	addi	a5,a5,-1
   10632:	8ff9                	and	a5,a5,a4
   10634:	0af5a623          	sw	a5,172(a1)
   10638:	0830                	addi	a2,sp,24
   1063a:	8522                	mv	a0,s0
   1063c:	671010ef          	jal	ra,124ac <__sfvwrite_r>
   10640:	57fd                	li	a5,-1
   10642:	e111                	bnez	a0,10646 <_puts_r+0x70>
   10644:	47a9                	li	a5,10
   10646:	60e6                	ld	ra,88(sp)
   10648:	6446                	ld	s0,80(sp)
   1064a:	853e                	mv	a0,a5
   1064c:	6125                	addi	sp,sp,96
   1064e:	8082                	ret

0000000000010650 <puts>:
   10650:	85aa                	mv	a1,a0
   10652:	8301b503          	ld	a0,-2000(gp) # 1cce8 <_impure_ptr>
   10656:	f81ff06f          	j	105d6 <_puts_r>

000000000001065a <strlen>:
   1065a:	87aa                	mv	a5,a0
   1065c:	0785                	addi	a5,a5,1
   1065e:	fff7c703          	lbu	a4,-1(a5) # ffffffffffffdfff <_end+0xfffffffffff3d267>
   10662:	ff6d                	bnez	a4,1065c <strlen+0x2>
   10664:	40a78533          	sub	a0,a5,a0
   10668:	157d                	addi	a0,a0,-1
   1066a:	8082                	ret

000000000001066c <_vfprintf_r>:
   1066c:	d9010113          	addi	sp,sp,-624
   10670:	26113423          	sd	ra,616(sp)
   10674:	24913c23          	sd	s1,600(sp)
   10678:	25213823          	sd	s2,592(sp)
   1067c:	25313423          	sd	s3,584(sp)
   10680:	23713423          	sd	s7,552(sp)
   10684:	892e                	mv	s2,a1
   10686:	84b2                	mv	s1,a2
   10688:	8bb6                	mv	s7,a3
   1068a:	26813023          	sd	s0,608(sp)
   1068e:	25413023          	sd	s4,576(sp)
   10692:	23513c23          	sd	s5,568(sp)
   10696:	23613823          	sd	s6,560(sp)
   1069a:	23813023          	sd	s8,544(sp)
   1069e:	21913c23          	sd	s9,536(sp)
   106a2:	21a13823          	sd	s10,528(sp)
   106a6:	21b13423          	sd	s11,520(sp)
   106aa:	89aa                	mv	s3,a0
   106ac:	0c9030ef          	jal	ra,13f74 <_localeconv_r>
   106b0:	611c                	ld	a5,0(a0)
   106b2:	853e                	mv	a0,a5
   106b4:	e4be                	sd	a5,72(sp)
   106b6:	fa5ff0ef          	jal	ra,1065a <strlen>
   106ba:	ec2a                	sd	a0,24(sp)
   106bc:	f982                	sd	zero,240(sp)
   106be:	fd82                	sd	zero,248(sp)
   106c0:	00098863          	beqz	s3,106d0 <_vfprintf_r+0x64>
   106c4:	0509a783          	lw	a5,80(s3)
   106c8:	e781                	bnez	a5,106d0 <_vfprintf_r+0x64>
   106ca:	854e                	mv	a0,s3
   106cc:	257010ef          	jal	ra,12122 <__sinit>
   106d0:	01091783          	lh	a5,16(s2)
   106d4:	03279713          	slli	a4,a5,0x32
   106d8:	00074d63          	bltz	a4,106f2 <_vfprintf_r+0x86>
   106dc:	6689                	lui	a3,0x2
   106de:	0ac92703          	lw	a4,172(s2)
   106e2:	8fd5                	or	a5,a5,a3
   106e4:	00f91823          	sh	a5,16(s2)
   106e8:	77f9                	lui	a5,0xffffe
   106ea:	17fd                	addi	a5,a5,-1
   106ec:	8ff9                	and	a5,a5,a4
   106ee:	0af92623          	sw	a5,172(s2)
   106f2:	01095783          	lhu	a5,16(s2)
   106f6:	8ba1                	andi	a5,a5,8
   106f8:	c3bd                	beqz	a5,1075e <_vfprintf_r+0xf2>
   106fa:	01893783          	ld	a5,24(s2)
   106fe:	c3a5                	beqz	a5,1075e <_vfprintf_r+0xf2>
   10700:	01095783          	lhu	a5,16(s2)
   10704:	4729                	li	a4,10
   10706:	8be9                	andi	a5,a5,26
   10708:	06e79363          	bne	a5,a4,1076e <_vfprintf_r+0x102>
   1070c:	01291783          	lh	a5,18(s2)
   10710:	0407cf63          	bltz	a5,1076e <_vfprintf_r+0x102>
   10714:	86de                	mv	a3,s7
   10716:	8626                	mv	a2,s1
   10718:	85ca                	mv	a1,s2
   1071a:	854e                	mv	a0,s3
   1071c:	512010ef          	jal	ra,11c2e <__sbprintf>
   10720:	f42a                	sd	a0,40(sp)
   10722:	26813083          	ld	ra,616(sp)
   10726:	26013403          	ld	s0,608(sp)
   1072a:	7522                	ld	a0,40(sp)
   1072c:	25813483          	ld	s1,600(sp)
   10730:	25013903          	ld	s2,592(sp)
   10734:	24813983          	ld	s3,584(sp)
   10738:	24013a03          	ld	s4,576(sp)
   1073c:	23813a83          	ld	s5,568(sp)
   10740:	23013b03          	ld	s6,560(sp)
   10744:	22813b83          	ld	s7,552(sp)
   10748:	22013c03          	ld	s8,544(sp)
   1074c:	21813c83          	ld	s9,536(sp)
   10750:	21013d03          	ld	s10,528(sp)
   10754:	20813d83          	ld	s11,520(sp)
   10758:	27010113          	addi	sp,sp,624
   1075c:	8082                	ret
   1075e:	85ca                	mv	a1,s2
   10760:	854e                	mv	a0,s3
   10762:	55a010ef          	jal	ra,11cbc <__swsetup_r>
   10766:	dd49                	beqz	a0,10700 <_vfprintf_r+0x94>
   10768:	57fd                	li	a5,-1
   1076a:	f43e                	sd	a5,40(sp)
   1076c:	bf5d                	j	10722 <_vfprintf_r+0xb6>
   1076e:	67e9                	lui	a5,0x1a
   10770:	eb078793          	addi	a5,a5,-336 # 19eb0 <__clzdi2+0x166>
   10774:	ed3e                	sd	a5,152(sp)
   10776:	0001a7b7          	lui	a5,0x1a
   1077a:	0487b783          	ld	a5,72(a5) # 1a048 <zeroes.4441+0x18>
   1077e:	18010a93          	addi	s5,sp,384
   10782:	e256                	sd	s5,256(sp)
   10784:	f13e                	sd	a5,160(sp)
   10786:	0001a7b7          	lui	a5,0x1a
   1078a:	0587b783          	ld	a5,88(a5) # 1a058 <zeroes.4441+0x28>
   1078e:	ea02                	sd	zero,272(sp)
   10790:	10012423          	sw	zero,264(sp)
   10794:	f53e                	sd	a5,168(sp)
   10796:	0001a7b7          	lui	a5,0x1a
   1079a:	0687b783          	ld	a5,104(a5) # 1a068 <zeroes.4441+0x38>
   1079e:	4a01                	li	s4,0
   107a0:	8cd6                	mv	s9,s5
   107a2:	f082                	sd	zero,96(sp)
   107a4:	ec82                	sd	zero,88(sp)
   107a6:	e002                	sd	zero,0(sp)
   107a8:	e082                	sd	zero,64(sp)
   107aa:	e882                	sd	zero,80(sp)
   107ac:	f402                	sd	zero,40(sp)
   107ae:	e93e                	sd	a5,144(sp)
   107b0:	8426                	mv	s0,s1
   107b2:	02500713          	li	a4,37
   107b6:	00044783          	lbu	a5,0(s0)
   107ba:	c399                	beqz	a5,107c0 <_vfprintf_r+0x154>
   107bc:	08e79663          	bne	a5,a4,10848 <_vfprintf_r+0x1dc>
   107c0:	40940b3b          	subw	s6,s0,s1
   107c4:	020b0f63          	beqz	s6,10802 <_vfprintf_r+0x196>
   107c8:	67d2                	ld	a5,272(sp)
   107ca:	009cb023          	sd	s1,0(s9)
   107ce:	016cb423          	sd	s6,8(s9)
   107d2:	97da                	add	a5,a5,s6
   107d4:	ea3e                	sd	a5,272(sp)
   107d6:	10812783          	lw	a5,264(sp)
   107da:	0cc1                	addi	s9,s9,16
   107dc:	0017871b          	addiw	a4,a5,1
   107e0:	10e12423          	sw	a4,264(sp)
   107e4:	479d                	li	a5,7
   107e6:	00e7da63          	ble	a4,a5,107fa <_vfprintf_r+0x18e>
   107ea:	0210                	addi	a2,sp,256
   107ec:	85ca                	mv	a1,s2
   107ee:	854e                	mv	a0,s3
   107f0:	5fc060ef          	jal	ra,16dec <__sprint_r>
   107f4:	54051363          	bnez	a0,10d3a <_vfprintf_r+0x6ce>
   107f8:	8cd6                	mv	s9,s5
   107fa:	57a2                	lw	a5,40(sp)
   107fc:	016787bb          	addw	a5,a5,s6
   10800:	f43e                	sd	a5,40(sp)
   10802:	00044783          	lbu	a5,0(s0)
   10806:	e399                	bnez	a5,1080c <_vfprintf_r+0x1a0>
   10808:	4040106f          	j	11c0c <_vfprintf_r+0x15a0>
   1080c:	00140793          	addi	a5,s0,1
   10810:	0c0107a3          	sb	zero,207(sp)
   10814:	5dfd                	li	s11,-1
   10816:	f002                	sd	zero,32(sp)
   10818:	4401                	li	s0,0
   1081a:	05a00d13          	li	s10,90
   1081e:	4c29                	li	s8,10
   10820:	0007cb03          	lbu	s6,0(a5)
   10824:	00178713          	addi	a4,a5,1
   10828:	e83a                	sd	a4,16(sp)
   1082a:	46a5                	li	a3,9
   1082c:	02a00613          	li	a2,42
   10830:	fe0b079b          	addiw	a5,s6,-32
   10834:	0007871b          	sext.w	a4,a5
   10838:	3aed68e3          	bltu	s10,a4,113e8 <_vfprintf_r+0xd7c>
   1083c:	676a                	ld	a4,152(sp)
   1083e:	1782                	slli	a5,a5,0x20
   10840:	83f9                	srli	a5,a5,0x1e
   10842:	97ba                	add	a5,a5,a4
   10844:	439c                	lw	a5,0(a5)
   10846:	8782                	jr	a5
   10848:	0405                	addi	s0,s0,1
   1084a:	b7b5                	j	107b6 <_vfprintf_r+0x14a>
   1084c:	0001a7b7          	lui	a5,0x1a
   10850:	0a878793          	addi	a5,a5,168 # 1a0a8 <zeroes.4441+0x78>
   10854:	f0be                	sd	a5,96(sp)
   10856:	008b8793          	addi	a5,s7,8
   1085a:	f83e                	sd	a5,48(sp)
   1085c:	02047793          	andi	a5,s0,32
   10860:	24078de3          	beqz	a5,112ba <_vfprintf_r+0xc4e>
   10864:	000bbb83          	ld	s7,0(s7)
   10868:	00147793          	andi	a5,s0,1
   1086c:	cf81                	beqz	a5,10884 <_vfprintf_r+0x218>
   1086e:	000b8b63          	beqz	s7,10884 <_vfprintf_r+0x218>
   10872:	03000793          	li	a5,48
   10876:	00246413          	ori	s0,s0,2
   1087a:	0cf10823          	sb	a5,208(sp)
   1087e:	0d6108a3          	sb	s6,209(sp)
   10882:	2401                	sext.w	s0,s0
   10884:	bff47413          	andi	s0,s0,-1025
   10888:	2401                	sext.w	s0,s0
   1088a:	4789                	li	a5,2
   1088c:	12b0006f          	j	111b6 <_vfprintf_r+0xb4a>
   10890:	854e                	mv	a0,s3
   10892:	6e2030ef          	jal	ra,13f74 <_localeconv_r>
   10896:	651c                	ld	a5,8(a0)
   10898:	853e                	mv	a0,a5
   1089a:	e8be                	sd	a5,80(sp)
   1089c:	dbfff0ef          	jal	ra,1065a <strlen>
   108a0:	e0aa                	sd	a0,64(sp)
   108a2:	854e                	mv	a0,s3
   108a4:	6d0030ef          	jal	ra,13f74 <_localeconv_r>
   108a8:	691c                	ld	a5,16(a0)
   108aa:	e03e                	sd	a5,0(sp)
   108ac:	6786                	ld	a5,64(sp)
   108ae:	c38d                	beqz	a5,108d0 <_vfprintf_r+0x264>
   108b0:	6782                	ld	a5,0(sp)
   108b2:	cf99                	beqz	a5,108d0 <_vfprintf_r+0x264>
   108b4:	0007c783          	lbu	a5,0(a5)
   108b8:	cf81                	beqz	a5,108d0 <_vfprintf_r+0x264>
   108ba:	40046413          	ori	s0,s0,1024
   108be:	2401                	sext.w	s0,s0
   108c0:	a801                	j	108d0 <_vfprintf_r+0x264>
   108c2:	0cf14783          	lbu	a5,207(sp)
   108c6:	e789                	bnez	a5,108d0 <_vfprintf_r+0x264>
   108c8:	02000793          	li	a5,32
   108cc:	0cf107a3          	sb	a5,207(sp)
   108d0:	67c2                	ld	a5,16(sp)
   108d2:	b7b9                	j	10820 <_vfprintf_r+0x1b4>
   108d4:	00146413          	ori	s0,s0,1
   108d8:	b7dd                	j	108be <_vfprintf_r+0x252>
   108da:	000ba783          	lw	a5,0(s7)
   108de:	0ba1                	addi	s7,s7,8
   108e0:	f03e                	sd	a5,32(sp)
   108e2:	fe07d7e3          	bgez	a5,108d0 <_vfprintf_r+0x264>
   108e6:	5782                	lw	a5,32(sp)
   108e8:	40f007bb          	negw	a5,a5
   108ec:	f03e                	sd	a5,32(sp)
   108ee:	00446413          	ori	s0,s0,4
   108f2:	b7f1                	j	108be <_vfprintf_r+0x252>
   108f4:	02b00793          	li	a5,43
   108f8:	bfd1                	j	108cc <_vfprintf_r+0x260>
   108fa:	6742                	ld	a4,16(sp)
   108fc:	67c2                	ld	a5,16(sp)
   108fe:	00074b03          	lbu	s6,0(a4)
   10902:	0785                	addi	a5,a5,1
   10904:	02cb1c63          	bne	s6,a2,1093c <_vfprintf_r+0x2d0>
   10908:	000bae03          	lw	t3,0(s7)
   1090c:	008b8713          	addi	a4,s7,8
   10910:	000e5363          	bgez	t3,10916 <_vfprintf_r+0x2aa>
   10914:	5e7d                	li	t3,-1
   10916:	000e0d9b          	sext.w	s11,t3
   1091a:	8bba                	mv	s7,a4
   1091c:	e83e                	sd	a5,16(sp)
   1091e:	bf4d                	j	108d0 <_vfprintf_r+0x264>
   10920:	03bc0e3b          	mulw	t3,s8,s11
   10924:	0785                	addi	a5,a5,1
   10926:	fff7cb03          	lbu	s6,-1(a5)
   1092a:	00ee0dbb          	addw	s11,t3,a4
   1092e:	fd0b059b          	addiw	a1,s6,-48
   10932:	872e                	mv	a4,a1
   10934:	feb6f6e3          	bleu	a1,a3,10920 <_vfprintf_r+0x2b4>
   10938:	e83e                	sd	a5,16(sp)
   1093a:	bddd                	j	10830 <_vfprintf_r+0x1c4>
   1093c:	4d81                	li	s11,0
   1093e:	bfc5                	j	1092e <_vfprintf_r+0x2c2>
   10940:	08046413          	ori	s0,s0,128
   10944:	bfad                	j	108be <_vfprintf_r+0x252>
   10946:	67c2                	ld	a5,16(sp)
   10948:	f002                	sd	zero,32(sp)
   1094a:	5702                	lw	a4,32(sp)
   1094c:	fd0b0b1b          	addiw	s6,s6,-48
   10950:	0785                	addi	a5,a5,1
   10952:	02ec073b          	mulw	a4,s8,a4
   10956:	00eb073b          	addw	a4,s6,a4
   1095a:	fff7cb03          	lbu	s6,-1(a5)
   1095e:	f03a                	sd	a4,32(sp)
   10960:	fd0b071b          	addiw	a4,s6,-48
   10964:	fee6f3e3          	bleu	a4,a3,1094a <_vfprintf_r+0x2de>
   10968:	bfc1                	j	10938 <_vfprintf_r+0x2cc>
   1096a:	00846413          	ori	s0,s0,8
   1096e:	bf81                	j	108be <_vfprintf_r+0x252>
   10970:	67c2                	ld	a5,16(sp)
   10972:	0007c703          	lbu	a4,0(a5)
   10976:	06800793          	li	a5,104
   1097a:	00f71863          	bne	a4,a5,1098a <_vfprintf_r+0x31e>
   1097e:	67c2                	ld	a5,16(sp)
   10980:	20046413          	ori	s0,s0,512
   10984:	0785                	addi	a5,a5,1
   10986:	e83e                	sd	a5,16(sp)
   10988:	bf1d                	j	108be <_vfprintf_r+0x252>
   1098a:	04046413          	ori	s0,s0,64
   1098e:	bf05                	j	108be <_vfprintf_r+0x252>
   10990:	67c2                	ld	a5,16(sp)
   10992:	0007c703          	lbu	a4,0(a5)
   10996:	06c00793          	li	a5,108
   1099a:	00f71863          	bne	a4,a5,109aa <_vfprintf_r+0x33e>
   1099e:	67c2                	ld	a5,16(sp)
   109a0:	0785                	addi	a5,a5,1
   109a2:	e83e                	sd	a5,16(sp)
   109a4:	02046413          	ori	s0,s0,32
   109a8:	bf19                	j	108be <_vfprintf_r+0x252>
   109aa:	01046413          	ori	s0,s0,16
   109ae:	bf01                	j	108be <_vfprintf_r+0x252>
   109b0:	008b8793          	addi	a5,s7,8
   109b4:	f83e                	sd	a5,48(sp)
   109b6:	000ba783          	lw	a5,0(s7)
   109ba:	0c0107a3          	sb	zero,207(sp)
   109be:	10f10c23          	sb	a5,280(sp)
   109c2:	4b81                	li	s7,0
   109c4:	4d85                	li	s11,1
   109c6:	4701                	li	a4,0
   109c8:	e402                	sd	zero,8(sp)
   109ca:	4c01                	li	s8,0
   109cc:	4d01                	li	s10,0
   109ce:	0a24                	addi	s1,sp,280
   109d0:	86ba                	mv	a3,a4
   109d2:	01b75363          	ble	s11,a4,109d8 <_vfprintf_r+0x36c>
   109d6:	86ee                	mv	a3,s11
   109d8:	0cf14603          	lbu	a2,207(sp)
   109dc:	0006879b          	sext.w	a5,a3
   109e0:	fc3e                	sd	a5,56(sp)
   109e2:	c601                	beqz	a2,109ea <_vfprintf_r+0x37e>
   109e4:	0016879b          	addiw	a5,a3,1
   109e8:	fc3e                	sd	a5,56(sp)
   109ea:	00247693          	andi	a3,s0,2
   109ee:	0006879b          	sext.w	a5,a3
   109f2:	f4be                	sd	a5,104(sp)
   109f4:	c781                	beqz	a5,109fc <_vfprintf_r+0x390>
   109f6:	57e2                	lw	a5,56(sp)
   109f8:	2789                	addiw	a5,a5,2
   109fa:	fc3e                	sd	a5,56(sp)
   109fc:	08447793          	andi	a5,s0,132
   10a00:	f8be                	sd	a5,112(sp)
   10a02:	efa9                	bnez	a5,10a5c <_vfprintf_r+0x3f0>
   10a04:	5782                	lw	a5,32(sp)
   10a06:	56e2                	lw	a3,56(sp)
   10a08:	40d786bb          	subw	a3,a5,a3
   10a0c:	04d05863          	blez	a3,10a5c <_vfprintf_r+0x3f0>
   10a10:	6869                	lui	a6,0x1a
   10a12:	48c1                	li	a7,16
   10a14:	02080813          	addi	a6,a6,32 # 1a020 <blanks.4440>
   10a18:	4e9d                	li	t4,7
   10a1a:	10812583          	lw	a1,264(sp)
   10a1e:	010cb023          	sd	a6,0(s9)
   10a22:	6652                	ld	a2,272(sp)
   10a24:	0015851b          	addiw	a0,a1,1
   10a28:	85aa                	mv	a1,a0
   10a2a:	010c8f13          	addi	t5,s9,16
   10a2e:	1cd8c6e3          	blt	a7,a3,113fa <_vfprintf_r+0xd8e>
   10a32:	00dcb423          	sd	a3,8(s9)
   10a36:	96b2                	add	a3,a3,a2
   10a38:	ea36                	sd	a3,272(sp)
   10a3a:	10a12423          	sw	a0,264(sp)
   10a3e:	469d                	li	a3,7
   10a40:	8cfa                	mv	s9,t5
   10a42:	00a6dd63          	ble	a0,a3,10a5c <_vfprintf_r+0x3f0>
   10a46:	0210                	addi	a2,sp,256
   10a48:	85ca                	mv	a1,s2
   10a4a:	854e                	mv	a0,s3
   10a4c:	fcba                	sd	a4,120(sp)
   10a4e:	39e060ef          	jal	ra,16dec <__sprint_r>
   10a52:	c119                	beqz	a0,10a58 <_vfprintf_r+0x3ec>
   10a54:	17a0106f          	j	11bce <_vfprintf_r+0x1562>
   10a58:	7766                	ld	a4,120(sp)
   10a5a:	8cd6                	mv	s9,s5
   10a5c:	0cf14683          	lbu	a3,207(sp)
   10a60:	c2a1                	beqz	a3,10aa0 <_vfprintf_r+0x434>
   10a62:	0cf10693          	addi	a3,sp,207
   10a66:	00dcb023          	sd	a3,0(s9)
   10a6a:	4685                	li	a3,1
   10a6c:	00dcb423          	sd	a3,8(s9)
   10a70:	66d2                	ld	a3,272(sp)
   10a72:	0cc1                	addi	s9,s9,16
   10a74:	0685                	addi	a3,a3,1
   10a76:	ea36                	sd	a3,272(sp)
   10a78:	10812683          	lw	a3,264(sp)
   10a7c:	0016861b          	addiw	a2,a3,1
   10a80:	10c12423          	sw	a2,264(sp)
   10a84:	469d                	li	a3,7
   10a86:	00c6dd63          	ble	a2,a3,10aa0 <_vfprintf_r+0x434>
   10a8a:	0210                	addi	a2,sp,256
   10a8c:	85ca                	mv	a1,s2
   10a8e:	854e                	mv	a0,s3
   10a90:	fcba                	sd	a4,120(sp)
   10a92:	35a060ef          	jal	ra,16dec <__sprint_r>
   10a96:	c119                	beqz	a0,10a9c <_vfprintf_r+0x430>
   10a98:	1360106f          	j	11bce <_vfprintf_r+0x1562>
   10a9c:	7766                	ld	a4,120(sp)
   10a9e:	8cd6                	mv	s9,s5
   10aa0:	77a6                	ld	a5,104(sp)
   10aa2:	cf9d                	beqz	a5,10ae0 <_vfprintf_r+0x474>
   10aa4:	0994                	addi	a3,sp,208
   10aa6:	00dcb023          	sd	a3,0(s9)
   10aaa:	4689                	li	a3,2
   10aac:	00dcb423          	sd	a3,8(s9)
   10ab0:	66d2                	ld	a3,272(sp)
   10ab2:	0cc1                	addi	s9,s9,16
   10ab4:	0689                	addi	a3,a3,2
   10ab6:	ea36                	sd	a3,272(sp)
   10ab8:	10812683          	lw	a3,264(sp)
   10abc:	0016861b          	addiw	a2,a3,1
   10ac0:	10c12423          	sw	a2,264(sp)
   10ac4:	469d                	li	a3,7
   10ac6:	00c6dd63          	ble	a2,a3,10ae0 <_vfprintf_r+0x474>
   10aca:	0210                	addi	a2,sp,256
   10acc:	85ca                	mv	a1,s2
   10ace:	854e                	mv	a0,s3
   10ad0:	f4ba                	sd	a4,104(sp)
   10ad2:	31a060ef          	jal	ra,16dec <__sprint_r>
   10ad6:	c119                	beqz	a0,10adc <_vfprintf_r+0x470>
   10ad8:	0f60106f          	j	11bce <_vfprintf_r+0x1562>
   10adc:	7726                	ld	a4,104(sp)
   10ade:	8cd6                	mv	s9,s5
   10ae0:	77c6                	ld	a5,112(sp)
   10ae2:	08000693          	li	a3,128
   10ae6:	04d79e63          	bne	a5,a3,10b42 <_vfprintf_r+0x4d6>
   10aea:	5782                	lw	a5,32(sp)
   10aec:	56e2                	lw	a3,56(sp)
   10aee:	40d786bb          	subw	a3,a5,a3
   10af2:	04d05863          	blez	a3,10b42 <_vfprintf_r+0x4d6>
   10af6:	6869                	lui	a6,0x1a
   10af8:	48c1                	li	a7,16
   10afa:	03080813          	addi	a6,a6,48 # 1a030 <zeroes.4441>
   10afe:	4e9d                	li	t4,7
   10b00:	10812583          	lw	a1,264(sp)
   10b04:	010cb023          	sd	a6,0(s9)
   10b08:	6652                	ld	a2,272(sp)
   10b0a:	0015851b          	addiw	a0,a1,1
   10b0e:	85aa                	mv	a1,a0
   10b10:	010c8f13          	addi	t5,s9,16
   10b14:	12d8c1e3          	blt	a7,a3,11436 <_vfprintf_r+0xdca>
   10b18:	00dcb423          	sd	a3,8(s9)
   10b1c:	96b2                	add	a3,a3,a2
   10b1e:	ea36                	sd	a3,272(sp)
   10b20:	10a12423          	sw	a0,264(sp)
   10b24:	469d                	li	a3,7
   10b26:	8cfa                	mv	s9,t5
   10b28:	00a6dd63          	ble	a0,a3,10b42 <_vfprintf_r+0x4d6>
   10b2c:	0210                	addi	a2,sp,256
   10b2e:	85ca                	mv	a1,s2
   10b30:	854e                	mv	a0,s3
   10b32:	f4ba                	sd	a4,104(sp)
   10b34:	2b8060ef          	jal	ra,16dec <__sprint_r>
   10b38:	c119                	beqz	a0,10b3e <_vfprintf_r+0x4d2>
   10b3a:	0940106f          	j	11bce <_vfprintf_r+0x1562>
   10b3e:	7726                	ld	a4,104(sp)
   10b40:	8cd6                	mv	s9,s5
   10b42:	41b7073b          	subw	a4,a4,s11
   10b46:	04e05663          	blez	a4,10b92 <_vfprintf_r+0x526>
   10b4a:	6869                	lui	a6,0x1a
   10b4c:	48c1                	li	a7,16
   10b4e:	03080813          	addi	a6,a6,48 # 1a030 <zeroes.4441>
   10b52:	4e9d                	li	t4,7
   10b54:	10812603          	lw	a2,264(sp)
   10b58:	010cb023          	sd	a6,0(s9)
   10b5c:	66d2                	ld	a3,272(sp)
   10b5e:	0016059b          	addiw	a1,a2,1
   10b62:	862e                	mv	a2,a1
   10b64:	010c8513          	addi	a0,s9,16
   10b68:	10e8c5e3          	blt	a7,a4,11472 <_vfprintf_r+0xe06>
   10b6c:	00ecb423          	sd	a4,8(s9)
   10b70:	9736                	add	a4,a4,a3
   10b72:	ea3a                	sd	a4,272(sp)
   10b74:	10b12423          	sw	a1,264(sp)
   10b78:	471d                	li	a4,7
   10b7a:	8caa                	mv	s9,a0
   10b7c:	00b75b63          	ble	a1,a4,10b92 <_vfprintf_r+0x526>
   10b80:	0210                	addi	a2,sp,256
   10b82:	85ca                	mv	a1,s2
   10b84:	854e                	mv	a0,s3
   10b86:	266060ef          	jal	ra,16dec <__sprint_r>
   10b8a:	c119                	beqz	a0,10b90 <_vfprintf_r+0x524>
   10b8c:	0420106f          	j	11bce <_vfprintf_r+0x1562>
   10b90:	8cd6                	mv	s9,s5
   10b92:	10047693          	andi	a3,s0,256
   10b96:	6752                	ld	a4,272(sp)
   10b98:	100699e3          	bnez	a3,114aa <_vfprintf_r+0xe3e>
   10b9c:	10812783          	lw	a5,264(sp)
   10ba0:	00ed8e33          	add	t3,s11,a4
   10ba4:	009cb023          	sd	s1,0(s9)
   10ba8:	0017871b          	addiw	a4,a5,1
   10bac:	01bcb423          	sd	s11,8(s9)
   10bb0:	ea72                	sd	t3,272(sp)
   10bb2:	10e12423          	sw	a4,264(sp)
   10bb6:	479d                	li	a5,7
   10bb8:	0cc1                	addi	s9,s9,16
   10bba:	1ce7d4e3          	ble	a4,a5,11582 <_vfprintf_r+0xf16>
   10bbe:	0210                	addi	a2,sp,256
   10bc0:	85ca                	mv	a1,s2
   10bc2:	854e                	mv	a0,s3
   10bc4:	228060ef          	jal	ra,16dec <__sprint_r>
   10bc8:	c119                	beqz	a0,10bce <_vfprintf_r+0x562>
   10bca:	0040106f          	j	11bce <_vfprintf_r+0x1562>
   10bce:	8cd6                	mv	s9,s5
   10bd0:	1b30006f          	j	11582 <_vfprintf_r+0xf16>
   10bd4:	01046413          	ori	s0,s0,16
   10bd8:	2401                	sext.w	s0,s0
   10bda:	008b8793          	addi	a5,s7,8
   10bde:	f83e                	sd	a5,48(sp)
   10be0:	02047793          	andi	a5,s0,32
   10be4:	cb85                	beqz	a5,10c14 <_vfprintf_r+0x5a8>
   10be6:	000bbb83          	ld	s7,0(s7)
   10bea:	000bd863          	bgez	s7,10bfa <_vfprintf_r+0x58e>
   10bee:	02d00793          	li	a5,45
   10bf2:	41700bb3          	neg	s7,s7
   10bf6:	0cf107a3          	sb	a5,207(sp)
   10bfa:	57fd                	li	a5,-1
   10bfc:	6efd9963          	bne	s11,a5,112ee <_vfprintf_r+0xc82>
   10c00:	47a5                	li	a5,9
   10c02:	7577e463          	bltu	a5,s7,1134a <_vfprintf_r+0xcde>
   10c06:	030b8b9b          	addiw	s7,s7,48
   10c0a:	17710da3          	sb	s7,379(sp)
   10c0e:	17b10493          	addi	s1,sp,379
   10c12:	af39                	j	11330 <_vfprintf_r+0xcc4>
   10c14:	01047793          	andi	a5,s0,16
   10c18:	f7f9                	bnez	a5,10be6 <_vfprintf_r+0x57a>
   10c1a:	04047793          	andi	a5,s0,64
   10c1e:	c781                	beqz	a5,10c26 <_vfprintf_r+0x5ba>
   10c20:	000b9b83          	lh	s7,0(s7)
   10c24:	b7d9                	j	10bea <_vfprintf_r+0x57e>
   10c26:	20047793          	andi	a5,s0,512
   10c2a:	c781                	beqz	a5,10c32 <_vfprintf_r+0x5c6>
   10c2c:	000b8b83          	lb	s7,0(s7)
   10c30:	bf6d                	j	10bea <_vfprintf_r+0x57e>
   10c32:	000bab83          	lw	s7,0(s7)
   10c36:	bf55                	j	10bea <_vfprintf_r+0x57e>
   10c38:	00847793          	andi	a5,s0,8
   10c3c:	cfb9                	beqz	a5,10c9a <_vfprintf_r+0x62e>
   10c3e:	0bbd                	addi	s7,s7,15
   10c40:	ff0bfb93          	andi	s7,s7,-16
   10c44:	010b8793          	addi	a5,s7,16
   10c48:	f83e                	sd	a5,48(sp)
   10c4a:	000bb783          	ld	a5,0(s7)
   10c4e:	f9be                	sd	a5,240(sp)
   10c50:	008bb783          	ld	a5,8(s7)
   10c54:	fdbe                	sd	a5,248(sp)
   10c56:	1988                	addi	a0,sp,240
   10c58:	2e0030ef          	jal	ra,13f38 <_ldcheck>
   10c5c:	cdaa                	sw	a0,216(sp)
   10c5e:	4789                	li	a5,2
   10c60:	04f51c63          	bne	a0,a5,10cb8 <_vfprintf_r+0x64c>
   10c64:	754e                	ld	a0,240(sp)
   10c66:	75ee                	ld	a1,248(sp)
   10c68:	4601                	li	a2,0
   10c6a:	4681                	li	a3,0
   10c6c:	58f070ef          	jal	ra,189fa <__letf2>
   10c70:	00055663          	bgez	a0,10c7c <_vfprintf_r+0x610>
   10c74:	02d00793          	li	a5,45
   10c78:	0cf107a3          	sb	a5,207(sp)
   10c7c:	04700793          	li	a5,71
   10c80:	0367c763          	blt	a5,s6,10cae <_vfprintf_r+0x642>
   10c84:	0001a4b7          	lui	s1,0x1a
   10c88:	07048493          	addi	s1,s1,112 # 1a070 <zeroes.4441+0x40>
   10c8c:	f7f47413          	andi	s0,s0,-129
   10c90:	2401                	sext.w	s0,s0
   10c92:	4b81                	li	s7,0
   10c94:	4d8d                	li	s11,3
   10c96:	4701                	li	a4,0
   10c98:	a555                	j	1133c <_vfprintf_r+0xcd0>
   10c9a:	000bb507          	fld	fa0,0(s7)
   10c9e:	008b8793          	addi	a5,s7,8
   10ca2:	f83e                	sd	a5,48(sp)
   10ca4:	581080ef          	jal	ra,19a24 <__extenddftf2>
   10ca8:	f9aa                	sd	a0,240(sp)
   10caa:	fdae                	sd	a1,248(sp)
   10cac:	b76d                	j	10c56 <_vfprintf_r+0x5ea>
   10cae:	0001a4b7          	lui	s1,0x1a
   10cb2:	07848493          	addi	s1,s1,120 # 1a078 <zeroes.4441+0x48>
   10cb6:	bfd9                	j	10c8c <_vfprintf_r+0x620>
   10cb8:	4785                	li	a5,1
   10cba:	02f51763          	bne	a0,a5,10ce8 <_vfprintf_r+0x67c>
   10cbe:	77ee                	ld	a5,248(sp)
   10cc0:	0007d663          	bgez	a5,10ccc <_vfprintf_r+0x660>
   10cc4:	02d00793          	li	a5,45
   10cc8:	0cf107a3          	sb	a5,207(sp)
   10ccc:	04700793          	li	a5,71
   10cd0:	0167c763          	blt	a5,s6,10cde <_vfprintf_r+0x672>
   10cd4:	0001a4b7          	lui	s1,0x1a
   10cd8:	08048493          	addi	s1,s1,128 # 1a080 <zeroes.4441+0x50>
   10cdc:	bf45                	j	10c8c <_vfprintf_r+0x620>
   10cde:	0001a4b7          	lui	s1,0x1a
   10ce2:	08848493          	addi	s1,s1,136 # 1a088 <zeroes.4441+0x58>
   10ce6:	b75d                	j	10c8c <_vfprintf_r+0x620>
   10ce8:	fdfb7c13          	andi	s8,s6,-33
   10cec:	04100793          	li	a5,65
   10cf0:	04fc1c63          	bne	s8,a5,10d48 <_vfprintf_r+0x6dc>
   10cf4:	03000793          	li	a5,48
   10cf8:	0cf10823          	sb	a5,208(sp)
   10cfc:	06100713          	li	a4,97
   10d00:	05800793          	li	a5,88
   10d04:	00eb1463          	bne	s6,a4,10d0c <_vfprintf_r+0x6a0>
   10d08:	07800793          	li	a5,120
   10d0c:	0cf108a3          	sb	a5,209(sp)
   10d10:	00246413          	ori	s0,s0,2
   10d14:	06300793          	li	a5,99
   10d18:	2401                	sext.w	s0,s0
   10d1a:	15b7db63          	ble	s11,a5,10e70 <_vfprintf_r+0x804>
   10d1e:	001d859b          	addiw	a1,s11,1
   10d22:	854e                	mv	a0,s3
   10d24:	404030ef          	jal	ra,14128 <_malloc_r>
   10d28:	84aa                	mv	s1,a0
   10d2a:	14051663          	bnez	a0,10e76 <_vfprintf_r+0x80a>
   10d2e:	01095783          	lhu	a5,16(s2)
   10d32:	0407e793          	ori	a5,a5,64
   10d36:	00f91823          	sh	a5,16(s2)
   10d3a:	01095783          	lhu	a5,16(s2)
   10d3e:	0407f793          	andi	a5,a5,64
   10d42:	9e0780e3          	beqz	a5,10722 <_vfprintf_r+0xb6>
   10d46:	b40d                	j	10768 <_vfprintf_r+0xfc>
   10d48:	57fd                	li	a5,-1
   10d4a:	12fd8863          	beq	s11,a5,10e7a <_vfprintf_r+0x80e>
   10d4e:	04700793          	li	a5,71
   10d52:	4b81                	li	s7,0
   10d54:	00fc1463          	bne	s8,a5,10d5c <_vfprintf_r+0x6f0>
   10d58:	120d8463          	beqz	s11,10e80 <_vfprintf_r+0x814>
   10d5c:	10046793          	ori	a5,s0,256
   10d60:	7a6e                	ld	s4,248(sp)
   10d62:	2781                	sext.w	a5,a5
   10d64:	fc3e                	sd	a5,56(sp)
   10d66:	fc82                	sd	zero,120(sp)
   10d68:	7ece                	ld	t4,240(sp)
   10d6a:	000a5963          	bgez	s4,10d7c <_vfprintf_r+0x710>
   10d6e:	57fd                	li	a5,-1
   10d70:	17fe                	slli	a5,a5,0x3f
   10d72:	00fa4a33          	xor	s4,s4,a5
   10d76:	02d00793          	li	a5,45
   10d7a:	fcbe                	sd	a5,120(sp)
   10d7c:	04100793          	li	a5,65
   10d80:	22fc1363          	bne	s8,a5,10fa6 <_vfprintf_r+0x93a>
   10d84:	8576                	mv	a0,t4
   10d86:	85d2                	mv	a1,s4
   10d88:	581080ef          	jal	ra,19b08 <__trunctfdf2>
   10d8c:	09a8                	addi	a0,sp,216
   10d8e:	7f8040ef          	jal	ra,15586 <frexp>
   10d92:	493080ef          	jal	ra,19a24 <__extenddftf2>
   10d96:	768a                	ld	a3,160(sp)
   10d98:	4601                	li	a2,0
   10d9a:	525070ef          	jal	ra,18abe <__multf3>
   10d9e:	4601                	li	a2,0
   10da0:	4681                	li	a3,0
   10da2:	e12a                	sd	a0,128(sp)
   10da4:	e52e                	sd	a1,136(sp)
   10da6:	2ed070ef          	jal	ra,18892 <__eqtf2>
   10daa:	e119                	bnez	a0,10db0 <_vfprintf_r+0x744>
   10dac:	4785                	li	a5,1
   10dae:	cdbe                	sw	a5,216(sp)
   10db0:	06100793          	li	a5,97
   10db4:	0cfb1963          	bne	s6,a5,10e86 <_vfprintf_r+0x81a>
   10db8:	0001a7b7          	lui	a5,0x1a
   10dbc:	09078793          	addi	a5,a5,144 # 1a090 <zeroes.4441+0x60>
   10dc0:	e43e                	sd	a5,8(sp)
   10dc2:	fffd871b          	addiw	a4,s11,-1
   10dc6:	8a26                	mv	s4,s1
   10dc8:	76aa                	ld	a3,168(sp)
   10dca:	650a                	ld	a0,128(sp)
   10dcc:	65aa                	ld	a1,136(sp)
   10dce:	4601                	li	a2,0
   10dd0:	f93a                	sd	a4,176(sp)
   10dd2:	4ed070ef          	jal	ra,18abe <__multf3>
   10dd6:	8d2a                	mv	s10,a0
   10dd8:	f4ae                	sd	a1,104(sp)
   10dda:	33b080ef          	jal	ra,19914 <__fixtfsi>
   10dde:	0005079b          	sext.w	a5,a0
   10de2:	f8be                	sd	a5,112(sp)
   10de4:	3c3080ef          	jal	ra,199a6 <__floatsitf>
   10de8:	77a6                	ld	a5,104(sp)
   10dea:	86ae                	mv	a3,a1
   10dec:	862a                	mv	a2,a0
   10dee:	85be                	mv	a1,a5
   10df0:	856a                	mv	a0,s10
   10df2:	312080ef          	jal	ra,19104 <__subtf3>
   10df6:	67a2                	ld	a5,8(sp)
   10df8:	7746                	ld	a4,112(sp)
   10dfa:	0a05                	addi	s4,s4,1
   10dfc:	e12a                	sd	a0,128(sp)
   10dfe:	00e786b3          	add	a3,a5,a4
   10e02:	774a                	ld	a4,176(sp)
   10e04:	0006c683          	lbu	a3,0(a3) # 2000 <_start-0xe0b0>
   10e08:	e52e                	sd	a1,136(sp)
   10e0a:	0007079b          	sext.w	a5,a4
   10e0e:	f4be                	sd	a5,104(sp)
   10e10:	feda0fa3          	sb	a3,-1(s4)
   10e14:	57fd                	li	a5,-1
   10e16:	88aa                	mv	a7,a0
   10e18:	8d2e                	mv	s10,a1
   10e1a:	06f70b63          	beq	a4,a5,10e90 <_vfprintf_r+0x824>
   10e1e:	377d                	addiw	a4,a4,-1
   10e20:	4601                	li	a2,0
   10e22:	4681                	li	a3,0
   10e24:	f93a                	sd	a4,176(sp)
   10e26:	fd2a                	sd	a0,184(sp)
   10e28:	26b070ef          	jal	ra,18892 <__eqtf2>
   10e2c:	774a                	ld	a4,176(sp)
   10e2e:	78ea                	ld	a7,184(sp)
   10e30:	fd41                	bnez	a0,10dc8 <_vfprintf_r+0x75c>
   10e32:	66ca                	ld	a3,144(sp)
   10e34:	4601                	li	a2,0
   10e36:	8546                	mv	a0,a7
   10e38:	85ea                	mv	a1,s10
   10e3a:	e146                	sd	a7,128(sp)
   10e3c:	2fb070ef          	jal	ra,18936 <__getf2>
   10e40:	04a04b63          	bgtz	a0,10e96 <_vfprintf_r+0x82a>
   10e44:	688a                	ld	a7,128(sp)
   10e46:	66ca                	ld	a3,144(sp)
   10e48:	4601                	li	a2,0
   10e4a:	8546                	mv	a0,a7
   10e4c:	85ea                	mv	a1,s10
   10e4e:	245070ef          	jal	ra,18892 <__eqtf2>
   10e52:	e509                	bnez	a0,10e5c <_vfprintf_r+0x7f0>
   10e54:	77c6                	ld	a5,112(sp)
   10e56:	0017f713          	andi	a4,a5,1
   10e5a:	ef15                	bnez	a4,10e96 <_vfprintf_r+0x82a>
   10e5c:	5726                	lw	a4,104(sp)
   10e5e:	03000693          	li	a3,48
   10e62:	06074163          	bltz	a4,10ec4 <_vfprintf_r+0x858>
   10e66:	0a05                	addi	s4,s4,1
   10e68:	feda0fa3          	sb	a3,-1(s4)
   10e6c:	377d                	addiw	a4,a4,-1
   10e6e:	bfd5                	j	10e62 <_vfprintf_r+0x7f6>
   10e70:	4b81                	li	s7,0
   10e72:	0a24                	addi	s1,sp,280
   10e74:	b5e5                	j	10d5c <_vfprintf_r+0x6f0>
   10e76:	8baa                	mv	s7,a0
   10e78:	b5d5                	j	10d5c <_vfprintf_r+0x6f0>
   10e7a:	4b81                	li	s7,0
   10e7c:	4d99                	li	s11,6
   10e7e:	bdf9                	j	10d5c <_vfprintf_r+0x6f0>
   10e80:	8bee                	mv	s7,s11
   10e82:	4d85                	li	s11,1
   10e84:	bde1                	j	10d5c <_vfprintf_r+0x6f0>
   10e86:	0001a7b7          	lui	a5,0x1a
   10e8a:	0a878793          	addi	a5,a5,168 # 1a0a8 <zeroes.4441+0x78>
   10e8e:	bf0d                	j	10dc0 <_vfprintf_r+0x754>
   10e90:	57fd                	li	a5,-1
   10e92:	f4be                	sd	a5,104(sp)
   10e94:	bf79                	j	10e32 <_vfprintf_r+0x7c6>
   10e96:	67a2                	ld	a5,8(sp)
   10e98:	f5d2                	sd	s4,232(sp)
   10e9a:	03000593          	li	a1,48
   10e9e:	00f7c603          	lbu	a2,15(a5)
   10ea2:	76ae                	ld	a3,232(sp)
   10ea4:	fff68713          	addi	a4,a3,-1
   10ea8:	f5ba                	sd	a4,232(sp)
   10eaa:	fff6c703          	lbu	a4,-1(a3)
   10eae:	0ec70563          	beq	a4,a2,10f98 <_vfprintf_r+0x92c>
   10eb2:	03900613          	li	a2,57
   10eb6:	0ec71463          	bne	a4,a2,10f9e <_vfprintf_r+0x932>
   10eba:	67a2                	ld	a5,8(sp)
   10ebc:	00a7c703          	lbu	a4,10(a5)
   10ec0:	fee68fa3          	sb	a4,-1(a3)
   10ec4:	04700713          	li	a4,71
   10ec8:	409a0a3b          	subw	s4,s4,s1
   10ecc:	4d6e                	lw	s10,216(sp)
   10ece:	18ec1463          	bne	s8,a4,11056 <_vfprintf_r+0x9ea>
   10ed2:	5775                	li	a4,-3
   10ed4:	00ed4463          	blt	s10,a4,10edc <_vfprintf_r+0x870>
   10ed8:	1fadd463          	ble	s10,s11,110c0 <_vfprintf_r+0xa54>
   10edc:	3b79                	addiw	s6,s6,-2
   10ede:	fffd069b          	addiw	a3,s10,-1
   10ee2:	cdb6                	sw	a3,216(sp)
   10ee4:	fdfb7613          	andi	a2,s6,-33
   10ee8:	04100513          	li	a0,65
   10eec:	0ffb7713          	andi	a4,s6,255
   10ef0:	4581                	li	a1,0
   10ef2:	00a61663          	bne	a2,a0,10efe <_vfprintf_r+0x892>
   10ef6:	273d                	addiw	a4,a4,15
   10ef8:	0ff77713          	andi	a4,a4,255
   10efc:	4585                	li	a1,1
   10efe:	0ee10023          	sb	a4,224(sp)
   10f02:	02b00793          	li	a5,43
   10f06:	0006d763          	bgez	a3,10f14 <_vfprintf_r+0x8a8>
   10f0a:	4685                	li	a3,1
   10f0c:	41a686bb          	subw	a3,a3,s10
   10f10:	02d00793          	li	a5,45
   10f14:	0ef100a3          	sb	a5,225(sp)
   10f18:	47a5                	li	a5,9
   10f1a:	16d7da63          	ble	a3,a5,1108e <_vfprintf_r+0xa22>
   10f1e:	0ef10713          	addi	a4,sp,239
   10f22:	853a                	mv	a0,a4
   10f24:	45a9                	li	a1,10
   10f26:	4825                	li	a6,9
   10f28:	02b6e7bb          	remw	a5,a3,a1
   10f2c:	fff70613          	addi	a2,a4,-1
   10f30:	02b6c6bb          	divw	a3,a3,a1
   10f34:	0307879b          	addiw	a5,a5,48
   10f38:	fef70fa3          	sb	a5,-1(a4)
   10f3c:	14d84063          	blt	a6,a3,1107c <_vfprintf_r+0xa10>
   10f40:	0306879b          	addiw	a5,a3,48
   10f44:	fef60fa3          	sb	a5,-1(a2)
   10f48:	1779                	addi	a4,a4,-2
   10f4a:	0e210613          	addi	a2,sp,226
   10f4e:	12a76963          	bltu	a4,a0,11080 <_vfprintf_r+0xa14>
   10f52:	119c                	addi	a5,sp,224
   10f54:	40f607bb          	subw	a5,a2,a5
   10f58:	ecbe                	sd	a5,88(sp)
   10f5a:	47e6                	lw	a5,88(sp)
   10f5c:	4705                	li	a4,1
   10f5e:	01478dbb          	addw	s11,a5,s4
   10f62:	87ee                	mv	a5,s11
   10f64:	01474563          	blt	a4,s4,10f6e <_vfprintf_r+0x902>
   10f68:	00147713          	andi	a4,s0,1
   10f6c:	c701                	beqz	a4,10f74 <_vfprintf_r+0x908>
   10f6e:	4762                	lw	a4,24(sp)
   10f70:	00e78dbb          	addw	s11,a5,a4
   10f74:	bff47413          	andi	s0,s0,-1025
   10f78:	2401                	sext.w	s0,s0
   10f7a:	10046793          	ori	a5,s0,256
   10f7e:	fc3e                	sd	a5,56(sp)
   10f80:	e402                	sd	zero,8(sp)
   10f82:	4c01                	li	s8,0
   10f84:	4d01                	li	s10,0
   10f86:	77e6                	ld	a5,120(sp)
   10f88:	c789                	beqz	a5,10f92 <_vfprintf_r+0x926>
   10f8a:	02d00713          	li	a4,45
   10f8e:	0ce107a3          	sb	a4,207(sp)
   10f92:	7462                	ld	s0,56(sp)
   10f94:	4701                	li	a4,0
   10f96:	bc2d                	j	109d0 <_vfprintf_r+0x364>
   10f98:	feb68fa3          	sb	a1,-1(a3)
   10f9c:	b719                	j	10ea2 <_vfprintf_r+0x836>
   10f9e:	2705                	addiw	a4,a4,1
   10fa0:	0ff77713          	andi	a4,a4,255
   10fa4:	bf31                	j	10ec0 <_vfprintf_r+0x854>
   10fa6:	04600793          	li	a5,70
   10faa:	00fc0b63          	beq	s8,a5,10fc0 <_vfprintf_r+0x954>
   10fae:	04500793          	li	a5,69
   10fb2:	8d6e                	mv	s10,s11
   10fb4:	00fc1463          	bne	s8,a5,10fbc <_vfprintf_r+0x950>
   10fb8:	001d8d1b          	addiw	s10,s11,1
   10fbc:	4689                	li	a3,2
   10fbe:	a019                	j	10fc4 <_vfprintf_r+0x958>
   10fc0:	8d6e                	mv	s10,s11
   10fc2:	468d                	li	a3,3
   10fc4:	09bc                	addi	a5,sp,216
   10fc6:	85f6                	mv	a1,t4
   10fc8:	0e810893          	addi	a7,sp,232
   10fcc:	0dc10813          	addi	a6,sp,220
   10fd0:	876a                	mv	a4,s10
   10fd2:	8652                	mv	a2,s4
   10fd4:	854e                	mv	a0,s3
   10fd6:	e476                	sd	t4,8(sp)
   10fd8:	64a020ef          	jal	ra,13622 <_ldtoa_r>
   10fdc:	04700793          	li	a5,71
   10fe0:	84aa                	mv	s1,a0
   10fe2:	6ea2                	ld	t4,8(sp)
   10fe4:	00fc1563          	bne	s8,a5,10fee <_vfprintf_r+0x982>
   10fe8:	00147793          	andi	a5,s0,1
   10fec:	cbb1                	beqz	a5,11040 <_vfprintf_r+0x9d4>
   10fee:	04600713          	li	a4,70
   10ff2:	01a487b3          	add	a5,s1,s10
   10ff6:	02ec1963          	bne	s8,a4,11028 <_vfprintf_r+0x9bc>
   10ffa:	0004c683          	lbu	a3,0(s1)
   10ffe:	03000713          	li	a4,48
   11002:	02e69163          	bne	a3,a4,11024 <_vfprintf_r+0x9b8>
   11006:	8576                	mv	a0,t4
   11008:	4601                	li	a2,0
   1100a:	4681                	li	a3,0
   1100c:	85d2                	mv	a1,s4
   1100e:	f4be                	sd	a5,104(sp)
   11010:	e476                	sd	t4,8(sp)
   11012:	081070ef          	jal	ra,18892 <__eqtf2>
   11016:	6ea2                	ld	t4,8(sp)
   11018:	77a6                	ld	a5,104(sp)
   1101a:	c509                	beqz	a0,11024 <_vfprintf_r+0x9b8>
   1101c:	4705                	li	a4,1
   1101e:	41a70d3b          	subw	s10,a4,s10
   11022:	cdea                	sw	s10,216(sp)
   11024:	476e                	lw	a4,216(sp)
   11026:	97ba                	add	a5,a5,a4
   11028:	4681                	li	a3,0
   1102a:	4601                	li	a2,0
   1102c:	8576                	mv	a0,t4
   1102e:	85d2                	mv	a1,s4
   11030:	e43e                	sd	a5,8(sp)
   11032:	061070ef          	jal	ra,18892 <__eqtf2>
   11036:	67a2                	ld	a5,8(sp)
   11038:	03000693          	li	a3,48
   1103c:	e909                	bnez	a0,1104e <_vfprintf_r+0x9e2>
   1103e:	f5be                	sd	a5,232(sp)
   11040:	7a2e                	ld	s4,232(sp)
   11042:	b549                	j	10ec4 <_vfprintf_r+0x858>
   11044:	00170613          	addi	a2,a4,1
   11048:	f5b2                	sd	a2,232(sp)
   1104a:	00d70023          	sb	a3,0(a4)
   1104e:	772e                	ld	a4,232(sp)
   11050:	fef76ae3          	bltu	a4,a5,11044 <_vfprintf_r+0x9d8>
   11054:	b7f5                	j	11040 <_vfprintf_r+0x9d4>
   11056:	04600713          	li	a4,70
   1105a:	e8ec12e3          	bne	s8,a4,10ede <_vfprintf_r+0x872>
   1105e:	05a05863          	blez	s10,110ae <_vfprintf_r+0xa42>
   11062:	000d9563          	bnez	s11,1106c <_vfprintf_r+0xa00>
   11066:	00147713          	andi	a4,s0,1
   1106a:	cf59                	beqz	a4,11108 <_vfprintf_r+0xa9c>
   1106c:	47e2                	lw	a5,24(sp)
   1106e:	01a7873b          	addw	a4,a5,s10
   11072:	01b70dbb          	addw	s11,a4,s11
   11076:	06600b13          	li	s6,102
   1107a:	a895                	j	110ee <_vfprintf_r+0xa82>
   1107c:	8732                	mv	a4,a2
   1107e:	b56d                	j	10f28 <_vfprintf_r+0x8bc>
   11080:	0705                	addi	a4,a4,1
   11082:	fff74783          	lbu	a5,-1(a4)
   11086:	0605                	addi	a2,a2,1
   11088:	fef60fa3          	sb	a5,-1(a2)
   1108c:	b5c9                	j	10f4e <_vfprintf_r+0x8e2>
   1108e:	0e210713          	addi	a4,sp,226
   11092:	e599                	bnez	a1,110a0 <_vfprintf_r+0xa34>
   11094:	03000793          	li	a5,48
   11098:	0ef10123          	sb	a5,226(sp)
   1109c:	0e310713          	addi	a4,sp,227
   110a0:	0306879b          	addiw	a5,a3,48
   110a4:	00170613          	addi	a2,a4,1
   110a8:	00f70023          	sb	a5,0(a4)
   110ac:	b55d                	j	10f52 <_vfprintf_r+0x8e6>
   110ae:	000d9563          	bnez	s11,110b8 <_vfprintf_r+0xa4c>
   110b2:	00147713          	andi	a4,s0,1
   110b6:	cb39                	beqz	a4,1110c <_vfprintf_r+0xaa0>
   110b8:	47e2                	lw	a5,24(sp)
   110ba:	0017871b          	addiw	a4,a5,1
   110be:	bf55                	j	11072 <_vfprintf_r+0xa06>
   110c0:	014d4c63          	blt	s10,s4,110d8 <_vfprintf_r+0xa6c>
   110c4:	00147713          	andi	a4,s0,1
   110c8:	8dea                	mv	s11,s10
   110ca:	c701                	beqz	a4,110d2 <_vfprintf_r+0xa66>
   110cc:	47e2                	lw	a5,24(sp)
   110ce:	01a78dbb          	addw	s11,a5,s10
   110d2:	06700b13          	li	s6,103
   110d6:	a821                	j	110ee <_vfprintf_r+0xa82>
   110d8:	47e2                	lw	a5,24(sp)
   110da:	06700b13          	li	s6,103
   110de:	01478dbb          	addw	s11,a5,s4
   110e2:	01a04663          	bgtz	s10,110ee <_vfprintf_r+0xa82>
   110e6:	41ad8e3b          	subw	t3,s11,s10
   110ea:	001e0d9b          	addiw	s11,t3,1
   110ee:	40047413          	andi	s0,s0,1024
   110f2:	00040c1b          	sext.w	s8,s0
   110f6:	e402                	sd	zero,8(sp)
   110f8:	e80c07e3          	beqz	s8,10f86 <_vfprintf_r+0x91a>
   110fc:	4c01                	li	s8,0
   110fe:	e9a054e3          	blez	s10,10f86 <_vfprintf_r+0x91a>
   11102:	0ff00693          	li	a3,255
   11106:	a01d                	j	1112c <_vfprintf_r+0xac0>
   11108:	8dea                	mv	s11,s10
   1110a:	b7b5                	j	11076 <_vfprintf_r+0xa0a>
   1110c:	06600b13          	li	s6,102
   11110:	4d85                	li	s11,1
   11112:	bff1                	j	110ee <_vfprintf_r+0xa82>
   11114:	2701                	sext.w	a4,a4
   11116:	03a75063          	ble	s10,a4,11136 <_vfprintf_r+0xaca>
   1111a:	6782                	ld	a5,0(sp)
   1111c:	40ed0d3b          	subw	s10,s10,a4
   11120:	0017c703          	lbu	a4,1(a5)
   11124:	c315                	beqz	a4,11148 <_vfprintf_r+0xadc>
   11126:	0785                	addi	a5,a5,1
   11128:	2c05                	addiw	s8,s8,1
   1112a:	e03e                	sd	a5,0(sp)
   1112c:	6782                	ld	a5,0(sp)
   1112e:	0007c703          	lbu	a4,0(a5)
   11132:	fed711e3          	bne	a4,a3,11114 <_vfprintf_r+0xaa8>
   11136:	47a2                	lw	a5,8(sp)
   11138:	00fc073b          	addw	a4,s8,a5
   1113c:	4786                	lw	a5,64(sp)
   1113e:	02f7073b          	mulw	a4,a4,a5
   11142:	01b70dbb          	addw	s11,a4,s11
   11146:	b581                	j	10f86 <_vfprintf_r+0x91a>
   11148:	47a2                	lw	a5,8(sp)
   1114a:	2785                	addiw	a5,a5,1
   1114c:	e43e                	sd	a5,8(sp)
   1114e:	bff9                	j	1112c <_vfprintf_r+0xac0>
   11150:	008b8713          	addi	a4,s7,8
   11154:	f83a                	sd	a4,48(sp)
   11156:	02047713          	andi	a4,s0,32
   1115a:	000bb783          	ld	a5,0(s7)
   1115e:	c719                	beqz	a4,1116c <_vfprintf_r+0xb00>
   11160:	7722                	ld	a4,40(sp)
   11162:	e398                	sd	a4,0(a5)
   11164:	7bc2                	ld	s7,48(sp)
   11166:	64c2                	ld	s1,16(sp)
   11168:	e48ff06f          	j	107b0 <_vfprintf_r+0x144>
   1116c:	01047713          	andi	a4,s0,16
   11170:	fb65                	bnez	a4,11160 <_vfprintf_r+0xaf4>
   11172:	04047713          	andi	a4,s0,64
   11176:	c711                	beqz	a4,11182 <_vfprintf_r+0xb16>
   11178:	02815703          	lhu	a4,40(sp)
   1117c:	00e79023          	sh	a4,0(a5)
   11180:	b7d5                	j	11164 <_vfprintf_r+0xaf8>
   11182:	20047413          	andi	s0,s0,512
   11186:	c411                	beqz	s0,11192 <_vfprintf_r+0xb26>
   11188:	02814703          	lbu	a4,40(sp)
   1118c:	00e78023          	sb	a4,0(a5)
   11190:	bfd1                	j	11164 <_vfprintf_r+0xaf8>
   11192:	5722                	lw	a4,40(sp)
   11194:	c398                	sw	a4,0(a5)
   11196:	b7f9                	j	11164 <_vfprintf_r+0xaf8>
   11198:	01046413          	ori	s0,s0,16
   1119c:	2401                	sext.w	s0,s0
   1119e:	008b8793          	addi	a5,s7,8
   111a2:	f83e                	sd	a5,48(sp)
   111a4:	02047793          	andi	a5,s0,32
   111a8:	cb85                	beqz	a5,111d8 <_vfprintf_r+0xb6c>
   111aa:	000bbb83          	ld	s7,0(s7)
   111ae:	bff47413          	andi	s0,s0,-1025
   111b2:	2401                	sext.w	s0,s0
   111b4:	4781                	li	a5,0
   111b6:	0c0107a3          	sb	zero,207(sp)
   111ba:	577d                	li	a4,-1
   111bc:	12ed8c63          	beq	s11,a4,112f4 <_vfprintf_r+0xc88>
   111c0:	8722                	mv	a4,s0
   111c2:	f7f47413          	andi	s0,s0,-129
   111c6:	2401                	sext.w	s0,s0
   111c8:	120b9663          	bnez	s7,112f4 <_vfprintf_r+0xc88>
   111cc:	200d8463          	beqz	s11,113d4 <_vfprintf_r+0xd68>
   111d0:	4705                	li	a4,1
   111d2:	12e79463          	bne	a5,a4,112fa <_vfprintf_r+0xc8e>
   111d6:	bc05                	j	10c06 <_vfprintf_r+0x59a>
   111d8:	01047793          	andi	a5,s0,16
   111dc:	f7f9                	bnez	a5,111aa <_vfprintf_r+0xb3e>
   111de:	04047793          	andi	a5,s0,64
   111e2:	000bab83          	lw	s7,0(s7)
   111e6:	c789                	beqz	a5,111f0 <_vfprintf_r+0xb84>
   111e8:	1bc2                	slli	s7,s7,0x30
   111ea:	030bdb93          	srli	s7,s7,0x30
   111ee:	b7c1                	j	111ae <_vfprintf_r+0xb42>
   111f0:	20047793          	andi	a5,s0,512
   111f4:	c781                	beqz	a5,111fc <_vfprintf_r+0xb90>
   111f6:	0ffbfb93          	andi	s7,s7,255
   111fa:	bf55                	j	111ae <_vfprintf_r+0xb42>
   111fc:	1b82                	slli	s7,s7,0x20
   111fe:	020bdb93          	srli	s7,s7,0x20
   11202:	b775                	j	111ae <_vfprintf_r+0xb42>
   11204:	008b8793          	addi	a5,s7,8
   11208:	f83e                	sd	a5,48(sp)
   1120a:	77e1                	lui	a5,0xffff8
   1120c:	8307c793          	xori	a5,a5,-2000
   11210:	0cf11823          	sh	a5,208(sp)
   11214:	0001a7b7          	lui	a5,0x1a
   11218:	09078793          	addi	a5,a5,144 # 1a090 <zeroes.4441+0x60>
   1121c:	00246413          	ori	s0,s0,2
   11220:	f0be                	sd	a5,96(sp)
   11222:	000bbb83          	ld	s7,0(s7)
   11226:	2401                	sext.w	s0,s0
   11228:	4789                	li	a5,2
   1122a:	07800b13          	li	s6,120
   1122e:	b761                	j	111b6 <_vfprintf_r+0xb4a>
   11230:	008b8793          	addi	a5,s7,8
   11234:	f83e                	sd	a5,48(sp)
   11236:	0c0107a3          	sb	zero,207(sp)
   1123a:	57fd                	li	a5,-1
   1123c:	000bb483          	ld	s1,0(s7)
   11240:	00fd8e63          	beq	s11,a5,1125c <_vfprintf_r+0xbf0>
   11244:	866e                	mv	a2,s11
   11246:	4581                	li	a1,0
   11248:	8526                	mv	a0,s1
   1124a:	410030ef          	jal	ra,1465a <memchr>
   1124e:	8baa                	mv	s7,a0
   11250:	a40503e3          	beqz	a0,10c96 <_vfprintf_r+0x62a>
   11254:	40950dbb          	subw	s11,a0,s1
   11258:	4b81                	li	s7,0
   1125a:	bc35                	j	10c96 <_vfprintf_r+0x62a>
   1125c:	8526                	mv	a0,s1
   1125e:	bfcff0ef          	jal	ra,1065a <strlen>
   11262:	00050d9b          	sext.w	s11,a0
   11266:	bfcd                	j	11258 <_vfprintf_r+0xbec>
   11268:	01046413          	ori	s0,s0,16
   1126c:	2401                	sext.w	s0,s0
   1126e:	008b8793          	addi	a5,s7,8
   11272:	f83e                	sd	a5,48(sp)
   11274:	02047793          	andi	a5,s0,32
   11278:	c789                	beqz	a5,11282 <_vfprintf_r+0xc16>
   1127a:	000bbb83          	ld	s7,0(s7)
   1127e:	4785                	li	a5,1
   11280:	bf1d                	j	111b6 <_vfprintf_r+0xb4a>
   11282:	01047793          	andi	a5,s0,16
   11286:	fbf5                	bnez	a5,1127a <_vfprintf_r+0xc0e>
   11288:	04047793          	andi	a5,s0,64
   1128c:	000bab83          	lw	s7,0(s7)
   11290:	c789                	beqz	a5,1129a <_vfprintf_r+0xc2e>
   11292:	1bc2                	slli	s7,s7,0x30
   11294:	030bdb93          	srli	s7,s7,0x30
   11298:	b7dd                	j	1127e <_vfprintf_r+0xc12>
   1129a:	20047793          	andi	a5,s0,512
   1129e:	c781                	beqz	a5,112a6 <_vfprintf_r+0xc3a>
   112a0:	0ffbfb93          	andi	s7,s7,255
   112a4:	bfe9                	j	1127e <_vfprintf_r+0xc12>
   112a6:	1b82                	slli	s7,s7,0x20
   112a8:	020bdb93          	srli	s7,s7,0x20
   112ac:	bfc9                	j	1127e <_vfprintf_r+0xc12>
   112ae:	0001a7b7          	lui	a5,0x1a
   112b2:	09078793          	addi	a5,a5,144 # 1a090 <zeroes.4441+0x60>
   112b6:	d9eff06f          	j	10854 <_vfprintf_r+0x1e8>
   112ba:	01047793          	andi	a5,s0,16
   112be:	da079363          	bnez	a5,10864 <_vfprintf_r+0x1f8>
   112c2:	04047793          	andi	a5,s0,64
   112c6:	000bab83          	lw	s7,0(s7)
   112ca:	c791                	beqz	a5,112d6 <_vfprintf_r+0xc6a>
   112cc:	1bc2                	slli	s7,s7,0x30
   112ce:	030bdb93          	srli	s7,s7,0x30
   112d2:	d96ff06f          	j	10868 <_vfprintf_r+0x1fc>
   112d6:	20047793          	andi	a5,s0,512
   112da:	c789                	beqz	a5,112e4 <_vfprintf_r+0xc78>
   112dc:	0ffbfb93          	andi	s7,s7,255
   112e0:	d88ff06f          	j	10868 <_vfprintf_r+0x1fc>
   112e4:	1b82                	slli	s7,s7,0x20
   112e6:	020bdb93          	srli	s7,s7,0x20
   112ea:	d7eff06f          	j	10868 <_vfprintf_r+0x1fc>
   112ee:	8722                	mv	a4,s0
   112f0:	4785                	li	a5,1
   112f2:	bdc1                	j	111c2 <_vfprintf_r+0xb56>
   112f4:	4705                	li	a4,1
   112f6:	90e785e3          	beq	a5,a4,10c00 <_vfprintf_r+0x594>
   112fa:	4709                	li	a4,2
   112fc:	0ae78d63          	beq	a5,a4,113b6 <_vfprintf_r+0xd4a>
   11300:	1afc                	addi	a5,sp,380
   11302:	007bf713          	andi	a4,s7,7
   11306:	03070713          	addi	a4,a4,48
   1130a:	fee78fa3          	sb	a4,-1(a5)
   1130e:	003bdb93          	srli	s7,s7,0x3
   11312:	fff78493          	addi	s1,a5,-1
   11316:	020b9863          	bnez	s7,11346 <_vfprintf_r+0xcda>
   1131a:	00147693          	andi	a3,s0,1
   1131e:	ca89                	beqz	a3,11330 <_vfprintf_r+0xcc4>
   11320:	03000693          	li	a3,48
   11324:	00d70663          	beq	a4,a3,11330 <_vfprintf_r+0xcc4>
   11328:	fed48fa3          	sb	a3,-1(s1)
   1132c:	ffe78493          	addi	s1,a5,-2
   11330:	17c10e13          	addi	t3,sp,380
   11334:	876e                	mv	a4,s11
   11336:	4b81                	li	s7,0
   11338:	409e0dbb          	subw	s11,t3,s1
   1133c:	e402                	sd	zero,8(sp)
   1133e:	4c01                	li	s8,0
   11340:	4d01                	li	s10,0
   11342:	e8eff06f          	j	109d0 <_vfprintf_r+0x364>
   11346:	87a6                	mv	a5,s1
   11348:	bf6d                	j	11302 <_vfprintf_r+0xc96>
   1134a:	40047c13          	andi	s8,s0,1024
   1134e:	4a01                	li	s4,0
   11350:	1afc                	addi	a5,sp,380
   11352:	4d29                	li	s10,10
   11354:	2c01                	sext.w	s8,s8
   11356:	0ff00693          	li	a3,255
   1135a:	4825                	li	a6,9
   1135c:	03abf733          	remu	a4,s7,s10
   11360:	fff78493          	addi	s1,a5,-1
   11364:	2a05                	addiw	s4,s4,1
   11366:	0307071b          	addiw	a4,a4,48
   1136a:	fee78fa3          	sb	a4,-1(a5)
   1136e:	020c0e63          	beqz	s8,113aa <_vfprintf_r+0xd3e>
   11372:	6782                	ld	a5,0(sp)
   11374:	0007c783          	lbu	a5,0(a5)
   11378:	02fa1963          	bne	s4,a5,113aa <_vfprintf_r+0xd3e>
   1137c:	02d78763          	beq	a5,a3,113aa <_vfprintf_r+0xd3e>
   11380:	03787563          	bleu	s7,a6,113aa <_vfprintf_r+0xd3e>
   11384:	6786                	ld	a5,64(sp)
   11386:	65c6                	ld	a1,80(sp)
   11388:	fc42                	sd	a6,56(sp)
   1138a:	8c9d                	sub	s1,s1,a5
   1138c:	863e                	mv	a2,a5
   1138e:	8526                	mv	a0,s1
   11390:	e436                	sd	a3,8(sp)
   11392:	4b2040ef          	jal	ra,15844 <strncpy>
   11396:	6782                	ld	a5,0(sp)
   11398:	4a01                	li	s4,0
   1139a:	66a2                	ld	a3,8(sp)
   1139c:	0017c783          	lbu	a5,1(a5)
   113a0:	7862                	ld	a6,56(sp)
   113a2:	c781                	beqz	a5,113aa <_vfprintf_r+0xd3e>
   113a4:	6782                	ld	a5,0(sp)
   113a6:	0785                	addi	a5,a5,1
   113a8:	e03e                	sd	a5,0(sp)
   113aa:	03abdbb3          	divu	s7,s7,s10
   113ae:	f80b81e3          	beqz	s7,11330 <_vfprintf_r+0xcc4>
   113b2:	87a6                	mv	a5,s1
   113b4:	b765                	j	1135c <_vfprintf_r+0xcf0>
   113b6:	1ae4                	addi	s1,sp,380
   113b8:	7706                	ld	a4,96(sp)
   113ba:	00fbf793          	andi	a5,s7,15
   113be:	14fd                	addi	s1,s1,-1
   113c0:	97ba                	add	a5,a5,a4
   113c2:	0007c783          	lbu	a5,0(a5)
   113c6:	004bdb93          	srli	s7,s7,0x4
   113ca:	00f48023          	sb	a5,0(s1)
   113ce:	fe0b95e3          	bnez	s7,113b8 <_vfprintf_r+0xd4c>
   113d2:	bfb9                	j	11330 <_vfprintf_r+0xcc4>
   113d4:	1ae4                	addi	s1,sp,380
   113d6:	ffa9                	bnez	a5,11330 <_vfprintf_r+0xcc4>
   113d8:	8b05                	andi	a4,a4,1
   113da:	db39                	beqz	a4,11330 <_vfprintf_r+0xcc4>
   113dc:	03000793          	li	a5,48
   113e0:	16f10da3          	sb	a5,379(sp)
   113e4:	82bff06f          	j	10c0e <_vfprintf_r+0x5a2>
   113e8:	020b02e3          	beqz	s6,11c0c <_vfprintf_r+0x15a0>
   113ec:	11610c23          	sb	s6,280(sp)
   113f0:	0c0107a3          	sb	zero,207(sp)
   113f4:	f85e                	sd	s7,48(sp)
   113f6:	dccff06f          	j	109c2 <_vfprintf_r+0x356>
   113fa:	0641                	addi	a2,a2,16
   113fc:	011cb423          	sd	a7,8(s9)
   11400:	ea32                	sd	a2,272(sp)
   11402:	10b12423          	sw	a1,264(sp)
   11406:	02aed463          	ble	a0,t4,1142e <_vfprintf_r+0xdc2>
   1140a:	0210                	addi	a2,sp,256
   1140c:	85ca                	mv	a1,s2
   1140e:	854e                	mv	a0,s3
   11410:	fd76                	sd	t4,184(sp)
   11412:	f942                	sd	a6,176(sp)
   11414:	e546                	sd	a7,136(sp)
   11416:	e13a                	sd	a4,128(sp)
   11418:	fcb6                	sd	a3,120(sp)
   1141a:	1d3050ef          	jal	ra,16dec <__sprint_r>
   1141e:	7a051863          	bnez	a0,11bce <_vfprintf_r+0x1562>
   11422:	7eea                	ld	t4,184(sp)
   11424:	784a                	ld	a6,176(sp)
   11426:	68aa                	ld	a7,136(sp)
   11428:	670a                	ld	a4,128(sp)
   1142a:	76e6                	ld	a3,120(sp)
   1142c:	8f56                	mv	t5,s5
   1142e:	36c1                	addiw	a3,a3,-16
   11430:	8cfa                	mv	s9,t5
   11432:	de8ff06f          	j	10a1a <_vfprintf_r+0x3ae>
   11436:	0641                	addi	a2,a2,16
   11438:	011cb423          	sd	a7,8(s9)
   1143c:	ea32                	sd	a2,272(sp)
   1143e:	10b12423          	sw	a1,264(sp)
   11442:	02aed463          	ble	a0,t4,1146a <_vfprintf_r+0xdfe>
   11446:	0210                	addi	a2,sp,256
   11448:	85ca                	mv	a1,s2
   1144a:	854e                	mv	a0,s3
   1144c:	e576                	sd	t4,136(sp)
   1144e:	e142                	sd	a6,128(sp)
   11450:	fcc6                	sd	a7,120(sp)
   11452:	f8ba                	sd	a4,112(sp)
   11454:	f4b6                	sd	a3,104(sp)
   11456:	197050ef          	jal	ra,16dec <__sprint_r>
   1145a:	76051a63          	bnez	a0,11bce <_vfprintf_r+0x1562>
   1145e:	6eaa                	ld	t4,136(sp)
   11460:	680a                	ld	a6,128(sp)
   11462:	78e6                	ld	a7,120(sp)
   11464:	7746                	ld	a4,112(sp)
   11466:	76a6                	ld	a3,104(sp)
   11468:	8f56                	mv	t5,s5
   1146a:	36c1                	addiw	a3,a3,-16
   1146c:	8cfa                	mv	s9,t5
   1146e:	e92ff06f          	j	10b00 <_vfprintf_r+0x494>
   11472:	06c1                	addi	a3,a3,16
   11474:	011cb423          	sd	a7,8(s9)
   11478:	ea36                	sd	a3,272(sp)
   1147a:	10c12423          	sw	a2,264(sp)
   1147e:	02bed263          	ble	a1,t4,114a2 <_vfprintf_r+0xe36>
   11482:	0210                	addi	a2,sp,256
   11484:	85ca                	mv	a1,s2
   11486:	854e                	mv	a0,s3
   11488:	e176                	sd	t4,128(sp)
   1148a:	fcc2                	sd	a6,120(sp)
   1148c:	f8c6                	sd	a7,112(sp)
   1148e:	f4ba                	sd	a4,104(sp)
   11490:	15d050ef          	jal	ra,16dec <__sprint_r>
   11494:	72051d63          	bnez	a0,11bce <_vfprintf_r+0x1562>
   11498:	6e8a                	ld	t4,128(sp)
   1149a:	7866                	ld	a6,120(sp)
   1149c:	78c6                	ld	a7,112(sp)
   1149e:	7726                	ld	a4,104(sp)
   114a0:	8556                	mv	a0,s5
   114a2:	3741                	addiw	a4,a4,-16
   114a4:	8caa                	mv	s9,a0
   114a6:	eaeff06f          	j	10b54 <_vfprintf_r+0x4e8>
   114aa:	06500693          	li	a3,101
   114ae:	5766df63          	ble	s6,a3,11a2c <_vfprintf_r+0x13c0>
   114b2:	754e                	ld	a0,240(sp)
   114b4:	75ee                	ld	a1,248(sp)
   114b6:	4601                	li	a2,0
   114b8:	4681                	li	a3,0
   114ba:	f4ba                	sd	a4,104(sp)
   114bc:	3d6070ef          	jal	ra,18892 <__eqtf2>
   114c0:	7726                	ld	a4,104(sp)
   114c2:	10051e63          	bnez	a0,115de <_vfprintf_r+0xf72>
   114c6:	0001a7b7          	lui	a5,0x1a
   114ca:	0c078793          	addi	a5,a5,192 # 1a0c0 <zeroes.4441+0x90>
   114ce:	00fcb023          	sd	a5,0(s9)
   114d2:	4785                	li	a5,1
   114d4:	00fcb423          	sd	a5,8(s9)
   114d8:	10812783          	lw	a5,264(sp)
   114dc:	0705                	addi	a4,a4,1
   114de:	ea3a                	sd	a4,272(sp)
   114e0:	0017871b          	addiw	a4,a5,1
   114e4:	10e12423          	sw	a4,264(sp)
   114e8:	479d                	li	a5,7
   114ea:	0cc1                	addi	s9,s9,16
   114ec:	00e7da63          	ble	a4,a5,11500 <_vfprintf_r+0xe94>
   114f0:	0210                	addi	a2,sp,256
   114f2:	85ca                	mv	a1,s2
   114f4:	854e                	mv	a0,s3
   114f6:	0f7050ef          	jal	ra,16dec <__sprint_r>
   114fa:	6c051a63          	bnez	a0,11bce <_vfprintf_r+0x1562>
   114fe:	8cd6                	mv	s9,s5
   11500:	47ee                	lw	a5,216(sp)
   11502:	0147c563          	blt	a5,s4,1150c <_vfprintf_r+0xea0>
   11506:	00147793          	andi	a5,s0,1
   1150a:	cfa5                	beqz	a5,11582 <_vfprintf_r+0xf16>
   1150c:	67a6                	ld	a5,72(sp)
   1150e:	6762                	ld	a4,24(sp)
   11510:	0cc1                	addi	s9,s9,16
   11512:	fefcb823          	sd	a5,-16(s9)
   11516:	67e2                	ld	a5,24(sp)
   11518:	fefcbc23          	sd	a5,-8(s9)
   1151c:	67d2                	ld	a5,272(sp)
   1151e:	97ba                	add	a5,a5,a4
   11520:	ea3e                	sd	a5,272(sp)
   11522:	10812783          	lw	a5,264(sp)
   11526:	0017871b          	addiw	a4,a5,1
   1152a:	10e12423          	sw	a4,264(sp)
   1152e:	479d                	li	a5,7
   11530:	00e7da63          	ble	a4,a5,11544 <_vfprintf_r+0xed8>
   11534:	0210                	addi	a2,sp,256
   11536:	85ca                	mv	a1,s2
   11538:	854e                	mv	a0,s3
   1153a:	0b3050ef          	jal	ra,16dec <__sprint_r>
   1153e:	68051863          	bnez	a0,11bce <_vfprintf_r+0x1562>
   11542:	8cd6                	mv	s9,s5
   11544:	fffa049b          	addiw	s1,s4,-1
   11548:	02905d63          	blez	s1,11582 <_vfprintf_r+0xf16>
   1154c:	6b69                	lui	s6,0x1a
   1154e:	4c41                	li	s8,16
   11550:	030b0b13          	addi	s6,s6,48 # 1a030 <zeroes.4441>
   11554:	4d1d                	li	s10,7
   11556:	10812703          	lw	a4,264(sp)
   1155a:	016cb023          	sd	s6,0(s9)
   1155e:	67d2                	ld	a5,272(sp)
   11560:	0017069b          	addiw	a3,a4,1
   11564:	8736                	mv	a4,a3
   11566:	010c8613          	addi	a2,s9,16
   1156a:	049c4763          	blt	s8,s1,115b8 <_vfprintf_r+0xf4c>
   1156e:	009cb423          	sd	s1,8(s9)
   11572:	94be                	add	s1,s1,a5
   11574:	ea26                	sd	s1,272(sp)
   11576:	10d12423          	sw	a3,264(sp)
   1157a:	479d                	li	a5,7
   1157c:	8cb2                	mv	s9,a2
   1157e:	e4d7c063          	blt	a5,a3,10bbe <_vfprintf_r+0x552>
   11582:	8811                	andi	s0,s0,4
   11584:	60041063          	bnez	s0,11b84 <_vfprintf_r+0x1518>
   11588:	7702                	ld	a4,32(sp)
   1158a:	76e2                	ld	a3,56(sp)
   1158c:	5782                	lw	a5,32(sp)
   1158e:	00d75363          	ble	a3,a4,11594 <_vfprintf_r+0xf28>
   11592:	57e2                	lw	a5,56(sp)
   11594:	5722                	lw	a4,40(sp)
   11596:	9fb9                	addw	a5,a5,a4
   11598:	f43e                	sd	a5,40(sp)
   1159a:	67d2                	ld	a5,272(sp)
   1159c:	cb81                	beqz	a5,115ac <_vfprintf_r+0xf40>
   1159e:	0210                	addi	a2,sp,256
   115a0:	85ca                	mv	a1,s2
   115a2:	854e                	mv	a0,s3
   115a4:	049050ef          	jal	ra,16dec <__sprint_r>
   115a8:	62051363          	bnez	a0,11bce <_vfprintf_r+0x1562>
   115ac:	10012423          	sw	zero,264(sp)
   115b0:	640b9963          	bnez	s7,11c02 <_vfprintf_r+0x1596>
   115b4:	8cd6                	mv	s9,s5
   115b6:	b67d                	j	11164 <_vfprintf_r+0xaf8>
   115b8:	07c1                	addi	a5,a5,16
   115ba:	018cb423          	sd	s8,8(s9)
   115be:	ea3e                	sd	a5,272(sp)
   115c0:	10e12423          	sw	a4,264(sp)
   115c4:	00dd5a63          	ble	a3,s10,115d8 <_vfprintf_r+0xf6c>
   115c8:	0210                	addi	a2,sp,256
   115ca:	85ca                	mv	a1,s2
   115cc:	854e                	mv	a0,s3
   115ce:	01f050ef          	jal	ra,16dec <__sprint_r>
   115d2:	5e051e63          	bnez	a0,11bce <_vfprintf_r+0x1562>
   115d6:	8656                	mv	a2,s5
   115d8:	34c1                	addiw	s1,s1,-16
   115da:	8cb2                	mv	s9,a2
   115dc:	bfad                	j	11556 <_vfprintf_r+0xeea>
   115de:	46ee                	lw	a3,216(sp)
   115e0:	12d04163          	bgtz	a3,11702 <_vfprintf_r+0x1096>
   115e4:	0001a7b7          	lui	a5,0x1a
   115e8:	0c078793          	addi	a5,a5,192 # 1a0c0 <zeroes.4441+0x90>
   115ec:	00fcb023          	sd	a5,0(s9)
   115f0:	4785                	li	a5,1
   115f2:	00fcb423          	sd	a5,8(s9)
   115f6:	10812783          	lw	a5,264(sp)
   115fa:	0705                	addi	a4,a4,1
   115fc:	ea3a                	sd	a4,272(sp)
   115fe:	0017871b          	addiw	a4,a5,1
   11602:	10e12423          	sw	a4,264(sp)
   11606:	479d                	li	a5,7
   11608:	0cc1                	addi	s9,s9,16
   1160a:	00e7da63          	ble	a4,a5,1161e <_vfprintf_r+0xfb2>
   1160e:	0210                	addi	a2,sp,256
   11610:	85ca                	mv	a1,s2
   11612:	854e                	mv	a0,s3
   11614:	7d8050ef          	jal	ra,16dec <__sprint_r>
   11618:	5a051b63          	bnez	a0,11bce <_vfprintf_r+0x1562>
   1161c:	8cd6                	mv	s9,s5
   1161e:	47ee                	lw	a5,216(sp)
   11620:	e791                	bnez	a5,1162c <_vfprintf_r+0xfc0>
   11622:	000a1563          	bnez	s4,1162c <_vfprintf_r+0xfc0>
   11626:	00147793          	andi	a5,s0,1
   1162a:	dfa1                	beqz	a5,11582 <_vfprintf_r+0xf16>
   1162c:	67a6                	ld	a5,72(sp)
   1162e:	6762                	ld	a4,24(sp)
   11630:	010c8313          	addi	t1,s9,16
   11634:	00fcb023          	sd	a5,0(s9)
   11638:	67e2                	ld	a5,24(sp)
   1163a:	00fcb423          	sd	a5,8(s9)
   1163e:	67d2                	ld	a5,272(sp)
   11640:	97ba                	add	a5,a5,a4
   11642:	ea3e                	sd	a5,272(sp)
   11644:	10812783          	lw	a5,264(sp)
   11648:	0017871b          	addiw	a4,a5,1
   1164c:	10e12423          	sw	a4,264(sp)
   11650:	479d                	li	a5,7
   11652:	00e7da63          	ble	a4,a5,11666 <_vfprintf_r+0xffa>
   11656:	0210                	addi	a2,sp,256
   11658:	85ca                	mv	a1,s2
   1165a:	854e                	mv	a0,s3
   1165c:	790050ef          	jal	ra,16dec <__sprint_r>
   11660:	56051763          	bnez	a0,11bce <_vfprintf_r+0x1562>
   11664:	8356                	mv	t1,s5
   11666:	4b6e                	lw	s6,216(sp)
   11668:	040b5663          	bgez	s6,116b4 <_vfprintf_r+0x1048>
   1166c:	6c69                	lui	s8,0x1a
   1166e:	41600b3b          	negw	s6,s6
   11672:	879a                	mv	a5,t1
   11674:	4d41                	li	s10,16
   11676:	030c0c13          	addi	s8,s8,48 # 1a030 <zeroes.4441>
   1167a:	4c9d                	li	s9,7
   1167c:	10812683          	lw	a3,264(sp)
   11680:	0187b023          	sd	s8,0(a5)
   11684:	6752                	ld	a4,272(sp)
   11686:	0016861b          	addiw	a2,a3,1
   1168a:	86b2                	mv	a3,a2
   1168c:	0341                	addi	t1,t1,16
   1168e:	056d4763          	blt	s10,s6,116dc <_vfprintf_r+0x1070>
   11692:	0167b423          	sd	s6,8(a5)
   11696:	9b3a                	add	s6,s6,a4
   11698:	ea5a                	sd	s6,272(sp)
   1169a:	10c12423          	sw	a2,264(sp)
   1169e:	479d                	li	a5,7
   116a0:	00c7da63          	ble	a2,a5,116b4 <_vfprintf_r+0x1048>
   116a4:	0210                	addi	a2,sp,256
   116a6:	85ca                	mv	a1,s2
   116a8:	854e                	mv	a0,s3
   116aa:	742050ef          	jal	ra,16dec <__sprint_r>
   116ae:	52051063          	bnez	a0,11bce <_vfprintf_r+0x1562>
   116b2:	8356                	mv	t1,s5
   116b4:	67d2                	ld	a5,272(sp)
   116b6:	00933023          	sd	s1,0(t1) # 0 <_start-0x100b0>
   116ba:	01433423          	sd	s4,8(t1)
   116be:	97d2                	add	a5,a5,s4
   116c0:	ea3e                	sd	a5,272(sp)
   116c2:	10812783          	lw	a5,264(sp)
   116c6:	01030c93          	addi	s9,t1,16
   116ca:	0017871b          	addiw	a4,a5,1
   116ce:	10e12423          	sw	a4,264(sp)
   116d2:	479d                	li	a5,7
   116d4:	eae7d7e3          	ble	a4,a5,11582 <_vfprintf_r+0xf16>
   116d8:	ce6ff06f          	j	10bbe <_vfprintf_r+0x552>
   116dc:	0741                	addi	a4,a4,16
   116de:	01a7b423          	sd	s10,8(a5)
   116e2:	ea3a                	sd	a4,272(sp)
   116e4:	10d12423          	sw	a3,264(sp)
   116e8:	00ccda63          	ble	a2,s9,116fc <_vfprintf_r+0x1090>
   116ec:	0210                	addi	a2,sp,256
   116ee:	85ca                	mv	a1,s2
   116f0:	854e                	mv	a0,s3
   116f2:	6fa050ef          	jal	ra,16dec <__sprint_r>
   116f6:	4c051c63          	bnez	a0,11bce <_vfprintf_r+0x1562>
   116fa:	8356                	mv	t1,s5
   116fc:	3b41                	addiw	s6,s6,-16
   116fe:	879a                	mv	a5,t1
   11700:	bfb5                	j	1167c <_vfprintf_r+0x1010>
   11702:	000d0b1b          	sext.w	s6,s10
   11706:	01aa5463          	ble	s10,s4,1170e <_vfprintf_r+0x10a2>
   1170a:	000a0b1b          	sext.w	s6,s4
   1170e:	03605a63          	blez	s6,11742 <_vfprintf_r+0x10d6>
   11712:	975a                	add	a4,a4,s6
   11714:	ea3a                	sd	a4,272(sp)
   11716:	10812703          	lw	a4,264(sp)
   1171a:	009cb023          	sd	s1,0(s9)
   1171e:	016cb423          	sd	s6,8(s9)
   11722:	0017069b          	addiw	a3,a4,1
   11726:	10d12423          	sw	a3,264(sp)
   1172a:	471d                	li	a4,7
   1172c:	0cc1                	addi	s9,s9,16
   1172e:	00d75a63          	ble	a3,a4,11742 <_vfprintf_r+0x10d6>
   11732:	0210                	addi	a2,sp,256
   11734:	85ca                	mv	a1,s2
   11736:	854e                	mv	a0,s3
   11738:	6b4050ef          	jal	ra,16dec <__sprint_r>
   1173c:	48051963          	bnez	a0,11bce <_vfprintf_r+0x1562>
   11740:	8cd6                	mv	s9,s5
   11742:	875a                	mv	a4,s6
   11744:	000b5363          	bgez	s6,1174a <_vfprintf_r+0x10de>
   11748:	4701                	li	a4,0
   1174a:	40ed0b3b          	subw	s6,s10,a4
   1174e:	05605563          	blez	s6,11798 <_vfprintf_r+0x112c>
   11752:	66e9                	lui	a3,0x1a
   11754:	4841                	li	a6,16
   11756:	03068d93          	addi	s11,a3,48 # 1a030 <zeroes.4441>
   1175a:	489d                	li	a7,7
   1175c:	10812603          	lw	a2,264(sp)
   11760:	01bcb023          	sd	s11,0(s9)
   11764:	6752                	ld	a4,272(sp)
   11766:	0016059b          	addiw	a1,a2,1
   1176a:	862e                	mv	a2,a1
   1176c:	010c8513          	addi	a0,s9,16
   11770:	15684263          	blt	a6,s6,118b4 <_vfprintf_r+0x1248>
   11774:	016cb423          	sd	s6,8(s9)
   11778:	9b3a                	add	s6,s6,a4
   1177a:	ea5a                	sd	s6,272(sp)
   1177c:	10b12423          	sw	a1,264(sp)
   11780:	471d                	li	a4,7
   11782:	8caa                	mv	s9,a0
   11784:	00b75a63          	ble	a1,a4,11798 <_vfprintf_r+0x112c>
   11788:	0210                	addi	a2,sp,256
   1178a:	85ca                	mv	a1,s2
   1178c:	854e                	mv	a0,s3
   1178e:	65e050ef          	jal	ra,16dec <__sprint_r>
   11792:	42051e63          	bnez	a0,11bce <_vfprintf_r+0x1562>
   11796:	8cd6                	mv	s9,s5
   11798:	40047793          	andi	a5,s0,1024
   1179c:	01a48b33          	add	s6,s1,s10
   117a0:	c39d                	beqz	a5,117c6 <_vfprintf_r+0x115a>
   117a2:	014487b3          	add	a5,s1,s4
   117a6:	f4be                	sd	a5,104(sp)
   117a8:	67e9                	lui	a5,0x1a
   117aa:	03078793          	addi	a5,a5,48 # 1a030 <zeroes.4441>
   117ae:	4d9d                	li	s11,7
   117b0:	8d3e                	mv	s10,a5
   117b2:	67a2                	ld	a5,8(sp)
   117b4:	120c1763          	bnez	s8,118e2 <_vfprintf_r+0x1276>
   117b8:	12079663          	bnez	a5,118e4 <_vfprintf_r+0x1278>
   117bc:	014487b3          	add	a5,s1,s4
   117c0:	0167f363          	bleu	s6,a5,117c6 <_vfprintf_r+0x115a>
   117c4:	8b3e                	mv	s6,a5
   117c6:	47ee                	lw	a5,216(sp)
   117c8:	0147c563          	blt	a5,s4,117d2 <_vfprintf_r+0x1166>
   117cc:	00147793          	andi	a5,s0,1
   117d0:	cf8d                	beqz	a5,1180a <_vfprintf_r+0x119e>
   117d2:	67a6                	ld	a5,72(sp)
   117d4:	6762                	ld	a4,24(sp)
   117d6:	0cc1                	addi	s9,s9,16
   117d8:	fefcb823          	sd	a5,-16(s9)
   117dc:	67e2                	ld	a5,24(sp)
   117de:	fefcbc23          	sd	a5,-8(s9)
   117e2:	67d2                	ld	a5,272(sp)
   117e4:	97ba                	add	a5,a5,a4
   117e6:	ea3e                	sd	a5,272(sp)
   117e8:	10812783          	lw	a5,264(sp)
   117ec:	0017871b          	addiw	a4,a5,1
   117f0:	10e12423          	sw	a4,264(sp)
   117f4:	479d                	li	a5,7
   117f6:	00e7da63          	ble	a4,a5,1180a <_vfprintf_r+0x119e>
   117fa:	0210                	addi	a2,sp,256
   117fc:	85ca                	mv	a1,s2
   117fe:	854e                	mv	a0,s3
   11800:	5ec050ef          	jal	ra,16dec <__sprint_r>
   11804:	3c051563          	bnez	a0,11bce <_vfprintf_r+0x1562>
   11808:	8cd6                	mv	s9,s5
   1180a:	4c6e                	lw	s8,216(sp)
   1180c:	94d2                	add	s1,s1,s4
   1180e:	416484bb          	subw	s1,s1,s6
   11812:	418a07bb          	subw	a5,s4,s8
   11816:	8c3e                	mv	s8,a5
   11818:	00f4d463          	ble	a5,s1,11820 <_vfprintf_r+0x11b4>
   1181c:	00048c1b          	sext.w	s8,s1
   11820:	03805b63          	blez	s8,11856 <_vfprintf_r+0x11ea>
   11824:	67d2                	ld	a5,272(sp)
   11826:	016cb023          	sd	s6,0(s9)
   1182a:	018cb423          	sd	s8,8(s9)
   1182e:	97e2                	add	a5,a5,s8
   11830:	ea3e                	sd	a5,272(sp)
   11832:	10812783          	lw	a5,264(sp)
   11836:	0cc1                	addi	s9,s9,16
   11838:	0017871b          	addiw	a4,a5,1
   1183c:	10e12423          	sw	a4,264(sp)
   11840:	479d                	li	a5,7
   11842:	00e7da63          	ble	a4,a5,11856 <_vfprintf_r+0x11ea>
   11846:	0210                	addi	a2,sp,256
   11848:	85ca                	mv	a1,s2
   1184a:	854e                	mv	a0,s3
   1184c:	5a0050ef          	jal	ra,16dec <__sprint_r>
   11850:	36051f63          	bnez	a0,11bce <_vfprintf_r+0x1562>
   11854:	8cd6                	mv	s9,s5
   11856:	87e2                	mv	a5,s8
   11858:	000c5363          	bgez	s8,1185e <_vfprintf_r+0x11f2>
   1185c:	4781                	li	a5,0
   1185e:	44ee                	lw	s1,216(sp)
   11860:	409a04bb          	subw	s1,s4,s1
   11864:	9c9d                	subw	s1,s1,a5
   11866:	d0905ee3          	blez	s1,11582 <_vfprintf_r+0xf16>
   1186a:	6b69                	lui	s6,0x1a
   1186c:	4c41                	li	s8,16
   1186e:	030b0b13          	addi	s6,s6,48 # 1a030 <zeroes.4441>
   11872:	4d1d                	li	s10,7
   11874:	10812703          	lw	a4,264(sp)
   11878:	016cb023          	sd	s6,0(s9)
   1187c:	67d2                	ld	a5,272(sp)
   1187e:	0017069b          	addiw	a3,a4,1
   11882:	8736                	mv	a4,a3
   11884:	010c8613          	addi	a2,s9,16
   11888:	169c4f63          	blt	s8,s1,11a06 <_vfprintf_r+0x139a>
   1188c:	009cb423          	sd	s1,8(s9)
   11890:	94be                	add	s1,s1,a5
   11892:	ea26                	sd	s1,272(sp)
   11894:	10d12423          	sw	a3,264(sp)
   11898:	479d                	li	a5,7
   1189a:	8cb2                	mv	s9,a2
   1189c:	ced7d3e3          	ble	a3,a5,11582 <_vfprintf_r+0xf16>
   118a0:	0210                	addi	a2,sp,256
   118a2:	85ca                	mv	a1,s2
   118a4:	854e                	mv	a0,s3
   118a6:	546050ef          	jal	ra,16dec <__sprint_r>
   118aa:	32051263          	bnez	a0,11bce <_vfprintf_r+0x1562>
   118ae:	18010c93          	addi	s9,sp,384
   118b2:	b9c1                	j	11582 <_vfprintf_r+0xf16>
   118b4:	0741                	addi	a4,a4,16
   118b6:	010cb423          	sd	a6,8(s9)
   118ba:	ea3a                	sd	a4,272(sp)
   118bc:	10c12423          	sw	a2,264(sp)
   118c0:	00b8de63          	ble	a1,a7,118dc <_vfprintf_r+0x1270>
   118c4:	0210                	addi	a2,sp,256
   118c6:	85ca                	mv	a1,s2
   118c8:	854e                	mv	a0,s3
   118ca:	f8c6                	sd	a7,112(sp)
   118cc:	f4c2                	sd	a6,104(sp)
   118ce:	51e050ef          	jal	ra,16dec <__sprint_r>
   118d2:	2e051e63          	bnez	a0,11bce <_vfprintf_r+0x1562>
   118d6:	78c6                	ld	a7,112(sp)
   118d8:	7826                	ld	a6,104(sp)
   118da:	8556                	mv	a0,s5
   118dc:	3b41                	addiw	s6,s6,-16
   118de:	8caa                	mv	s9,a0
   118e0:	bdb5                	j	1175c <_vfprintf_r+0x10f0>
   118e2:	c7d5                	beqz	a5,1198e <_vfprintf_r+0x1322>
   118e4:	47a2                	lw	a5,8(sp)
   118e6:	37fd                	addiw	a5,a5,-1
   118e8:	e43e                	sd	a5,8(sp)
   118ea:	67c6                	ld	a5,80(sp)
   118ec:	6706                	ld	a4,64(sp)
   118ee:	0cc1                	addi	s9,s9,16
   118f0:	fefcb823          	sd	a5,-16(s9)
   118f4:	6786                	ld	a5,64(sp)
   118f6:	fefcbc23          	sd	a5,-8(s9)
   118fa:	67d2                	ld	a5,272(sp)
   118fc:	97ba                	add	a5,a5,a4
   118fe:	ea3e                	sd	a5,272(sp)
   11900:	10812783          	lw	a5,264(sp)
   11904:	0017871b          	addiw	a4,a5,1
   11908:	10e12423          	sw	a4,264(sp)
   1190c:	00edda63          	ble	a4,s11,11920 <_vfprintf_r+0x12b4>
   11910:	0210                	addi	a2,sp,256
   11912:	85ca                	mv	a1,s2
   11914:	854e                	mv	a0,s3
   11916:	4d6050ef          	jal	ra,16dec <__sprint_r>
   1191a:	2a051a63          	bnez	a0,11bce <_vfprintf_r+0x1562>
   1191e:	8cd6                	mv	s9,s5
   11920:	6702                	ld	a4,0(sp)
   11922:	57a6                	lw	a5,104(sp)
   11924:	00074703          	lbu	a4,0(a4)
   11928:	416787bb          	subw	a5,a5,s6
   1192c:	00e7d463          	ble	a4,a5,11934 <_vfprintf_r+0x12c8>
   11930:	0007871b          	sext.w	a4,a5
   11934:	02e05d63          	blez	a4,1196e <_vfprintf_r+0x1302>
   11938:	67d2                	ld	a5,272(sp)
   1193a:	016cb023          	sd	s6,0(s9)
   1193e:	00ecb423          	sd	a4,8(s9)
   11942:	97ba                	add	a5,a5,a4
   11944:	ea3e                	sd	a5,272(sp)
   11946:	10812783          	lw	a5,264(sp)
   1194a:	0cc1                	addi	s9,s9,16
   1194c:	0017869b          	addiw	a3,a5,1
   11950:	10d12423          	sw	a3,264(sp)
   11954:	00dddd63          	ble	a3,s11,1196e <_vfprintf_r+0x1302>
   11958:	0210                	addi	a2,sp,256
   1195a:	85ca                	mv	a1,s2
   1195c:	854e                	mv	a0,s3
   1195e:	f8ba                	sd	a4,112(sp)
   11960:	48c050ef          	jal	ra,16dec <__sprint_r>
   11964:	26051563          	bnez	a0,11bce <_vfprintf_r+0x1562>
   11968:	7746                	ld	a4,112(sp)
   1196a:	18010c93          	addi	s9,sp,384
   1196e:	86ba                	mv	a3,a4
   11970:	00075363          	bgez	a4,11976 <_vfprintf_r+0x130a>
   11974:	4681                	li	a3,0
   11976:	6782                	ld	a5,0(sp)
   11978:	4841                	li	a6,16
   1197a:	0007c783          	lbu	a5,0(a5)
   1197e:	9f95                	subw	a5,a5,a3
   11980:	04f04463          	bgtz	a5,119c8 <_vfprintf_r+0x135c>
   11984:	6782                	ld	a5,0(sp)
   11986:	0007c783          	lbu	a5,0(a5)
   1198a:	9b3e                	add	s6,s6,a5
   1198c:	b51d                	j	117b2 <_vfprintf_r+0x1146>
   1198e:	6782                	ld	a5,0(sp)
   11990:	3c7d                	addiw	s8,s8,-1
   11992:	17fd                	addi	a5,a5,-1
   11994:	e03e                	sd	a5,0(sp)
   11996:	bf91                	j	118ea <_vfprintf_r+0x127e>
   11998:	0741                	addi	a4,a4,16
   1199a:	01acb023          	sd	s10,0(s9)
   1199e:	010cb423          	sd	a6,8(s9)
   119a2:	ea3a                	sd	a4,272(sp)
   119a4:	10d12423          	sw	a3,264(sp)
   119a8:	00cdde63          	ble	a2,s11,119c4 <_vfprintf_r+0x1358>
   119ac:	0210                	addi	a2,sp,256
   119ae:	85ca                	mv	a1,s2
   119b0:	854e                	mv	a0,s3
   119b2:	fcc2                	sd	a6,120(sp)
   119b4:	f8be                	sd	a5,112(sp)
   119b6:	436050ef          	jal	ra,16dec <__sprint_r>
   119ba:	20051a63          	bnez	a0,11bce <_vfprintf_r+0x1562>
   119be:	7866                	ld	a6,120(sp)
   119c0:	77c6                	ld	a5,112(sp)
   119c2:	030c                	addi	a1,sp,384
   119c4:	37c1                	addiw	a5,a5,-16
   119c6:	8cae                	mv	s9,a1
   119c8:	10812683          	lw	a3,264(sp)
   119cc:	6752                	ld	a4,272(sp)
   119ce:	010c8593          	addi	a1,s9,16
   119d2:	0016861b          	addiw	a2,a3,1
   119d6:	86b2                	mv	a3,a2
   119d8:	fcf840e3          	blt	a6,a5,11998 <_vfprintf_r+0x132c>
   119dc:	00fcb423          	sd	a5,8(s9)
   119e0:	97ba                	add	a5,a5,a4
   119e2:	01acb023          	sd	s10,0(s9)
   119e6:	ea3e                	sd	a5,272(sp)
   119e8:	10c12423          	sw	a2,264(sp)
   119ec:	8cae                	mv	s9,a1
   119ee:	f8cddbe3          	ble	a2,s11,11984 <_vfprintf_r+0x1318>
   119f2:	0210                	addi	a2,sp,256
   119f4:	85ca                	mv	a1,s2
   119f6:	854e                	mv	a0,s3
   119f8:	3f4050ef          	jal	ra,16dec <__sprint_r>
   119fc:	1c051963          	bnez	a0,11bce <_vfprintf_r+0x1562>
   11a00:	18010c93          	addi	s9,sp,384
   11a04:	b741                	j	11984 <_vfprintf_r+0x1318>
   11a06:	07c1                	addi	a5,a5,16
   11a08:	018cb423          	sd	s8,8(s9)
   11a0c:	ea3e                	sd	a5,272(sp)
   11a0e:	10e12423          	sw	a4,264(sp)
   11a12:	00dd5a63          	ble	a3,s10,11a26 <_vfprintf_r+0x13ba>
   11a16:	0210                	addi	a2,sp,256
   11a18:	85ca                	mv	a1,s2
   11a1a:	854e                	mv	a0,s3
   11a1c:	3d0050ef          	jal	ra,16dec <__sprint_r>
   11a20:	1a051763          	bnez	a0,11bce <_vfprintf_r+0x1562>
   11a24:	0310                	addi	a2,sp,384
   11a26:	34c1                	addiw	s1,s1,-16
   11a28:	8cb2                	mv	s9,a2
   11a2a:	b5a9                	j	11874 <_vfprintf_r+0x1208>
   11a2c:	10812783          	lw	a5,264(sp)
   11a30:	4605                	li	a2,1
   11a32:	009cb023          	sd	s1,0(s9)
   11a36:	0017869b          	addiw	a3,a5,1
   11a3a:	0705                	addi	a4,a4,1
   11a3c:	87b6                	mv	a5,a3
   11a3e:	010c8c13          	addi	s8,s9,16
   11a42:	01464663          	blt	a2,s4,11a4e <_vfprintf_r+0x13e2>
   11a46:	00147593          	andi	a1,s0,1
   11a4a:	12058663          	beqz	a1,11b76 <_vfprintf_r+0x150a>
   11a4e:	4605                	li	a2,1
   11a50:	10f12423          	sw	a5,264(sp)
   11a54:	00ccb423          	sd	a2,8(s9)
   11a58:	ea3a                	sd	a4,272(sp)
   11a5a:	479d                	li	a5,7
   11a5c:	00d7da63          	ble	a3,a5,11a70 <_vfprintf_r+0x1404>
   11a60:	0210                	addi	a2,sp,256
   11a62:	85ca                	mv	a1,s2
   11a64:	854e                	mv	a0,s3
   11a66:	386050ef          	jal	ra,16dec <__sprint_r>
   11a6a:	16051263          	bnez	a0,11bce <_vfprintf_r+0x1562>
   11a6e:	8c56                	mv	s8,s5
   11a70:	67a6                	ld	a5,72(sp)
   11a72:	6762                	ld	a4,24(sp)
   11a74:	0c41                	addi	s8,s8,16
   11a76:	fefc3823          	sd	a5,-16(s8)
   11a7a:	67e2                	ld	a5,24(sp)
   11a7c:	fefc3c23          	sd	a5,-8(s8)
   11a80:	67d2                	ld	a5,272(sp)
   11a82:	97ba                	add	a5,a5,a4
   11a84:	ea3e                	sd	a5,272(sp)
   11a86:	10812783          	lw	a5,264(sp)
   11a8a:	0017871b          	addiw	a4,a5,1
   11a8e:	10e12423          	sw	a4,264(sp)
   11a92:	479d                	li	a5,7
   11a94:	00e7da63          	ble	a4,a5,11aa8 <_vfprintf_r+0x143c>
   11a98:	0210                	addi	a2,sp,256
   11a9a:	85ca                	mv	a1,s2
   11a9c:	854e                	mv	a0,s3
   11a9e:	34e050ef          	jal	ra,16dec <__sprint_r>
   11aa2:	12051663          	bnez	a0,11bce <_vfprintf_r+0x1562>
   11aa6:	8c56                	mv	s8,s5
   11aa8:	754e                	ld	a0,240(sp)
   11aaa:	75ee                	ld	a1,248(sp)
   11aac:	4601                	li	a2,0
   11aae:	4681                	li	a3,0
   11ab0:	fffa0b1b          	addiw	s6,s4,-1
   11ab4:	5df060ef          	jal	ra,18892 <__eqtf2>
   11ab8:	c12d                	beqz	a0,11b1a <_vfprintf_r+0x14ae>
   11aba:	10812703          	lw	a4,264(sp)
   11abe:	67d2                	ld	a5,272(sp)
   11ac0:	0485                	addi	s1,s1,1
   11ac2:	0017069b          	addiw	a3,a4,1
   11ac6:	97da                	add	a5,a5,s6
   11ac8:	009c3023          	sd	s1,0(s8)
   11acc:	016c3423          	sd	s6,8(s8)
   11ad0:	ea3e                	sd	a5,272(sp)
   11ad2:	10d12423          	sw	a3,264(sp)
   11ad6:	479d                	li	a5,7
   11ad8:	0c41                	addi	s8,s8,16
   11ada:	00d7d963          	ble	a3,a5,11aec <_vfprintf_r+0x1480>
   11ade:	0210                	addi	a2,sp,256
   11ae0:	85ca                	mv	a1,s2
   11ae2:	854e                	mv	a0,s3
   11ae4:	308050ef          	jal	ra,16dec <__sprint_r>
   11ae8:	e17d                	bnez	a0,11bce <_vfprintf_r+0x1562>
   11aea:	8c56                	mv	s8,s5
   11aec:	119c                	addi	a5,sp,224
   11aee:	00fc3023          	sd	a5,0(s8)
   11af2:	67e6                	ld	a5,88(sp)
   11af4:	6766                	ld	a4,88(sp)
   11af6:	010c0c93          	addi	s9,s8,16
   11afa:	00fc3423          	sd	a5,8(s8)
   11afe:	67d2                	ld	a5,272(sp)
   11b00:	97ba                	add	a5,a5,a4
   11b02:	ea3e                	sd	a5,272(sp)
   11b04:	10812783          	lw	a5,264(sp)
   11b08:	0017871b          	addiw	a4,a5,1
   11b0c:	10e12423          	sw	a4,264(sp)
   11b10:	479d                	li	a5,7
   11b12:	a6e7d8e3          	ble	a4,a5,11582 <_vfprintf_r+0xf16>
   11b16:	8a8ff06f          	j	10bbe <_vfprintf_r+0x552>
   11b1a:	fd6059e3          	blez	s6,11aec <_vfprintf_r+0x1480>
   11b1e:	64e9                	lui	s1,0x1a
   11b20:	4d41                	li	s10,16
   11b22:	03048493          	addi	s1,s1,48 # 1a030 <zeroes.4441>
   11b26:	4c9d                	li	s9,7
   11b28:	10812703          	lw	a4,264(sp)
   11b2c:	009c3023          	sd	s1,0(s8)
   11b30:	67d2                	ld	a5,272(sp)
   11b32:	0017069b          	addiw	a3,a4,1
   11b36:	8736                	mv	a4,a3
   11b38:	010c0613          	addi	a2,s8,16
   11b3c:	016d4b63          	blt	s10,s6,11b52 <_vfprintf_r+0x14e6>
   11b40:	97da                	add	a5,a5,s6
   11b42:	016c3423          	sd	s6,8(s8)
   11b46:	ea3e                	sd	a5,272(sp)
   11b48:	10d12423          	sw	a3,264(sp)
   11b4c:	479d                	li	a5,7
   11b4e:	8c32                	mv	s8,a2
   11b50:	b769                	j	11ada <_vfprintf_r+0x146e>
   11b52:	07c1                	addi	a5,a5,16
   11b54:	01ac3423          	sd	s10,8(s8)
   11b58:	ea3e                	sd	a5,272(sp)
   11b5a:	10e12423          	sw	a4,264(sp)
   11b5e:	00dcd963          	ble	a3,s9,11b70 <_vfprintf_r+0x1504>
   11b62:	0210                	addi	a2,sp,256
   11b64:	85ca                	mv	a1,s2
   11b66:	854e                	mv	a0,s3
   11b68:	284050ef          	jal	ra,16dec <__sprint_r>
   11b6c:	e12d                	bnez	a0,11bce <_vfprintf_r+0x1562>
   11b6e:	8656                	mv	a2,s5
   11b70:	3b41                	addiw	s6,s6,-16
   11b72:	8c32                	mv	s8,a2
   11b74:	bf55                	j	11b28 <_vfprintf_r+0x14bc>
   11b76:	00ccb423          	sd	a2,8(s9)
   11b7a:	ea3a                	sd	a4,272(sp)
   11b7c:	10d12423          	sw	a3,264(sp)
   11b80:	479d                	li	a5,7
   11b82:	bfa1                	j	11ada <_vfprintf_r+0x146e>
   11b84:	5782                	lw	a5,32(sp)
   11b86:	5762                	lw	a4,56(sp)
   11b88:	40e7843b          	subw	s0,a5,a4
   11b8c:	9e805ee3          	blez	s0,11588 <_vfprintf_r+0xf1c>
   11b90:	64e9                	lui	s1,0x1a
   11b92:	4b41                	li	s6,16
   11b94:	02048493          	addi	s1,s1,32 # 1a020 <blanks.4440>
   11b98:	4c1d                	li	s8,7
   11b9a:	10812703          	lw	a4,264(sp)
   11b9e:	009cb023          	sd	s1,0(s9)
   11ba2:	67d2                	ld	a5,272(sp)
   11ba4:	0017069b          	addiw	a3,a4,1
   11ba8:	8736                	mv	a4,a3
   11baa:	028b4a63          	blt	s6,s0,11bde <_vfprintf_r+0x1572>
   11bae:	008cb423          	sd	s0,8(s9)
   11bb2:	943e                	add	s0,s0,a5
   11bb4:	ea22                	sd	s0,272(sp)
   11bb6:	10d12423          	sw	a3,264(sp)
   11bba:	479d                	li	a5,7
   11bbc:	9cd7d6e3          	ble	a3,a5,11588 <_vfprintf_r+0xf1c>
   11bc0:	0210                	addi	a2,sp,256
   11bc2:	85ca                	mv	a1,s2
   11bc4:	854e                	mv	a0,s3
   11bc6:	226050ef          	jal	ra,16dec <__sprint_r>
   11bca:	9a050fe3          	beqz	a0,11588 <_vfprintf_r+0xf1c>
   11bce:	960b8663          	beqz	s7,10d3a <_vfprintf_r+0x6ce>
   11bd2:	85de                	mv	a1,s7
   11bd4:	854e                	mv	a0,s3
   11bd6:	724000ef          	jal	ra,122fa <_free_r>
   11bda:	960ff06f          	j	10d3a <_vfprintf_r+0x6ce>
   11bde:	07c1                	addi	a5,a5,16
   11be0:	016cb423          	sd	s6,8(s9)
   11be4:	ea3e                	sd	a5,272(sp)
   11be6:	10e12423          	sw	a4,264(sp)
   11bea:	0cc1                	addi	s9,s9,16
   11bec:	00dc5963          	ble	a3,s8,11bfe <_vfprintf_r+0x1592>
   11bf0:	0210                	addi	a2,sp,256
   11bf2:	85ca                	mv	a1,s2
   11bf4:	854e                	mv	a0,s3
   11bf6:	1f6050ef          	jal	ra,16dec <__sprint_r>
   11bfa:	f971                	bnez	a0,11bce <_vfprintf_r+0x1562>
   11bfc:	8cd6                	mv	s9,s5
   11bfe:	3441                	addiw	s0,s0,-16
   11c00:	bf69                	j	11b9a <_vfprintf_r+0x152e>
   11c02:	85de                	mv	a1,s7
   11c04:	854e                	mv	a0,s3
   11c06:	6f4000ef          	jal	ra,122fa <_free_r>
   11c0a:	b26d                	j	115b4 <_vfprintf_r+0xf48>
   11c0c:	67d2                	ld	a5,272(sp)
   11c0e:	92078663          	beqz	a5,10d3a <_vfprintf_r+0x6ce>
   11c12:	0210                	addi	a2,sp,256
   11c14:	85ca                	mv	a1,s2
   11c16:	854e                	mv	a0,s3
   11c18:	1d4050ef          	jal	ra,16dec <__sprint_r>
   11c1c:	91eff06f          	j	10d3a <_vfprintf_r+0x6ce>

0000000000011c20 <vfprintf>:
   11c20:	86b2                	mv	a3,a2
   11c22:	862e                	mv	a2,a1
   11c24:	85aa                	mv	a1,a0
   11c26:	8301b503          	ld	a0,-2000(gp) # 1cce8 <_impure_ptr>
   11c2a:	a43fe06f          	j	1066c <_vfprintf_r>

0000000000011c2e <__sbprintf>:
   11c2e:	0105d783          	lhu	a5,16(a1)
   11c32:	b3010113          	addi	sp,sp,-1232
   11c36:	4c813023          	sd	s0,1216(sp)
   11c3a:	9bf5                	andi	a5,a5,-3
   11c3c:	00f11823          	sh	a5,16(sp)
   11c40:	0ac5a783          	lw	a5,172(a1)
   11c44:	842e                	mv	s0,a1
   11c46:	4a913c23          	sd	s1,1208(sp)
   11c4a:	d73e                	sw	a5,172(sp)
   11c4c:	0125d783          	lhu	a5,18(a1)
   11c50:	4b213823          	sd	s2,1200(sp)
   11c54:	4c113423          	sd	ra,1224(sp)
   11c58:	00f11923          	sh	a5,18(sp)
   11c5c:	799c                	ld	a5,48(a1)
   11c5e:	892a                	mv	s2,a0
   11c60:	d402                	sw	zero,40(sp)
   11c62:	f83e                	sd	a5,48(sp)
   11c64:	61bc                	ld	a5,64(a1)
   11c66:	858a                	mv	a1,sp
   11c68:	e0be                	sd	a5,64(sp)
   11c6a:	191c                	addi	a5,sp,176
   11c6c:	e03e                	sd	a5,0(sp)
   11c6e:	ec3e                	sd	a5,24(sp)
   11c70:	40000793          	li	a5,1024
   11c74:	c63e                	sw	a5,12(sp)
   11c76:	d03e                	sw	a5,32(sp)
   11c78:	9f5fe0ef          	jal	ra,1066c <_vfprintf_r>
   11c7c:	84aa                	mv	s1,a0
   11c7e:	00054863          	bltz	a0,11c8e <__sbprintf+0x60>
   11c82:	858a                	mv	a1,sp
   11c84:	854a                	mv	a0,s2
   11c86:	384000ef          	jal	ra,1200a <_fflush_r>
   11c8a:	c111                	beqz	a0,11c8e <__sbprintf+0x60>
   11c8c:	54fd                	li	s1,-1
   11c8e:	01015783          	lhu	a5,16(sp)
   11c92:	0407f793          	andi	a5,a5,64
   11c96:	c799                	beqz	a5,11ca4 <__sbprintf+0x76>
   11c98:	01045783          	lhu	a5,16(s0)
   11c9c:	0407e793          	ori	a5,a5,64
   11ca0:	00f41823          	sh	a5,16(s0)
   11ca4:	4c813083          	ld	ra,1224(sp)
   11ca8:	4c013403          	ld	s0,1216(sp)
   11cac:	8526                	mv	a0,s1
   11cae:	4b013903          	ld	s2,1200(sp)
   11cb2:	4b813483          	ld	s1,1208(sp)
   11cb6:	4d010113          	addi	sp,sp,1232
   11cba:	8082                	ret

0000000000011cbc <__swsetup_r>:
   11cbc:	1101                	addi	sp,sp,-32
   11cbe:	e426                	sd	s1,8(sp)
   11cc0:	84aa                	mv	s1,a0
   11cc2:	8301b503          	ld	a0,-2000(gp) # 1cce8 <_impure_ptr>
   11cc6:	e822                	sd	s0,16(sp)
   11cc8:	ec06                	sd	ra,24(sp)
   11cca:	842e                	mv	s0,a1
   11ccc:	c509                	beqz	a0,11cd6 <__swsetup_r+0x1a>
   11cce:	493c                	lw	a5,80(a0)
   11cd0:	e399                	bnez	a5,11cd6 <__swsetup_r+0x1a>
   11cd2:	450000ef          	jal	ra,12122 <__sinit>
   11cd6:	01041703          	lh	a4,16(s0)
   11cda:	03071793          	slli	a5,a4,0x30
   11cde:	93c1                	srli	a5,a5,0x30
   11ce0:	0087f693          	andi	a3,a5,8
   11ce4:	eea9                	bnez	a3,11d3e <__swsetup_r+0x82>
   11ce6:	0107f693          	andi	a3,a5,16
   11cea:	ee89                	bnez	a3,11d04 <__swsetup_r+0x48>
   11cec:	47a5                	li	a5,9
   11cee:	c09c                	sw	a5,0(s1)
   11cf0:	04076713          	ori	a4,a4,64
   11cf4:	00e41823          	sh	a4,16(s0)
   11cf8:	557d                	li	a0,-1
   11cfa:	60e2                	ld	ra,24(sp)
   11cfc:	6442                	ld	s0,16(sp)
   11cfe:	64a2                	ld	s1,8(sp)
   11d00:	6105                	addi	sp,sp,32
   11d02:	8082                	ret
   11d04:	8b91                	andi	a5,a5,4
   11d06:	c795                	beqz	a5,11d32 <__swsetup_r+0x76>
   11d08:	6c2c                	ld	a1,88(s0)
   11d0a:	c991                	beqz	a1,11d1e <__swsetup_r+0x62>
   11d0c:	07440793          	addi	a5,s0,116
   11d10:	00f58563          	beq	a1,a5,11d1a <__swsetup_r+0x5e>
   11d14:	8526                	mv	a0,s1
   11d16:	5e4000ef          	jal	ra,122fa <_free_r>
   11d1a:	04043c23          	sd	zero,88(s0)
   11d1e:	01045783          	lhu	a5,16(s0)
   11d22:	00042423          	sw	zero,8(s0)
   11d26:	fdb7f793          	andi	a5,a5,-37
   11d2a:	00f41823          	sh	a5,16(s0)
   11d2e:	6c1c                	ld	a5,24(s0)
   11d30:	e01c                	sd	a5,0(s0)
   11d32:	01045783          	lhu	a5,16(s0)
   11d36:	0087e793          	ori	a5,a5,8
   11d3a:	00f41823          	sh	a5,16(s0)
   11d3e:	6c1c                	ld	a5,24(s0)
   11d40:	ef89                	bnez	a5,11d5a <__swsetup_r+0x9e>
   11d42:	01045783          	lhu	a5,16(s0)
   11d46:	20000713          	li	a4,512
   11d4a:	2807f793          	andi	a5,a5,640
   11d4e:	00e78663          	beq	a5,a4,11d5a <__swsetup_r+0x9e>
   11d52:	85a2                	mv	a1,s0
   11d54:	8526                	mv	a0,s1
   11d56:	330020ef          	jal	ra,14086 <__smakebuf_r>
   11d5a:	01045783          	lhu	a5,16(s0)
   11d5e:	0017f713          	andi	a4,a5,1
   11d62:	c705                	beqz	a4,11d8a <__swsetup_r+0xce>
   11d64:	501c                	lw	a5,32(s0)
   11d66:	00042623          	sw	zero,12(s0)
   11d6a:	40f007bb          	negw	a5,a5
   11d6e:	d41c                	sw	a5,40(s0)
   11d70:	6c1c                	ld	a5,24(s0)
   11d72:	4501                	li	a0,0
   11d74:	f3d9                	bnez	a5,11cfa <__swsetup_r+0x3e>
   11d76:	01041783          	lh	a5,16(s0)
   11d7a:	0807f713          	andi	a4,a5,128
   11d7e:	df35                	beqz	a4,11cfa <__swsetup_r+0x3e>
   11d80:	0407e793          	ori	a5,a5,64
   11d84:	00f41823          	sh	a5,16(s0)
   11d88:	bf85                	j	11cf8 <__swsetup_r+0x3c>
   11d8a:	8b89                	andi	a5,a5,2
   11d8c:	4701                	li	a4,0
   11d8e:	e391                	bnez	a5,11d92 <__swsetup_r+0xd6>
   11d90:	5018                	lw	a4,32(s0)
   11d92:	c458                	sw	a4,12(s0)
   11d94:	bff1                	j	11d70 <__swsetup_r+0xb4>

0000000000011d96 <__register_exitproc>:
   11d96:	8281b703          	ld	a4,-2008(gp) # 1cce0 <_global_impure_ptr>
   11d9a:	832a                	mv	t1,a0
   11d9c:	1f873783          	ld	a5,504(a4)
   11da0:	e789                	bnez	a5,11daa <__register_exitproc+0x14>
   11da2:	20070793          	addi	a5,a4,512
   11da6:	1ef73c23          	sd	a5,504(a4)
   11daa:	4798                	lw	a4,8(a5)
   11dac:	487d                	li	a6,31
   11dae:	557d                	li	a0,-1
   11db0:	04e84463          	blt	a6,a4,11df8 <__register_exitproc+0x62>
   11db4:	02030a63          	beqz	t1,11de8 <__register_exitproc+0x52>
   11db8:	00371813          	slli	a6,a4,0x3
   11dbc:	983e                	add	a6,a6,a5
   11dbe:	10c83823          	sd	a2,272(a6)
   11dc2:	3107a883          	lw	a7,784(a5)
   11dc6:	4605                	li	a2,1
   11dc8:	00e6163b          	sllw	a2,a2,a4
   11dcc:	00c8e8b3          	or	a7,a7,a2
   11dd0:	3117a823          	sw	a7,784(a5)
   11dd4:	20d83823          	sd	a3,528(a6)
   11dd8:	4689                	li	a3,2
   11dda:	00d31763          	bne	t1,a3,11de8 <__register_exitproc+0x52>
   11dde:	3147a683          	lw	a3,788(a5)
   11de2:	8e55                	or	a2,a2,a3
   11de4:	30c7aa23          	sw	a2,788(a5)
   11de8:	0017069b          	addiw	a3,a4,1
   11dec:	0709                	addi	a4,a4,2
   11dee:	070e                	slli	a4,a4,0x3
   11df0:	c794                	sw	a3,8(a5)
   11df2:	97ba                	add	a5,a5,a4
   11df4:	e38c                	sd	a1,0(a5)
   11df6:	4501                	li	a0,0
   11df8:	8082                	ret

0000000000011dfa <__call_exitprocs>:
   11dfa:	715d                	addi	sp,sp,-80
   11dfc:	f44e                	sd	s3,40(sp)
   11dfe:	8281b983          	ld	s3,-2008(gp) # 1cce0 <_global_impure_ptr>
   11e02:	f052                	sd	s4,32(sp)
   11e04:	ec56                	sd	s5,24(sp)
   11e06:	e85a                	sd	s6,16(sp)
   11e08:	e486                	sd	ra,72(sp)
   11e0a:	e0a2                	sd	s0,64(sp)
   11e0c:	fc26                	sd	s1,56(sp)
   11e0e:	f84a                	sd	s2,48(sp)
   11e10:	e45e                	sd	s7,8(sp)
   11e12:	8aaa                	mv	s5,a0
   11e14:	8a2e                	mv	s4,a1
   11e16:	4b05                	li	s6,1
   11e18:	1f89b403          	ld	s0,504(s3)
   11e1c:	c801                	beqz	s0,11e2c <__call_exitprocs+0x32>
   11e1e:	4404                	lw	s1,8(s0)
   11e20:	34fd                	addiw	s1,s1,-1
   11e22:	00349913          	slli	s2,s1,0x3
   11e26:	9922                	add	s2,s2,s0
   11e28:	0004dd63          	bgez	s1,11e42 <__call_exitprocs+0x48>
   11e2c:	60a6                	ld	ra,72(sp)
   11e2e:	6406                	ld	s0,64(sp)
   11e30:	74e2                	ld	s1,56(sp)
   11e32:	7942                	ld	s2,48(sp)
   11e34:	79a2                	ld	s3,40(sp)
   11e36:	7a02                	ld	s4,32(sp)
   11e38:	6ae2                	ld	s5,24(sp)
   11e3a:	6b42                	ld	s6,16(sp)
   11e3c:	6ba2                	ld	s7,8(sp)
   11e3e:	6161                	addi	sp,sp,80
   11e40:	8082                	ret
   11e42:	000a0963          	beqz	s4,11e54 <__call_exitprocs+0x5a>
   11e46:	21093783          	ld	a5,528(s2)
   11e4a:	01478563          	beq	a5,s4,11e54 <__call_exitprocs+0x5a>
   11e4e:	34fd                	addiw	s1,s1,-1
   11e50:	1961                	addi	s2,s2,-8
   11e52:	bfd9                	j	11e28 <__call_exitprocs+0x2e>
   11e54:	441c                	lw	a5,8(s0)
   11e56:	01093683          	ld	a3,16(s2)
   11e5a:	37fd                	addiw	a5,a5,-1
   11e5c:	02979663          	bne	a5,s1,11e88 <__call_exitprocs+0x8e>
   11e60:	c404                	sw	s1,8(s0)
   11e62:	d6f5                	beqz	a3,11e4e <__call_exitprocs+0x54>
   11e64:	31042703          	lw	a4,784(s0)
   11e68:	009b163b          	sllw	a2,s6,s1
   11e6c:	00842b83          	lw	s7,8(s0)
   11e70:	8f71                	and	a4,a4,a2
   11e72:	2701                	sext.w	a4,a4
   11e74:	ef09                	bnez	a4,11e8e <__call_exitprocs+0x94>
   11e76:	9682                	jalr	a3
   11e78:	4418                	lw	a4,8(s0)
   11e7a:	1f89b783          	ld	a5,504(s3)
   11e7e:	f9771de3          	bne	a4,s7,11e18 <__call_exitprocs+0x1e>
   11e82:	fcf406e3          	beq	s0,a5,11e4e <__call_exitprocs+0x54>
   11e86:	bf49                	j	11e18 <__call_exitprocs+0x1e>
   11e88:	00093823          	sd	zero,16(s2)
   11e8c:	bfd9                	j	11e62 <__call_exitprocs+0x68>
   11e8e:	31442783          	lw	a5,788(s0)
   11e92:	11093583          	ld	a1,272(s2)
   11e96:	8ff1                	and	a5,a5,a2
   11e98:	2781                	sext.w	a5,a5
   11e9a:	e781                	bnez	a5,11ea2 <__call_exitprocs+0xa8>
   11e9c:	8556                	mv	a0,s5
   11e9e:	9682                	jalr	a3
   11ea0:	bfe1                	j	11e78 <__call_exitprocs+0x7e>
   11ea2:	852e                	mv	a0,a1
   11ea4:	9682                	jalr	a3
   11ea6:	bfc9                	j	11e78 <__call_exitprocs+0x7e>

0000000000011ea8 <__sflush_r>:
   11ea8:	01059783          	lh	a5,16(a1)
   11eac:	7179                	addi	sp,sp,-48
   11eae:	f022                	sd	s0,32(sp)
   11eb0:	03079713          	slli	a4,a5,0x30
   11eb4:	9341                	srli	a4,a4,0x30
   11eb6:	ec26                	sd	s1,24(sp)
   11eb8:	f406                	sd	ra,40(sp)
   11eba:	e84a                	sd	s2,16(sp)
   11ebc:	e44e                	sd	s3,8(sp)
   11ebe:	00877693          	andi	a3,a4,8
   11ec2:	84aa                	mv	s1,a0
   11ec4:	842e                	mv	s0,a1
   11ec6:	10069063          	bnez	a3,11fc6 <__sflush_r+0x11e>
   11eca:	6705                	lui	a4,0x1
   11ecc:	80070713          	addi	a4,a4,-2048 # 800 <_start-0xf8b0>
   11ed0:	8fd9                	or	a5,a5,a4
   11ed2:	4598                	lw	a4,8(a1)
   11ed4:	00f59823          	sh	a5,16(a1)
   11ed8:	00e04d63          	bgtz	a4,11ef2 <__sflush_r+0x4a>
   11edc:	59b8                	lw	a4,112(a1)
   11ede:	00e04a63          	bgtz	a4,11ef2 <__sflush_r+0x4a>
   11ee2:	4501                	li	a0,0
   11ee4:	70a2                	ld	ra,40(sp)
   11ee6:	7402                	ld	s0,32(sp)
   11ee8:	64e2                	ld	s1,24(sp)
   11eea:	6942                	ld	s2,16(sp)
   11eec:	69a2                	ld	s3,8(sp)
   11eee:	6145                	addi	sp,sp,48
   11ef0:	8082                	ret
   11ef2:	6438                	ld	a4,72(s0)
   11ef4:	d77d                	beqz	a4,11ee2 <__sflush_r+0x3a>
   11ef6:	0004a903          	lw	s2,0(s1)
   11efa:	03379693          	slli	a3,a5,0x33
   11efe:	0004a023          	sw	zero,0(s1)
   11f02:	780c                	ld	a1,48(s0)
   11f04:	0806d863          	bgez	a3,11f94 <__sflush_r+0xec>
   11f08:	6850                	ld	a2,144(s0)
   11f0a:	01045783          	lhu	a5,16(s0)
   11f0e:	8b91                	andi	a5,a5,4
   11f10:	c799                	beqz	a5,11f1e <__sflush_r+0x76>
   11f12:	441c                	lw	a5,8(s0)
   11f14:	8e1d                	sub	a2,a2,a5
   11f16:	6c3c                	ld	a5,88(s0)
   11f18:	c399                	beqz	a5,11f1e <__sflush_r+0x76>
   11f1a:	583c                	lw	a5,112(s0)
   11f1c:	8e1d                	sub	a2,a2,a5
   11f1e:	643c                	ld	a5,72(s0)
   11f20:	780c                	ld	a1,48(s0)
   11f22:	4681                	li	a3,0
   11f24:	8526                	mv	a0,s1
   11f26:	9782                	jalr	a5
   11f28:	57fd                	li	a5,-1
   11f2a:	01045683          	lhu	a3,16(s0)
   11f2e:	00f51d63          	bne	a0,a5,11f48 <__sflush_r+0xa0>
   11f32:	409c                	lw	a5,0(s1)
   11f34:	4775                	li	a4,29
   11f36:	08f76263          	bltu	a4,a5,11fba <__sflush_r+0x112>
   11f3a:	20400737          	lui	a4,0x20400
   11f3e:	0705                	addi	a4,a4,1
   11f40:	00f75733          	srl	a4,a4,a5
   11f44:	8b05                	andi	a4,a4,1
   11f46:	cb35                	beqz	a4,11fba <__sflush_r+0x112>
   11f48:	77fd                	lui	a5,0xfffff
   11f4a:	7ff78793          	addi	a5,a5,2047 # fffffffffffff7ff <_end+0xfffffffffff3ea67>
   11f4e:	6c18                	ld	a4,24(s0)
   11f50:	8ff5                	and	a5,a5,a3
   11f52:	0107979b          	slliw	a5,a5,0x10
   11f56:	4107d79b          	sraiw	a5,a5,0x10
   11f5a:	e018                	sd	a4,0(s0)
   11f5c:	00f41823          	sh	a5,16(s0)
   11f60:	00042423          	sw	zero,8(s0)
   11f64:	03379713          	slli	a4,a5,0x33
   11f68:	00075863          	bgez	a4,11f78 <__sflush_r+0xd0>
   11f6c:	57fd                	li	a5,-1
   11f6e:	00f51463          	bne	a0,a5,11f76 <__sflush_r+0xce>
   11f72:	409c                	lw	a5,0(s1)
   11f74:	e391                	bnez	a5,11f78 <__sflush_r+0xd0>
   11f76:	e848                	sd	a0,144(s0)
   11f78:	6c2c                	ld	a1,88(s0)
   11f7a:	0124a023          	sw	s2,0(s1)
   11f7e:	d1b5                	beqz	a1,11ee2 <__sflush_r+0x3a>
   11f80:	07440793          	addi	a5,s0,116
   11f84:	00f58563          	beq	a1,a5,11f8e <__sflush_r+0xe6>
   11f88:	8526                	mv	a0,s1
   11f8a:	370000ef          	jal	ra,122fa <_free_r>
   11f8e:	04043c23          	sd	zero,88(s0)
   11f92:	bf81                	j	11ee2 <__sflush_r+0x3a>
   11f94:	4601                	li	a2,0
   11f96:	4685                	li	a3,1
   11f98:	8526                	mv	a0,s1
   11f9a:	9702                	jalr	a4
   11f9c:	57fd                	li	a5,-1
   11f9e:	862a                	mv	a2,a0
   11fa0:	f6f515e3          	bne	a0,a5,11f0a <__sflush_r+0x62>
   11fa4:	409c                	lw	a5,0(s1)
   11fa6:	d3b5                	beqz	a5,11f0a <__sflush_r+0x62>
   11fa8:	4775                	li	a4,29
   11faa:	00e78563          	beq	a5,a4,11fb4 <__sflush_r+0x10c>
   11fae:	4759                	li	a4,22
   11fb0:	04e79463          	bne	a5,a4,11ff8 <__sflush_r+0x150>
   11fb4:	0124a023          	sw	s2,0(s1)
   11fb8:	b72d                	j	11ee2 <__sflush_r+0x3a>
   11fba:	0406e793          	ori	a5,a3,64
   11fbe:	00f41823          	sh	a5,16(s0)
   11fc2:	557d                	li	a0,-1
   11fc4:	b705                	j	11ee4 <__sflush_r+0x3c>
   11fc6:	0185b983          	ld	s3,24(a1)
   11fca:	f0098ce3          	beqz	s3,11ee2 <__sflush_r+0x3a>
   11fce:	0005b903          	ld	s2,0(a1)
   11fd2:	8b0d                	andi	a4,a4,3
   11fd4:	0135b023          	sd	s3,0(a1)
   11fd8:	4139093b          	subw	s2,s2,s3
   11fdc:	4781                	li	a5,0
   11fde:	e311                	bnez	a4,11fe2 <__sflush_r+0x13a>
   11fe0:	519c                	lw	a5,32(a1)
   11fe2:	c45c                	sw	a5,12(s0)
   11fe4:	ef205fe3          	blez	s2,11ee2 <__sflush_r+0x3a>
   11fe8:	603c                	ld	a5,64(s0)
   11fea:	780c                	ld	a1,48(s0)
   11fec:	86ca                	mv	a3,s2
   11fee:	864e                	mv	a2,s3
   11ff0:	8526                	mv	a0,s1
   11ff2:	9782                	jalr	a5
   11ff4:	00a04763          	bgtz	a0,12002 <__sflush_r+0x15a>
   11ff8:	01045783          	lhu	a5,16(s0)
   11ffc:	0407e793          	ori	a5,a5,64
   12000:	bf7d                	j	11fbe <__sflush_r+0x116>
   12002:	99aa                	add	s3,s3,a0
   12004:	40a9093b          	subw	s2,s2,a0
   12008:	bff1                	j	11fe4 <__sflush_r+0x13c>

000000000001200a <_fflush_r>:
   1200a:	1101                	addi	sp,sp,-32
   1200c:	e822                	sd	s0,16(sp)
   1200e:	ec06                	sd	ra,24(sp)
   12010:	842a                	mv	s0,a0
   12012:	c519                	beqz	a0,12020 <_fflush_r+0x16>
   12014:	493c                	lw	a5,80(a0)
   12016:	e789                	bnez	a5,12020 <_fflush_r+0x16>
   12018:	e42e                	sd	a1,8(sp)
   1201a:	108000ef          	jal	ra,12122 <__sinit>
   1201e:	65a2                	ld	a1,8(sp)
   12020:	01059783          	lh	a5,16(a1)
   12024:	c799                	beqz	a5,12032 <_fflush_r+0x28>
   12026:	8522                	mv	a0,s0
   12028:	6442                	ld	s0,16(sp)
   1202a:	60e2                	ld	ra,24(sp)
   1202c:	6105                	addi	sp,sp,32
   1202e:	e7bff06f          	j	11ea8 <__sflush_r>
   12032:	60e2                	ld	ra,24(sp)
   12034:	6442                	ld	s0,16(sp)
   12036:	4501                	li	a0,0
   12038:	6105                	addi	sp,sp,32
   1203a:	8082                	ret

000000000001203c <fflush>:
   1203c:	85aa                	mv	a1,a0
   1203e:	e909                	bnez	a0,12050 <fflush+0x14>
   12040:	8281b503          	ld	a0,-2008(gp) # 1cce0 <_global_impure_ptr>
   12044:	000125b7          	lui	a1,0x12
   12048:	00a58593          	addi	a1,a1,10 # 1200a <_fflush_r>
   1204c:	7ae0006f          	j	127fa <_fwalk_reent>
   12050:	8301b503          	ld	a0,-2000(gp) # 1cce8 <_impure_ptr>
   12054:	fb7ff06f          	j	1200a <_fflush_r>

0000000000012058 <__fp_lock>:
   12058:	4501                	li	a0,0
   1205a:	8082                	ret

000000000001205c <_cleanup_r>:
   1205c:	000185b7          	lui	a1,0x18
   12060:	8a458593          	addi	a1,a1,-1884 # 178a4 <_fclose_r>
   12064:	7960006f          	j	127fa <_fwalk_reent>

0000000000012068 <std.isra.0>:
   12068:	1141                	addi	sp,sp,-16
   1206a:	e022                	sd	s0,0(sp)
   1206c:	e406                	sd	ra,8(sp)
   1206e:	842a                	mv	s0,a0
   12070:	00b51823          	sh	a1,16(a0)
   12074:	00c51923          	sh	a2,18(a0)
   12078:	00053023          	sd	zero,0(a0)
   1207c:	00053423          	sd	zero,8(a0)
   12080:	0a052623          	sw	zero,172(a0)
   12084:	00053c23          	sd	zero,24(a0)
   12088:	02052023          	sw	zero,32(a0)
   1208c:	02052423          	sw	zero,40(a0)
   12090:	4621                	li	a2,8
   12092:	4581                	li	a1,0
   12094:	0a450513          	addi	a0,a0,164
   12098:	c48fe0ef          	jal	ra,104e0 <memset>
   1209c:	000157b7          	lui	a5,0x15
   120a0:	68078793          	addi	a5,a5,1664 # 15680 <__sread>
   120a4:	fc1c                	sd	a5,56(s0)
   120a6:	000157b7          	lui	a5,0x15
   120aa:	6b678793          	addi	a5,a5,1718 # 156b6 <__swrite>
   120ae:	e03c                	sd	a5,64(s0)
   120b0:	000157b7          	lui	a5,0x15
   120b4:	70878793          	addi	a5,a5,1800 # 15708 <__sseek>
   120b8:	e43c                	sd	a5,72(s0)
   120ba:	000157b7          	lui	a5,0x15
   120be:	74078793          	addi	a5,a5,1856 # 15740 <__sclose>
   120c2:	f800                	sd	s0,48(s0)
   120c4:	e83c                	sd	a5,80(s0)
   120c6:	60a2                	ld	ra,8(sp)
   120c8:	6402                	ld	s0,0(sp)
   120ca:	0141                	addi	sp,sp,16
   120cc:	8082                	ret

00000000000120ce <__fp_unlock>:
   120ce:	4501                	li	a0,0
   120d0:	8082                	ret

00000000000120d2 <__sfmoreglue>:
   120d2:	1101                	addi	sp,sp,-32
   120d4:	e426                	sd	s1,8(sp)
   120d6:	0b000613          	li	a2,176
   120da:	fff5849b          	addiw	s1,a1,-1
   120de:	02c484b3          	mul	s1,s1,a2
   120e2:	e04a                	sd	s2,0(sp)
   120e4:	892e                	mv	s2,a1
   120e6:	e822                	sd	s0,16(sp)
   120e8:	ec06                	sd	ra,24(sp)
   120ea:	0c848593          	addi	a1,s1,200
   120ee:	03a020ef          	jal	ra,14128 <_malloc_r>
   120f2:	842a                	mv	s0,a0
   120f4:	cd01                	beqz	a0,1210c <__sfmoreglue+0x3a>
   120f6:	00053023          	sd	zero,0(a0)
   120fa:	01252423          	sw	s2,8(a0)
   120fe:	0561                	addi	a0,a0,24
   12100:	e808                	sd	a0,16(s0)
   12102:	0b048613          	addi	a2,s1,176
   12106:	4581                	li	a1,0
   12108:	bd8fe0ef          	jal	ra,104e0 <memset>
   1210c:	8522                	mv	a0,s0
   1210e:	60e2                	ld	ra,24(sp)
   12110:	6442                	ld	s0,16(sp)
   12112:	64a2                	ld	s1,8(sp)
   12114:	6902                	ld	s2,0(sp)
   12116:	6105                	addi	sp,sp,32
   12118:	8082                	ret

000000000001211a <_cleanup>:
   1211a:	8281b503          	ld	a0,-2008(gp) # 1cce0 <_global_impure_ptr>
   1211e:	f3fff06f          	j	1205c <_cleanup_r>

0000000000012122 <__sinit>:
   12122:	493c                	lw	a5,80(a0)
   12124:	eba1                	bnez	a5,12174 <__sinit+0x52>
   12126:	1141                	addi	sp,sp,-16
   12128:	000127b7          	lui	a5,0x12
   1212c:	e406                	sd	ra,8(sp)
   1212e:	e022                	sd	s0,0(sp)
   12130:	05c78793          	addi	a5,a5,92 # 1205c <_cleanup_r>
   12134:	ed3c                	sd	a5,88(a0)
   12136:	478d                	li	a5,3
   12138:	52f52423          	sw	a5,1320(a0)
   1213c:	53850793          	addi	a5,a0,1336
   12140:	842a                	mv	s0,a0
   12142:	52f53823          	sd	a5,1328(a0)
   12146:	52053023          	sd	zero,1312(a0)
   1214a:	6508                	ld	a0,8(a0)
   1214c:	4601                	li	a2,0
   1214e:	4591                	li	a1,4
   12150:	f19ff0ef          	jal	ra,12068 <std.isra.0>
   12154:	6808                	ld	a0,16(s0)
   12156:	4605                	li	a2,1
   12158:	45a5                	li	a1,9
   1215a:	f0fff0ef          	jal	ra,12068 <std.isra.0>
   1215e:	6c08                	ld	a0,24(s0)
   12160:	4609                	li	a2,2
   12162:	45c9                	li	a1,18
   12164:	f05ff0ef          	jal	ra,12068 <std.isra.0>
   12168:	4785                	li	a5,1
   1216a:	c83c                	sw	a5,80(s0)
   1216c:	60a2                	ld	ra,8(sp)
   1216e:	6402                	ld	s0,0(sp)
   12170:	0141                	addi	sp,sp,16
   12172:	8082                	ret
   12174:	8082                	ret

0000000000012176 <__sfp>:
   12176:	1101                	addi	sp,sp,-32
   12178:	e426                	sd	s1,8(sp)
   1217a:	8281b483          	ld	s1,-2008(gp) # 1cce0 <_global_impure_ptr>
   1217e:	e04a                	sd	s2,0(sp)
   12180:	ec06                	sd	ra,24(sp)
   12182:	48bc                	lw	a5,80(s1)
   12184:	e822                	sd	s0,16(sp)
   12186:	892a                	mv	s2,a0
   12188:	e781                	bnez	a5,12190 <__sfp+0x1a>
   1218a:	8526                	mv	a0,s1
   1218c:	f97ff0ef          	jal	ra,12122 <__sinit>
   12190:	52048493          	addi	s1,s1,1312
   12194:	6880                	ld	s0,16(s1)
   12196:	449c                	lw	a5,8(s1)
   12198:	37fd                	addiw	a5,a5,-1
   1219a:	0007d663          	bgez	a5,121a6 <__sfp+0x30>
   1219e:	609c                	ld	a5,0(s1)
   121a0:	cb89                	beqz	a5,121b2 <__sfp+0x3c>
   121a2:	6084                	ld	s1,0(s1)
   121a4:	bfc5                	j	12194 <__sfp+0x1e>
   121a6:	01041703          	lh	a4,16(s0)
   121aa:	c70d                	beqz	a4,121d4 <__sfp+0x5e>
   121ac:	0b040413          	addi	s0,s0,176
   121b0:	b7e5                	j	12198 <__sfp+0x22>
   121b2:	4591                	li	a1,4
   121b4:	854a                	mv	a0,s2
   121b6:	f1dff0ef          	jal	ra,120d2 <__sfmoreglue>
   121ba:	e088                	sd	a0,0(s1)
   121bc:	f17d                	bnez	a0,121a2 <__sfp+0x2c>
   121be:	47b1                	li	a5,12
   121c0:	00f92023          	sw	a5,0(s2)
   121c4:	4401                	li	s0,0
   121c6:	8522                	mv	a0,s0
   121c8:	60e2                	ld	ra,24(sp)
   121ca:	6442                	ld	s0,16(sp)
   121cc:	64a2                	ld	s1,8(sp)
   121ce:	6902                	ld	s2,0(sp)
   121d0:	6105                	addi	sp,sp,32
   121d2:	8082                	ret
   121d4:	77c1                	lui	a5,0xffff0
   121d6:	2785                	addiw	a5,a5,1
   121d8:	0a042623          	sw	zero,172(s0)
   121dc:	00043023          	sd	zero,0(s0)
   121e0:	00043423          	sd	zero,8(s0)
   121e4:	c81c                	sw	a5,16(s0)
   121e6:	00043c23          	sd	zero,24(s0)
   121ea:	02042023          	sw	zero,32(s0)
   121ee:	02042423          	sw	zero,40(s0)
   121f2:	4621                	li	a2,8
   121f4:	4581                	li	a1,0
   121f6:	0a440513          	addi	a0,s0,164
   121fa:	ae6fe0ef          	jal	ra,104e0 <memset>
   121fe:	04043c23          	sd	zero,88(s0)
   12202:	06042023          	sw	zero,96(s0)
   12206:	06043c23          	sd	zero,120(s0)
   1220a:	08042023          	sw	zero,128(s0)
   1220e:	bf65                	j	121c6 <__sfp+0x50>

0000000000012210 <__sfp_lock_acquire>:
   12210:	8082                	ret

0000000000012212 <__sfp_lock_release>:
   12212:	8082                	ret

0000000000012214 <__sinit_lock_acquire>:
   12214:	8082                	ret

0000000000012216 <__sinit_lock_release>:
   12216:	8082                	ret

0000000000012218 <__fp_lock_all>:
   12218:	8301b503          	ld	a0,-2000(gp) # 1cce8 <_impure_ptr>
   1221c:	000125b7          	lui	a1,0x12
   12220:	05858593          	addi	a1,a1,88 # 12058 <__fp_lock>
   12224:	5720006f          	j	12796 <_fwalk>

0000000000012228 <__fp_unlock_all>:
   12228:	8301b503          	ld	a0,-2000(gp) # 1cce8 <_impure_ptr>
   1222c:	000125b7          	lui	a1,0x12
   12230:	0ce58593          	addi	a1,a1,206 # 120ce <__fp_unlock>
   12234:	5620006f          	j	12796 <_fwalk>

0000000000012238 <_malloc_trim_r>:
   12238:	7139                	addi	sp,sp,-64
   1223a:	f04a                	sd	s2,32(sp)
   1223c:	6971                	lui	s2,0x1c
   1223e:	f822                	sd	s0,48(sp)
   12240:	f426                	sd	s1,40(sp)
   12242:	ec4e                	sd	s3,24(sp)
   12244:	e42e                	sd	a1,8(sp)
   12246:	fc06                	sd	ra,56(sp)
   12248:	89aa                	mv	s3,a0
   1224a:	4a890913          	addi	s2,s2,1192 # 1c4a8 <__malloc_av_>
   1224e:	522020ef          	jal	ra,14770 <__malloc_lock>
   12252:	01093783          	ld	a5,16(s2)
   12256:	65a2                	ld	a1,8(sp)
   12258:	6784                	ld	s1,8(a5)
   1225a:	6785                	lui	a5,0x1
   1225c:	fdf78413          	addi	s0,a5,-33 # fdf <_start-0xf0d1>
   12260:	98f1                	andi	s1,s1,-4
   12262:	8c0d                	sub	s0,s0,a1
   12264:	9426                	add	s0,s0,s1
   12266:	8031                	srli	s0,s0,0xc
   12268:	147d                	addi	s0,s0,-1
   1226a:	0432                	slli	s0,s0,0xc
   1226c:	00f45d63          	ble	a5,s0,12286 <_malloc_trim_r+0x4e>
   12270:	854e                	mv	a0,s3
   12272:	500020ef          	jal	ra,14772 <__malloc_unlock>
   12276:	4501                	li	a0,0
   12278:	70e2                	ld	ra,56(sp)
   1227a:	7442                	ld	s0,48(sp)
   1227c:	74a2                	ld	s1,40(sp)
   1227e:	7902                	ld	s2,32(sp)
   12280:	69e2                	ld	s3,24(sp)
   12282:	6121                	addi	sp,sp,64
   12284:	8082                	ret
   12286:	4581                	li	a1,0
   12288:	854e                	mv	a0,s3
   1228a:	2cc030ef          	jal	ra,15556 <_sbrk_r>
   1228e:	01093783          	ld	a5,16(s2)
   12292:	97a6                	add	a5,a5,s1
   12294:	fcf51ee3          	bne	a0,a5,12270 <_malloc_trim_r+0x38>
   12298:	408005b3          	neg	a1,s0
   1229c:	854e                	mv	a0,s3
   1229e:	2b8030ef          	jal	ra,15556 <_sbrk_r>
   122a2:	57fd                	li	a5,-1
   122a4:	02f51863          	bne	a0,a5,122d4 <_malloc_trim_r+0x9c>
   122a8:	4581                	li	a1,0
   122aa:	854e                	mv	a0,s3
   122ac:	2aa030ef          	jal	ra,15556 <_sbrk_r>
   122b0:	01093703          	ld	a4,16(s2)
   122b4:	46fd                	li	a3,31
   122b6:	40e507b3          	sub	a5,a0,a4
   122ba:	faf6dbe3          	ble	a5,a3,12270 <_malloc_trim_r+0x38>
   122be:	8381b683          	ld	a3,-1992(gp) # 1ccf0 <__malloc_sbrk_base>
   122c2:	0017e793          	ori	a5,a5,1
   122c6:	e71c                	sd	a5,8(a4)
   122c8:	8d15                	sub	a0,a0,a3
   122ca:	000216b7          	lui	a3,0x21
   122ce:	d6a6a423          	sw	a0,-664(a3) # 20d68 <__malloc_current_mallinfo>
   122d2:	bf79                	j	12270 <_malloc_trim_r+0x38>
   122d4:	01093783          	ld	a5,16(s2)
   122d8:	8c81                	sub	s1,s1,s0
   122da:	00021737          	lui	a4,0x21
   122de:	0014e493          	ori	s1,s1,1
   122e2:	e784                	sd	s1,8(a5)
   122e4:	d6872783          	lw	a5,-664(a4) # 20d68 <__malloc_current_mallinfo>
   122e8:	854e                	mv	a0,s3
   122ea:	4087843b          	subw	s0,a5,s0
   122ee:	d6872423          	sw	s0,-664(a4)
   122f2:	480020ef          	jal	ra,14772 <__malloc_unlock>
   122f6:	4505                	li	a0,1
   122f8:	b741                	j	12278 <_malloc_trim_r+0x40>

00000000000122fa <_free_r>:
   122fa:	1a058863          	beqz	a1,124aa <_free_r+0x1b0>
   122fe:	1101                	addi	sp,sp,-32
   12300:	e822                	sd	s0,16(sp)
   12302:	e426                	sd	s1,8(sp)
   12304:	842a                	mv	s0,a0
   12306:	84ae                	mv	s1,a1
   12308:	ec06                	sd	ra,24(sp)
   1230a:	466020ef          	jal	ra,14770 <__malloc_lock>
   1230e:	ff84b503          	ld	a0,-8(s1)
   12312:	6671                	lui	a2,0x1c
   12314:	ff048693          	addi	a3,s1,-16
   12318:	ffe57793          	andi	a5,a0,-2
   1231c:	4a860813          	addi	a6,a2,1192 # 1c4a8 <__malloc_av_>
   12320:	00f685b3          	add	a1,a3,a5
   12324:	6598                	ld	a4,8(a1)
   12326:	01083803          	ld	a6,16(a6)
   1232a:	4a860613          	addi	a2,a2,1192
   1232e:	9b71                	andi	a4,a4,-4
   12330:	8905                	andi	a0,a0,1
   12332:	04b81063          	bne	a6,a1,12372 <_free_r+0x78>
   12336:	97ba                	add	a5,a5,a4
   12338:	e909                	bnez	a0,1234a <_free_r+0x50>
   1233a:	ff04b703          	ld	a4,-16(s1)
   1233e:	8e99                	sub	a3,a3,a4
   12340:	6a8c                	ld	a1,16(a3)
   12342:	97ba                	add	a5,a5,a4
   12344:	6e98                	ld	a4,24(a3)
   12346:	ed98                	sd	a4,24(a1)
   12348:	eb0c                	sd	a1,16(a4)
   1234a:	0017e713          	ori	a4,a5,1
   1234e:	e698                	sd	a4,8(a3)
   12350:	8401b703          	ld	a4,-1984(gp) # 1ccf8 <__malloc_trim_threshold>
   12354:	ea14                	sd	a3,16(a2)
   12356:	00e7e763          	bltu	a5,a4,12364 <_free_r+0x6a>
   1235a:	8681b583          	ld	a1,-1944(gp) # 1cd20 <__malloc_top_pad>
   1235e:	8522                	mv	a0,s0
   12360:	ed9ff0ef          	jal	ra,12238 <_malloc_trim_r>
   12364:	8522                	mv	a0,s0
   12366:	6442                	ld	s0,16(sp)
   12368:	60e2                	ld	ra,24(sp)
   1236a:	64a2                	ld	s1,8(sp)
   1236c:	6105                	addi	sp,sp,32
   1236e:	4040206f          	j	14772 <__malloc_unlock>
   12372:	e598                	sd	a4,8(a1)
   12374:	4801                	li	a6,0
   12376:	e10d                	bnez	a0,12398 <_free_r+0x9e>
   12378:	ff04b503          	ld	a0,-16(s1)
   1237c:	68f1                	lui	a7,0x1c
   1237e:	4b888893          	addi	a7,a7,1208 # 1c4b8 <__malloc_av_+0x10>
   12382:	8e89                	sub	a3,a3,a0
   12384:	97aa                	add	a5,a5,a0
   12386:	6a88                	ld	a0,16(a3)
   12388:	07150e63          	beq	a0,a7,12404 <_free_r+0x10a>
   1238c:	0186b883          	ld	a7,24(a3)
   12390:	01153c23          	sd	a7,24(a0)
   12394:	00a8b823          	sd	a0,16(a7)
   12398:	00e58533          	add	a0,a1,a4
   1239c:	6508                	ld	a0,8(a0)
   1239e:	8905                	andi	a0,a0,1
   123a0:	ed19                	bnez	a0,123be <_free_r+0xc4>
   123a2:	97ba                	add	a5,a5,a4
   123a4:	6998                	ld	a4,16(a1)
   123a6:	06081163          	bnez	a6,12408 <_free_r+0x10e>
   123aa:	6571                	lui	a0,0x1c
   123ac:	4b850513          	addi	a0,a0,1208 # 1c4b8 <__malloc_av_+0x10>
   123b0:	04a71c63          	bne	a4,a0,12408 <_free_r+0x10e>
   123b4:	f614                	sd	a3,40(a2)
   123b6:	f214                	sd	a3,32(a2)
   123b8:	ee98                	sd	a4,24(a3)
   123ba:	ea98                	sd	a4,16(a3)
   123bc:	4805                	li	a6,1
   123be:	0017e713          	ori	a4,a5,1
   123c2:	e698                	sd	a4,8(a3)
   123c4:	00f68733          	add	a4,a3,a5
   123c8:	e31c                	sd	a5,0(a4)
   123ca:	f8081de3          	bnez	a6,12364 <_free_r+0x6a>
   123ce:	1ff00713          	li	a4,511
   123d2:	02f76f63          	bltu	a4,a5,12410 <_free_r+0x116>
   123d6:	838d                	srli	a5,a5,0x3
   123d8:	2781                	sext.w	a5,a5
   123da:	4027d59b          	sraiw	a1,a5,0x2
   123de:	4705                	li	a4,1
   123e0:	00b71733          	sll	a4,a4,a1
   123e4:	2785                	addiw	a5,a5,1
   123e6:	660c                	ld	a1,8(a2)
   123e8:	0017979b          	slliw	a5,a5,0x1
   123ec:	078e                	slli	a5,a5,0x3
   123ee:	97b2                	add	a5,a5,a2
   123f0:	8f4d                	or	a4,a4,a1
   123f2:	e618                	sd	a4,8(a2)
   123f4:	6398                	ld	a4,0(a5)
   123f6:	ff078613          	addi	a2,a5,-16
   123fa:	ee90                	sd	a2,24(a3)
   123fc:	ea98                	sd	a4,16(a3)
   123fe:	e394                	sd	a3,0(a5)
   12400:	ef14                	sd	a3,24(a4)
   12402:	b78d                	j	12364 <_free_r+0x6a>
   12404:	4805                	li	a6,1
   12406:	bf49                	j	12398 <_free_r+0x9e>
   12408:	6d8c                	ld	a1,24(a1)
   1240a:	ef0c                	sd	a1,24(a4)
   1240c:	e998                	sd	a4,16(a1)
   1240e:	bf45                	j	123be <_free_r+0xc4>
   12410:	0097d593          	srli	a1,a5,0x9
   12414:	4711                	li	a4,4
   12416:	02b76e63          	bltu	a4,a1,12452 <_free_r+0x158>
   1241a:	0067d713          	srli	a4,a5,0x6
   1241e:	0387071b          	addiw	a4,a4,56
   12422:	0017059b          	addiw	a1,a4,1
   12426:	0015959b          	slliw	a1,a1,0x1
   1242a:	058e                	slli	a1,a1,0x3
   1242c:	95b2                	add	a1,a1,a2
   1242e:	ff058513          	addi	a0,a1,-16
   12432:	618c                	ld	a1,0(a1)
   12434:	06b51563          	bne	a0,a1,1249e <_free_r+0x1a4>
   12438:	4785                	li	a5,1
   1243a:	4027571b          	sraiw	a4,a4,0x2
   1243e:	00e79733          	sll	a4,a5,a4
   12442:	661c                	ld	a5,8(a2)
   12444:	8f5d                	or	a4,a4,a5
   12446:	e618                	sd	a4,8(a2)
   12448:	ee88                	sd	a0,24(a3)
   1244a:	ea8c                	sd	a1,16(a3)
   1244c:	e914                	sd	a3,16(a0)
   1244e:	ed94                	sd	a3,24(a1)
   12450:	bf11                	j	12364 <_free_r+0x6a>
   12452:	4751                	li	a4,20
   12454:	00b76563          	bltu	a4,a1,1245e <_free_r+0x164>
   12458:	05b5871b          	addiw	a4,a1,91
   1245c:	b7d9                	j	12422 <_free_r+0x128>
   1245e:	05400713          	li	a4,84
   12462:	00b76763          	bltu	a4,a1,12470 <_free_r+0x176>
   12466:	00c7d713          	srli	a4,a5,0xc
   1246a:	06e7071b          	addiw	a4,a4,110
   1246e:	bf55                	j	12422 <_free_r+0x128>
   12470:	15400713          	li	a4,340
   12474:	00b76763          	bltu	a4,a1,12482 <_free_r+0x188>
   12478:	00f7d713          	srli	a4,a5,0xf
   1247c:	0777071b          	addiw	a4,a4,119
   12480:	b74d                	j	12422 <_free_r+0x128>
   12482:	55400513          	li	a0,1364
   12486:	07e00713          	li	a4,126
   1248a:	f8b56ce3          	bltu	a0,a1,12422 <_free_r+0x128>
   1248e:	0127d713          	srli	a4,a5,0x12
   12492:	07c7071b          	addiw	a4,a4,124
   12496:	b771                	j	12422 <_free_r+0x128>
   12498:	698c                	ld	a1,16(a1)
   1249a:	00b50663          	beq	a0,a1,124a6 <_free_r+0x1ac>
   1249e:	6598                	ld	a4,8(a1)
   124a0:	9b71                	andi	a4,a4,-4
   124a2:	fee7ebe3          	bltu	a5,a4,12498 <_free_r+0x19e>
   124a6:	6d88                	ld	a0,24(a1)
   124a8:	b745                	j	12448 <_free_r+0x14e>
   124aa:	8082                	ret

00000000000124ac <__sfvwrite_r>:
   124ac:	6a1c                	ld	a5,16(a2)
   124ae:	e781                	bnez	a5,124b6 <__sfvwrite_r+0xa>
   124b0:	4781                	li	a5,0
   124b2:	853e                	mv	a0,a5
   124b4:	8082                	ret
   124b6:	0105d783          	lhu	a5,16(a1)
   124ba:	7119                	addi	sp,sp,-128
   124bc:	f8a2                	sd	s0,112(sp)
   124be:	f0ca                	sd	s2,96(sp)
   124c0:	e8d2                	sd	s4,80(sp)
   124c2:	fc86                	sd	ra,120(sp)
   124c4:	f4a6                	sd	s1,104(sp)
   124c6:	ecce                	sd	s3,88(sp)
   124c8:	e4d6                	sd	s5,72(sp)
   124ca:	e0da                	sd	s6,64(sp)
   124cc:	fc5e                	sd	s7,56(sp)
   124ce:	f862                	sd	s8,48(sp)
   124d0:	f466                	sd	s9,40(sp)
   124d2:	f06a                	sd	s10,32(sp)
   124d4:	ec6e                	sd	s11,24(sp)
   124d6:	8ba1                	andi	a5,a5,8
   124d8:	8a32                	mv	s4,a2
   124da:	842e                	mv	s0,a1
   124dc:	892a                	mv	s2,a0
   124de:	cfd1                	beqz	a5,1257a <__sfvwrite_r+0xce>
   124e0:	6d9c                	ld	a5,24(a1)
   124e2:	cfc1                	beqz	a5,1257a <__sfvwrite_r+0xce>
   124e4:	01045783          	lhu	a5,16(s0)
   124e8:	000a3983          	ld	s3,0(s4)
   124ec:	0027f713          	andi	a4,a5,2
   124f0:	0e071863          	bnez	a4,125e0 <__sfvwrite_r+0x134>
   124f4:	8b85                	andi	a5,a5,1
   124f6:	4a81                	li	s5,0
   124f8:	16078463          	beqz	a5,12660 <__sfvwrite_r+0x1b4>
   124fc:	4501                	li	a0,0
   124fe:	4b81                	li	s7,0
   12500:	4b01                	li	s6,0
   12502:	240b0863          	beqz	s6,12752 <__sfvwrite_r+0x2a6>
   12506:	e919                	bnez	a0,1251c <__sfvwrite_r+0x70>
   12508:	865a                	mv	a2,s6
   1250a:	45a9                	li	a1,10
   1250c:	855e                	mv	a0,s7
   1250e:	14c020ef          	jal	ra,1465a <memchr>
   12512:	24050763          	beqz	a0,12760 <__sfvwrite_r+0x2b4>
   12516:	0505                	addi	a0,a0,1
   12518:	41750abb          	subw	s5,a0,s7
   1251c:	8c56                	mv	s8,s5
   1251e:	015b7363          	bleu	s5,s6,12524 <__sfvwrite_r+0x78>
   12522:	8c5a                	mv	s8,s6
   12524:	6008                	ld	a0,0(s0)
   12526:	6c1c                	ld	a5,24(s0)
   12528:	5014                	lw	a3,32(s0)
   1252a:	22a7fe63          	bleu	a0,a5,12766 <__sfvwrite_r+0x2ba>
   1252e:	4444                	lw	s1,12(s0)
   12530:	9cb5                	addw	s1,s1,a3
   12532:	2384da63          	ble	s8,s1,12766 <__sfvwrite_r+0x2ba>
   12536:	85de                	mv	a1,s7
   12538:	8626                	mv	a2,s1
   1253a:	1f8020ef          	jal	ra,14732 <memmove>
   1253e:	601c                	ld	a5,0(s0)
   12540:	85a2                	mv	a1,s0
   12542:	854a                	mv	a0,s2
   12544:	97a6                	add	a5,a5,s1
   12546:	e01c                	sd	a5,0(s0)
   12548:	ac3ff0ef          	jal	ra,1200a <_fflush_r>
   1254c:	10051263          	bnez	a0,12650 <__sfvwrite_r+0x1a4>
   12550:	409a8abb          	subw	s5,s5,s1
   12554:	4505                	li	a0,1
   12556:	000a9763          	bnez	s5,12564 <__sfvwrite_r+0xb8>
   1255a:	85a2                	mv	a1,s0
   1255c:	854a                	mv	a0,s2
   1255e:	aadff0ef          	jal	ra,1200a <_fflush_r>
   12562:	e57d                	bnez	a0,12650 <__sfvwrite_r+0x1a4>
   12564:	010a3783          	ld	a5,16(s4)
   12568:	9ba6                	add	s7,s7,s1
   1256a:	409b0b33          	sub	s6,s6,s1
   1256e:	409784b3          	sub	s1,a5,s1
   12572:	009a3823          	sd	s1,16(s4)
   12576:	f4d1                	bnez	s1,12502 <__sfvwrite_r+0x56>
   12578:	a099                	j	125be <__sfvwrite_r+0x112>
   1257a:	85a2                	mv	a1,s0
   1257c:	854a                	mv	a0,s2
   1257e:	f3eff0ef          	jal	ra,11cbc <__swsetup_r>
   12582:	57fd                	li	a5,-1
   12584:	d125                	beqz	a0,124e4 <__sfvwrite_r+0x38>
   12586:	a82d                	j	125c0 <__sfvwrite_r+0x114>
   12588:	0009ba83          	ld	s5,0(s3)
   1258c:	0089b483          	ld	s1,8(s3)
   12590:	09c1                	addi	s3,s3,16
   12592:	d8fd                	beqz	s1,12588 <__sfvwrite_r+0xdc>
   12594:	86a6                	mv	a3,s1
   12596:	009b7363          	bleu	s1,s6,1259c <__sfvwrite_r+0xf0>
   1259a:	86da                	mv	a3,s6
   1259c:	603c                	ld	a5,64(s0)
   1259e:	780c                	ld	a1,48(s0)
   125a0:	2681                	sext.w	a3,a3
   125a2:	8656                	mv	a2,s5
   125a4:	854a                	mv	a0,s2
   125a6:	9782                	jalr	a5
   125a8:	0aa05463          	blez	a0,12650 <__sfvwrite_r+0x1a4>
   125ac:	010a3783          	ld	a5,16(s4)
   125b0:	9aaa                	add	s5,s5,a0
   125b2:	8c89                	sub	s1,s1,a0
   125b4:	40a78533          	sub	a0,a5,a0
   125b8:	00aa3823          	sd	a0,16(s4)
   125bc:	f979                	bnez	a0,12592 <__sfvwrite_r+0xe6>
   125be:	4781                	li	a5,0
   125c0:	70e6                	ld	ra,120(sp)
   125c2:	7446                	ld	s0,112(sp)
   125c4:	74a6                	ld	s1,104(sp)
   125c6:	7906                	ld	s2,96(sp)
   125c8:	69e6                	ld	s3,88(sp)
   125ca:	6a46                	ld	s4,80(sp)
   125cc:	6aa6                	ld	s5,72(sp)
   125ce:	6b06                	ld	s6,64(sp)
   125d0:	7be2                	ld	s7,56(sp)
   125d2:	7c42                	ld	s8,48(sp)
   125d4:	7ca2                	ld	s9,40(sp)
   125d6:	7d02                	ld	s10,32(sp)
   125d8:	6de2                	ld	s11,24(sp)
   125da:	853e                	mv	a0,a5
   125dc:	6109                	addi	sp,sp,128
   125de:	8082                	ret
   125e0:	80000b37          	lui	s6,0x80000
   125e4:	4a81                	li	s5,0
   125e6:	4481                	li	s1,0
   125e8:	c00b4b13          	xori	s6,s6,-1024
   125ec:	b75d                	j	12592 <__sfvwrite_r+0xe6>
   125ee:	0009ba83          	ld	s5,0(s3)
   125f2:	0089bd03          	ld	s10,8(s3)
   125f6:	09c1                	addi	s3,s3,16
   125f8:	4444                	lw	s1,12(s0)
   125fa:	87a6                	mv	a5,s1
   125fc:	fe0d09e3          	beqz	s10,125ee <__sfvwrite_r+0x142>
   12600:	01045703          	lhu	a4,16(s0)
   12604:	6008                	ld	a0,0(s0)
   12606:	20077693          	andi	a3,a4,512
   1260a:	0e068863          	beqz	a3,126fa <__sfvwrite_r+0x24e>
   1260e:	089d6963          	bltu	s10,s1,126a0 <__sfvwrite_r+0x1f4>
   12612:	48077693          	andi	a3,a4,1152
   12616:	c6c9                	beqz	a3,126a0 <__sfvwrite_r+0x1f4>
   12618:	5004                	lw	s1,32(s0)
   1261a:	6c0c                	ld	a1,24(s0)
   1261c:	029c04bb          	mulw	s1,s8,s1
   12620:	8d0d                	sub	a0,a0,a1
   12622:	00050d9b          	sext.w	s11,a0
   12626:	001d8793          	addi	a5,s11,1
   1262a:	97ea                	add	a5,a5,s10
   1262c:	0394c4bb          	divw	s1,s1,s9
   12630:	00f4f563          	bleu	a5,s1,1263a <__sfvwrite_r+0x18e>
   12634:	2505                	addiw	a0,a0,1
   12636:	01a504bb          	addw	s1,a0,s10
   1263a:	40077713          	andi	a4,a4,1024
   1263e:	cf49                	beqz	a4,126d8 <__sfvwrite_r+0x22c>
   12640:	85a6                	mv	a1,s1
   12642:	854a                	mv	a0,s2
   12644:	2e5010ef          	jal	ra,14128 <_malloc_r>
   12648:	e515                	bnez	a0,12674 <__sfvwrite_r+0x1c8>
   1264a:	47b1                	li	a5,12
   1264c:	00f92023          	sw	a5,0(s2)
   12650:	01045783          	lhu	a5,16(s0)
   12654:	0407e793          	ori	a5,a5,64
   12658:	00f41823          	sh	a5,16(s0)
   1265c:	57fd                	li	a5,-1
   1265e:	b78d                	j	125c0 <__sfvwrite_r+0x114>
   12660:	80000b37          	lui	s6,0x80000
   12664:	ffeb4b93          	xori	s7,s6,-2
   12668:	4d01                	li	s10,0
   1266a:	fffb4b13          	not	s6,s6
   1266e:	4c0d                	li	s8,3
   12670:	4c89                	li	s9,2
   12672:	b759                	j	125f8 <__sfvwrite_r+0x14c>
   12674:	6c0c                	ld	a1,24(s0)
   12676:	866e                	mv	a2,s11
   12678:	e42a                	sd	a0,8(sp)
   1267a:	7fb010ef          	jal	ra,14674 <memcpy>
   1267e:	01045703          	lhu	a4,16(s0)
   12682:	67a2                	ld	a5,8(sp)
   12684:	b7f77713          	andi	a4,a4,-1153
   12688:	08076713          	ori	a4,a4,128
   1268c:	00e41823          	sh	a4,16(s0)
   12690:	ec1c                	sd	a5,24(s0)
   12692:	d004                	sw	s1,32(s0)
   12694:	97ee                	add	a5,a5,s11
   12696:	41b484bb          	subw	s1,s1,s11
   1269a:	e01c                	sd	a5,0(s0)
   1269c:	c444                	sw	s1,12(s0)
   1269e:	87ea                	mv	a5,s10
   126a0:	84ea                	mv	s1,s10
   126a2:	00fd7363          	bleu	a5,s10,126a8 <__sfvwrite_r+0x1fc>
   126a6:	87ea                	mv	a5,s10
   126a8:	6008                	ld	a0,0(s0)
   126aa:	863e                	mv	a2,a5
   126ac:	85d6                	mv	a1,s5
   126ae:	e43e                	sd	a5,8(sp)
   126b0:	082020ef          	jal	ra,14732 <memmove>
   126b4:	4458                	lw	a4,12(s0)
   126b6:	67a2                	ld	a5,8(sp)
   126b8:	9f1d                	subw	a4,a4,a5
   126ba:	c458                	sw	a4,12(s0)
   126bc:	6018                	ld	a4,0(s0)
   126be:	97ba                	add	a5,a5,a4
   126c0:	e01c                	sd	a5,0(s0)
   126c2:	010a3783          	ld	a5,16(s4)
   126c6:	9aa6                	add	s5,s5,s1
   126c8:	409d0d33          	sub	s10,s10,s1
   126cc:	409784b3          	sub	s1,a5,s1
   126d0:	009a3823          	sd	s1,16(s4)
   126d4:	f095                	bnez	s1,125f8 <__sfvwrite_r+0x14c>
   126d6:	b5e5                	j	125be <__sfvwrite_r+0x112>
   126d8:	8626                	mv	a2,s1
   126da:	854a                	mv	a0,s2
   126dc:	2b1020ef          	jal	ra,1518c <_realloc_r>
   126e0:	87aa                	mv	a5,a0
   126e2:	f55d                	bnez	a0,12690 <__sfvwrite_r+0x1e4>
   126e4:	6c0c                	ld	a1,24(s0)
   126e6:	854a                	mv	a0,s2
   126e8:	c13ff0ef          	jal	ra,122fa <_free_r>
   126ec:	01045783          	lhu	a5,16(s0)
   126f0:	f7f7f793          	andi	a5,a5,-129
   126f4:	00f41823          	sh	a5,16(s0)
   126f8:	bf89                	j	1264a <__sfvwrite_r+0x19e>
   126fa:	6c1c                	ld	a5,24(s0)
   126fc:	00a7e563          	bltu	a5,a0,12706 <__sfvwrite_r+0x25a>
   12700:	5014                	lw	a3,32(s0)
   12702:	02dd7763          	bleu	a3,s10,12730 <__sfvwrite_r+0x284>
   12706:	009d7363          	bleu	s1,s10,1270c <__sfvwrite_r+0x260>
   1270a:	84ea                	mv	s1,s10
   1270c:	8626                	mv	a2,s1
   1270e:	85d6                	mv	a1,s5
   12710:	022020ef          	jal	ra,14732 <memmove>
   12714:	445c                	lw	a5,12(s0)
   12716:	4097873b          	subw	a4,a5,s1
   1271a:	601c                	ld	a5,0(s0)
   1271c:	c458                	sw	a4,12(s0)
   1271e:	97a6                	add	a5,a5,s1
   12720:	e01c                	sd	a5,0(s0)
   12722:	f345                	bnez	a4,126c2 <__sfvwrite_r+0x216>
   12724:	85a2                	mv	a1,s0
   12726:	854a                	mv	a0,s2
   12728:	8e3ff0ef          	jal	ra,1200a <_fflush_r>
   1272c:	d959                	beqz	a0,126c2 <__sfvwrite_r+0x216>
   1272e:	b70d                	j	12650 <__sfvwrite_r+0x1a4>
   12730:	87da                	mv	a5,s6
   12732:	01abe363          	bltu	s7,s10,12738 <__sfvwrite_r+0x28c>
   12736:	87ea                	mv	a5,s10
   12738:	02d7c7bb          	divw	a5,a5,a3
   1273c:	6038                	ld	a4,64(s0)
   1273e:	780c                	ld	a1,48(s0)
   12740:	8656                	mv	a2,s5
   12742:	854a                	mv	a0,s2
   12744:	02d786bb          	mulw	a3,a5,a3
   12748:	9702                	jalr	a4
   1274a:	84aa                	mv	s1,a0
   1274c:	f6a04be3          	bgtz	a0,126c2 <__sfvwrite_r+0x216>
   12750:	b701                	j	12650 <__sfvwrite_r+0x1a4>
   12752:	0009bb83          	ld	s7,0(s3)
   12756:	0089bb03          	ld	s6,8(s3)
   1275a:	4501                	li	a0,0
   1275c:	09c1                	addi	s3,s3,16
   1275e:	b355                	j	12502 <__sfvwrite_r+0x56>
   12760:	001b0a9b          	addiw	s5,s6,1
   12764:	bb65                	j	1251c <__sfvwrite_r+0x70>
   12766:	00dc4b63          	blt	s8,a3,1277c <__sfvwrite_r+0x2d0>
   1276a:	603c                	ld	a5,64(s0)
   1276c:	780c                	ld	a1,48(s0)
   1276e:	865e                	mv	a2,s7
   12770:	854a                	mv	a0,s2
   12772:	9782                	jalr	a5
   12774:	84aa                	mv	s1,a0
   12776:	dca04de3          	bgtz	a0,12550 <__sfvwrite_r+0xa4>
   1277a:	bdd9                	j	12650 <__sfvwrite_r+0x1a4>
   1277c:	8662                	mv	a2,s8
   1277e:	85de                	mv	a1,s7
   12780:	7b3010ef          	jal	ra,14732 <memmove>
   12784:	445c                	lw	a5,12(s0)
   12786:	84e2                	mv	s1,s8
   12788:	418787bb          	subw	a5,a5,s8
   1278c:	c45c                	sw	a5,12(s0)
   1278e:	601c                	ld	a5,0(s0)
   12790:	97e2                	add	a5,a5,s8
   12792:	e01c                	sd	a5,0(s0)
   12794:	bb75                	j	12550 <__sfvwrite_r+0xa4>

0000000000012796 <_fwalk>:
   12796:	715d                	addi	sp,sp,-80
   12798:	e0a2                	sd	s0,64(sp)
   1279a:	fc26                	sd	s1,56(sp)
   1279c:	f052                	sd	s4,32(sp)
   1279e:	ec56                	sd	s5,24(sp)
   127a0:	e486                	sd	ra,72(sp)
   127a2:	f84a                	sd	s2,48(sp)
   127a4:	f44e                	sd	s3,40(sp)
   127a6:	52050493          	addi	s1,a0,1312
   127aa:	4401                	li	s0,0
   127ac:	4a05                	li	s4,1
   127ae:	5afd                	li	s5,-1
   127b0:	e899                	bnez	s1,127c6 <_fwalk+0x30>
   127b2:	8522                	mv	a0,s0
   127b4:	60a6                	ld	ra,72(sp)
   127b6:	6406                	ld	s0,64(sp)
   127b8:	74e2                	ld	s1,56(sp)
   127ba:	7942                	ld	s2,48(sp)
   127bc:	79a2                	ld	s3,40(sp)
   127be:	7a02                	ld	s4,32(sp)
   127c0:	6ae2                	ld	s5,24(sp)
   127c2:	6161                	addi	sp,sp,80
   127c4:	8082                	ret
   127c6:	0104b903          	ld	s2,16(s1)
   127ca:	0084a983          	lw	s3,8(s1)
   127ce:	39fd                	addiw	s3,s3,-1
   127d0:	0009d463          	bgez	s3,127d8 <_fwalk+0x42>
   127d4:	6084                	ld	s1,0(s1)
   127d6:	bfe9                	j	127b0 <_fwalk+0x1a>
   127d8:	01095783          	lhu	a5,16(s2)
   127dc:	00fa7c63          	bleu	a5,s4,127f4 <_fwalk+0x5e>
   127e0:	01291783          	lh	a5,18(s2)
   127e4:	01578863          	beq	a5,s5,127f4 <_fwalk+0x5e>
   127e8:	854a                	mv	a0,s2
   127ea:	e42e                	sd	a1,8(sp)
   127ec:	9582                	jalr	a1
   127ee:	65a2                	ld	a1,8(sp)
   127f0:	8c49                	or	s0,s0,a0
   127f2:	2401                	sext.w	s0,s0
   127f4:	0b090913          	addi	s2,s2,176
   127f8:	bfd9                	j	127ce <_fwalk+0x38>

00000000000127fa <_fwalk_reent>:
   127fa:	715d                	addi	sp,sp,-80
   127fc:	e0a2                	sd	s0,64(sp)
   127fe:	fc26                	sd	s1,56(sp)
   12800:	f052                	sd	s4,32(sp)
   12802:	ec56                	sd	s5,24(sp)
   12804:	e85a                	sd	s6,16(sp)
   12806:	e45e                	sd	s7,8(sp)
   12808:	e486                	sd	ra,72(sp)
   1280a:	f84a                	sd	s2,48(sp)
   1280c:	f44e                	sd	s3,40(sp)
   1280e:	8a2a                	mv	s4,a0
   12810:	8aae                	mv	s5,a1
   12812:	52050493          	addi	s1,a0,1312
   12816:	4401                	li	s0,0
   12818:	4b05                	li	s6,1
   1281a:	5bfd                	li	s7,-1
   1281c:	ec89                	bnez	s1,12836 <_fwalk_reent+0x3c>
   1281e:	8522                	mv	a0,s0
   12820:	60a6                	ld	ra,72(sp)
   12822:	6406                	ld	s0,64(sp)
   12824:	74e2                	ld	s1,56(sp)
   12826:	7942                	ld	s2,48(sp)
   12828:	79a2                	ld	s3,40(sp)
   1282a:	7a02                	ld	s4,32(sp)
   1282c:	6ae2                	ld	s5,24(sp)
   1282e:	6b42                	ld	s6,16(sp)
   12830:	6ba2                	ld	s7,8(sp)
   12832:	6161                	addi	sp,sp,80
   12834:	8082                	ret
   12836:	0104b903          	ld	s2,16(s1)
   1283a:	0084a983          	lw	s3,8(s1)
   1283e:	39fd                	addiw	s3,s3,-1
   12840:	0009d463          	bgez	s3,12848 <_fwalk_reent+0x4e>
   12844:	6084                	ld	s1,0(s1)
   12846:	bfd9                	j	1281c <_fwalk_reent+0x22>
   12848:	01095783          	lhu	a5,16(s2)
   1284c:	00fb7b63          	bleu	a5,s6,12862 <_fwalk_reent+0x68>
   12850:	01291783          	lh	a5,18(s2)
   12854:	01778763          	beq	a5,s7,12862 <_fwalk_reent+0x68>
   12858:	85ca                	mv	a1,s2
   1285a:	8552                	mv	a0,s4
   1285c:	9a82                	jalr	s5
   1285e:	8c49                	or	s0,s0,a0
   12860:	2401                	sext.w	s0,s0
   12862:	0b090913          	addi	s2,s2,176
   12866:	bfe1                	j	1283e <_fwalk_reent+0x44>

0000000000012868 <eclear>:
   12868:	01450793          	addi	a5,a0,20
   1286c:	0509                	addi	a0,a0,2
   1286e:	fe051f23          	sh	zero,-2(a0)
   12872:	fef51de3          	bne	a0,a5,1286c <eclear+0x4>
   12876:	8082                	ret

0000000000012878 <emov>:
   12878:	01450793          	addi	a5,a0,20
   1287c:	0509                	addi	a0,a0,2
   1287e:	ffe55703          	lhu	a4,-2(a0)
   12882:	0589                	addi	a1,a1,2
   12884:	fee59f23          	sh	a4,-2(a1)
   12888:	fea79ae3          	bne	a5,a0,1287c <emov+0x4>
   1288c:	8082                	ret

000000000001288e <ecleaz>:
   1288e:	01a50793          	addi	a5,a0,26
   12892:	0509                	addi	a0,a0,2
   12894:	fe051f23          	sh	zero,-2(a0)
   12898:	fef51de3          	bne	a0,a5,12892 <ecleaz+0x4>
   1289c:	8082                	ret

000000000001289e <emovz>:
   1289e:	01850713          	addi	a4,a0,24
   128a2:	87ae                	mv	a5,a1
   128a4:	0509                	addi	a0,a0,2
   128a6:	ffe55683          	lhu	a3,-2(a0)
   128aa:	0789                	addi	a5,a5,2
   128ac:	fed79f23          	sh	a3,-2(a5)
   128b0:	fea71ae3          	bne	a4,a0,128a4 <emovz+0x6>
   128b4:	00059c23          	sh	zero,24(a1)
   128b8:	8082                	ret

00000000000128ba <ecmpm>:
   128ba:	00450793          	addi	a5,a0,4
   128be:	0591                	addi	a1,a1,4
   128c0:	0569                	addi	a0,a0,26
   128c2:	0789                	addi	a5,a5,2
   128c4:	0589                	addi	a1,a1,2
   128c6:	ffe7d683          	lhu	a3,-2(a5)
   128ca:	ffe5d703          	lhu	a4,-2(a1)
   128ce:	00e69663          	bne	a3,a4,128da <ecmpm+0x20>
   128d2:	fef518e3          	bne	a0,a5,128c2 <ecmpm+0x8>
   128d6:	4501                	li	a0,0
   128d8:	8082                	ret
   128da:	4505                	li	a0,1
   128dc:	00d76363          	bltu	a4,a3,128e2 <ecmpm+0x28>
   128e0:	557d                	li	a0,-1
   128e2:	8082                	ret

00000000000128e4 <eshdn1>:
   128e4:	00450693          	addi	a3,a0,4
   128e8:	4781                	li	a5,0
   128ea:	0569                	addi	a0,a0,26
   128ec:	7661                	lui	a2,0xffff8
   128ee:	0006d703          	lhu	a4,0(a3)
   128f2:	00177593          	andi	a1,a4,1
   128f6:	c199                	beqz	a1,128fc <eshdn1+0x18>
   128f8:	0017e793          	ori	a5,a5,1
   128fc:	0027f593          	andi	a1,a5,2
   12900:	8305                	srli	a4,a4,0x1
   12902:	e999                	bnez	a1,12918 <eshdn1+0x34>
   12904:	0017979b          	slliw	a5,a5,0x1
   12908:	00e69023          	sh	a4,0(a3)
   1290c:	17c2                	slli	a5,a5,0x30
   1290e:	0689                	addi	a3,a3,2
   12910:	93c1                	srli	a5,a5,0x30
   12912:	fcd51ee3          	bne	a0,a3,128ee <eshdn1+0xa>
   12916:	8082                	ret
   12918:	8f51                	or	a4,a4,a2
   1291a:	b7ed                	j	12904 <eshdn1+0x20>

000000000001291c <eshup1>:
   1291c:	01650693          	addi	a3,a0,22
   12920:	4701                	li	a4,0
   12922:	0026d783          	lhu	a5,2(a3)
   12926:	0107961b          	slliw	a2,a5,0x10
   1292a:	4106561b          	sraiw	a2,a2,0x10
   1292e:	00065463          	bgez	a2,12936 <eshup1+0x1a>
   12932:	00176713          	ori	a4,a4,1
   12936:	0017979b          	slliw	a5,a5,0x1
   1293a:	17c2                	slli	a5,a5,0x30
   1293c:	00277613          	andi	a2,a4,2
   12940:	93c1                	srli	a5,a5,0x30
   12942:	ea19                	bnez	a2,12958 <eshup1+0x3c>
   12944:	0017171b          	slliw	a4,a4,0x1
   12948:	00f69123          	sh	a5,2(a3)
   1294c:	1742                	slli	a4,a4,0x30
   1294e:	16f9                	addi	a3,a3,-2
   12950:	9341                	srli	a4,a4,0x30
   12952:	fcd518e3          	bne	a0,a3,12922 <eshup1+0x6>
   12956:	8082                	ret
   12958:	0017e793          	ori	a5,a5,1
   1295c:	b7e5                	j	12944 <eshup1+0x28>

000000000001295e <eshdn8>:
   1295e:	00450793          	addi	a5,a0,4
   12962:	4701                	li	a4,0
   12964:	0569                	addi	a0,a0,26
   12966:	0007d683          	lhu	a3,0(a5)
   1296a:	0789                	addi	a5,a5,2
   1296c:	0086d61b          	srliw	a2,a3,0x8
   12970:	8f51                	or	a4,a4,a2
   12972:	fee79f23          	sh	a4,-2(a5)
   12976:	0086971b          	slliw	a4,a3,0x8
   1297a:	1742                	slli	a4,a4,0x30
   1297c:	9341                	srli	a4,a4,0x30
   1297e:	fef514e3          	bne	a0,a5,12966 <eshdn8+0x8>
   12982:	8082                	ret

0000000000012984 <eshup8>:
   12984:	01650793          	addi	a5,a0,22
   12988:	4701                	li	a4,0
   1298a:	0027d683          	lhu	a3,2(a5)
   1298e:	17f9                	addi	a5,a5,-2
   12990:	00869613          	slli	a2,a3,0x8
   12994:	8f51                	or	a4,a4,a2
   12996:	00e79223          	sh	a4,4(a5)
   1299a:	0086d713          	srli	a4,a3,0x8
   1299e:	fef516e3          	bne	a0,a5,1298a <eshup8+0x6>
   129a2:	8082                	ret

00000000000129a4 <eshup6>:
   129a4:	00450793          	addi	a5,a0,4
   129a8:	01850713          	addi	a4,a0,24
   129ac:	0789                	addi	a5,a5,2
   129ae:	0007d683          	lhu	a3,0(a5)
   129b2:	fed79f23          	sh	a3,-2(a5)
   129b6:	fef71be3          	bne	a4,a5,129ac <eshup6+0x8>
   129ba:	00051c23          	sh	zero,24(a0)
   129be:	8082                	ret

00000000000129c0 <eshdn6>:
   129c0:	01850793          	addi	a5,a0,24
   129c4:	01a50713          	addi	a4,a0,26
   129c8:	00450693          	addi	a3,a0,4
   129cc:	17f9                	addi	a5,a5,-2
   129ce:	0007d603          	lhu	a2,0(a5)
   129d2:	1779                	addi	a4,a4,-2
   129d4:	00c71023          	sh	a2,0(a4)
   129d8:	fef69ae3          	bne	a3,a5,129cc <eshdn6+0xc>
   129dc:	00051223          	sh	zero,4(a0)
   129e0:	8082                	ret

00000000000129e2 <eaddm>:
   129e2:	05e1                	addi	a1,a1,24
   129e4:	01650713          	addi	a4,a0,22
   129e8:	4681                	li	a3,0
   129ea:	0005d783          	lhu	a5,0(a1)
   129ee:	1779                	addi	a4,a4,-2
   129f0:	15f9                	addi	a1,a1,-2
   129f2:	97b6                	add	a5,a5,a3
   129f4:	00475683          	lhu	a3,4(a4)
   129f8:	97b6                	add	a5,a5,a3
   129fa:	00f59123          	sh	a5,2(a1)
   129fe:	83c1                	srli	a5,a5,0x10
   12a00:	0017f693          	andi	a3,a5,1
   12a04:	fee513e3          	bne	a0,a4,129ea <eaddm+0x8>
   12a08:	8082                	ret

0000000000012a0a <esubm>:
   12a0a:	05e1                	addi	a1,a1,24
   12a0c:	01650713          	addi	a4,a0,22
   12a10:	4681                	li	a3,0
   12a12:	0005d783          	lhu	a5,0(a1)
   12a16:	00275603          	lhu	a2,2(a4)
   12a1a:	1779                	addi	a4,a4,-2
   12a1c:	15f9                	addi	a1,a1,-2
   12a1e:	8f91                	sub	a5,a5,a2
   12a20:	8f95                	sub	a5,a5,a3
   12a22:	00f59123          	sh	a5,2(a1)
   12a26:	83c1                	srli	a5,a5,0x10
   12a28:	0017f693          	andi	a3,a5,1
   12a2c:	fee513e3          	bne	a0,a4,12a12 <esubm+0x8>
   12a30:	8082                	ret

0000000000012a32 <m16m>:
   12a32:	1101                	addi	sp,sp,-32
   12a34:	6341                	lui	t1,0x10
   12a36:	01858893          	addi	a7,a1,24
   12a3a:	00011b23          	sh	zero,22(sp)
   12a3e:	00011c23          	sh	zero,24(sp)
   12a42:	0591                	addi	a1,a1,4
   12a44:	0834                	addi	a3,sp,24
   12a46:	137d                	addi	t1,t1,-1
   12a48:	0008d703          	lhu	a4,0(a7)
   12a4c:	16f9                	addi	a3,a3,-2
   12a4e:	18f9                	addi	a7,a7,-2
   12a50:	e705                	bnez	a4,12a78 <m16m+0x46>
   12a52:	fe069f23          	sh	zero,-2(a3)
   12a56:	ff1599e3          	bne	a1,a7,12a48 <m16m+0x16>
   12a5a:	4791                	li	a5,4
   12a5c:	4769                	li	a4,26
   12a5e:	00f105b3          	add	a1,sp,a5
   12a62:	0005d583          	lhu	a1,0(a1)
   12a66:	00f606b3          	add	a3,a2,a5
   12a6a:	0789                	addi	a5,a5,2
   12a6c:	00b69023          	sh	a1,0(a3)
   12a70:	fee797e3          	bne	a5,a4,12a5e <m16m+0x2c>
   12a74:	6105                	addi	sp,sp,32
   12a76:	8082                	ret
   12a78:	02a70733          	mul	a4,a4,a0
   12a7c:	0026d803          	lhu	a6,2(a3)
   12a80:	006777b3          	and	a5,a4,t1
   12a84:	97c2                	add	a5,a5,a6
   12a86:	0107d813          	srli	a6,a5,0x10
   12a8a:	00f69123          	sh	a5,2(a3)
   12a8e:	01075793          	srli	a5,a4,0x10
   12a92:	0006d703          	lhu	a4,0(a3)
   12a96:	97ba                	add	a5,a5,a4
   12a98:	97c2                	add	a5,a5,a6
   12a9a:	00f69023          	sh	a5,0(a3)
   12a9e:	83c1                	srli	a5,a5,0x10
   12aa0:	fef69f23          	sh	a5,-2(a3)
   12aa4:	bf4d                	j	12a56 <m16m+0x24>

0000000000012aa6 <eisnan>:
   12aa6:	01255783          	lhu	a5,18(a0)
   12aaa:	fff7c793          	not	a5,a5
   12aae:	03179713          	slli	a4,a5,0x31
   12ab2:	eb09                	bnez	a4,12ac4 <eisnan+0x1e>
   12ab4:	01250793          	addi	a5,a0,18
   12ab8:	0509                	addi	a0,a0,2
   12aba:	ffe55703          	lhu	a4,-2(a0)
   12abe:	e709                	bnez	a4,12ac8 <eisnan+0x22>
   12ac0:	fea79ce3          	bne	a5,a0,12ab8 <eisnan+0x12>
   12ac4:	4501                	li	a0,0
   12ac6:	8082                	ret
   12ac8:	4505                	li	a0,1
   12aca:	8082                	ret

0000000000012acc <eisneg>:
   12acc:	1141                	addi	sp,sp,-16
   12ace:	e022                	sd	s0,0(sp)
   12ad0:	e406                	sd	ra,8(sp)
   12ad2:	842a                	mv	s0,a0
   12ad4:	fd3ff0ef          	jal	ra,12aa6 <eisnan>
   12ad8:	e901                	bnez	a0,12ae8 <eisneg+0x1c>
   12ada:	01344503          	lbu	a0,19(s0)
   12ade:	811d                	srli	a0,a0,0x7
   12ae0:	60a2                	ld	ra,8(sp)
   12ae2:	6402                	ld	s0,0(sp)
   12ae4:	0141                	addi	sp,sp,16
   12ae6:	8082                	ret
   12ae8:	4501                	li	a0,0
   12aea:	bfdd                	j	12ae0 <eisneg+0x14>

0000000000012aec <emovi>:
   12aec:	01251783          	lh	a5,18(a0)
   12af0:	1101                	addi	sp,sp,-32
   12af2:	ec06                	sd	ra,24(sp)
   12af4:	e822                	sd	s0,16(sp)
   12af6:	e426                	sd	s1,8(sp)
   12af8:	e04a                	sd	s2,0(sp)
   12afa:	0407d963          	bgez	a5,12b4c <emovi+0x60>
   12afe:	57fd                	li	a5,-1
   12b00:	00f59023          	sh	a5,0(a1)
   12b04:	01255703          	lhu	a4,18(a0)
   12b08:	67a1                	lui	a5,0x8
   12b0a:	17fd                	addi	a5,a5,-1
   12b0c:	8f7d                	and	a4,a4,a5
   12b0e:	00e59123          	sh	a4,2(a1)
   12b12:	01050913          	addi	s2,a0,16
   12b16:	04f71863          	bne	a4,a5,12b66 <emovi+0x7a>
   12b1a:	842e                	mv	s0,a1
   12b1c:	84aa                	mv	s1,a0
   12b1e:	f89ff0ef          	jal	ra,12aa6 <eisnan>
   12b22:	c905                	beqz	a0,12b52 <emovi+0x66>
   12b24:	00640793          	addi	a5,s0,6
   12b28:	00041223          	sh	zero,4(s0)
   12b2c:	ffc48513          	addi	a0,s1,-4
   12b30:	1979                	addi	s2,s2,-2
   12b32:	00295703          	lhu	a4,2(s2)
   12b36:	0789                	addi	a5,a5,2
   12b38:	fee79f23          	sh	a4,-2(a5) # 7ffe <_start-0x80b2>
   12b3c:	fea91ae3          	bne	s2,a0,12b30 <emovi+0x44>
   12b40:	60e2                	ld	ra,24(sp)
   12b42:	6442                	ld	s0,16(sp)
   12b44:	64a2                	ld	s1,8(sp)
   12b46:	6902                	ld	s2,0(sp)
   12b48:	6105                	addi	sp,sp,32
   12b4a:	8082                	ret
   12b4c:	00059023          	sh	zero,0(a1)
   12b50:	bf55                	j	12b04 <emovi+0x18>
   12b52:	00440793          	addi	a5,s0,4
   12b56:	01a40593          	addi	a1,s0,26
   12b5a:	0789                	addi	a5,a5,2
   12b5c:	fe079f23          	sh	zero,-2(a5)
   12b60:	feb79de3          	bne	a5,a1,12b5a <emovi+0x6e>
   12b64:	bff1                	j	12b40 <emovi+0x54>
   12b66:	00658793          	addi	a5,a1,6
   12b6a:	00059223          	sh	zero,4(a1)
   12b6e:	1579                	addi	a0,a0,-2
   12b70:	1979                	addi	s2,s2,-2
   12b72:	00295703          	lhu	a4,2(s2)
   12b76:	0789                	addi	a5,a5,2
   12b78:	fee79f23          	sh	a4,-2(a5)
   12b7c:	fea91ae3          	bne	s2,a0,12b70 <emovi+0x84>
   12b80:	00059c23          	sh	zero,24(a1)
   12b84:	bf75                	j	12b40 <emovi+0x54>

0000000000012b86 <ecmp>:
   12b86:	711d                	addi	sp,sp,-96
   12b88:	e4a6                	sd	s1,72(sp)
   12b8a:	e0ca                	sd	s2,64(sp)
   12b8c:	ec86                	sd	ra,88(sp)
   12b8e:	e8a2                	sd	s0,80(sp)
   12b90:	892a                	mv	s2,a0
   12b92:	84ae                	mv	s1,a1
   12b94:	f13ff0ef          	jal	ra,12aa6 <eisnan>
   12b98:	e559                	bnez	a0,12c26 <ecmp+0xa0>
   12b9a:	8526                	mv	a0,s1
   12b9c:	f0bff0ef          	jal	ra,12aa6 <eisnan>
   12ba0:	842a                	mv	s0,a0
   12ba2:	e151                	bnez	a0,12c26 <ecmp+0xa0>
   12ba4:	858a                	mv	a1,sp
   12ba6:	854a                	mv	a0,s2
   12ba8:	f45ff0ef          	jal	ra,12aec <emovi>
   12bac:	100c                	addi	a1,sp,32
   12bae:	8526                	mv	a0,s1
   12bb0:	f3dff0ef          	jal	ra,12aec <emovi>
   12bb4:	00015703          	lhu	a4,0(sp)
   12bb8:	02015783          	lhu	a5,32(sp)
   12bbc:	02e78c63          	beq	a5,a4,12bf4 <ecmp+0x6e>
   12bc0:	4789                	li	a5,2
   12bc2:	46e1                	li	a3,24
   12bc4:	00f10633          	add	a2,sp,a5
   12bc8:	00065603          	lhu	a2,0(a2) # ffffffffffff8000 <_end+0xfffffffffff37268>
   12bcc:	e205                	bnez	a2,12bec <ecmp+0x66>
   12bce:	1010                	addi	a2,sp,32
   12bd0:	963e                	add	a2,a2,a5
   12bd2:	00065603          	lhu	a2,0(a2)
   12bd6:	ea19                	bnez	a2,12bec <ecmp+0x66>
   12bd8:	0789                	addi	a5,a5,2
   12bda:	fed795e3          	bne	a5,a3,12bc4 <ecmp+0x3e>
   12bde:	8522                	mv	a0,s0
   12be0:	60e6                	ld	ra,88(sp)
   12be2:	6446                	ld	s0,80(sp)
   12be4:	64a6                	ld	s1,72(sp)
   12be6:	6906                	ld	s2,64(sp)
   12be8:	6125                	addi	sp,sp,96
   12bea:	8082                	ret
   12bec:	4405                	li	s0,1
   12bee:	db65                	beqz	a4,12bde <ecmp+0x58>
   12bf0:	547d                	li	s0,-1
   12bf2:	b7f5                	j	12bde <ecmp+0x58>
   12bf4:	4605                	li	a2,1
   12bf6:	c311                	beqz	a4,12bfa <ecmp+0x74>
   12bf8:	567d                	li	a2,-1
   12bfa:	4781                	li	a5,0
   12bfc:	45e1                	li	a1,24
   12bfe:	00f10733          	add	a4,sp,a5
   12c02:	00075683          	lhu	a3,0(a4)
   12c06:	1018                	addi	a4,sp,32
   12c08:	973e                	add	a4,a4,a5
   12c0a:	00075703          	lhu	a4,0(a4)
   12c0e:	00e69663          	bne	a3,a4,12c1a <ecmp+0x94>
   12c12:	0789                	addi	a5,a5,2
   12c14:	feb795e3          	bne	a5,a1,12bfe <ecmp+0x78>
   12c18:	b7d9                	j	12bde <ecmp+0x58>
   12c1a:	8432                	mv	s0,a2
   12c1c:	fcd761e3          	bltu	a4,a3,12bde <ecmp+0x58>
   12c20:	40c0043b          	negw	s0,a2
   12c24:	bf6d                	j	12bde <ecmp+0x58>
   12c26:	5479                	li	s0,-2
   12c28:	bf5d                	j	12bde <ecmp+0x58>

0000000000012c2a <eisinf>:
   12c2a:	01255783          	lhu	a5,18(a0)
   12c2e:	fff7c793          	not	a5,a5
   12c32:	03179713          	slli	a4,a5,0x31
   12c36:	eb11                	bnez	a4,12c4a <eisinf+0x20>
   12c38:	1141                	addi	sp,sp,-16
   12c3a:	e406                	sd	ra,8(sp)
   12c3c:	e6bff0ef          	jal	ra,12aa6 <eisnan>
   12c40:	60a2                	ld	ra,8(sp)
   12c42:	00153513          	seqz	a0,a0
   12c46:	0141                	addi	sp,sp,16
   12c48:	8082                	ret
   12c4a:	4501                	li	a0,0
   12c4c:	8082                	ret

0000000000012c4e <einfin.isra.2>:
   12c4e:	01250793          	addi	a5,a0,18
   12c52:	0509                	addi	a0,a0,2
   12c54:	fe051f23          	sh	zero,-2(a0)
   12c58:	fef51de3          	bne	a0,a5,12c52 <einfin.isra.2+0x4>
   12c5c:	00055783          	lhu	a5,0(a0)
   12c60:	6721                	lui	a4,0x8
   12c62:	177d                	addi	a4,a4,-1
   12c64:	8fd9                	or	a5,a5,a4
   12c66:	00f51023          	sh	a5,0(a0)
   12c6a:	8082                	ret

0000000000012c6c <eshift.part.3>:
   12c6c:	7139                	addi	sp,sp,-64
   12c6e:	f822                	sd	s0,48(sp)
   12c70:	ec4e                	sd	s3,24(sp)
   12c72:	fc06                	sd	ra,56(sp)
   12c74:	f426                	sd	s1,40(sp)
   12c76:	f04a                	sd	s2,32(sp)
   12c78:	e852                	sd	s4,16(sp)
   12c7a:	e456                	sd	s5,8(sp)
   12c7c:	89aa                	mv	s3,a0
   12c7e:	842e                	mv	s0,a1
   12c80:	0a05d963          	bgez	a1,12d32 <eshift.part.3+0xc6>
   12c84:	40b00a3b          	negw	s4,a1
   12c88:	8952                	mv	s2,s4
   12c8a:	4481                	li	s1,0
   12c8c:	4abd                	li	s5,15
   12c8e:	034ac763          	blt	s5,s4,12cbc <eshift.part.3+0x50>
   12c92:	0049591b          	srliw	s2,s2,0x4
   12c96:	55c1                	li	a1,-16
   12c98:	02b905bb          	mulw	a1,s2,a1
   12c9c:	4a1d                	li	s4,7
   12c9e:	4085893b          	subw	s2,a1,s0
   12ca2:	844a                	mv	s0,s2
   12ca4:	032a4463          	blt	s4,s2,12ccc <eshift.part.3+0x60>
   12ca8:	0034559b          	srliw	a1,s0,0x3
   12cac:	57e1                	li	a5,-8
   12cae:	02f585bb          	mulw	a1,a1,a5
   12cb2:	9c2d                	addw	s0,s0,a1
   12cb4:	e405                	bnez	s0,12cdc <eshift.part.3+0x70>
   12cb6:	00903533          	snez	a0,s1
   12cba:	a09d                	j	12d20 <eshift.part.3+0xb4>
   12cbc:	0189d783          	lhu	a5,24(s3)
   12cc0:	854e                	mv	a0,s3
   12cc2:	3a41                	addiw	s4,s4,-16
   12cc4:	8cdd                	or	s1,s1,a5
   12cc6:	cfbff0ef          	jal	ra,129c0 <eshdn6>
   12cca:	b7d1                	j	12c8e <eshift.part.3+0x22>
   12ccc:	0189c783          	lbu	a5,24(s3)
   12cd0:	854e                	mv	a0,s3
   12cd2:	3961                	addiw	s2,s2,-8
   12cd4:	8cdd                	or	s1,s1,a5
   12cd6:	c89ff0ef          	jal	ra,1295e <eshdn8>
   12cda:	b7e9                	j	12ca4 <eshift.part.3+0x38>
   12cdc:	0189d783          	lhu	a5,24(s3)
   12ce0:	854e                	mv	a0,s3
   12ce2:	347d                	addiw	s0,s0,-1
   12ce4:	8b85                	andi	a5,a5,1
   12ce6:	8cdd                	or	s1,s1,a5
   12ce8:	bfdff0ef          	jal	ra,128e4 <eshdn1>
   12cec:	b7e1                	j	12cb4 <eshift.part.3+0x48>
   12cee:	854e                	mv	a0,s3
   12cf0:	cb5ff0ef          	jal	ra,129a4 <eshup6>
   12cf4:	34c1                	addiw	s1,s1,-16
   12cf6:	fe994ce3          	blt	s2,s1,12cee <eshift.part.3+0x82>
   12cfa:	0044559b          	srliw	a1,s0,0x4
   12cfe:	57c1                	li	a5,-16
   12d00:	02f585bb          	mulw	a1,a1,a5
   12d04:	491d                	li	s2,7
   12d06:	00b404bb          	addw	s1,s0,a1
   12d0a:	8426                	mv	s0,s1
   12d0c:	02994663          	blt	s2,s1,12d38 <eshift.part.3+0xcc>
   12d10:	0034559b          	srliw	a1,s0,0x3
   12d14:	57e1                	li	a5,-8
   12d16:	02f585bb          	mulw	a1,a1,a5
   12d1a:	9c2d                	addw	s0,s0,a1
   12d1c:	e01d                	bnez	s0,12d42 <eshift.part.3+0xd6>
   12d1e:	4501                	li	a0,0
   12d20:	70e2                	ld	ra,56(sp)
   12d22:	7442                	ld	s0,48(sp)
   12d24:	74a2                	ld	s1,40(sp)
   12d26:	7902                	ld	s2,32(sp)
   12d28:	69e2                	ld	s3,24(sp)
   12d2a:	6a42                	ld	s4,16(sp)
   12d2c:	6aa2                	ld	s5,8(sp)
   12d2e:	6121                	addi	sp,sp,64
   12d30:	8082                	ret
   12d32:	84ae                	mv	s1,a1
   12d34:	493d                	li	s2,15
   12d36:	b7c1                	j	12cf6 <eshift.part.3+0x8a>
   12d38:	854e                	mv	a0,s3
   12d3a:	c4bff0ef          	jal	ra,12984 <eshup8>
   12d3e:	34e1                	addiw	s1,s1,-8
   12d40:	b7f1                	j	12d0c <eshift.part.3+0xa0>
   12d42:	854e                	mv	a0,s3
   12d44:	bd9ff0ef          	jal	ra,1291c <eshup1>
   12d48:	347d                	addiw	s0,s0,-1
   12d4a:	bfc9                	j	12d1c <eshift.part.3+0xb0>

0000000000012d4c <enormlz>:
   12d4c:	00455783          	lhu	a5,4(a0)
   12d50:	1101                	addi	sp,sp,-32
   12d52:	e426                	sd	s1,8(sp)
   12d54:	ec06                	sd	ra,24(sp)
   12d56:	e822                	sd	s0,16(sp)
   12d58:	e04a                	sd	s2,0(sp)
   12d5a:	84aa                	mv	s1,a0
   12d5c:	efb9                	bnez	a5,12dba <enormlz+0x6e>
   12d5e:	00651783          	lh	a5,6(a0)
   12d62:	4401                	li	s0,0
   12d64:	0a000913          	li	s2,160
   12d68:	0007df63          	bgez	a5,12d86 <enormlz+0x3a>
   12d6c:	8522                	mv	a0,s0
   12d6e:	60e2                	ld	ra,24(sp)
   12d70:	6442                	ld	s0,16(sp)
   12d72:	64a2                	ld	s1,8(sp)
   12d74:	6902                	ld	s2,0(sp)
   12d76:	6105                	addi	sp,sp,32
   12d78:	8082                	ret
   12d7a:	8526                	mv	a0,s1
   12d7c:	2441                	addiw	s0,s0,16
   12d7e:	c27ff0ef          	jal	ra,129a4 <eshup6>
   12d82:	ff2405e3          	beq	s0,s2,12d6c <enormlz+0x20>
   12d86:	0064d783          	lhu	a5,6(s1)
   12d8a:	dbe5                	beqz	a5,12d7a <enormlz+0x2e>
   12d8c:	0064d783          	lhu	a5,6(s1)
   12d90:	f007f793          	andi	a5,a5,-256
   12d94:	cf91                	beqz	a5,12db0 <enormlz+0x64>
   12d96:	0a000913          	li	s2,160
   12d9a:	00649783          	lh	a5,6(s1)
   12d9e:	fc07c7e3          	bltz	a5,12d6c <enormlz+0x20>
   12da2:	8526                	mv	a0,s1
   12da4:	2405                	addiw	s0,s0,1
   12da6:	b77ff0ef          	jal	ra,1291c <eshup1>
   12daa:	fe8958e3          	ble	s0,s2,12d9a <enormlz+0x4e>
   12dae:	bf7d                	j	12d6c <enormlz+0x20>
   12db0:	8526                	mv	a0,s1
   12db2:	bd3ff0ef          	jal	ra,12984 <eshup8>
   12db6:	2421                	addiw	s0,s0,8
   12db8:	bfd1                	j	12d8c <enormlz+0x40>
   12dba:	f007f793          	andi	a5,a5,-256
   12dbe:	4401                	li	s0,0
   12dc0:	c781                	beqz	a5,12dc8 <enormlz+0x7c>
   12dc2:	b9dff0ef          	jal	ra,1295e <eshdn8>
   12dc6:	5461                	li	s0,-8
   12dc8:	f7000913          	li	s2,-144
   12dcc:	a039                	j	12dda <enormlz+0x8e>
   12dce:	8526                	mv	a0,s1
   12dd0:	347d                	addiw	s0,s0,-1
   12dd2:	b13ff0ef          	jal	ra,128e4 <eshdn1>
   12dd6:	f9244be3          	blt	s0,s2,12d6c <enormlz+0x20>
   12dda:	0044d783          	lhu	a5,4(s1)
   12dde:	fbe5                	bnez	a5,12dce <enormlz+0x82>
   12de0:	b771                	j	12d6c <enormlz+0x20>

0000000000012de2 <enan.constprop.12>:
   12de2:	01050793          	addi	a5,a0,16
   12de6:	0509                	addi	a0,a0,2
   12de8:	fe051f23          	sh	zero,-2(a0)
   12dec:	fef51de3          	bne	a0,a5,12de6 <enan.constprop.12+0x4>
   12df0:	77f1                	lui	a5,0xffffc
   12df2:	00f51023          	sh	a5,0(a0)
   12df6:	77e1                	lui	a5,0xffff8
   12df8:	fff7c793          	not	a5,a5
   12dfc:	00f51123          	sh	a5,2(a0)
   12e00:	8082                	ret

0000000000012e02 <emovo.isra.6>:
   12e02:	872a                	mv	a4,a0
   12e04:	00075683          	lhu	a3,0(a4) # 8000 <_start-0x80b0>
   12e08:	852e                	mv	a0,a1
   12e0a:	00275783          	lhu	a5,2(a4)
   12e0e:	c299                	beqz	a3,12e14 <emovo.isra.6+0x12>
   12e10:	76e1                	lui	a3,0xffff8
   12e12:	8fd5                	or	a5,a5,a3
   12e14:	00f51923          	sh	a5,18(a0)
   12e18:	00275603          	lhu	a2,2(a4)
   12e1c:	66a1                	lui	a3,0x8
   12e1e:	16fd                	addi	a3,a3,-1
   12e20:	00670793          	addi	a5,a4,6
   12e24:	00d61b63          	bne	a2,a3,12e3a <emovo.isra.6+0x38>
   12e28:	0769                	addi	a4,a4,26
   12e2a:	0007d683          	lhu	a3,0(a5) # ffffffffffff8000 <_end+0xfffffffffff37268>
   12e2e:	e28d                	bnez	a3,12e50 <emovo.isra.6+0x4e>
   12e30:	0789                	addi	a5,a5,2
   12e32:	fee79ce3          	bne	a5,a4,12e2a <emovo.isra.6+0x28>
   12e36:	e19ff06f          	j	12c4e <einfin.isra.2>
   12e3a:	0541                	addi	a0,a0,16
   12e3c:	0761                	addi	a4,a4,24
   12e3e:	0789                	addi	a5,a5,2
   12e40:	ffe7d683          	lhu	a3,-2(a5)
   12e44:	1579                	addi	a0,a0,-2
   12e46:	00d51123          	sh	a3,2(a0)
   12e4a:	fee79ae3          	bne	a5,a4,12e3e <emovo.isra.6+0x3c>
   12e4e:	8082                	ret
   12e50:	f93ff06f          	j	12de2 <enan.constprop.12>

0000000000012e54 <e113toe.isra.8>:
   12e54:	7139                	addi	sp,sp,-64
   12e56:	f426                	sd	s1,40(sp)
   12e58:	84aa                	mv	s1,a0
   12e5a:	850a                	mv	a0,sp
   12e5c:	f822                	sd	s0,48(sp)
   12e5e:	fc06                	sd	ra,56(sp)
   12e60:	842e                	mv	s0,a1
   12e62:	a2dff0ef          	jal	ra,1288e <ecleaz>
   12e66:	00e4d703          	lhu	a4,14(s1)
   12e6a:	0107179b          	slliw	a5,a4,0x10
   12e6e:	4107d79b          	sraiw	a5,a5,0x10
   12e72:	0207c763          	bltz	a5,12ea0 <e113toe.isra.8+0x4c>
   12e76:	00011023          	sh	zero,0(sp)
   12e7a:	66a1                	lui	a3,0x8
   12e7c:	16fd                	addi	a3,a3,-1
   12e7e:	8f75                	and	a4,a4,a3
   12e80:	00e48793          	addi	a5,s1,14
   12e84:	04d71a63          	bne	a4,a3,12ed8 <e113toe.isra.8+0x84>
   12e88:	8726                	mv	a4,s1
   12e8a:	00075683          	lhu	a3,0(a4)
   12e8e:	ce89                	beqz	a3,12ea8 <e113toe.isra.8+0x54>
   12e90:	8522                	mv	a0,s0
   12e92:	f51ff0ef          	jal	ra,12de2 <enan.constprop.12>
   12e96:	70e2                	ld	ra,56(sp)
   12e98:	7442                	ld	s0,48(sp)
   12e9a:	74a2                	ld	s1,40(sp)
   12e9c:	6121                	addi	sp,sp,64
   12e9e:	8082                	ret
   12ea0:	57fd                	li	a5,-1
   12ea2:	00f11023          	sh	a5,0(sp)
   12ea6:	bfd1                	j	12e7a <e113toe.isra.8+0x26>
   12ea8:	0709                	addi	a4,a4,2
   12eaa:	fee790e3          	bne	a5,a4,12e8a <e113toe.isra.8+0x36>
   12eae:	8522                	mv	a0,s0
   12eb0:	9b9ff0ef          	jal	ra,12868 <eclear>
   12eb4:	8522                	mv	a0,s0
   12eb6:	d99ff0ef          	jal	ra,12c4e <einfin.isra.2>
   12eba:	00e49783          	lh	a5,14(s1)
   12ebe:	fc07dce3          	bgez	a5,12e96 <e113toe.isra.8+0x42>
   12ec2:	8522                	mv	a0,s0
   12ec4:	be3ff0ef          	jal	ra,12aa6 <eisnan>
   12ec8:	f579                	bnez	a0,12e96 <e113toe.isra.8+0x42>
   12eca:	01245783          	lhu	a5,18(s0)
   12ece:	7761                	lui	a4,0xffff8
   12ed0:	8fb9                	xor	a5,a5,a4
   12ed2:	00f41923          	sh	a5,18(s0)
   12ed6:	b7c1                	j	12e96 <e113toe.isra.8+0x42>
   12ed8:	00e11123          	sh	a4,2(sp)
   12edc:	868a                	mv	a3,sp
   12ede:	17f9                	addi	a5,a5,-2
   12ee0:	0007d603          	lhu	a2,0(a5)
   12ee4:	0689                	addi	a3,a3,2
   12ee6:	00c69223          	sh	a2,4(a3) # 8004 <_start-0x80ac>
   12eea:	fef49ae3          	bne	s1,a5,12ede <e113toe.isra.8+0x8a>
   12eee:	eb01                	bnez	a4,12efe <e113toe.isra.8+0xaa>
   12ef0:	00011223          	sh	zero,4(sp)
   12ef4:	85a2                	mv	a1,s0
   12ef6:	850a                	mv	a0,sp
   12ef8:	f0bff0ef          	jal	ra,12e02 <emovo.isra.6>
   12efc:	bf69                	j	12e96 <e113toe.isra.8+0x42>
   12efe:	4785                	li	a5,1
   12f00:	55fd                	li	a1,-1
   12f02:	850a                	mv	a0,sp
   12f04:	00f11223          	sh	a5,4(sp)
   12f08:	d65ff0ef          	jal	ra,12c6c <eshift.part.3>
   12f0c:	b7e5                	j	12ef4 <e113toe.isra.8+0xa0>

0000000000012f0e <emdnorm>:
   12f0e:	7139                	addi	sp,sp,-64
   12f10:	f822                	sd	s0,48(sp)
   12f12:	f426                	sd	s1,40(sp)
   12f14:	f04a                	sd	s2,32(sp)
   12f16:	ec4e                	sd	s3,24(sp)
   12f18:	e852                	sd	s4,16(sp)
   12f1a:	e456                	sd	s5,8(sp)
   12f1c:	8936                	mv	s2,a3
   12f1e:	843e                	mv	s0,a5
   12f20:	fc06                	sd	ra,56(sp)
   12f22:	84aa                	mv	s1,a0
   12f24:	89ae                	mv	s3,a1
   12f26:	8a32                	mv	s4,a2
   12f28:	8aba                	mv	s5,a4
   12f2a:	e23ff0ef          	jal	ra,12d4c <enormlz>
   12f2e:	09000793          	li	a5,144
   12f32:	40a90933          	sub	s2,s2,a0
   12f36:	02a7d763          	ble	a0,a5,12f64 <emdnorm+0x56>
   12f3a:	67a1                	lui	a5,0x8
   12f3c:	17f9                	addi	a5,a5,-2
   12f3e:	2327c663          	blt	a5,s2,1316a <emdnorm+0x25c>
   12f42:	00248793          	addi	a5,s1,2
   12f46:	04e9                	addi	s1,s1,26
   12f48:	0789                	addi	a5,a5,2
   12f4a:	fe079f23          	sh	zero,-2(a5) # 7ffe <_start-0x80b2>
   12f4e:	fe979de3          	bne	a5,s1,12f48 <emdnorm+0x3a>
   12f52:	70e2                	ld	ra,56(sp)
   12f54:	7442                	ld	s0,48(sp)
   12f56:	74a2                	ld	s1,40(sp)
   12f58:	7902                	ld	s2,32(sp)
   12f5a:	69e2                	ld	s3,24(sp)
   12f5c:	6a42                	ld	s4,16(sp)
   12f5e:	6aa2                	ld	s5,8(sp)
   12f60:	6121                	addi	sp,sp,64
   12f62:	8082                	ret
   12f64:	00095d63          	bgez	s2,12f7e <emdnorm+0x70>
   12f68:	f7000793          	li	a5,-144
   12f6c:	0ef94a63          	blt	s2,a5,13060 <emdnorm+0x152>
   12f70:	0009059b          	sext.w	a1,s2
   12f74:	8526                	mv	a0,s1
   12f76:	cf7ff0ef          	jal	ra,12c6c <eshift.part.3>
   12f7a:	0e051c63          	bnez	a0,13072 <emdnorm+0x164>
   12f7e:	1a0a8a63          	beqz	s5,13132 <emdnorm+0x224>
   12f82:	4058                	lw	a4,4(s0)
   12f84:	401c                	lw	a5,0(s0)
   12f86:	04f70863          	beq	a4,a5,12fd6 <emdnorm+0xc8>
   12f8a:	01a40513          	addi	a0,s0,26
   12f8e:	901ff0ef          	jal	ra,1288e <ecleaz>
   12f92:	405c                	lw	a5,4(s0)
   12f94:	03800713          	li	a4,56
   12f98:	10e78d63          	beq	a5,a4,130b2 <emdnorm+0x1a4>
   12f9c:	0cf74d63          	blt	a4,a5,13076 <emdnorm+0x168>
   12fa0:	4761                	li	a4,24
   12fa2:	12e78e63          	beq	a5,a4,130de <emdnorm+0x1d0>
   12fa6:	03500713          	li	a4,53
   12faa:	12e78163          	beq	a5,a4,130cc <emdnorm+0x1be>
   12fae:	80010737          	lui	a4,0x80010
   12fb2:	377d                	addiw	a4,a4,-1
   12fb4:	c858                	sw	a4,20(s0)
   12fb6:	4705                	li	a4,1
   12fb8:	00e41c23          	sh	a4,24(s0)
   12fbc:	472d                	li	a4,11
   12fbe:	1702                	slli	a4,a4,0x20
   12fc0:	0731                	addi	a4,a4,12
   12fc2:	e418                	sd	a4,8(s0)
   12fc4:	4458                	lw	a4,12(s0)
   12fc6:	01845683          	lhu	a3,24(s0)
   12fca:	0721                	addi	a4,a4,8
   12fcc:	0706                	slli	a4,a4,0x1
   12fce:	9722                	add	a4,a4,s0
   12fd0:	00d71523          	sh	a3,10(a4) # ffffffff8001000a <_end+0xffffffff7ff4f272>
   12fd4:	c01c                	sw	a5,0(s0)
   12fd6:	01204f63          	bgtz	s2,12ff4 <emdnorm+0xe6>
   12fda:	4058                	lw	a4,4(s0)
   12fdc:	09000793          	li	a5,144
   12fe0:	00f70a63          	beq	a4,a5,12ff4 <emdnorm+0xe6>
   12fe4:	0184d783          	lhu	a5,24(s1)
   12fe8:	8526                	mv	a0,s1
   12fea:	8b85                	andi	a5,a5,1
   12fec:	00f9e9b3          	or	s3,s3,a5
   12ff0:	8f5ff0ef          	jal	ra,128e4 <eshdn1>
   12ff4:	4414                	lw	a3,8(s0)
   12ff6:	01445583          	lhu	a1,20(s0)
   12ffa:	4048                	lw	a0,4(s0)
   12ffc:	00169793          	slli	a5,a3,0x1
   13000:	00f48633          	add	a2,s1,a5
   13004:	00065703          	lhu	a4,0(a2)
   13008:	8f6d                	and	a4,a4,a1
   1300a:	08f00593          	li	a1,143
   1300e:	00a5c863          	blt	a1,a0,1301e <emdnorm+0x110>
   13012:	0789                	addi	a5,a5,2
   13014:	2685                	addiw	a3,a3,1
   13016:	97a6                	add	a5,a5,s1
   13018:	45b1                	li	a1,12
   1301a:	0cd5df63          	ble	a3,a1,130f8 <emdnorm+0x1ea>
   1301e:	01445783          	lhu	a5,20(s0)
   13022:	00065683          	lhu	a3,0(a2)
   13026:	fff7c793          	not	a5,a5
   1302a:	8ff5                	and	a5,a5,a3
   1302c:	00f61023          	sh	a5,0(a2)
   13030:	01645783          	lhu	a5,22(s0)
   13034:	00e7f6b3          	and	a3,a5,a4
   13038:	cee1                	beqz	a3,13110 <emdnorm+0x202>
   1303a:	00e79d63          	bne	a5,a4,13054 <emdnorm+0x146>
   1303e:	0c099763          	bnez	s3,1310c <emdnorm+0x1fe>
   13042:	445c                	lw	a5,12(s0)
   13044:	01845703          	lhu	a4,24(s0)
   13048:	0786                	slli	a5,a5,0x1
   1304a:	97a6                	add	a5,a5,s1
   1304c:	0007d783          	lhu	a5,0(a5)
   13050:	8ff9                	and	a5,a5,a4
   13052:	cfdd                	beqz	a5,13110 <emdnorm+0x202>
   13054:	85a6                	mv	a1,s1
   13056:	01a40513          	addi	a0,s0,26
   1305a:	989ff0ef          	jal	ra,129e2 <eaddm>
   1305e:	a84d                	j	13110 <emdnorm+0x202>
   13060:	00248793          	addi	a5,s1,2
   13064:	04e9                	addi	s1,s1,26
   13066:	0789                	addi	a5,a5,2
   13068:	fe079f23          	sh	zero,-2(a5)
   1306c:	fe979de3          	bne	a5,s1,13066 <emdnorm+0x158>
   13070:	b5cd                	j	12f52 <emdnorm+0x44>
   13072:	4985                	li	s3,1
   13074:	b729                	j	12f7e <emdnorm+0x70>
   13076:	04000713          	li	a4,64
   1307a:	02e78163          	beq	a5,a4,1309c <emdnorm+0x18e>
   1307e:	07100713          	li	a4,113
   13082:	f2e796e3          	bne	a5,a4,12fae <emdnorm+0xa0>
   13086:	40008737          	lui	a4,0x40008
   1308a:	377d                	addiw	a4,a4,-1
   1308c:	c858                	sw	a4,20(s0)
   1308e:	7761                	lui	a4,0xffff8
   13090:	00e41c23          	sh	a4,24(s0)
   13094:	4729                	li	a4,10
   13096:	1702                	slli	a4,a4,0x20
   13098:	0729                	addi	a4,a4,10
   1309a:	b725                	j	12fc2 <emdnorm+0xb4>
   1309c:	80010737          	lui	a4,0x80010
   130a0:	377d                	addiw	a4,a4,-1
   130a2:	c858                	sw	a4,20(s0)
   130a4:	4705                	li	a4,1
   130a6:	00e41c23          	sh	a4,24(s0)
   130aa:	470d                	li	a4,3
   130ac:	1706                	slli	a4,a4,0x21
   130ae:	071d                	addi	a4,a4,7
   130b0:	bf09                	j	12fc2 <emdnorm+0xb4>
   130b2:	00800737          	lui	a4,0x800
   130b6:	0ff7071b          	addiw	a4,a4,255
   130ba:	c858                	sw	a4,20(s0)
   130bc:	10000713          	li	a4,256
   130c0:	00e41c23          	sh	a4,24(s0)
   130c4:	4719                	li	a4,6
   130c6:	1702                	slli	a4,a4,0x20
   130c8:	0719                	addi	a4,a4,6
   130ca:	bde5                	j	12fc2 <emdnorm+0xb4>
   130cc:	04000737          	lui	a4,0x4000
   130d0:	7ff7071b          	addiw	a4,a4,2047
   130d4:	c858                	sw	a4,20(s0)
   130d6:	6705                	lui	a4,0x1
   130d8:	8007071b          	addiw	a4,a4,-2048
   130dc:	b7d5                	j	130c0 <emdnorm+0x1b2>
   130de:	00800737          	lui	a4,0x800
   130e2:	0ff7071b          	addiw	a4,a4,255
   130e6:	c858                	sw	a4,20(s0)
   130e8:	10000713          	li	a4,256
   130ec:	00e41c23          	sh	a4,24(s0)
   130f0:	4711                	li	a4,4
   130f2:	1702                	slli	a4,a4,0x20
   130f4:	0711                	addi	a4,a4,4
   130f6:	b5f1                	j	12fc2 <emdnorm+0xb4>
   130f8:	0007d503          	lhu	a0,0(a5)
   130fc:	c119                	beqz	a0,13102 <emdnorm+0x1f4>
   130fe:	00176713          	ori	a4,a4,1
   13102:	00079023          	sh	zero,0(a5)
   13106:	2685                	addiw	a3,a3,1
   13108:	0789                	addi	a5,a5,2
   1310a:	bf01                	j	1301a <emdnorm+0x10c>
   1310c:	f40a04e3          	beqz	s4,13054 <emdnorm+0x146>
   13110:	01204a63          	bgtz	s2,13124 <emdnorm+0x216>
   13114:	4058                	lw	a4,4(s0)
   13116:	09000793          	li	a5,144
   1311a:	00f70563          	beq	a4,a5,13124 <emdnorm+0x216>
   1311e:	8526                	mv	a0,s1
   13120:	ffcff0ef          	jal	ra,1291c <eshup1>
   13124:	0044d783          	lhu	a5,4(s1)
   13128:	c789                	beqz	a5,13132 <emdnorm+0x224>
   1312a:	8526                	mv	a0,s1
   1312c:	fb8ff0ef          	jal	ra,128e4 <eshdn1>
   13130:	0905                	addi	s2,s2,1
   13132:	67a1                	lui	a5,0x8
   13134:	00049c23          	sh	zero,24(s1)
   13138:	17f9                	addi	a5,a5,-2
   1313a:	0327d063          	ble	s2,a5,1315a <emdnorm+0x24c>
   1313e:	77e1                	lui	a5,0xffff8
   13140:	fff7c793          	not	a5,a5
   13144:	00f49123          	sh	a5,2(s1)
   13148:	00448793          	addi	a5,s1,4
   1314c:	04e1                	addi	s1,s1,24
   1314e:	00079023          	sh	zero,0(a5) # ffffffffffff8000 <_end+0xfffffffffff37268>
   13152:	0789                	addi	a5,a5,2
   13154:	fef49de3          	bne	s1,a5,1314e <emdnorm+0x240>
   13158:	bbed                	j	12f52 <emdnorm+0x44>
   1315a:	00095563          	bgez	s2,13164 <emdnorm+0x256>
   1315e:	00049123          	sh	zero,2(s1)
   13162:	bbc5                	j	12f52 <emdnorm+0x44>
   13164:	01249123          	sh	s2,2(s1)
   13168:	b3ed                	j	12f52 <emdnorm+0x44>
   1316a:	e00a9ce3          	bnez	s5,12f82 <emdnorm+0x74>
   1316e:	00049c23          	sh	zero,24(s1)
   13172:	b7f1                	j	1313e <emdnorm+0x230>

0000000000013174 <eiremain>:
   13174:	7139                	addi	sp,sp,-64
   13176:	e852                	sd	s4,16(sp)
   13178:	00255a03          	lhu	s4,2(a0)
   1317c:	f822                	sd	s0,48(sp)
   1317e:	842e                	mv	s0,a1
   13180:	fc06                	sd	ra,56(sp)
   13182:	f426                	sd	s1,40(sp)
   13184:	f04a                	sd	s2,32(sp)
   13186:	e456                	sd	s5,8(sp)
   13188:	e05a                	sd	s6,0(sp)
   1318a:	8932                	mv	s2,a2
   1318c:	03460b13          	addi	s6,a2,52
   13190:	ec4e                	sd	s3,24(sp)
   13192:	8aaa                	mv	s5,a0
   13194:	bb9ff0ef          	jal	ra,12d4c <enormlz>
   13198:	00245483          	lhu	s1,2(s0)
   1319c:	40aa0a33          	sub	s4,s4,a0
   131a0:	8522                	mv	a0,s0
   131a2:	babff0ef          	jal	ra,12d4c <enormlz>
   131a6:	8c89                	sub	s1,s1,a0
   131a8:	855a                	mv	a0,s6
   131aa:	ee4ff0ef          	jal	ra,1288e <ecleaz>
   131ae:	0344d363          	ble	s4,s1,131d4 <eiremain+0x60>
   131b2:	8522                	mv	a0,s0
   131b4:	7442                	ld	s0,48(sp)
   131b6:	70e2                	ld	ra,56(sp)
   131b8:	69e2                	ld	s3,24(sp)
   131ba:	6a42                	ld	s4,16(sp)
   131bc:	6aa2                	ld	s5,8(sp)
   131be:	6b02                	ld	s6,0(sp)
   131c0:	87ca                	mv	a5,s2
   131c2:	86a6                	mv	a3,s1
   131c4:	7902                	ld	s2,32(sp)
   131c6:	74a2                	ld	s1,40(sp)
   131c8:	4701                	li	a4,0
   131ca:	4601                	li	a2,0
   131cc:	4581                	li	a1,0
   131ce:	6121                	addi	sp,sp,64
   131d0:	d3fff06f          	j	12f0e <emdnorm>
   131d4:	85a2                	mv	a1,s0
   131d6:	8556                	mv	a0,s5
   131d8:	ee2ff0ef          	jal	ra,128ba <ecmpm>
   131dc:	4981                	li	s3,0
   131de:	00a04763          	bgtz	a0,131ec <eiremain+0x78>
   131e2:	85a2                	mv	a1,s0
   131e4:	8556                	mv	a0,s5
   131e6:	825ff0ef          	jal	ra,12a0a <esubm>
   131ea:	4985                	li	s3,1
   131ec:	855a                	mv	a0,s6
   131ee:	f2eff0ef          	jal	ra,1291c <eshup1>
   131f2:	04c95783          	lhu	a5,76(s2)
   131f6:	8522                	mv	a0,s0
   131f8:	14fd                	addi	s1,s1,-1
   131fa:	00f9e9b3          	or	s3,s3,a5
   131fe:	05391623          	sh	s3,76(s2)
   13202:	f1aff0ef          	jal	ra,1291c <eshup1>
   13206:	b765                	j	131ae <eiremain+0x3a>

0000000000013208 <emul>:
   13208:	7131                	addi	sp,sp,-192
   1320a:	f922                	sd	s0,176(sp)
   1320c:	f526                	sd	s1,168(sp)
   1320e:	f14a                	sd	s2,160(sp)
   13210:	ed4e                	sd	s3,152(sp)
   13212:	fd06                	sd	ra,184(sp)
   13214:	e952                	sd	s4,144(sp)
   13216:	e556                	sd	s5,136(sp)
   13218:	e15a                	sd	s6,128(sp)
   1321a:	fcde                	sd	s7,120(sp)
   1321c:	f8e2                	sd	s8,112(sp)
   1321e:	f4e6                	sd	s9,104(sp)
   13220:	84aa                	mv	s1,a0
   13222:	842e                	mv	s0,a1
   13224:	8932                	mv	s2,a2
   13226:	89b6                	mv	s3,a3
   13228:	87fff0ef          	jal	ra,12aa6 <eisnan>
   1322c:	c115                	beqz	a0,13250 <emul+0x48>
   1322e:	85ca                	mv	a1,s2
   13230:	8526                	mv	a0,s1
   13232:	e46ff0ef          	jal	ra,12878 <emov>
   13236:	70ea                	ld	ra,184(sp)
   13238:	744a                	ld	s0,176(sp)
   1323a:	74aa                	ld	s1,168(sp)
   1323c:	790a                	ld	s2,160(sp)
   1323e:	69ea                	ld	s3,152(sp)
   13240:	6a4a                	ld	s4,144(sp)
   13242:	6aaa                	ld	s5,136(sp)
   13244:	6b0a                	ld	s6,128(sp)
   13246:	7be6                	ld	s7,120(sp)
   13248:	7c46                	ld	s8,112(sp)
   1324a:	7ca6                	ld	s9,104(sp)
   1324c:	6129                	addi	sp,sp,192
   1324e:	8082                	ret
   13250:	8522                	mv	a0,s0
   13252:	855ff0ef          	jal	ra,12aa6 <eisnan>
   13256:	c501                	beqz	a0,1325e <emul+0x56>
   13258:	85ca                	mv	a1,s2
   1325a:	8522                	mv	a0,s0
   1325c:	bfd9                	j	13232 <emul+0x2a>
   1325e:	8526                	mv	a0,s1
   13260:	9cbff0ef          	jal	ra,12c2a <eisinf>
   13264:	e521                	bnez	a0,132ac <emul+0xa4>
   13266:	8522                	mv	a0,s0
   13268:	9c3ff0ef          	jal	ra,12c2a <eisinf>
   1326c:	c901                	beqz	a0,1327c <emul+0x74>
   1326e:	65e9                	lui	a1,0x1a
   13270:	0c858593          	addi	a1,a1,200 # 1a0c8 <ezero>
   13274:	8526                	mv	a0,s1
   13276:	911ff0ef          	jal	ra,12b86 <ecmp>
   1327a:	c121                	beqz	a0,132ba <emul+0xb2>
   1327c:	8526                	mv	a0,s1
   1327e:	9adff0ef          	jal	ra,12c2a <eisinf>
   13282:	e509                	bnez	a0,1328c <emul+0x84>
   13284:	8522                	mv	a0,s0
   13286:	9a5ff0ef          	jal	ra,12c2a <eisinf>
   1328a:	cd1d                	beqz	a0,132c8 <emul+0xc0>
   1328c:	8526                	mv	a0,s1
   1328e:	83fff0ef          	jal	ra,12acc <eisneg>
   13292:	84aa                	mv	s1,a0
   13294:	8522                	mv	a0,s0
   13296:	837ff0ef          	jal	ra,12acc <eisneg>
   1329a:	02a48463          	beq	s1,a0,132c2 <emul+0xba>
   1329e:	77e1                	lui	a5,0xffff8
   132a0:	00f91923          	sh	a5,18(s2)
   132a4:	854a                	mv	a0,s2
   132a6:	9a9ff0ef          	jal	ra,12c4e <einfin.isra.2>
   132aa:	b771                	j	13236 <emul+0x2e>
   132ac:	65e9                	lui	a1,0x1a
   132ae:	0c858593          	addi	a1,a1,200 # 1a0c8 <ezero>
   132b2:	8522                	mv	a0,s0
   132b4:	8d3ff0ef          	jal	ra,12b86 <ecmp>
   132b8:	f55d                	bnez	a0,13266 <emul+0x5e>
   132ba:	854a                	mv	a0,s2
   132bc:	b27ff0ef          	jal	ra,12de2 <enan.constprop.12>
   132c0:	bf9d                	j	13236 <emul+0x2e>
   132c2:	00091923          	sh	zero,18(s2)
   132c6:	bff9                	j	132a4 <emul+0x9c>
   132c8:	8526                	mv	a0,s1
   132ca:	858a                	mv	a1,sp
   132cc:	821ff0ef          	jal	ra,12aec <emovi>
   132d0:	8522                	mv	a0,s0
   132d2:	100c                	addi	a1,sp,32
   132d4:	819ff0ef          	jal	ra,12aec <emovi>
   132d8:	00215403          	lhu	s0,2(sp)
   132dc:	02215483          	lhu	s1,34(sp)
   132e0:	ec09                	bnez	s0,132fa <emul+0xf2>
   132e2:	4781                	li	a5,0
   132e4:	4759                	li	a4,22
   132e6:	00f106b3          	add	a3,sp,a5
   132ea:	0026d683          	lhu	a3,2(a3)
   132ee:	c6e9                	beqz	a3,133b8 <emul+0x1b0>
   132f0:	850a                	mv	a0,sp
   132f2:	a5bff0ef          	jal	ra,12d4c <enormlz>
   132f6:	40a00433          	neg	s0,a0
   132fa:	02215783          	lhu	a5,34(sp)
   132fe:	8c26                	mv	s8,s1
   13300:	ef81                	bnez	a5,13318 <emul+0x110>
   13302:	4759                	li	a4,22
   13304:	1014                	addi	a3,sp,32
   13306:	96be                	add	a3,a3,a5
   13308:	0026d683          	lhu	a3,2(a3)
   1330c:	cecd                	beqz	a3,133c6 <emul+0x1be>
   1330e:	1008                	addi	a0,sp,32
   13310:	a3dff0ef          	jal	ra,12d4c <enormlz>
   13314:	40a48c33          	sub	s8,s1,a0
   13318:	02015783          	lhu	a5,32(sp)
   1331c:	03498b93          	addi	s7,s3,52
   13320:	03898493          	addi	s1,s3,56
   13324:	02f99a23          	sh	a5,52(s3)
   13328:	02215783          	lhu	a5,34(sp)
   1332c:	8a5e                	mv	s4,s7
   1332e:	02f99b23          	sh	a5,54(s3)
   13332:	04e98793          	addi	a5,s3,78
   13336:	00049023          	sh	zero,0(s1)
   1333a:	0489                	addi	s1,s1,2
   1333c:	fe979de3          	bne	a5,s1,13336 <emul+0x12e>
   13340:	4a81                	li	s5,0
   13342:	4b01                	li	s6,0
   13344:	5cb1                	li	s9,-20
   13346:	015107b3          	add	a5,sp,s5
   1334a:	0187d503          	lhu	a0,24(a5) # ffffffffffff8018 <_end+0xfffffffffff37280>
   1334e:	c909                	beqz	a0,13360 <emul+0x158>
   13350:	100c                	addi	a1,sp,32
   13352:	0090                	addi	a2,sp,64
   13354:	edeff0ef          	jal	ra,12a32 <m16m>
   13358:	85de                	mv	a1,s7
   1335a:	0088                	addi	a0,sp,64
   1335c:	e86ff0ef          	jal	ra,129e2 <eaddm>
   13360:	04c9d783          	lhu	a5,76(s3)
   13364:	855e                	mv	a0,s7
   13366:	1af9                	addi	s5,s5,-2
   13368:	00fb6b33          	or	s6,s6,a5
   1336c:	e54ff0ef          	jal	ra,129c0 <eshdn6>
   13370:	fd9a9be3          	bne	s5,s9,13346 <emul+0x13e>
   13374:	101c                	addi	a5,sp,32
   13376:	000a5703          	lhu	a4,0(s4)
   1337a:	0a09                	addi	s4,s4,2
   1337c:	0789                	addi	a5,a5,2
   1337e:	fee79f23          	sh	a4,-2(a5)
   13382:	fe9a1ae3          	bne	s4,s1,13376 <emul+0x16e>
   13386:	76f1                	lui	a3,0xffffc
   13388:	9462                	add	s0,s0,s8
   1338a:	0689                	addi	a3,a3,2
   1338c:	87ce                	mv	a5,s3
   1338e:	04000713          	li	a4,64
   13392:	96a2                	add	a3,a3,s0
   13394:	4601                	li	a2,0
   13396:	85da                	mv	a1,s6
   13398:	1008                	addi	a0,sp,32
   1339a:	b75ff0ef          	jal	ra,12f0e <emdnorm>
   1339e:	00015703          	lhu	a4,0(sp)
   133a2:	02015783          	lhu	a5,32(sp)
   133a6:	02f71463          	bne	a4,a5,133ce <emul+0x1c6>
   133aa:	02011023          	sh	zero,32(sp)
   133ae:	85ca                	mv	a1,s2
   133b0:	1008                	addi	a0,sp,32
   133b2:	a51ff0ef          	jal	ra,12e02 <emovo.isra.6>
   133b6:	b541                	j	13236 <emul+0x2e>
   133b8:	0789                	addi	a5,a5,2
   133ba:	f2e796e3          	bne	a5,a4,132e6 <emul+0xde>
   133be:	854a                	mv	a0,s2
   133c0:	ca8ff0ef          	jal	ra,12868 <eclear>
   133c4:	bd8d                	j	13236 <emul+0x2e>
   133c6:	0789                	addi	a5,a5,2
   133c8:	f2e79ee3          	bne	a5,a4,13304 <emul+0xfc>
   133cc:	bfcd                	j	133be <emul+0x1b6>
   133ce:	57fd                	li	a5,-1
   133d0:	02f11023          	sh	a5,32(sp)
   133d4:	bfe9                	j	133ae <emul+0x1a6>

00000000000133d6 <ediv>:
   133d6:	7131                	addi	sp,sp,-192
   133d8:	f922                	sd	s0,176(sp)
   133da:	f526                	sd	s1,168(sp)
   133dc:	f14a                	sd	s2,160(sp)
   133de:	e556                	sd	s5,136(sp)
   133e0:	fd06                	sd	ra,184(sp)
   133e2:	ed4e                	sd	s3,152(sp)
   133e4:	e952                	sd	s4,144(sp)
   133e6:	e15a                	sd	s6,128(sp)
   133e8:	fcde                	sd	s7,120(sp)
   133ea:	f8e2                	sd	s8,112(sp)
   133ec:	f4e6                	sd	s9,104(sp)
   133ee:	f0ea                	sd	s10,96(sp)
   133f0:	84aa                	mv	s1,a0
   133f2:	842e                	mv	s0,a1
   133f4:	8932                	mv	s2,a2
   133f6:	8ab6                	mv	s5,a3
   133f8:	eaeff0ef          	jal	ra,12aa6 <eisnan>
   133fc:	c11d                	beqz	a0,13422 <ediv+0x4c>
   133fe:	85ca                	mv	a1,s2
   13400:	8526                	mv	a0,s1
   13402:	c76ff0ef          	jal	ra,12878 <emov>
   13406:	70ea                	ld	ra,184(sp)
   13408:	744a                	ld	s0,176(sp)
   1340a:	74aa                	ld	s1,168(sp)
   1340c:	790a                	ld	s2,160(sp)
   1340e:	69ea                	ld	s3,152(sp)
   13410:	6a4a                	ld	s4,144(sp)
   13412:	6aaa                	ld	s5,136(sp)
   13414:	6b0a                	ld	s6,128(sp)
   13416:	7be6                	ld	s7,120(sp)
   13418:	7c46                	ld	s8,112(sp)
   1341a:	7ca6                	ld	s9,104(sp)
   1341c:	7d06                	ld	s10,96(sp)
   1341e:	6129                	addi	sp,sp,192
   13420:	8082                	ret
   13422:	8522                	mv	a0,s0
   13424:	e82ff0ef          	jal	ra,12aa6 <eisnan>
   13428:	c501                	beqz	a0,13430 <ediv+0x5a>
   1342a:	85ca                	mv	a1,s2
   1342c:	8522                	mv	a0,s0
   1342e:	bfd1                	j	13402 <ediv+0x2c>
   13430:	69e9                	lui	s3,0x1a
   13432:	0c898593          	addi	a1,s3,200 # 1a0c8 <ezero>
   13436:	8526                	mv	a0,s1
   13438:	f4eff0ef          	jal	ra,12b86 <ecmp>
   1343c:	16050763          	beqz	a0,135aa <ediv+0x1d4>
   13440:	8526                	mv	a0,s1
   13442:	fe8ff0ef          	jal	ra,12c2a <eisinf>
   13446:	89aa                	mv	s3,a0
   13448:	8522                	mv	a0,s0
   1344a:	fe0ff0ef          	jal	ra,12c2a <eisinf>
   1344e:	16099963          	bnez	s3,135c0 <ediv+0x1ea>
   13452:	16051c63          	bnez	a0,135ca <ediv+0x1f4>
   13456:	8526                	mv	a0,s1
   13458:	858a                	mv	a1,sp
   1345a:	e92ff0ef          	jal	ra,12aec <emovi>
   1345e:	8522                	mv	a0,s0
   13460:	100c                	addi	a1,sp,32
   13462:	e8aff0ef          	jal	ra,12aec <emovi>
   13466:	02215483          	lhu	s1,34(sp)
   1346a:	00215403          	lhu	s0,2(sp)
   1346e:	ec91                	bnez	s1,1348a <ediv+0xb4>
   13470:	4781                	li	a5,0
   13472:	4759                	li	a4,22
   13474:	1014                	addi	a3,sp,32
   13476:	96be                	add	a3,a3,a5
   13478:	0026d683          	lhu	a3,2(a3) # ffffffffffffc002 <_end+0xfffffffffff3b26a>
   1347c:	16068763          	beqz	a3,135ea <ediv+0x214>
   13480:	1008                	addi	a0,sp,32
   13482:	8cbff0ef          	jal	ra,12d4c <enormlz>
   13486:	40a004b3          	neg	s1,a0
   1348a:	00215783          	lhu	a5,2(sp)
   1348e:	8ba2                	mv	s7,s0
   13490:	ef89                	bnez	a5,134aa <ediv+0xd4>
   13492:	4759                	li	a4,22
   13494:	00f106b3          	add	a3,sp,a5
   13498:	0026d683          	lhu	a3,2(a3)
   1349c:	14068b63          	beqz	a3,135f2 <ediv+0x21c>
   134a0:	850a                	mv	a0,sp
   134a2:	8abff0ef          	jal	ra,12d4c <enormlz>
   134a6:	40a40bb3          	sub	s7,s0,a0
   134aa:	02015783          	lhu	a5,32(sp)
   134ae:	02215703          	lhu	a4,34(sp)
   134b2:	034a8993          	addi	s3,s5,52
   134b6:	02fa9a23          	sh	a5,52(s5)
   134ba:	038a8793          	addi	a5,s5,56
   134be:	02ea9b23          	sh	a4,54(s5)
   134c2:	8a3e                	mv	s4,a5
   134c4:	04ea8713          	addi	a4,s5,78
   134c8:	0789                	addi	a5,a5,2
   134ca:	fe079f23          	sh	zero,-2(a5)
   134ce:	fee79de3          	bne	a5,a4,134c8 <ediv+0xf2>
   134d2:	1008                	addi	a0,sp,32
   134d4:	c10ff0ef          	jal	ra,128e4 <eshdn1>
   134d8:	00615c03          	lhu	s8,6(sp)
   134dc:	6b41                	lui	s6,0x10
   134de:	1b7d                	addi	s6,s6,-1
   134e0:	036c0d33          	mul	s10,s8,s6
   134e4:	01a98c93          	addi	s9,s3,26
   134e8:	02415783          	lhu	a5,36(sp)
   134ec:	02615403          	lhu	s0,38(sp)
   134f0:	07c2                	slli	a5,a5,0x10
   134f2:	97a2                	add	a5,a5,s0
   134f4:	845a                	mv	s0,s6
   134f6:	00fd6663          	bltu	s10,a5,13502 <ediv+0x12c>
   134fa:	0387d433          	divu	s0,a5,s8
   134fe:	1442                	slli	s0,s0,0x30
   13500:	9041                	srli	s0,s0,0x30
   13502:	858a                	mv	a1,sp
   13504:	8522                	mv	a0,s0
   13506:	0090                	addi	a2,sp,64
   13508:	d2aff0ef          	jal	ra,12a32 <m16m>
   1350c:	100c                	addi	a1,sp,32
   1350e:	0088                	addi	a0,sp,64
   13510:	baaff0ef          	jal	ra,128ba <ecmpm>
   13514:	00a05f63          	blez	a0,13532 <ediv+0x15c>
   13518:	008c                	addi	a1,sp,64
   1351a:	850a                	mv	a0,sp
   1351c:	ceeff0ef          	jal	ra,12a0a <esubm>
   13520:	100c                	addi	a1,sp,32
   13522:	0088                	addi	a0,sp,64
   13524:	b96ff0ef          	jal	ra,128ba <ecmpm>
   13528:	0ea04163          	bgtz	a0,1360a <ediv+0x234>
   1352c:	347d                	addiw	s0,s0,-1
   1352e:	1442                	slli	s0,s0,0x30
   13530:	9041                	srli	s0,s0,0x30
   13532:	100c                	addi	a1,sp,32
   13534:	0088                	addi	a0,sp,64
   13536:	cd4ff0ef          	jal	ra,12a0a <esubm>
   1353a:	1008                	addi	a0,sp,32
   1353c:	008a1023          	sh	s0,0(s4)
   13540:	0a09                	addi	s4,s4,2
   13542:	c62ff0ef          	jal	ra,129a4 <eshup6>
   13546:	fb9a11e3          	bne	s4,s9,134e8 <ediv+0x112>
   1354a:	4781                	li	a5,0
   1354c:	4581                	li	a1,0
   1354e:	4759                	li	a4,22
   13550:	1014                	addi	a3,sp,32
   13552:	96be                	add	a3,a3,a5
   13554:	0046d683          	lhu	a3,4(a3)
   13558:	0789                	addi	a5,a5,2
   1355a:	8dd5                	or	a1,a1,a3
   1355c:	fee79ae3          	bne	a5,a4,13550 <ediv+0x17a>
   13560:	2581                	sext.w	a1,a1
   13562:	00b035b3          	snez	a1,a1
   13566:	101c                	addi	a5,sp,32
   13568:	0009d703          	lhu	a4,0(s3)
   1356c:	0989                	addi	s3,s3,2
   1356e:	0789                	addi	a5,a5,2
   13570:	fee79f23          	sh	a4,-2(a5)
   13574:	ff3a1ae3          	bne	s4,s3,13568 <ediv+0x192>
   13578:	6691                	lui	a3,0x4
   1357a:	417484b3          	sub	s1,s1,s7
   1357e:	16fd                	addi	a3,a3,-1
   13580:	87d6                	mv	a5,s5
   13582:	04000713          	li	a4,64
   13586:	96a6                	add	a3,a3,s1
   13588:	4601                	li	a2,0
   1358a:	1008                	addi	a0,sp,32
   1358c:	983ff0ef          	jal	ra,12f0e <emdnorm>
   13590:	00015703          	lhu	a4,0(sp)
   13594:	02015783          	lhu	a5,32(sp)
   13598:	08f71163          	bne	a4,a5,1361a <ediv+0x244>
   1359c:	02011023          	sh	zero,32(sp)
   135a0:	85ca                	mv	a1,s2
   135a2:	1008                	addi	a0,sp,32
   135a4:	85fff0ef          	jal	ra,12e02 <emovo.isra.6>
   135a8:	bdb9                	j	13406 <ediv+0x30>
   135aa:	0c898593          	addi	a1,s3,200
   135ae:	8522                	mv	a0,s0
   135b0:	dd6ff0ef          	jal	ra,12b86 <ecmp>
   135b4:	e80516e3          	bnez	a0,13440 <ediv+0x6a>
   135b8:	854a                	mv	a0,s2
   135ba:	829ff0ef          	jal	ra,12de2 <enan.constprop.12>
   135be:	b5a1                	j	13406 <ediv+0x30>
   135c0:	fd65                	bnez	a0,135b8 <ediv+0x1e2>
   135c2:	854a                	mv	a0,s2
   135c4:	aa4ff0ef          	jal	ra,12868 <eclear>
   135c8:	bd3d                	j	13406 <ediv+0x30>
   135ca:	8526                	mv	a0,s1
   135cc:	d00ff0ef          	jal	ra,12acc <eisneg>
   135d0:	84aa                	mv	s1,a0
   135d2:	8522                	mv	a0,s0
   135d4:	cf8ff0ef          	jal	ra,12acc <eisneg>
   135d8:	02a48663          	beq	s1,a0,13604 <ediv+0x22e>
   135dc:	77e1                	lui	a5,0xffff8
   135de:	00f91923          	sh	a5,18(s2)
   135e2:	854a                	mv	a0,s2
   135e4:	e6aff0ef          	jal	ra,12c4e <einfin.isra.2>
   135e8:	bd39                	j	13406 <ediv+0x30>
   135ea:	0789                	addi	a5,a5,2
   135ec:	e8e794e3          	bne	a5,a4,13474 <ediv+0x9e>
   135f0:	bfc9                	j	135c2 <ediv+0x1ec>
   135f2:	0789                	addi	a5,a5,2
   135f4:	eae790e3          	bne	a5,a4,13494 <ediv+0xbe>
   135f8:	00015703          	lhu	a4,0(sp)
   135fc:	02015783          	lhu	a5,32(sp)
   13600:	fcf71ee3          	bne	a4,a5,135dc <ediv+0x206>
   13604:	00091923          	sh	zero,18(s2)
   13608:	bfe9                	j	135e2 <ediv+0x20c>
   1360a:	3479                	addiw	s0,s0,-2
   1360c:	1442                	slli	s0,s0,0x30
   1360e:	008c                	addi	a1,sp,64
   13610:	850a                	mv	a0,sp
   13612:	9041                	srli	s0,s0,0x30
   13614:	bf6ff0ef          	jal	ra,12a0a <esubm>
   13618:	bf29                	j	13532 <ediv+0x15c>
   1361a:	57fd                	li	a5,-1
   1361c:	02f11023          	sh	a5,32(sp)
   13620:	b741                	j	135a0 <ediv+0x1ca>

0000000000013622 <_ldtoa_r>:
   13622:	db010113          	addi	sp,sp,-592
   13626:	ffe6                	sd	s9,504(sp)
   13628:	8cbe                	mv	s9,a5
   1362a:	09100793          	li	a5,145
   1362e:	e0ae                	sd	a1,64(sp)
   13630:	1782                	slli	a5,a5,0x20
   13632:	712c                	ld	a1,96(a0)
   13634:	17fd                	addi	a5,a5,-1
   13636:	24813023          	sd	s0,576(sp)
   1363a:	23413023          	sd	s4,544(sp)
   1363e:	21513c23          	sd	s5,536(sp)
   13642:	21713423          	sd	s7,520(sp)
   13646:	24113423          	sd	ra,584(sp)
   1364a:	22913c23          	sd	s1,568(sp)
   1364e:	23213823          	sd	s2,560(sp)
   13652:	23313423          	sd	s3,552(sp)
   13656:	21613823          	sd	s6,528(sp)
   1365a:	21813023          	sd	s8,512(sp)
   1365e:	fbea                	sd	s10,496(sp)
   13660:	f7ee                	sd	s11,488(sp)
   13662:	ec46                	sd	a7,24(sp)
   13664:	e4b2                	sd	a2,72(sp)
   13666:	eb3e                	sd	a5,400(sp)
   13668:	8a2a                	mv	s4,a0
   1366a:	8bb6                	mv	s7,a3
   1366c:	8aba                	mv	s5,a4
   1366e:	8442                	mv	s0,a6
   13670:	c999                	beqz	a1,13686 <_ldtoa_r+0x64>
   13672:	5538                	lw	a4,104(a0)
   13674:	4785                	li	a5,1
   13676:	00e797bb          	sllw	a5,a5,a4
   1367a:	c598                	sw	a4,8(a1)
   1367c:	c5dc                	sw	a5,12(a1)
   1367e:	15a010ef          	jal	ra,147d8 <_Bfree>
   13682:	060a3023          	sd	zero,96(s4)
   13686:	0088                	addi	a0,sp,64
   13688:	188c                	addi	a1,sp,112
   1368a:	fcaff0ef          	jal	ra,12e54 <e113toe.isra.8>
   1368e:	1888                	addi	a0,sp,112
   13690:	c3cff0ef          	jal	ra,12acc <eisneg>
   13694:	cd4d                	beqz	a0,1374e <_ldtoa_r+0x12c>
   13696:	4785                	li	a5,1
   13698:	c01c                	sw	a5,0(s0)
   1369a:	478d                	li	a5,3
   1369c:	0afb8c63          	beq	s7,a5,13754 <_ldtoa_r+0x132>
   136a0:	4951                	li	s2,20
   136a2:	000b8c63          	beqz	s7,136ba <_ldtoa_r+0x98>
   136a6:	fffa879b          	addiw	a5,s5,-1
   136aa:	02a00713          	li	a4,42
   136ae:	0007891b          	sext.w	s2,a5
   136b2:	00f75463          	ble	a5,a4,136ba <_ldtoa_r+0x98>
   136b6:	02a00913          	li	s2,42
   136ba:	19412783          	lw	a5,404(sp)
   136be:	1888                	addi	a0,sp,112
   136c0:	f03e                	sd	a5,32(sp)
   136c2:	be4ff0ef          	jal	ra,12aa6 <eisnan>
   136c6:	842a                	mv	s0,a0
   136c8:	c941                	beqz	a0,13758 <_ldtoa_r+0x136>
   136ca:	0001a5b7          	lui	a1,0x1a
   136ce:	33058593          	addi	a1,a1,816 # 1a330 <emtens+0x108>
   136d2:	0a88                	addi	a0,sp,336
   136d4:	6409                	lui	s0,0x2
   136d6:	767010ef          	jal	ra,1563c <sprintf>
   136da:	70f40413          	addi	s0,s0,1807 # 270f <_start-0xd9a1>
   136de:	5782                	lw	a5,32(sp)
   136e0:	1888                	addi	a0,sp,112
   136e2:	1a812023          	sw	s0,416(sp)
   136e6:	18f12a23          	sw	a5,404(sp)
   136ea:	d40ff0ef          	jal	ra,12c2a <eisinf>
   136ee:	15010993          	addi	s3,sp,336
   136f2:	e511                	bnez	a0,136fe <_ldtoa_r+0xdc>
   136f4:	1888                	addi	a0,sp,112
   136f6:	bb0ff0ef          	jal	ra,12aa6 <eisnan>
   136fa:	6e050e63          	beqz	a0,13df6 <_ldtoa_r+0x7d4>
   136fe:	6789                	lui	a5,0x2
   13700:	70f7879b          	addiw	a5,a5,1807
   13704:	00fca023          	sw	a5,0(s9)
   13708:	87ce                	mv	a5,s3
   1370a:	02000613          	li	a2,32
   1370e:	02d00693          	li	a3,45
   13712:	0007c703          	lbu	a4,0(a5) # 2000 <_start-0xe0b0>
   13716:	72c70463          	beq	a4,a2,13e3e <_ldtoa_r+0x81c>
   1371a:	72d70263          	beq	a4,a3,13e3e <_ldtoa_r+0x81c>
   1371e:	844e                	mv	s0,s3
   13720:	0785                	addi	a5,a5,1
   13722:	fff7c703          	lbu	a4,-1(a5)
   13726:	00140693          	addi	a3,s0,1
   1372a:	fee68fa3          	sb	a4,-1(a3) # 3fff <_start-0xc0b1>
   1372e:	70071b63          	bnez	a4,13e44 <_ldtoa_r+0x822>
   13732:	4709                	li	a4,2
   13734:	4785                	li	a5,1
   13736:	00eb8863          	beq	s7,a4,13746 <_ldtoa_r+0x124>
   1373a:	1a012783          	lw	a5,416(sp)
   1373e:	0127d363          	ble	s2,a5,13744 <_ldtoa_r+0x122>
   13742:	87ca                	mv	a5,s2
   13744:	2781                	sext.w	a5,a5
   13746:	03000693          	li	a3,48
   1374a:	7060006f          	j	13e50 <_ldtoa_r+0x82e>
   1374e:	00042023          	sw	zero,0(s0)
   13752:	b7a1                	j	1369a <_ldtoa_r+0x78>
   13754:	87d6                	mv	a5,s5
   13756:	bf91                	j	136aa <_ldtoa_r+0x88>
   13758:	09000793          	li	a5,144
   1375c:	090c                	addi	a1,sp,144
   1375e:	1888                	addi	a0,sp,112
   13760:	18f12a23          	sw	a5,404(sp)
   13764:	914ff0ef          	jal	ra,12878 <emov>
   13768:	0a215783          	lhu	a5,162(sp)
   1376c:	e402                	sd	zero,8(sp)
   1376e:	0107971b          	slliw	a4,a5,0x10
   13772:	4107571b          	sraiw	a4,a4,0x10
   13776:	00075a63          	bgez	a4,1378a <_ldtoa_r+0x168>
   1377a:	6721                	lui	a4,0x8
   1377c:	177d                	addi	a4,a4,-1
   1377e:	8ff9                	and	a5,a5,a4
   13780:	0af11123          	sh	a5,162(sp)
   13784:	67c1                	lui	a5,0x10
   13786:	17fd                	addi	a5,a5,-1
   13788:	e43e                	sd	a5,8(sp)
   1378a:	6b69                	lui	s6,0x1a
   1378c:	0c8b0513          	addi	a0,s6,200 # 1a0c8 <ezero>
   13790:	190c                	addi	a1,sp,176
   13792:	0561                	addi	a0,a0,24
   13794:	8e4ff0ef          	jal	ra,12878 <emov>
   13798:	0a215703          	lhu	a4,162(sp)
   1379c:	64e9                	lui	s1,0x1a
   1379e:	0c8b0993          	addi	s3,s6,200
   137a2:	0e048493          	addi	s1,s1,224 # 1a0e0 <eone>
   137a6:	74071963          	bnez	a4,13ef8 <_ldtoa_r+0x8d6>
   137aa:	091c                	addi	a5,sp,144
   137ac:	0a210713          	addi	a4,sp,162
   137b0:	0007d683          	lhu	a3,0(a5) # 10000 <_start-0xb0>
   137b4:	e6e1                	bnez	a3,1387c <_ldtoa_r+0x25a>
   137b6:	0789                	addi	a5,a5,2
   137b8:	fef71ce3          	bne	a4,a5,137b0 <_ldtoa_r+0x18e>
   137bc:	198c                	addi	a1,sp,240
   137be:	1908                	addi	a0,sp,176
   137c0:	b2cff0ef          	jal	ra,12aec <emovi>
   137c4:	190c                	addi	a1,sp,176
   137c6:	1988                	addi	a0,sp,240
   137c8:	8d6ff0ef          	jal	ra,1289e <emovz>
   137cc:	198c                	addi	a1,sp,240
   137ce:	0908                	addi	a0,sp,144
   137d0:	b1cff0ef          	jal	ra,12aec <emovi>
   137d4:	090c                	addi	a1,sp,144
   137d6:	1988                	addi	a0,sp,240
   137d8:	8c6ff0ef          	jal	ra,1289e <emovz>
   137dc:	0b10                	addi	a2,sp,400
   137de:	090c                	addi	a1,sp,144
   137e0:	1908                	addi	a0,sp,176
   137e2:	993ff0ef          	jal	ra,13174 <eiremain>
   137e6:	1dc15483          	lhu	s1,476(sp)
   137ea:	e881                	bnez	s1,137fa <_ldtoa_r+0x1d8>
   137ec:	0c8b0593          	addi	a1,s6,200
   137f0:	0908                	addi	a0,sp,144
   137f2:	b94ff0ef          	jal	ra,12b86 <ecmp>
   137f6:	4c051463          	bnez	a0,13cbe <_ldtoa_r+0x69c>
   137fa:	67a2                	ld	a5,8(sp)
   137fc:	4e078b63          	beqz	a5,13cf2 <_ldtoa_r+0x6d0>
   13800:	02d00793          	li	a5,45
   13804:	14f10823          	sb	a5,336(sp)
   13808:	478d                	li	a5,3
   1380a:	89ca                	mv	s3,s2
   1380c:	00fb9863          	bne	s7,a5,1381c <_ldtoa_r+0x1fa>
   13810:	008909bb          	addw	s3,s2,s0
   13814:	02a00793          	li	a5,42
   13818:	6f37cd63          	blt	a5,s3,13f12 <_ldtoa_r+0x8f0>
   1381c:	47a9                	li	a5,10
   1381e:	4cf49d63          	bne	s1,a5,13cf8 <_ldtoa_r+0x6d6>
   13822:	03100793          	li	a5,49
   13826:	14f108a3          	sb	a5,337(sp)
   1382a:	02e00793          	li	a5,46
   1382e:	14f10923          	sb	a5,338(sp)
   13832:	15310c13          	addi	s8,sp,339
   13836:	01305963          	blez	s3,13848 <_ldtoa_r+0x226>
   1383a:	03000793          	li	a5,48
   1383e:	14f109a3          	sb	a5,339(sp)
   13842:	39fd                	addiw	s3,s3,-1
   13844:	15410c13          	addi	s8,sp,340
   13848:	2405                	addiw	s0,s0,1
   1384a:	4c09d163          	bgez	s3,13d0c <_ldtoa_r+0x6ea>
   1384e:	0001a5b7          	lui	a1,0x1a
   13852:	8622                	mv	a2,s0
   13854:	36058593          	addi	a1,a1,864 # 1a360 <emtens+0x138>
   13858:	8562                	mv	a0,s8
   1385a:	5e3010ef          	jal	ra,1563c <sprintf>
   1385e:	b541                	j	136de <_ldtoa_r+0xbc>
   13860:	0001a5b7          	lui	a1,0x1a
   13864:	34858593          	addi	a1,a1,840 # 1a348 <emtens+0x120>
   13868:	b5ad                	j	136d2 <_ldtoa_r+0xb0>
   1386a:	0a011783          	lh	a5,160(sp)
   1386e:	0007c763          	bltz	a5,1387c <_ldtoa_r+0x25a>
   13872:	0001a5b7          	lui	a1,0x1a
   13876:	35858593          	addi	a1,a1,856 # 1a358 <emtens+0x130>
   1387a:	bda1                	j	136d2 <_ldtoa_r+0xb0>
   1387c:	090c                	addi	a1,sp,144
   1387e:	8526                	mv	a0,s1
   13880:	b06ff0ef          	jal	ra,12b86 <ecmp>
   13884:	dd05                	beqz	a0,137bc <_ldtoa_r+0x19a>
   13886:	32055063          	bgez	a0,13ba6 <_ldtoa_r+0x584>
   1388a:	098c                	addi	a1,sp,208
   1388c:	0908                	addi	a0,sp,144
   1388e:	febfe0ef          	jal	ra,12878 <emov>
   13892:	6791                	lui	a5,0x4
   13894:	08e7879b          	addiw	a5,a5,142
   13898:	0ef11123          	sh	a5,226(sp)
   1389c:	47c1                	li	a5,16
   1389e:	e83e                	sd	a5,16(sp)
   138a0:	67a1                	lui	a5,0x8
   138a2:	17fd                	addi	a5,a5,-1
   138a4:	f43e                	sd	a5,40(sp)
   138a6:	77f1                	lui	a5,0xffffc
   138a8:	2789                	addiw	a5,a5,2
   138aa:	4d01                	li	s10,0
   138ac:	da3e                	sw	a5,52(sp)
   138ae:	67e9                	lui	a5,0x1a
   138b0:	19878793          	addi	a5,a5,408 # 1a198 <etens+0xa0>
   138b4:	01a78533          	add	a0,a5,s10
   138b8:	0b14                	addi	a3,sp,400
   138ba:	1910                	addi	a2,sp,176
   138bc:	098c                	addi	a1,sp,208
   138be:	b19ff0ef          	jal	ra,133d6 <ediv>
   138c2:	08ac                	addi	a1,sp,88
   138c4:	1908                	addi	a0,sp,176
   138c6:	fb3fe0ef          	jal	ra,12878 <emov>
   138ca:	77a2                	ld	a5,40(sp)
   138cc:	06a15c03          	lhu	s8,106(sp)
   138d0:	00fc76b3          	and	a3,s8,a5
   138d4:	57d2                	lw	a5,52(sp)
   138d6:	9ebd                	addw	a3,a3,a5
   138d8:	02d04f63          	bgtz	a3,13916 <_ldtoa_r+0x2f4>
   138dc:	1988                	addi	a0,sp,240
   138de:	f8bfe0ef          	jal	ra,12868 <eclear>
   138e2:	010c1c1b          	slliw	s8,s8,0x10
   138e6:	410c5c1b          	sraiw	s8,s8,0x10
   138ea:	0c0c5063          	bgez	s8,139aa <_ldtoa_r+0x388>
   138ee:	4781                	li	a5,0
   138f0:	08b8                	addi	a4,sp,88
   138f2:	973e                	add	a4,a4,a5
   138f4:	00075683          	lhu	a3,0(a4) # 8000 <_start-0x80b0>
   138f8:	1998                	addi	a4,sp,240
   138fa:	973e                	add	a4,a4,a5
   138fc:	00075703          	lhu	a4,0(a4)
   13900:	28e68e63          	beq	a3,a4,13b9c <_ldtoa_r+0x57a>
   13904:	8526                	mv	a0,s1
   13906:	9a0ff0ef          	jal	ra,12aa6 <eisnan>
   1390a:	c135                	beqz	a0,1396e <_ldtoa_r+0x34c>
   1390c:	198c                	addi	a1,sp,240
   1390e:	8526                	mv	a0,s1
   13910:	f69fe0ef          	jal	ra,12878 <emov>
   13914:	a859                	j	139aa <_ldtoa_r+0x388>
   13916:	09000793          	li	a5,144
   1391a:	40d7873b          	subw	a4,a5,a3
   1391e:	198c                	addi	a1,sp,240
   13920:	08a8                	addi	a0,sp,88
   13922:	8dba                	mv	s11,a4
   13924:	fc3a                	sd	a4,56(sp)
   13926:	f53fe0ef          	jal	ra,12878 <emov>
   1392a:	7762                	ld	a4,56(sp)
   1392c:	06e05f63          	blez	a4,139aa <_ldtoa_r+0x388>
   13930:	199c                	addi	a5,sp,240
   13932:	463d                	li	a2,15
   13934:	02e64863          	blt	a2,a4,13964 <_ldtoa_r+0x342>
   13938:	004dd61b          	srliw	a2,s11,0x4
   1393c:	02061713          	slli	a4,a2,0x20
   13940:	199c                	addi	a5,sp,240
   13942:	837d                	srli	a4,a4,0x1f
   13944:	973e                	add	a4,a4,a5
   13946:	57c1                	li	a5,-16
   13948:	02c787bb          	mulw	a5,a5,a2
   1394c:	00075683          	lhu	a3,0(a4)
   13950:	01b787bb          	addw	a5,a5,s11
   13954:	0786                	slli	a5,a5,0x1
   13956:	97ce                	add	a5,a5,s3
   13958:	1387d783          	lhu	a5,312(a5)
   1395c:	8ff5                	and	a5,a5,a3
   1395e:	00f71023          	sh	a5,0(a4)
   13962:	b741                	j	138e2 <_ldtoa_r+0x2c0>
   13964:	00079023          	sh	zero,0(a5)
   13968:	3741                	addiw	a4,a4,-16
   1396a:	0789                	addi	a5,a5,2
   1396c:	b7e1                	j	13934 <_ldtoa_r+0x312>
   1396e:	1988                	addi	a0,sp,240
   13970:	936ff0ef          	jal	ra,12aa6 <eisnan>
   13974:	c501                	beqz	a0,1397c <_ldtoa_r+0x35a>
   13976:	198c                	addi	a1,sp,240
   13978:	852e                	mv	a0,a1
   1397a:	bf59                	j	13910 <_ldtoa_r+0x2ee>
   1397c:	8526                	mv	a0,s1
   1397e:	aacff0ef          	jal	ra,12c2a <eisinf>
   13982:	8daa                	mv	s11,a0
   13984:	1988                	addi	a0,sp,240
   13986:	aa4ff0ef          	jal	ra,12c2a <eisinf>
   1398a:	8c2a                	mv	s8,a0
   1398c:	0e0d8963          	beqz	s11,13a7e <_ldtoa_r+0x45c>
   13990:	c961                	beqz	a0,13a60 <_ldtoa_r+0x43e>
   13992:	8526                	mv	a0,s1
   13994:	938ff0ef          	jal	ra,12acc <eisneg>
   13998:	8c2a                	mv	s8,a0
   1399a:	1988                	addi	a0,sp,240
   1399c:	930ff0ef          	jal	ra,12acc <eisneg>
   139a0:	0cac1063          	bne	s8,a0,13a60 <_ldtoa_r+0x43e>
   139a4:	1988                	addi	a0,sp,240
   139a6:	c3cff0ef          	jal	ra,12de2 <enan.constprop.12>
   139aa:	4781                	li	a5,0
   139ac:	1918                	addi	a4,sp,176
   139ae:	973e                	add	a4,a4,a5
   139b0:	00075683          	lhu	a3,0(a4)
   139b4:	1998                	addi	a4,sp,240
   139b6:	973e                	add	a4,a4,a5
   139b8:	00075703          	lhu	a4,0(a4)
   139bc:	00e69c63          	bne	a3,a4,139d4 <_ldtoa_r+0x3b2>
   139c0:	0789                	addi	a5,a5,2
   139c2:	4749                	li	a4,18
   139c4:	fee794e3          	bne	a5,a4,139ac <_ldtoa_r+0x38a>
   139c8:	098c                	addi	a1,sp,208
   139ca:	1908                	addi	a0,sp,176
   139cc:	eadfe0ef          	jal	ra,12878 <emov>
   139d0:	47c2                	lw	a5,16(sp)
   139d2:	9c3d                	addw	s0,s0,a5
   139d4:	67c2                	ld	a5,16(sp)
   139d6:	0d51                	addi	s10,s10,20
   139d8:	8385                	srli	a5,a5,0x1
   139da:	e83e                	sd	a5,16(sp)
   139dc:	06400793          	li	a5,100
   139e0:	ecfd17e3          	bne	s10,a5,138ae <_ldtoa_r+0x28c>
   139e4:	0e215783          	lhu	a5,226(sp)
   139e8:	0a215703          	lhu	a4,162(sp)
   139ec:	090c                	addi	a1,sp,144
   139ee:	0988                	addi	a0,sp,208
   139f0:	9fb9                	addw	a5,a5,a4
   139f2:	7771                	lui	a4,0xffffc
   139f4:	f727071b          	addiw	a4,a4,-142
   139f8:	9fb9                	addw	a5,a5,a4
   139fa:	0ef11123          	sh	a5,226(sp)
   139fe:	e7bfe0ef          	jal	ra,12878 <emov>
   13a02:	8526                	mv	a0,s1
   13a04:	190c                	addi	a1,sp,176
   13a06:	e73fe0ef          	jal	ra,12878 <emov>
   13a0a:	4481                	li	s1,0
   13a0c:	6d05                	lui	s10,0x1
   13a0e:	12098993          	addi	s3,s3,288
   13a12:	10400d93          	li	s11,260
   13a16:	67e9                	lui	a5,0x1a
   13a18:	0f878793          	addi	a5,a5,248 # 1a0f8 <etens>
   13a1c:	098c                	addi	a1,sp,208
   13a1e:	854e                	mv	a0,s3
   13a20:	00f48c33          	add	s8,s1,a5
   13a24:	962ff0ef          	jal	ra,12b86 <ecmp>
   13a28:	d8a04ae3          	bgtz	a0,137bc <_ldtoa_r+0x19a>
   13a2c:	098c                	addi	a1,sp,208
   13a2e:	8562                	mv	a0,s8
   13a30:	956ff0ef          	jal	ra,12b86 <ecmp>
   13a34:	02a04063          	bgtz	a0,13a54 <_ldtoa_r+0x432>
   13a38:	0990                	addi	a2,sp,208
   13a3a:	85b2                	mv	a1,a2
   13a3c:	0b14                	addi	a3,sp,400
   13a3e:	8562                	mv	a0,s8
   13a40:	997ff0ef          	jal	ra,133d6 <ediv>
   13a44:	1910                	addi	a2,sp,176
   13a46:	0b14                	addi	a3,sp,400
   13a48:	85b2                	mv	a1,a2
   13a4a:	8562                	mv	a0,s8
   13a4c:	fbcff0ef          	jal	ra,13208 <emul>
   13a50:	008d043b          	addw	s0,s10,s0
   13a54:	04d1                	addi	s1,s1,20
   13a56:	001d5d13          	srli	s10,s10,0x1
   13a5a:	fbb49ee3          	bne	s1,s11,13a16 <_ldtoa_r+0x3f4>
   13a5e:	bbb9                	j	137bc <_ldtoa_r+0x19a>
   13a60:	8526                	mv	a0,s1
   13a62:	198c                	addi	a1,sp,240
   13a64:	e15fe0ef          	jal	ra,12878 <emov>
   13a68:	1988                	addi	a0,sp,240
   13a6a:	83cff0ef          	jal	ra,12aa6 <eisnan>
   13a6e:	fd15                	bnez	a0,139aa <_ldtoa_r+0x388>
   13a70:	10215783          	lhu	a5,258(sp)
   13a74:	7761                	lui	a4,0xffff8
   13a76:	8fb9                	xor	a5,a5,a4
   13a78:	10f11123          	sh	a5,258(sp)
   13a7c:	b73d                	j	139aa <_ldtoa_r+0x388>
   13a7e:	ee051ce3          	bnez	a0,13976 <_ldtoa_r+0x354>
   13a82:	0a0c                	addi	a1,sp,272
   13a84:	8526                	mv	a0,s1
   13a86:	866ff0ef          	jal	ra,12aec <emovi>
   13a8a:	1a0c                	addi	a1,sp,304
