
bin/flushCacheTest.riscv：     文件格式 elf64-littleriscv


Disassembly of section .text:

00000000000100b0 <exit>:
   100b0:	1141                	addi	sp,sp,-16
   100b2:	4581                	li	a1,0
   100b4:	e022                	sd	s0,0(sp)
   100b6:	e406                	sd	ra,8(sp)
   100b8:	842a                	mv	s0,a0
   100ba:	286020ef          	jal	ra,12340 <__call_exitprocs>
   100be:	8381b503          	ld	a0,-1992(gp) # 1f790 <_global_impure_ptr>
   100c2:	6d3c                	ld	a5,88(a0)
   100c4:	c391                	beqz	a5,100c8 <exit+0x18>
   100c6:	9782                	jalr	a5
   100c8:	8522                	mv	a0,s0
   100ca:	7090a0ef          	jal	ra,1afd2 <_exit>

00000000000100ce <register_fini>:
   100ce:	00000793          	li	a5,0
   100d2:	c791                	beqz	a5,100de <register_fini+0x10>
   100d4:	654d                	lui	a0,0x13
   100d6:	89c50513          	addi	a0,a0,-1892 # 1289c <__libc_fini_array>
   100da:	7ee0906f          	j	198c8 <atexit>
   100de:	8082                	ret

00000000000100e0 <_start>:
   100e0:	00010197          	auipc	gp,0x10
   100e4:	e7818193          	addi	gp,gp,-392 # 1ff58 <__global_pointer$>
   100e8:	86018513          	addi	a0,gp,-1952 # 1f7b8 <j>
   100ec:	00223617          	auipc	a2,0x223
   100f0:	76460613          	addi	a2,a2,1892 # 233850 <__BSS_END__>
   100f4:	8e09                	sub	a2,a2,a0
   100f6:	4581                	li	a1,0
   100f8:	3d8000ef          	jal	ra,104d0 <memset>
   100fc:	00009517          	auipc	a0,0x9
   10100:	7cc50513          	addi	a0,a0,1996 # 198c8 <atexit>
   10104:	c519                	beqz	a0,10112 <_start+0x32>
   10106:	00002517          	auipc	a0,0x2
   1010a:	79650513          	addi	a0,a0,1942 # 1289c <__libc_fini_array>
   1010e:	7ba090ef          	jal	ra,198c8 <atexit>
   10112:	354000ef          	jal	ra,10466 <__libc_init_array>
   10116:	4502                	lw	a0,0(sp)
   10118:	002c                	addi	a1,sp,8
   1011a:	4601                	li	a2,0
   1011c:	1aa000ef          	jal	ra,102c6 <main>
   10120:	bf41                	j	100b0 <exit>

0000000000010122 <__do_global_dtors_aux>:
   10122:	1141                	addi	sp,sp,-16
   10124:	e022                	sd	s0,0(sp)
   10126:	8981c783          	lbu	a5,-1896(gp) # 1f7f0 <completed.1>
   1012a:	e406                	sd	ra,8(sp)
   1012c:	ef91                	bnez	a5,10148 <__do_global_dtors_aux+0x26>
   1012e:	00000793          	li	a5,0
   10132:	cb81                	beqz	a5,10142 <__do_global_dtors_aux+0x20>
   10134:	6579                	lui	a0,0x1e
   10136:	63850513          	addi	a0,a0,1592 # 1e638 <__FRAME_END__>
   1013a:	00000097          	auipc	ra,0x0
   1013e:	000000e7          	jalr	zero # 0 <exit-0x100b0>
   10142:	4785                	li	a5,1
   10144:	88f18c23          	sb	a5,-1896(gp) # 1f7f0 <completed.1>
   10148:	60a2                	ld	ra,8(sp)
   1014a:	6402                	ld	s0,0(sp)
   1014c:	0141                	addi	sp,sp,16
   1014e:	8082                	ret

0000000000010150 <frame_dummy>:
   10150:	00000793          	li	a5,0
   10154:	cb91                	beqz	a5,10168 <frame_dummy+0x18>
   10156:	6579                	lui	a0,0x1e
   10158:	8a018593          	addi	a1,gp,-1888 # 1f7f8 <object.0>
   1015c:	63850513          	addi	a0,a0,1592 # 1e638 <__FRAME_END__>
   10160:	00000317          	auipc	t1,0x0
   10164:	00000067          	jr	zero # 0 <exit-0x100b0>
   10168:	8082                	ret

000000000001016a <flushCache>:
uint8_t unusedarr2[L1_SZ_BYTES];
volatile uint8_t dummyMem3[8 * L1_SZ_BYTES];
uint8_t unusedarr3[L1_SZ_BYTES];
volatile uint8_t dummyMem4[16 * L1_SZ_BYTES];

void flushCache(){
   1016a:	7179                	addi	sp,sp,-48
   1016c:	f406                	sd	ra,40(sp)
   1016e:	f022                	sd	s0,32(sp)
   10170:	1800                	addi	s0,sp,48
    volatile uint8_t dummy = 0;
   10172:	fc040da3          	sb	zero,-37(s0)
    int tmpNum = 2*1024;
   10176:	6785                	lui	a5,0x1
   10178:	80078793          	addi	a5,a5,-2048 # 800 <exit-0xf8b0>
   1017c:	fcf42e23          	sw	a5,-36(s0)
    for(int idx=0;idx<tmpNum;idx++){
   10180:	fe042623          	sw	zero,-20(s0)
   10184:	a815                	j	101b8 <flushCache+0x4e>
        dummy = dummyMem1[rand()%tmpNum];
   10186:	4d4000ef          	jal	ra,1065a <rand>
   1018a:	87aa                	mv	a5,a0
   1018c:	873e                	mv	a4,a5
   1018e:	fdc42783          	lw	a5,-36(s0)
   10192:	02f767bb          	remw	a5,a4,a5
   10196:	2781                	sext.w	a5,a5
   10198:	00020737          	lui	a4,0x20
   1019c:	82870713          	addi	a4,a4,-2008 # 1f828 <dummyMem1>
   101a0:	97ba                	add	a5,a5,a4
   101a2:	0007c783          	lbu	a5,0(a5)
   101a6:	0ff7f793          	zext.b	a5,a5
   101aa:	fcf40da3          	sb	a5,-37(s0)
    for(int idx=0;idx<tmpNum;idx++){
   101ae:	fec42783          	lw	a5,-20(s0)
   101b2:	2785                	addiw	a5,a5,1
   101b4:	fef42623          	sw	a5,-20(s0)
   101b8:	fec42783          	lw	a5,-20(s0)
   101bc:	873e                	mv	a4,a5
   101be:	fdc42783          	lw	a5,-36(s0)
   101c2:	2701                	sext.w	a4,a4
   101c4:	2781                	sext.w	a5,a5
   101c6:	fcf740e3          	blt	a4,a5,10186 <flushCache+0x1c>
    }
    tmpNum = 4*1024;
   101ca:	6785                	lui	a5,0x1
   101cc:	fcf42e23          	sw	a5,-36(s0)
    for(int idx=0;idx<tmpNum;idx++){
   101d0:	fe042423          	sw	zero,-24(s0)
   101d4:	a815                	j	10208 <flushCache+0x9e>
        dummy = dummyMem2[rand()%tmpNum];
   101d6:	484000ef          	jal	ra,1065a <rand>
   101da:	87aa                	mv	a5,a0
   101dc:	873e                	mv	a4,a5
   101de:	fdc42783          	lw	a5,-36(s0)
   101e2:	02f767bb          	remw	a5,a4,a5
   101e6:	2781                	sext.w	a5,a5
   101e8:	00050737          	lui	a4,0x50
   101ec:	82870713          	addi	a4,a4,-2008 # 4f828 <dummyMem2>
   101f0:	97ba                	add	a5,a5,a4
   101f2:	0007c783          	lbu	a5,0(a5) # 1000 <exit-0xf0b0>
   101f6:	0ff7f793          	zext.b	a5,a5
   101fa:	fcf40da3          	sb	a5,-37(s0)
    for(int idx=0;idx<tmpNum;idx++){
   101fe:	fe842783          	lw	a5,-24(s0)
   10202:	2785                	addiw	a5,a5,1
   10204:	fef42423          	sw	a5,-24(s0)
   10208:	fe842783          	lw	a5,-24(s0)
   1020c:	873e                	mv	a4,a5
   1020e:	fdc42783          	lw	a5,-36(s0)
   10212:	2701                	sext.w	a4,a4
   10214:	2781                	sext.w	a5,a5
   10216:	fcf740e3          	blt	a4,a5,101d6 <flushCache+0x6c>
    }
    tmpNum = 8*1024;
   1021a:	6789                	lui	a5,0x2
   1021c:	fcf42e23          	sw	a5,-36(s0)
    for(int idx=0;idx<tmpNum;idx++){
   10220:	fe042223          	sw	zero,-28(s0)
   10224:	a815                	j	10258 <flushCache+0xee>
        dummy = dummyMem3[rand()%tmpNum];
   10226:	434000ef          	jal	ra,1065a <rand>
   1022a:	87aa                	mv	a5,a0
   1022c:	873e                	mv	a4,a5
   1022e:	fdc42783          	lw	a5,-36(s0)
   10232:	02f767bb          	remw	a5,a4,a5
   10236:	2781                	sext.w	a5,a5
   10238:	000a0737          	lui	a4,0xa0
   1023c:	82870713          	addi	a4,a4,-2008 # 9f828 <dummyMem3>
   10240:	97ba                	add	a5,a5,a4
   10242:	0007c783          	lbu	a5,0(a5) # 2000 <exit-0xe0b0>
   10246:	0ff7f793          	zext.b	a5,a5
   1024a:	fcf40da3          	sb	a5,-37(s0)
    for(int idx=0;idx<tmpNum;idx++){
   1024e:	fe442783          	lw	a5,-28(s0)
   10252:	2785                	addiw	a5,a5,1
   10254:	fef42223          	sw	a5,-28(s0)
   10258:	fe442783          	lw	a5,-28(s0)
   1025c:	873e                	mv	a4,a5
   1025e:	fdc42783          	lw	a5,-36(s0)
   10262:	2701                	sext.w	a4,a4
   10264:	2781                	sext.w	a5,a5
   10266:	fcf740e3          	blt	a4,a5,10226 <flushCache+0xbc>
    }
    tmpNum = 16*1024;
   1026a:	6791                	lui	a5,0x4
   1026c:	fcf42e23          	sw	a5,-36(s0)
    for(int idx=0;idx<tmpNum;idx++){
   10270:	fe042023          	sw	zero,-32(s0)
   10274:	a815                	j	102a8 <flushCache+0x13e>
        dummy = dummyMem3[rand()%tmpNum];
   10276:	3e4000ef          	jal	ra,1065a <rand>
   1027a:	87aa                	mv	a5,a0
   1027c:	873e                	mv	a4,a5
   1027e:	fdc42783          	lw	a5,-36(s0)
   10282:	02f767bb          	remw	a5,a4,a5
   10286:	2781                	sext.w	a5,a5
   10288:	000a0737          	lui	a4,0xa0
   1028c:	82870713          	addi	a4,a4,-2008 # 9f828 <dummyMem3>
   10290:	97ba                	add	a5,a5,a4
   10292:	0007c783          	lbu	a5,0(a5) # 4000 <exit-0xc0b0>
   10296:	0ff7f793          	zext.b	a5,a5
   1029a:	fcf40da3          	sb	a5,-37(s0)
    for(int idx=0;idx<tmpNum;idx++){
   1029e:	fe042783          	lw	a5,-32(s0)
   102a2:	2785                	addiw	a5,a5,1
   102a4:	fef42023          	sw	a5,-32(s0)
   102a8:	fe042783          	lw	a5,-32(s0)
   102ac:	873e                	mv	a4,a5
   102ae:	fdc42783          	lw	a5,-36(s0)
   102b2:	2701                	sext.w	a4,a4
   102b4:	2781                	sext.w	a5,a5
   102b6:	fcf740e3          	blt	a4,a5,10276 <flushCache+0x10c>
    }
   // printf("dummy = %d\n",dummy);       
}
   102ba:	0001                	nop
   102bc:	0001                	nop
   102be:	70a2                	ld	ra,40(sp)
   102c0:	7402                	ld	s0,32(sp)
   102c2:	6145                	addi	sp,sp,48
   102c4:	8082                	ret

00000000000102c6 <main>:
#define SET_IDX  4   //This is critical, SET_IDX =2,3, sometimes it does not work; but SET_IDX =4 is ok
uint8_t array2[256 * L1_BLOCK_SZ_BYTES]={0};
int j=0;

int main(void)
{
   102c6:	7159                	addi	sp,sp,-112
   102c8:	f486                	sd	ra,104(sp)
   102ca:	f0a2                	sd	s0,96(sp)
   102cc:	1880                	addi	s0,sp,112
    uint8_t    dummy = 0;
   102ce:	fe0405a3          	sb	zero,-21(s0)
    uint64_t   start=0, diff=0;
   102d2:	fe043023          	sd	zero,-32(s0)
   102d6:	fc043c23          	sd	zero,-40(s0)
    printf("================= data cache test ========================= \n");
   102da:	67f1                	lui	a5,0x1c
   102dc:	64078513          	addi	a0,a5,1600 # 1c640 <__clzdi2+0x36>
   102e0:	366000ef          	jal	ra,10646 <puts>

    //flush the above element from data cache then read from RAM
    for(int i=0; i<10; i++)
   102e4:	fe042623          	sw	zero,-20(s0)
   102e8:	a295                	j	1044c <main+0x186>
    {  
        // make sure the array you read from is not in the cache
        flushCache();     
   102ea:	e81ff0ef          	jal	ra,1016a <flushCache>
        start = rdcycle();
   102ee:	c00027f3          	rdcycle	a5
   102f2:	fcf43823          	sd	a5,-48(s0)
   102f6:	fd043783          	ld	a5,-48(s0)
   102fa:	fef43023          	sd	a5,-32(s0)
        dummy = array2[0 * L1_BLOCK_SZ_BYTES];
   102fe:	002307b7          	lui	a5,0x230
   10302:	82878793          	addi	a5,a5,-2008 # 22f828 <array2>
   10306:	0007c783          	lbu	a5,0(a5)
   1030a:	fef405a3          	sb	a5,-21(s0)
        diff = (rdcycle() - start);
   1030e:	c00027f3          	rdcycle	a5
   10312:	fcf43423          	sd	a5,-56(s0)
   10316:	fc843703          	ld	a4,-56(s0)
   1031a:	fe043783          	ld	a5,-32(s0)
   1031e:	40f707b3          	sub	a5,a4,a5
   10322:	fcf43c23          	sd	a5,-40(s0)
        printf("iteration=%d, read from ram, cycles = %lu\n", i, diff);   
   10326:	fec42783          	lw	a5,-20(s0)
   1032a:	fd843603          	ld	a2,-40(s0)
   1032e:	85be                	mv	a1,a5
   10330:	67f1                	lui	a5,0x1c
   10332:	68078513          	addi	a0,a5,1664 # 1c680 <__clzdi2+0x76>
   10336:	266000ef          	jal	ra,1059c <printf>

        //preload the data into data cache
        dummy = array2[SET_IDX*L1_BLOCK_SZ_BYTES];
   1033a:	002307b7          	lui	a5,0x230
   1033e:	82878793          	addi	a5,a5,-2008 # 22f828 <array2>
   10342:	1007c783          	lbu	a5,256(a5)
   10346:	fef405a3          	sb	a5,-21(s0)

        //read from data cache
        start = rdcycle();
   1034a:	c00027f3          	rdcycle	a5
   1034e:	fcf43023          	sd	a5,-64(s0)
   10352:	fc043783          	ld	a5,-64(s0)
   10356:	fef43023          	sd	a5,-32(s0)
        dummy = array2[SET_IDX * L1_BLOCK_SZ_BYTES];
   1035a:	002307b7          	lui	a5,0x230
   1035e:	82878793          	addi	a5,a5,-2008 # 22f828 <array2>
   10362:	1007c783          	lbu	a5,256(a5)
   10366:	fef405a3          	sb	a5,-21(s0)
        diff = (rdcycle() - start);
   1036a:	c00027f3          	rdcycle	a5
   1036e:	faf43c23          	sd	a5,-72(s0)
   10372:	fb843703          	ld	a4,-72(s0)
   10376:	fe043783          	ld	a5,-32(s0)
   1037a:	40f707b3          	sub	a5,a4,a5
   1037e:	fcf43c23          	sd	a5,-40(s0)
        printf("iteration=%d, read from data cache, cycles = %lu\n", i, diff);   
   10382:	fec42783          	lw	a5,-20(s0)
   10386:	fd843603          	ld	a2,-40(s0)
   1038a:	85be                	mv	a1,a5
   1038c:	67f1                	lui	a5,0x1c
   1038e:	6b078513          	addi	a0,a5,1712 # 1c6b0 <__clzdi2+0xa6>
   10392:	20a000ef          	jal	ra,1059c <printf>

        //read from ram after flush
        uint64_t addr = (uint64_t)array2 + SET_IDX * L1_BLOCK_SZ_BYTES;
   10396:	002307b7          	lui	a5,0x230
   1039a:	82878793          	addi	a5,a5,-2008 # 22f828 <array2>
   1039e:	10078793          	addi	a5,a5,256
   103a2:	faf43823          	sd	a5,-80(s0)
        //printf("flush the addr:0x%lx , array2 =0x%lx\n", addr, (uint64_t)array2);
        flushCache();
   103a6:	dc5ff0ef          	jal	ra,1016a <flushCache>
        //read from cache after flush
        start = rdcycle();
   103aa:	c00027f3          	rdcycle	a5
   103ae:	faf43423          	sd	a5,-88(s0)
   103b2:	fa843783          	ld	a5,-88(s0)
   103b6:	fef43023          	sd	a5,-32(s0)
        dummy = array2[SET_IDX * L1_BLOCK_SZ_BYTES];
   103ba:	002307b7          	lui	a5,0x230
   103be:	82878793          	addi	a5,a5,-2008 # 22f828 <array2>
   103c2:	1007c783          	lbu	a5,256(a5)
   103c6:	fef405a3          	sb	a5,-21(s0)
        diff = (rdcycle() - start);
   103ca:	c00027f3          	rdcycle	a5
   103ce:	faf43023          	sd	a5,-96(s0)
   103d2:	fa043703          	ld	a4,-96(s0)
   103d6:	fe043783          	ld	a5,-32(s0)
   103da:	40f707b3          	sub	a5,a4,a5
   103de:	fcf43c23          	sd	a5,-40(s0)
        printf("iteration=%d, flush and then read from ram, cycles = %lu\n", i, diff); 
   103e2:	fec42783          	lw	a5,-20(s0)
   103e6:	fd843603          	ld	a2,-40(s0)
   103ea:	85be                	mv	a1,a5
   103ec:	67f1                	lui	a5,0x1c
   103ee:	6e878513          	addi	a0,a5,1768 # 1c6e8 <__clzdi2+0xde>
   103f2:	1aa000ef          	jal	ra,1059c <printf>

        //read from cache after flush
        start = rdcycle();
   103f6:	c00027f3          	rdcycle	a5
   103fa:	f8f43c23          	sd	a5,-104(s0)
   103fe:	f9843783          	ld	a5,-104(s0)
   10402:	fef43023          	sd	a5,-32(s0)
        dummy = array2[SET_IDX * L1_BLOCK_SZ_BYTES];
   10406:	002307b7          	lui	a5,0x230
   1040a:	82878793          	addi	a5,a5,-2008 # 22f828 <array2>
   1040e:	1007c783          	lbu	a5,256(a5)
   10412:	fef405a3          	sb	a5,-21(s0)
        diff = (rdcycle() - start);
   10416:	c00027f3          	rdcycle	a5
   1041a:	f8f43823          	sd	a5,-112(s0)
   1041e:	f9043703          	ld	a4,-112(s0)
   10422:	fe043783          	ld	a5,-32(s0)
   10426:	40f707b3          	sub	a5,a4,a5
   1042a:	fcf43c23          	sd	a5,-40(s0)
        printf("iteration=%d, read from data cache after flush, cycles = %lu\n\n", i, diff);          
   1042e:	fec42783          	lw	a5,-20(s0)
   10432:	fd843603          	ld	a2,-40(s0)
   10436:	85be                	mv	a1,a5
   10438:	67f1                	lui	a5,0x1c
   1043a:	72878513          	addi	a0,a5,1832 # 1c728 <__clzdi2+0x11e>
   1043e:	15e000ef          	jal	ra,1059c <printf>
    for(int i=0; i<10; i++)
   10442:	fec42783          	lw	a5,-20(s0)
   10446:	2785                	addiw	a5,a5,1
   10448:	fef42623          	sw	a5,-20(s0)
   1044c:	fec42783          	lw	a5,-20(s0)
   10450:	0007871b          	sext.w	a4,a5
   10454:	47a5                	li	a5,9
   10456:	e8e7dae3          	bge	a5,a4,102ea <main+0x24>
    }
    return 0;
   1045a:	4781                	li	a5,0
}
   1045c:	853e                	mv	a0,a5
   1045e:	70a6                	ld	ra,104(sp)
   10460:	7406                	ld	s0,96(sp)
   10462:	6165                	addi	sp,sp,112
   10464:	8082                	ret

0000000000010466 <__libc_init_array>:
   10466:	1101                	addi	sp,sp,-32
   10468:	e822                	sd	s0,16(sp)
   1046a:	e04a                	sd	s2,0(sp)
   1046c:	6479                	lui	s0,0x1e
   1046e:	6979                	lui	s2,0x1e
   10470:	63c40793          	addi	a5,s0,1596 # 1e63c <__preinit_array_end>
   10474:	63c90913          	addi	s2,s2,1596 # 1e63c <__preinit_array_end>
   10478:	40f90933          	sub	s2,s2,a5
   1047c:	ec06                	sd	ra,24(sp)
   1047e:	e426                	sd	s1,8(sp)
   10480:	40395913          	srai	s2,s2,0x3
   10484:	00090b63          	beqz	s2,1049a <__libc_init_array+0x34>
   10488:	63c40413          	addi	s0,s0,1596
   1048c:	4481                	li	s1,0
   1048e:	601c                	ld	a5,0(s0)
   10490:	0485                	addi	s1,s1,1
   10492:	0421                	addi	s0,s0,8
   10494:	9782                	jalr	a5
   10496:	fe991ce3          	bne	s2,s1,1048e <__libc_init_array+0x28>
   1049a:	6479                	lui	s0,0x1e
   1049c:	6979                	lui	s2,0x1e
   1049e:	64040793          	addi	a5,s0,1600 # 1e640 <__init_array_start>
   104a2:	65090913          	addi	s2,s2,1616 # 1e650 <__do_global_dtors_aux_fini_array_entry>
   104a6:	40f90933          	sub	s2,s2,a5
   104aa:	40395913          	srai	s2,s2,0x3
   104ae:	00090b63          	beqz	s2,104c4 <__libc_init_array+0x5e>
   104b2:	64040413          	addi	s0,s0,1600
   104b6:	4481                	li	s1,0
   104b8:	601c                	ld	a5,0(s0)
   104ba:	0485                	addi	s1,s1,1
   104bc:	0421                	addi	s0,s0,8
   104be:	9782                	jalr	a5
   104c0:	fe991ce3          	bne	s2,s1,104b8 <__libc_init_array+0x52>
   104c4:	60e2                	ld	ra,24(sp)
   104c6:	6442                	ld	s0,16(sp)
   104c8:	64a2                	ld	s1,8(sp)
   104ca:	6902                	ld	s2,0(sp)
   104cc:	6105                	addi	sp,sp,32
   104ce:	8082                	ret

00000000000104d0 <memset>:
   104d0:	433d                	li	t1,15
   104d2:	872a                	mv	a4,a0
   104d4:	02c37163          	bgeu	t1,a2,104f6 <memset+0x26>
   104d8:	00f77793          	andi	a5,a4,15
   104dc:	e3c1                	bnez	a5,1055c <memset+0x8c>
   104de:	e1bd                	bnez	a1,10544 <memset+0x74>
   104e0:	ff067693          	andi	a3,a2,-16
   104e4:	8a3d                	andi	a2,a2,15
   104e6:	96ba                	add	a3,a3,a4
   104e8:	e30c                	sd	a1,0(a4)
   104ea:	e70c                	sd	a1,8(a4)
   104ec:	0741                	addi	a4,a4,16
   104ee:	fed76de3          	bltu	a4,a3,104e8 <memset+0x18>
   104f2:	e211                	bnez	a2,104f6 <memset+0x26>
   104f4:	8082                	ret
   104f6:	40c306b3          	sub	a3,t1,a2
   104fa:	068a                	slli	a3,a3,0x2
   104fc:	00000297          	auipc	t0,0x0
   10500:	9696                	add	a3,a3,t0
   10502:	00a68067          	jr	10(a3)
   10506:	00b70723          	sb	a1,14(a4)
   1050a:	00b706a3          	sb	a1,13(a4)
   1050e:	00b70623          	sb	a1,12(a4)
   10512:	00b705a3          	sb	a1,11(a4)
   10516:	00b70523          	sb	a1,10(a4)
   1051a:	00b704a3          	sb	a1,9(a4)
   1051e:	00b70423          	sb	a1,8(a4)
   10522:	00b703a3          	sb	a1,7(a4)
   10526:	00b70323          	sb	a1,6(a4)
   1052a:	00b702a3          	sb	a1,5(a4)
   1052e:	00b70223          	sb	a1,4(a4)
   10532:	00b701a3          	sb	a1,3(a4)
   10536:	00b70123          	sb	a1,2(a4)
   1053a:	00b700a3          	sb	a1,1(a4)
   1053e:	00b70023          	sb	a1,0(a4)
   10542:	8082                	ret
   10544:	0ff5f593          	zext.b	a1,a1
   10548:	00859693          	slli	a3,a1,0x8
   1054c:	8dd5                	or	a1,a1,a3
   1054e:	01059693          	slli	a3,a1,0x10
   10552:	8dd5                	or	a1,a1,a3
   10554:	02059693          	slli	a3,a1,0x20
   10558:	8dd5                	or	a1,a1,a3
   1055a:	b759                	j	104e0 <memset+0x10>
   1055c:	00279693          	slli	a3,a5,0x2
   10560:	00000297          	auipc	t0,0x0
   10564:	9696                	add	a3,a3,t0
   10566:	8286                	mv	t0,ra
   10568:	fa2680e7          	jalr	-94(a3)
   1056c:	8096                	mv	ra,t0
   1056e:	17c1                	addi	a5,a5,-16
   10570:	8f1d                	sub	a4,a4,a5
   10572:	963e                	add	a2,a2,a5
   10574:	f8c371e3          	bgeu	t1,a2,104f6 <memset+0x26>
   10578:	b79d                	j	104de <memset+0xe>

000000000001057a <_printf_r>:
   1057a:	715d                	addi	sp,sp,-80
   1057c:	f032                	sd	a2,32(sp)
   1057e:	f436                	sd	a3,40(sp)
   10580:	f83a                	sd	a4,48(sp)
   10582:	fc3e                	sd	a5,56(sp)
   10584:	e0c2                	sd	a6,64(sp)
   10586:	e4c6                	sd	a7,72(sp)
   10588:	862e                	mv	a2,a1
   1058a:	690c                	ld	a1,16(a0)
   1058c:	1014                	addi	a3,sp,32
   1058e:	ec06                	sd	ra,24(sp)
   10590:	e436                	sd	a3,8(sp)
   10592:	17a000ef          	jal	ra,1070c <_vfprintf_r>
   10596:	60e2                	ld	ra,24(sp)
   10598:	6161                	addi	sp,sp,80
   1059a:	8082                	ret

000000000001059c <printf>:
   1059c:	8481b303          	ld	t1,-1976(gp) # 1f7a0 <_impure_ptr>
   105a0:	711d                	addi	sp,sp,-96
   105a2:	f832                	sd	a2,48(sp)
   105a4:	fc36                	sd	a3,56(sp)
   105a6:	f42e                	sd	a1,40(sp)
   105a8:	e0ba                	sd	a4,64(sp)
   105aa:	e4be                	sd	a5,72(sp)
   105ac:	e8c2                	sd	a6,80(sp)
   105ae:	ecc6                	sd	a7,88(sp)
   105b0:	01033583          	ld	a1,16(t1) # 10170 <flushCache+0x6>
   105b4:	1034                	addi	a3,sp,40
   105b6:	862a                	mv	a2,a0
   105b8:	851a                	mv	a0,t1
   105ba:	ec06                	sd	ra,24(sp)
   105bc:	e436                	sd	a3,8(sp)
   105be:	14e000ef          	jal	ra,1070c <_vfprintf_r>
   105c2:	60e2                	ld	ra,24(sp)
   105c4:	6125                	addi	sp,sp,96
   105c6:	8082                	ret

00000000000105c8 <_puts_r>:
   105c8:	7159                	addi	sp,sp,-112
   105ca:	f0a2                	sd	s0,96(sp)
   105cc:	842a                	mv	s0,a0
   105ce:	852e                	mv	a0,a1
   105d0:	eca6                	sd	s1,88(sp)
   105d2:	f486                	sd	ra,104(sp)
   105d4:	84ae                	mv	s1,a1
   105d6:	0a2000ef          	jal	ra,10678 <strlen>
   105da:	67f1                	lui	a5,0x1c
   105dc:	76878793          	addi	a5,a5,1896 # 1c768 <__clzdi2+0x15e>
   105e0:	e0be                	sd	a5,64(sp)
   105e2:	4785                	li	a5,1
   105e4:	e4be                	sd	a5,72(sp)
   105e6:	4838                	lw	a4,80(s0)
   105e8:	181c                	addi	a5,sp,48
   105ea:	00150693          	addi	a3,a0,1
   105ee:	ec3e                	sd	a5,24(sp)
   105f0:	4789                	li	a5,2
   105f2:	f826                	sd	s1,48(sp)
   105f4:	fc2a                	sd	a0,56(sp)
   105f6:	f436                	sd	a3,40(sp)
   105f8:	d03e                	sw	a5,32(sp)
   105fa:	680c                	ld	a1,16(s0)
   105fc:	cf0d                	beqz	a4,10636 <_puts_r+0x6e>
   105fe:	01059783          	lh	a5,16(a1)
   10602:	03279713          	slli	a4,a5,0x32
   10606:	00074d63          	bltz	a4,10620 <_puts_r+0x58>
   1060a:	0ac5a703          	lw	a4,172(a1)
   1060e:	6689                	lui	a3,0x2
   10610:	8fd5                	or	a5,a5,a3
   10612:	76f9                	lui	a3,0xffffe
   10614:	16fd                	addi	a3,a3,-1
   10616:	8f75                	and	a4,a4,a3
   10618:	00f59823          	sh	a5,16(a1)
   1061c:	0ae5a623          	sw	a4,172(a1)
   10620:	0830                	addi	a2,sp,24
   10622:	8522                	mv	a0,s0
   10624:	5d2020ef          	jal	ra,12bf6 <__sfvwrite_r>
   10628:	ed09                	bnez	a0,10642 <_puts_r+0x7a>
   1062a:	4529                	li	a0,10
   1062c:	70a6                	ld	ra,104(sp)
   1062e:	7406                	ld	s0,96(sp)
   10630:	64e6                	ld	s1,88(sp)
   10632:	6165                	addi	sp,sp,112
   10634:	8082                	ret
   10636:	8522                	mv	a0,s0
   10638:	e42e                	sd	a1,8(sp)
   1063a:	23a020ef          	jal	ra,12874 <__sinit>
   1063e:	65a2                	ld	a1,8(sp)
   10640:	bf7d                	j	105fe <_puts_r+0x36>
   10642:	557d                	li	a0,-1
   10644:	b7e5                	j	1062c <_puts_r+0x64>

0000000000010646 <puts>:
   10646:	85aa                	mv	a1,a0
   10648:	8481b503          	ld	a0,-1976(gp) # 1f7a0 <_impure_ptr>
   1064c:	bfb5                	j	105c8 <_puts_r>

000000000001064e <srand>:
   1064e:	8481b783          	ld	a5,-1976(gp) # 1f7a0 <_impure_ptr>
   10652:	1502                	slli	a0,a0,0x20
   10654:	9101                	srli	a0,a0,0x20
   10656:	f7e8                	sd	a0,232(a5)
   10658:	8082                	ret

000000000001065a <rand>:
   1065a:	8481b703          	ld	a4,-1976(gp) # 1f7a0 <_impure_ptr>
   1065e:	0001f6b7          	lui	a3,0x1f
   10662:	7586b683          	ld	a3,1880(a3) # 1f758 <__SDATA_BEGIN__>
   10666:	777c                	ld	a5,232(a4)
   10668:	02d787b3          	mul	a5,a5,a3
   1066c:	0785                	addi	a5,a5,1
   1066e:	00179513          	slli	a0,a5,0x1
   10672:	f77c                	sd	a5,232(a4)
   10674:	9105                	srli	a0,a0,0x21
   10676:	8082                	ret

0000000000010678 <strlen>:
   10678:	00757793          	andi	a5,a0,7
   1067c:	872a                	mv	a4,a0
   1067e:	ebb9                	bnez	a5,106d4 <strlen+0x5c>
   10680:	0001f7b7          	lui	a5,0x1f
   10684:	7607b683          	ld	a3,1888(a5) # 1f760 <mask>
   10688:	55fd                	li	a1,-1
   1068a:	6310                	ld	a2,0(a4)
   1068c:	0721                	addi	a4,a4,8
   1068e:	00d677b3          	and	a5,a2,a3
   10692:	97b6                	add	a5,a5,a3
   10694:	8fd1                	or	a5,a5,a2
   10696:	8fd5                	or	a5,a5,a3
   10698:	feb789e3          	beq	a5,a1,1068a <strlen+0x12>
   1069c:	ff874683          	lbu	a3,-8(a4)
   106a0:	40a707b3          	sub	a5,a4,a0
   106a4:	c6a9                	beqz	a3,106ee <strlen+0x76>
   106a6:	ff974683          	lbu	a3,-7(a4)
   106aa:	ce9d                	beqz	a3,106e8 <strlen+0x70>
   106ac:	ffa74683          	lbu	a3,-6(a4)
   106b0:	c6a9                	beqz	a3,106fa <strlen+0x82>
   106b2:	ffb74683          	lbu	a3,-5(a4)
   106b6:	ce9d                	beqz	a3,106f4 <strlen+0x7c>
   106b8:	ffc74683          	lbu	a3,-4(a4)
   106bc:	c2b1                	beqz	a3,10700 <strlen+0x88>
   106be:	ffd74683          	lbu	a3,-3(a4)
   106c2:	c2b1                	beqz	a3,10706 <strlen+0x8e>
   106c4:	ffe74503          	lbu	a0,-2(a4)
   106c8:	00a03533          	snez	a0,a0
   106cc:	953e                	add	a0,a0,a5
   106ce:	1579                	addi	a0,a0,-2
   106d0:	8082                	ret
   106d2:	d6dd                	beqz	a3,10680 <strlen+0x8>
   106d4:	00074783          	lbu	a5,0(a4)
   106d8:	0705                	addi	a4,a4,1
   106da:	00777693          	andi	a3,a4,7
   106de:	fbf5                	bnez	a5,106d2 <strlen+0x5a>
   106e0:	8f09                	sub	a4,a4,a0
   106e2:	fff70513          	addi	a0,a4,-1
   106e6:	8082                	ret
   106e8:	ff978513          	addi	a0,a5,-7
   106ec:	8082                	ret
   106ee:	ff878513          	addi	a0,a5,-8
   106f2:	8082                	ret
   106f4:	ffb78513          	addi	a0,a5,-5
   106f8:	8082                	ret
   106fa:	ffa78513          	addi	a0,a5,-6
   106fe:	8082                	ret
   10700:	ffc78513          	addi	a0,a5,-4
   10704:	8082                	ret
   10706:	ffd78513          	addi	a0,a5,-3
   1070a:	8082                	ret

000000000001070c <_vfprintf_r>:
   1070c:	d8010113          	addi	sp,sp,-640
   10710:	26113c23          	sd	ra,632(sp)
   10714:	27213023          	sd	s2,608(sp)
   10718:	25413823          	sd	s4,592(sp)
   1071c:	23913423          	sd	s9,552(sp)
   10720:	892e                	mv	s2,a1
   10722:	8cb2                	mv	s9,a2
   10724:	e836                	sd	a3,16(sp)
   10726:	26813823          	sd	s0,624(sp)
   1072a:	26913423          	sd	s1,616(sp)
   1072e:	25313c23          	sd	s3,600(sp)
   10732:	25513423          	sd	s5,584(sp)
   10736:	25613023          	sd	s6,576(sp)
   1073a:	23713c23          	sd	s7,568(sp)
   1073e:	23813823          	sd	s8,560(sp)
   10742:	23a13023          	sd	s10,544(sp)
   10746:	21b13c23          	sd	s11,536(sp)
   1074a:	8a2a                	mv	s4,a0
   1074c:	137040ef          	jal	ra,15082 <_localeconv_r>
   10750:	611c                	ld	a5,0(a0)
   10752:	853e                	mv	a0,a5
   10754:	f8be                	sd	a5,112(sp)
   10756:	f23ff0ef          	jal	ra,10678 <strlen>
   1075a:	f4aa                	sd	a0,104(sp)
   1075c:	e202                	sd	zero,256(sp)
   1075e:	e602                	sd	zero,264(sp)
   10760:	000a0663          	beqz	s4,1076c <_vfprintf_r+0x60>
   10764:	050a2783          	lw	a5,80(s4)
   10768:	5a078863          	beqz	a5,10d18 <_vfprintf_r+0x60c>
   1076c:	01091703          	lh	a4,16(s2)
   10770:	6689                	lui	a3,0x2
   10772:	03071793          	slli	a5,a4,0x30
   10776:	93c1                	srli	a5,a5,0x30
   10778:	00d7f633          	and	a2,a5,a3
   1077c:	e215                	bnez	a2,107a0 <_vfprintf_r+0x94>
   1077e:	0ac92603          	lw	a2,172(s2)
   10782:	00d767b3          	or	a5,a4,a3
   10786:	0107979b          	slliw	a5,a5,0x10
   1078a:	7779                	lui	a4,0xffffe
   1078c:	4107d79b          	sraiw	a5,a5,0x10
   10790:	177d                	addi	a4,a4,-1
   10792:	8f71                	and	a4,a4,a2
   10794:	00f91823          	sh	a5,16(s2)
   10798:	17c2                	slli	a5,a5,0x30
   1079a:	0ae92623          	sw	a4,172(s2)
   1079e:	93c1                	srli	a5,a5,0x30
   107a0:	0087f713          	andi	a4,a5,8
   107a4:	26070a63          	beqz	a4,10a18 <_vfprintf_r+0x30c>
   107a8:	01893703          	ld	a4,24(s2)
   107ac:	26070663          	beqz	a4,10a18 <_vfprintf_r+0x30c>
   107b0:	8be9                	andi	a5,a5,26
   107b2:	4729                	li	a4,10
   107b4:	26e78f63          	beq	a5,a4,10a32 <_vfprintf_r+0x326>
   107b8:	67f5                	lui	a5,0x1d
   107ba:	9d87b783          	ld	a5,-1576(a5) # 1c9d8 <__clzdi2+0x3ce>
   107be:	19010b13          	addi	s6,sp,400
   107c2:	ea5a                	sd	s6,272(sp)
   107c4:	e93e                	sd	a5,144(sp)
   107c6:	67f5                	lui	a5,0x1d
   107c8:	9e87b783          	ld	a5,-1560(a5) # 1c9e8 <__clzdi2+0x3de>
   107cc:	f202                	sd	zero,288(sp)
   107ce:	10012c23          	sw	zero,280(sp)
   107d2:	ed3e                	sd	a5,152(sp)
   107d4:	67f5                	lui	a5,0x1d
   107d6:	9f87b783          	ld	a5,-1544(a5) # 1c9f8 <__clzdi2+0x3ee>
   107da:	f002                	sd	zero,32(sp)
   107dc:	f402                	sd	zero,40(sp)
   107de:	f13e                	sd	a5,160(sp)
   107e0:	000cc783          	lbu	a5,0(s9)
   107e4:	fc82                	sd	zero,120(sp)
   107e6:	f082                	sd	zero,96(sp)
   107e8:	e102                	sd	zero,128(sp)
   107ea:	e502                	sd	zero,136(sp)
   107ec:	e402                	sd	zero,8(sp)
   107ee:	835a                	mv	t1,s6
   107f0:	1c078563          	beqz	a5,109ba <_vfprintf_r+0x2ae>
   107f4:	8466                	mv	s0,s9
   107f6:	02500713          	li	a4,37
   107fa:	30e78263          	beq	a5,a4,10afe <_vfprintf_r+0x3f2>
   107fe:	00144783          	lbu	a5,1(s0)
   10802:	0405                	addi	s0,s0,1
   10804:	fbfd                	bnez	a5,107fa <_vfprintf_r+0xee>
   10806:	419404bb          	subw	s1,s0,s9
   1080a:	1a048863          	beqz	s1,109ba <_vfprintf_r+0x2ae>
   1080e:	11812783          	lw	a5,280(sp)
   10812:	7712                	ld	a4,288(sp)
   10814:	01933023          	sd	s9,0(t1)
   10818:	2785                	addiw	a5,a5,1
   1081a:	9726                	add	a4,a4,s1
   1081c:	00933423          	sd	s1,8(t1)
   10820:	f23a                	sd	a4,288(sp)
   10822:	10f12c23          	sw	a5,280(sp)
   10826:	0007871b          	sext.w	a4,a5
   1082a:	479d                	li	a5,7
   1082c:	0341                	addi	t1,t1,16
   1082e:	2ce7cf63          	blt	a5,a4,10b0c <_vfprintf_r+0x400>
   10832:	6722                	ld	a4,8(sp)
   10834:	00044783          	lbu	a5,0(s0)
   10838:	9f25                	addw	a4,a4,s1
   1083a:	e43a                	sd	a4,8(sp)
   1083c:	16078f63          	beqz	a5,109ba <_vfprintf_r+0x2ae>
   10840:	67f1                	lui	a5,0x1c
   10842:	00144e03          	lbu	t3,1(s0)
   10846:	0c010fa3          	sb	zero,223(sp)
   1084a:	0405                	addi	s0,s0,1
   1084c:	5c7d                	li	s8,-1
   1084e:	4a81                	li	s5,0
   10850:	4481                	li	s1,0
   10852:	05a00993          	li	s3,90
   10856:	7cc78b93          	addi	s7,a5,1996 # 1c7cc <__clzdi2+0x1c2>
   1085a:	4da5                	li	s11,9
   1085c:	0405                	addi	s0,s0,1
   1085e:	000e0d1b          	sext.w	s10,t3
   10862:	02a00693          	li	a3,42
   10866:	fe0d079b          	addiw	a5,s10,-32
   1086a:	0007871b          	sext.w	a4,a5
   1086e:	04e9e363          	bltu	s3,a4,108b4 <_vfprintf_r+0x1a8>
   10872:	02079713          	slli	a4,a5,0x20
   10876:	01e75793          	srli	a5,a4,0x1e
   1087a:	97de                	add	a5,a5,s7
   1087c:	439c                	lw	a5,0(a5)
   1087e:	8782                	jr	a5
   10880:	4a81                	li	s5,0
   10882:	00044703          	lbu	a4,0(s0)
   10886:	002a979b          	slliw	a5,s5,0x2
   1088a:	015787bb          	addw	a5,a5,s5
   1088e:	fd0d0e1b          	addiw	t3,s10,-48
   10892:	0017979b          	slliw	a5,a5,0x1
   10896:	fd07061b          	addiw	a2,a4,-48
   1089a:	0405                	addi	s0,s0,1
   1089c:	00fe0abb          	addw	s5,t3,a5
   108a0:	00070d1b          	sext.w	s10,a4
   108a4:	fccdffe3          	bgeu	s11,a2,10882 <_vfprintf_r+0x176>
   108a8:	fe0d079b          	addiw	a5,s10,-32
   108ac:	0007871b          	sext.w	a4,a5
   108b0:	fce9f1e3          	bgeu	s3,a4,10872 <_vfprintf_r+0x166>
   108b4:	100d0363          	beqz	s10,109ba <_vfprintf_r+0x2ae>
   108b8:	13a10423          	sb	s10,296(sp)
   108bc:	0c010fa3          	sb	zero,223(sp)
   108c0:	4985                	li	s3,1
   108c2:	4b85                	li	s7,1
   108c4:	12810c93          	addi	s9,sp,296
   108c8:	ec02                	sd	zero,24(sp)
   108ca:	4c01                	li	s8,0
   108cc:	e882                	sd	zero,80(sp)
   108ce:	ec82                	sd	zero,88(sp)
   108d0:	e482                	sd	zero,72(sp)
   108d2:	0024f293          	andi	t0,s1,2
   108d6:	00028363          	beqz	t0,108dc <_vfprintf_r+0x1d0>
   108da:	2989                	addiw	s3,s3,2
   108dc:	0844fd93          	andi	s11,s1,132
   108e0:	7792                	ld	a5,288(sp)
   108e2:	000d9663          	bnez	s11,108ee <_vfprintf_r+0x1e2>
   108e6:	413a86bb          	subw	a3,s5,s3
   108ea:	08d049e3          	bgtz	a3,1117c <_vfprintf_r+0xa70>
   108ee:	0df14703          	lbu	a4,223(sp)
   108f2:	c70d                	beqz	a4,1091c <_vfprintf_r+0x210>
   108f4:	11812703          	lw	a4,280(sp)
   108f8:	0df10693          	addi	a3,sp,223
   108fc:	00d33023          	sd	a3,0(t1)
   10900:	2705                	addiw	a4,a4,1
   10902:	4685                	li	a3,1
   10904:	0785                	addi	a5,a5,1
   10906:	00d33423          	sd	a3,8(t1)
   1090a:	10e12c23          	sw	a4,280(sp)
   1090e:	0007069b          	sext.w	a3,a4
   10912:	f23e                	sd	a5,288(sp)
   10914:	471d                	li	a4,7
   10916:	0341                	addi	t1,t1,16
   10918:	28d74463          	blt	a4,a3,10ba0 <_vfprintf_r+0x494>
   1091c:	02028563          	beqz	t0,10946 <_vfprintf_r+0x23a>
   10920:	11812703          	lw	a4,280(sp)
   10924:	1194                	addi	a3,sp,224
   10926:	00d33023          	sd	a3,0(t1)
   1092a:	2705                	addiw	a4,a4,1
   1092c:	4689                	li	a3,2
   1092e:	0789                	addi	a5,a5,2
   10930:	00d33423          	sd	a3,8(t1)
   10934:	10e12c23          	sw	a4,280(sp)
   10938:	0007069b          	sext.w	a3,a4
   1093c:	f23e                	sd	a5,288(sp)
   1093e:	471d                	li	a4,7
   10940:	0341                	addi	t1,t1,16
   10942:	0cd747e3          	blt	a4,a3,11210 <_vfprintf_r+0xb04>
   10946:	08000713          	li	a4,128
   1094a:	6eed8263          	beq	s11,a4,1102e <_vfprintf_r+0x922>
   1094e:	417c0c3b          	subw	s8,s8,s7
   10952:	77804563          	bgtz	s8,110bc <_vfprintf_r+0x9b0>
   10956:	1004f713          	andi	a4,s1,256
   1095a:	60071263          	bnez	a4,10f5e <_vfprintf_r+0x852>
   1095e:	11812703          	lw	a4,280(sp)
   10962:	97de                	add	a5,a5,s7
   10964:	01933023          	sd	s9,0(t1)
   10968:	0017069b          	addiw	a3,a4,1
   1096c:	8736                	mv	a4,a3
   1096e:	01733423          	sd	s7,8(t1)
   10972:	10e12c23          	sw	a4,280(sp)
   10976:	f23e                	sd	a5,288(sp)
   10978:	471d                	li	a4,7
   1097a:	2ed74363          	blt	a4,a3,10c60 <_vfprintf_r+0x554>
   1097e:	0341                	addi	t1,t1,16
   10980:	8891                	andi	s1,s1,4
   10982:	c489                	beqz	s1,1098c <_vfprintf_r+0x280>
   10984:	413a84bb          	subw	s1,s5,s3
   10988:	08904ee3          	bgtz	s1,11224 <_vfprintf_r+0xb18>
   1098c:	8756                	mv	a4,s5
   1098e:	013ad363          	bge	s5,s3,10994 <_vfprintf_r+0x288>
   10992:	874e                	mv	a4,s3
   10994:	66a2                	ld	a3,8(sp)
   10996:	9f35                	addw	a4,a4,a3
   10998:	e43a                	sd	a4,8(sp)
   1099a:	7a079263          	bnez	a5,1113e <_vfprintf_r+0xa32>
   1099e:	67e2                	ld	a5,24(sp)
   109a0:	10012c23          	sw	zero,280(sp)
   109a4:	c789                	beqz	a5,109ae <_vfprintf_r+0x2a2>
   109a6:	65e2                	ld	a1,24(sp)
   109a8:	8552                	mv	a0,s4
   109aa:	7fb010ef          	jal	ra,129a4 <_free_r>
   109ae:	835a                	mv	t1,s6
   109b0:	8ca2                	mv	s9,s0
   109b2:	000cc783          	lbu	a5,0(s9)
   109b6:	e2079fe3          	bnez	a5,107f4 <_vfprintf_r+0xe8>
   109ba:	7792                	ld	a5,288(sp)
   109bc:	c399                	beqz	a5,109c2 <_vfprintf_r+0x2b6>
   109be:	31a0106f          	j	11cd8 <_vfprintf_r+0x15cc>
   109c2:	01095783          	lhu	a5,16(s2)
   109c6:	0407f793          	andi	a5,a5,64
   109ca:	c399                	beqz	a5,109d0 <_vfprintf_r+0x2c4>
   109cc:	5b00106f          	j	11f7c <_vfprintf_r+0x1870>
   109d0:	27813083          	ld	ra,632(sp)
   109d4:	27013403          	ld	s0,624(sp)
   109d8:	6522                	ld	a0,8(sp)
   109da:	26813483          	ld	s1,616(sp)
   109de:	26013903          	ld	s2,608(sp)
   109e2:	25813983          	ld	s3,600(sp)
   109e6:	25013a03          	ld	s4,592(sp)
   109ea:	24813a83          	ld	s5,584(sp)
   109ee:	24013b03          	ld	s6,576(sp)
   109f2:	23813b83          	ld	s7,568(sp)
   109f6:	23013c03          	ld	s8,560(sp)
   109fa:	22813c83          	ld	s9,552(sp)
   109fe:	22013d03          	ld	s10,544(sp)
   10a02:	21813d83          	ld	s11,536(sp)
   10a06:	28010113          	addi	sp,sp,640
   10a0a:	8082                	ret
   10a0c:	0104e493          	ori	s1,s1,16
   10a10:	00044e03          	lbu	t3,0(s0)
   10a14:	2481                	sext.w	s1,s1
   10a16:	b599                	j	1085c <_vfprintf_r+0x150>
   10a18:	85ca                	mv	a1,s2
   10a1a:	8552                	mv	a0,s4
   10a1c:	02d010ef          	jal	ra,12248 <__swsetup_r>
   10a20:	c119                	beqz	a0,10a26 <_vfprintf_r+0x31a>
   10a22:	55a0106f          	j	11f7c <_vfprintf_r+0x1870>
   10a26:	01095783          	lhu	a5,16(s2)
   10a2a:	4729                	li	a4,10
   10a2c:	8be9                	andi	a5,a5,26
   10a2e:	d8e795e3          	bne	a5,a4,107b8 <_vfprintf_r+0xac>
   10a32:	01291783          	lh	a5,18(s2)
   10a36:	d807c1e3          	bltz	a5,107b8 <_vfprintf_r+0xac>
   10a3a:	66c2                	ld	a3,16(sp)
   10a3c:	8666                	mv	a2,s9
   10a3e:	85ca                	mv	a1,s2
   10a40:	8552                	mv	a0,s4
   10a42:	772010ef          	jal	ra,121b4 <__sbprintf>
   10a46:	e42a                	sd	a0,8(sp)
   10a48:	b761                	j	109d0 <_vfprintf_r+0x2c4>
   10a4a:	0104e493          	ori	s1,s1,16
   10a4e:	2481                	sext.w	s1,s1
   10a50:	66c2                	ld	a3,16(sp)
   10a52:	0204f793          	andi	a5,s1,32
   10a56:	00868713          	addi	a4,a3,8 # 2008 <exit-0xe0a8>
   10a5a:	22078c63          	beqz	a5,10c92 <_vfprintf_r+0x586>
   10a5e:	629c                	ld	a5,0(a3)
   10a60:	89be                	mv	s3,a5
   10a62:	2407ca63          	bltz	a5,10cb6 <_vfprintf_r+0x5aa>
   10a66:	57fd                	li	a5,-1
   10a68:	26fc01e3          	beq	s8,a5,114ca <_vfprintf_r+0xdbe>
   10a6c:	f7f4fd93          	andi	s11,s1,-129
   10a70:	e83a                	sd	a4,16(sp)
   10a72:	2d81                	sext.w	s11,s11
   10a74:	6e099863          	bnez	s3,11164 <_vfprintf_r+0xa58>
   10a78:	6e0c1963          	bnez	s8,1116a <_vfprintf_r+0xa5e>
   10a7c:	84ee                	mv	s1,s11
   10a7e:	4c01                	li	s8,0
   10a80:	4b81                	li	s7,0
   10a82:	18c10c93          	addi	s9,sp,396
   10a86:	0df14783          	lbu	a5,223(sp)
   10a8a:	000b899b          	sext.w	s3,s7
   10a8e:	018bd463          	bge	s7,s8,10a96 <_vfprintf_r+0x38a>
   10a92:	000c099b          	sext.w	s3,s8
   10a96:	ec02                	sd	zero,24(sp)
   10a98:	e882                	sd	zero,80(sp)
   10a9a:	ec82                	sd	zero,88(sp)
   10a9c:	e482                	sd	zero,72(sp)
   10a9e:	e2078ae3          	beqz	a5,108d2 <_vfprintf_r+0x1c6>
   10aa2:	2985                	addiw	s3,s3,1
   10aa4:	b53d                	j	108d2 <_vfprintf_r+0x1c6>
   10aa6:	0104e493          	ori	s1,s1,16
   10aaa:	2481                	sext.w	s1,s1
   10aac:	66c2                	ld	a3,16(sp)
   10aae:	0204f793          	andi	a5,s1,32
   10ab2:	00868713          	addi	a4,a3,8
   10ab6:	1a078f63          	beqz	a5,10c74 <_vfprintf_r+0x568>
   10aba:	0006b983          	ld	s3,0(a3)
   10abe:	bff4fd93          	andi	s11,s1,-1025
   10ac2:	2d81                	sext.w	s11,s11
   10ac4:	e83a                	sd	a4,16(sp)
   10ac6:	4781                	li	a5,0
   10ac8:	4701                	li	a4,0
   10aca:	0ce10fa3          	sb	a4,223(sp)
   10ace:	577d                	li	a4,-1
   10ad0:	1eec0f63          	beq	s8,a4,10cce <_vfprintf_r+0x5c2>
   10ad4:	f7fdf493          	andi	s1,s11,-129
   10ad8:	2481                	sext.w	s1,s1
   10ada:	68099163          	bnez	s3,1115c <_vfprintf_r+0xa50>
   10ade:	440c1363          	bnez	s8,10f24 <_vfprintf_r+0x818>
   10ae2:	ffd1                	bnez	a5,10a7e <_vfprintf_r+0x372>
   10ae4:	001dfb93          	andi	s7,s11,1
   10ae8:	18c10c93          	addi	s9,sp,396
   10aec:	f80b8de3          	beqz	s7,10a86 <_vfprintf_r+0x37a>
   10af0:	03000793          	li	a5,48
   10af4:	18f105a3          	sb	a5,395(sp)
   10af8:	18b10c93          	addi	s9,sp,395
   10afc:	b769                	j	10a86 <_vfprintf_r+0x37a>
   10afe:	419404bb          	subw	s1,s0,s9
   10b02:	d00496e3          	bnez	s1,1080e <_vfprintf_r+0x102>
   10b06:	00044783          	lbu	a5,0(s0)
   10b0a:	bb0d                	j	1083c <_vfprintf_r+0x130>
   10b0c:	0a10                	addi	a2,sp,272
   10b0e:	85ca                	mv	a1,s2
   10b10:	8552                	mv	a0,s4
   10b12:	010080ef          	jal	ra,18b22 <__sprint_r>
   10b16:	ea0516e3          	bnez	a0,109c2 <_vfprintf_r+0x2b6>
   10b1a:	835a                	mv	t1,s6
   10b1c:	bb19                	j	10832 <_vfprintf_r+0x126>
   10b1e:	0084f793          	andi	a5,s1,8
   10b22:	180789e3          	beqz	a5,114b4 <_vfprintf_r+0xda8>
   10b26:	67c2                	ld	a5,16(sp)
   10b28:	07bd                	addi	a5,a5,15
   10b2a:	ff07f713          	andi	a4,a5,-16
   10b2e:	631c                	ld	a5,0(a4)
   10b30:	670c                	ld	a1,8(a4)
   10b32:	0741                	addi	a4,a4,16
   10b34:	e83a                	sd	a4,16(sp)
   10b36:	0208                	addi	a0,sp,256
   10b38:	ec1a                	sd	t1,24(sp)
   10b3a:	e23e                	sd	a5,256(sp)
   10b3c:	e62e                	sd	a1,264(sp)
   10b3e:	4fc040ef          	jal	ra,1503a <_ldcheck>
   10b42:	d5aa                	sw	a0,232(sp)
   10b44:	4789                	li	a5,2
   10b46:	6362                	ld	t1,24(sp)
   10b48:	50f509e3          	beq	a0,a5,1185a <_vfprintf_r+0x114e>
   10b4c:	4785                	li	a5,1
   10b4e:	68f500e3          	beq	a0,a5,119ce <_vfprintf_r+0x12c2>
   10b52:	06100793          	li	a5,97
   10b56:	2efd09e3          	beq	s10,a5,11648 <_vfprintf_r+0xf3c>
   10b5a:	04100793          	li	a5,65
   10b5e:	05800713          	li	a4,88
   10b62:	2efd05e3          	beq	s10,a5,1164c <_vfprintf_r+0xf40>
   10b66:	fdfd7713          	andi	a4,s10,-33
   10b6a:	57fd                	li	a5,-1
   10b6c:	ecba                	sd	a4,88(sp)
   10b6e:	00fc1463          	bne	s8,a5,10b76 <_vfprintf_r+0x46a>
   10b72:	5000106f          	j	12072 <_vfprintf_r+0x1966>
   10b76:	04700793          	li	a5,71
   10b7a:	00f71463          	bne	a4,a5,10b82 <_vfprintf_r+0x476>
   10b7e:	4e60106f          	j	12064 <_vfprintf_r+0x1958>
   10b82:	69b2                	ld	s3,264(sp)
   10b84:	1004e793          	ori	a5,s1,256
   10b88:	f526                	sd	s1,168(sp)
   10b8a:	6b92                	ld	s7,256(sp)
   10b8c:	2781                	sext.w	a5,a5
   10b8e:	0009d463          	bgez	s3,10b96 <_vfprintf_r+0x48a>
   10b92:	15e0106f          	j	11cf0 <_vfprintf_r+0x15e4>
   10b96:	e582                	sd	zero,200(sp)
   10b98:	84be                	mv	s1,a5
   10b9a:	ec02                	sd	zero,24(sp)
   10b9c:	2f10006f          	j	1168c <_vfprintf_r+0xf80>
   10ba0:	0a10                	addi	a2,sp,272
   10ba2:	85ca                	mv	a1,s2
   10ba4:	8552                	mv	a0,s4
   10ba6:	f816                	sd	t0,48(sp)
   10ba8:	77b070ef          	jal	ra,18b22 <__sprint_r>
   10bac:	5a051063          	bnez	a0,1114c <_vfprintf_r+0xa40>
   10bb0:	7792                	ld	a5,288(sp)
   10bb2:	72c2                	ld	t0,48(sp)
   10bb4:	835a                	mv	t1,s6
   10bb6:	b39d                	j	1091c <_vfprintf_r+0x210>
   10bb8:	11812683          	lw	a3,280(sp)
   10bbc:	00178d13          	addi	s10,a5,1
   10bc0:	7782                	ld	a5,32(sp)
   10bc2:	00168b9b          	addiw	s7,a3,1
   10bc6:	4605                	li	a2,1
   10bc8:	01933023          	sd	s9,0(t1)
   10bcc:	86de                	mv	a3,s7
   10bce:	01030c13          	addi	s8,t1,16
   10bd2:	7ef65e63          	bge	a2,a5,113ce <_vfprintf_r+0xcc2>
   10bd6:	4605                	li	a2,1
   10bd8:	10d12c23          	sw	a3,280(sp)
   10bdc:	00c33423          	sd	a2,8(t1)
   10be0:	f26a                	sd	s10,288(sp)
   10be2:	469d                	li	a3,7
   10be4:	3b76c2e3          	blt	a3,s7,11788 <_vfprintf_r+0x107c>
   10be8:	77a6                	ld	a5,104(sp)
   10bea:	7746                	ld	a4,112(sp)
   10bec:	2b85                	addiw	s7,s7,1
   10bee:	9d3e                	add	s10,s10,a5
   10bf0:	00ec3023          	sd	a4,0(s8)
   10bf4:	00fc3423          	sd	a5,8(s8)
   10bf8:	f26a                	sd	s10,288(sp)
   10bfa:	11712c23          	sw	s7,280(sp)
   10bfe:	469d                	li	a3,7
   10c00:	0c41                	addi	s8,s8,16
   10c02:	3b76c0e3          	blt	a3,s7,117a2 <_vfprintf_r+0x1096>
   10c06:	6512                	ld	a0,256(sp)
   10c08:	65b2                	ld	a1,264(sp)
   10c0a:	4681                	li	a3,0
   10c0c:	4601                	li	a2,0
   10c0e:	5920a0ef          	jal	ra,1b1a0 <__eqtf2>
   10c12:	7782                	ld	a5,32(sp)
   10c14:	fff7869b          	addiw	a3,a5,-1
   10c18:	7e050463          	beqz	a0,11400 <_vfprintf_r+0xcf4>
   10c1c:	2b85                	addiw	s7,s7,1
   10c1e:	001c8813          	addi	a6,s9,1
   10c22:	865e                	mv	a2,s7
   10c24:	9d36                	add	s10,s10,a3
   10c26:	010c3023          	sd	a6,0(s8)
   10c2a:	00dc3423          	sd	a3,8(s8)
   10c2e:	f26a                	sd	s10,288(sp)
   10c30:	10c12c23          	sw	a2,280(sp)
   10c34:	469d                	li	a3,7
   10c36:	0c41                	addi	s8,s8,16
   10c38:	7b76c763          	blt	a3,s7,113e6 <_vfprintf_r+0xcda>
   10c3c:	7766                	ld	a4,120(sp)
   10c3e:	1994                	addi	a3,sp,240
   10c40:	001b861b          	addiw	a2,s7,1
   10c44:	01a707b3          	add	a5,a4,s10
   10c48:	00dc3023          	sd	a3,0(s8)
   10c4c:	00ec3423          	sd	a4,8(s8)
   10c50:	f23e                	sd	a5,288(sp)
   10c52:	10c12c23          	sw	a2,280(sp)
   10c56:	469d                	li	a3,7
   10c58:	010c0313          	addi	t1,s8,16
   10c5c:	d2c6d2e3          	bge	a3,a2,10980 <_vfprintf_r+0x274>
   10c60:	0a10                	addi	a2,sp,272
   10c62:	85ca                	mv	a1,s2
   10c64:	8552                	mv	a0,s4
   10c66:	6bd070ef          	jal	ra,18b22 <__sprint_r>
   10c6a:	4e051163          	bnez	a0,1114c <_vfprintf_r+0xa40>
   10c6e:	7792                	ld	a5,288(sp)
   10c70:	835a                	mv	t1,s6
   10c72:	b339                	j	10980 <_vfprintf_r+0x274>
   10c74:	0104f793          	andi	a5,s1,16
   10c78:	020799e3          	bnez	a5,114aa <_vfprintf_r+0xd9e>
   10c7c:	66c2                	ld	a3,16(sp)
   10c7e:	0404f793          	andi	a5,s1,64
   10c82:	0006a983          	lw	s3,0(a3)
   10c86:	4c0782e3          	beqz	a5,1194a <_vfprintf_r+0x123e>
   10c8a:	19c2                	slli	s3,s3,0x30
   10c8c:	0309d993          	srli	s3,s3,0x30
   10c90:	b53d                	j	10abe <_vfprintf_r+0x3b2>
   10c92:	0104f793          	andi	a5,s1,16
   10c96:	7e079e63          	bnez	a5,11492 <_vfprintf_r+0xd86>
   10c9a:	66c2                	ld	a3,16(sp)
   10c9c:	0404f793          	andi	a5,s1,64
   10ca0:	0006a983          	lw	s3,0(a3)
   10ca4:	4a078be3          	beqz	a5,1195a <_vfprintf_r+0x124e>
   10ca8:	0109999b          	slliw	s3,s3,0x10
   10cac:	4109d99b          	sraiw	s3,s3,0x10
   10cb0:	87ce                	mv	a5,s3
   10cb2:	da07dae3          	bgez	a5,10a66 <_vfprintf_r+0x35a>
   10cb6:	e83a                	sd	a4,16(sp)
   10cb8:	02d00713          	li	a4,45
   10cbc:	0ce10fa3          	sb	a4,223(sp)
   10cc0:	577d                	li	a4,-1
   10cc2:	413009b3          	neg	s3,s3
   10cc6:	8da6                	mv	s11,s1
   10cc8:	4785                	li	a5,1
   10cca:	e0ec15e3          	bne	s8,a4,10ad4 <_vfprintf_r+0x3c8>
   10cce:	4705                	li	a4,1
   10cd0:	48e78a63          	beq	a5,a4,11164 <_vfprintf_r+0xa58>
   10cd4:	4709                	li	a4,2
   10cd6:	26e78063          	beq	a5,a4,10f36 <_vfprintf_r+0x82a>
   10cda:	18c10b93          	addi	s7,sp,396
   10cde:	8cde                	mv	s9,s7
   10ce0:	0079f793          	andi	a5,s3,7
   10ce4:	03078793          	addi	a5,a5,48
   10ce8:	fefc8fa3          	sb	a5,-1(s9)
   10cec:	0039d993          	srli	s3,s3,0x3
   10cf0:	8766                	mv	a4,s9
   10cf2:	1cfd                	addi	s9,s9,-1
   10cf4:	fe0996e3          	bnez	s3,10ce0 <_vfprintf_r+0x5d4>
   10cf8:	001df693          	andi	a3,s11,1
   10cfc:	24068d63          	beqz	a3,10f56 <_vfprintf_r+0x84a>
   10d00:	03000693          	li	a3,48
   10d04:	24d78963          	beq	a5,a3,10f56 <_vfprintf_r+0x84a>
   10d08:	1779                	addi	a4,a4,-2
   10d0a:	fedc8fa3          	sb	a3,-1(s9)
   10d0e:	40eb8bbb          	subw	s7,s7,a4
   10d12:	84ee                	mv	s1,s11
   10d14:	8cba                	mv	s9,a4
   10d16:	bb85                	j	10a86 <_vfprintf_r+0x37a>
   10d18:	8552                	mv	a0,s4
   10d1a:	35b010ef          	jal	ra,12874 <__sinit>
   10d1e:	b4b9                	j	1076c <_vfprintf_r+0x60>
   10d20:	67c2                	ld	a5,16(sp)
   10d22:	0c010fa3          	sb	zero,223(sp)
   10d26:	0007bc83          	ld	s9,0(a5)
   10d2a:	00878d93          	addi	s11,a5,8
   10d2e:	0a0c8be3          	beqz	s9,115e4 <_vfprintf_r+0xed8>
   10d32:	57fd                	li	a5,-1
   10d34:	36fc0ae3          	beq	s8,a5,118a8 <_vfprintf_r+0x119c>
   10d38:	8662                	mv	a2,s8
   10d3a:	4581                	li	a1,0
   10d3c:	8566                	mv	a0,s9
   10d3e:	e81a                	sd	t1,16(sp)
   10d40:	401040ef          	jal	ra,15940 <memchr>
   10d44:	ec2a                	sd	a0,24(sp)
   10d46:	6342                	ld	t1,16(sp)
   10d48:	e119                	bnez	a0,10d4e <_vfprintf_r+0x642>
   10d4a:	1a40106f          	j	11eee <_vfprintf_r+0x17e2>
   10d4e:	67e2                	ld	a5,24(sp)
   10d50:	e86e                	sd	s11,16(sp)
   10d52:	ec02                	sd	zero,24(sp)
   10d54:	41978bbb          	subw	s7,a5,s9
   10d58:	0df14783          	lbu	a5,223(sp)
   10d5c:	fffbc993          	not	s3,s7
   10d60:	43f9d993          	srai	s3,s3,0x3f
   10d64:	e882                	sd	zero,80(sp)
   10d66:	ec82                	sd	zero,88(sp)
   10d68:	e482                	sd	zero,72(sp)
   10d6a:	0179f9b3          	and	s3,s3,s7
   10d6e:	4c01                	li	s8,0
   10d70:	d20799e3          	bnez	a5,10aa2 <_vfprintf_r+0x396>
   10d74:	beb9                	j	108d2 <_vfprintf_r+0x1c6>
   10d76:	6742                	ld	a4,16(sp)
   10d78:	0c010fa3          	sb	zero,223(sp)
   10d7c:	4985                	li	s3,1
   10d7e:	431c                	lw	a5,0(a4)
   10d80:	0721                	addi	a4,a4,8
   10d82:	e83a                	sd	a4,16(sp)
   10d84:	12f10423          	sb	a5,296(sp)
   10d88:	4b85                	li	s7,1
   10d8a:	12810c93          	addi	s9,sp,296
   10d8e:	be2d                	j	108c8 <_vfprintf_r+0x1bc>
   10d90:	67c2                	ld	a5,16(sp)
   10d92:	0007aa83          	lw	s5,0(a5)
   10d96:	07a1                	addi	a5,a5,8
   10d98:	6e0ad363          	bgez	s5,1147e <_vfprintf_r+0xd72>
   10d9c:	41500abb          	negw	s5,s5
   10da0:	e83e                	sd	a5,16(sp)
   10da2:	0044e493          	ori	s1,s1,4
   10da6:	00044e03          	lbu	t3,0(s0)
   10daa:	2481                	sext.w	s1,s1
   10dac:	bc45                	j	1085c <_vfprintf_r+0x150>
   10dae:	02b00793          	li	a5,43
   10db2:	00044e03          	lbu	t3,0(s0)
   10db6:	0cf10fa3          	sb	a5,223(sp)
   10dba:	b44d                	j	1085c <_vfprintf_r+0x150>
   10dbc:	0804e493          	ori	s1,s1,128
   10dc0:	00044e03          	lbu	t3,0(s0)
   10dc4:	2481                	sext.w	s1,s1
   10dc6:	bc59                	j	1085c <_vfprintf_r+0x150>
   10dc8:	00044d03          	lbu	s10,0(s0)
   10dcc:	00140793          	addi	a5,s0,1
   10dd0:	00dd1463          	bne	s10,a3,10dd8 <_vfprintf_r+0x6cc>
   10dd4:	39a0106f          	j	1216e <_vfprintf_r+0x1a62>
   10dd8:	fd0d071b          	addiw	a4,s10,-48
   10ddc:	843e                	mv	s0,a5
   10dde:	4c01                	li	s8,0
   10de0:	a8ede3e3          	bltu	s11,a4,10866 <_vfprintf_r+0x15a>
   10de4:	00044d03          	lbu	s10,0(s0)
   10de8:	002c179b          	slliw	a5,s8,0x2
   10dec:	018787bb          	addw	a5,a5,s8
   10df0:	0017979b          	slliw	a5,a5,0x1
   10df4:	00e78c3b          	addw	s8,a5,a4
   10df8:	fd0d071b          	addiw	a4,s10,-48
   10dfc:	0405                	addi	s0,s0,1
   10dfe:	feedf3e3          	bgeu	s11,a4,10de4 <_vfprintf_r+0x6d8>
   10e02:	b495                	j	10866 <_vfprintf_r+0x15a>
   10e04:	8552                	mv	a0,s4
   10e06:	ec1a                	sd	t1,24(sp)
   10e08:	27a040ef          	jal	ra,15082 <_localeconv_r>
   10e0c:	651c                	ld	a5,8(a0)
   10e0e:	853e                	mv	a0,a5
   10e10:	e53e                	sd	a5,136(sp)
   10e12:	867ff0ef          	jal	ra,10678 <strlen>
   10e16:	87aa                	mv	a5,a0
   10e18:	8552                	mv	a0,s4
   10e1a:	8d3e                	mv	s10,a5
   10e1c:	e13e                	sd	a5,128(sp)
   10e1e:	264040ef          	jal	ra,15082 <_localeconv_r>
   10e22:	691c                	ld	a5,16(a0)
   10e24:	6362                	ld	t1,24(sp)
   10e26:	00044e03          	lbu	t3,0(s0)
   10e2a:	f0be                	sd	a5,96(sp)
   10e2c:	a20d08e3          	beqz	s10,1085c <_vfprintf_r+0x150>
   10e30:	a20786e3          	beqz	a5,1085c <_vfprintf_r+0x150>
   10e34:	0007c783          	lbu	a5,0(a5)
   10e38:	a20782e3          	beqz	a5,1085c <_vfprintf_r+0x150>
   10e3c:	4004e493          	ori	s1,s1,1024
   10e40:	2481                	sext.w	s1,s1
   10e42:	bc29                	j	1085c <_vfprintf_r+0x150>
   10e44:	0014e493          	ori	s1,s1,1
   10e48:	00044e03          	lbu	t3,0(s0)
   10e4c:	2481                	sext.w	s1,s1
   10e4e:	b439                	j	1085c <_vfprintf_r+0x150>
   10e50:	0df14783          	lbu	a5,223(sp)
   10e54:	00044e03          	lbu	t3,0(s0)
   10e58:	a00792e3          	bnez	a5,1085c <_vfprintf_r+0x150>
   10e5c:	02000793          	li	a5,32
   10e60:	0cf10fa3          	sb	a5,223(sp)
   10e64:	bae5                	j	1085c <_vfprintf_r+0x150>
   10e66:	0084e493          	ori	s1,s1,8
   10e6a:	00044e03          	lbu	t3,0(s0)
   10e6e:	2481                	sext.w	s1,s1
   10e70:	b2f5                	j	1085c <_vfprintf_r+0x150>
   10e72:	0104ed93          	ori	s11,s1,16
   10e76:	2d81                	sext.w	s11,s11
   10e78:	66c2                	ld	a3,16(sp)
   10e7a:	020df793          	andi	a5,s11,32
   10e7e:	00868713          	addi	a4,a3,8
   10e82:	5c078863          	beqz	a5,11452 <_vfprintf_r+0xd46>
   10e86:	0006b983          	ld	s3,0(a3)
   10e8a:	4785                	li	a5,1
   10e8c:	e83a                	sd	a4,16(sp)
   10e8e:	b92d                	j	10ac8 <_vfprintf_r+0x3bc>
   10e90:	0204e493          	ori	s1,s1,32
   10e94:	00044e03          	lbu	t3,0(s0)
   10e98:	2481                	sext.w	s1,s1
   10e9a:	b2c9                	j	1085c <_vfprintf_r+0x150>
   10e9c:	6742                	ld	a4,16(sp)
   10e9e:	77e1                	lui	a5,0xffff8
   10ea0:	8307c793          	xori	a5,a5,-2000
   10ea4:	0ef11023          	sh	a5,224(sp)
   10ea8:	00870793          	addi	a5,a4,8 # ffffffffffffe008 <__BSS_END__+0xffffffffffdca7b8>
   10eac:	e83e                	sd	a5,16(sp)
   10eae:	67f1                	lui	a5,0x1c
   10eb0:	79078793          	addi	a5,a5,1936 # 1c790 <__clzdi2+0x186>
   10eb4:	0024ed93          	ori	s11,s1,2
   10eb8:	f43e                	sd	a5,40(sp)
   10eba:	00073983          	ld	s3,0(a4)
   10ebe:	2d81                	sext.w	s11,s11
   10ec0:	4789                	li	a5,2
   10ec2:	07800d13          	li	s10,120
   10ec6:	b109                	j	10ac8 <_vfprintf_r+0x3bc>
   10ec8:	66c2                	ld	a3,16(sp)
   10eca:	0204f793          	andi	a5,s1,32
   10ece:	6298                	ld	a4,0(a3)
   10ed0:	06a1                	addi	a3,a3,8
   10ed2:	e836                	sd	a3,16(sp)
   10ed4:	5a079a63          	bnez	a5,11488 <_vfprintf_r+0xd7c>
   10ed8:	0104f793          	andi	a5,s1,16
   10edc:	5a079663          	bnez	a5,11488 <_vfprintf_r+0xd7c>
   10ee0:	0404f793          	andi	a5,s1,64
   10ee4:	5c0791e3          	bnez	a5,11ca6 <_vfprintf_r+0x159a>
   10ee8:	2004f493          	andi	s1,s1,512
   10eec:	67a2                	ld	a5,8(sp)
   10eee:	e099                	bnez	s1,10ef4 <_vfprintf_r+0x7e8>
   10ef0:	1880106f          	j	12078 <_vfprintf_r+0x196c>
   10ef4:	00f70023          	sb	a5,0(a4)
   10ef8:	8ca2                	mv	s9,s0
   10efa:	bc65                	j	109b2 <_vfprintf_r+0x2a6>
   10efc:	00044e03          	lbu	t3,0(s0)
   10f00:	06c00793          	li	a5,108
   10f04:	6afe0e63          	beq	t3,a5,115c0 <_vfprintf_r+0xeb4>
   10f08:	0104e493          	ori	s1,s1,16
   10f0c:	2481                	sext.w	s1,s1
   10f0e:	b2b9                	j	1085c <_vfprintf_r+0x150>
   10f10:	00044e03          	lbu	t3,0(s0)
   10f14:	06800793          	li	a5,104
   10f18:	68fe0763          	beq	t3,a5,115a6 <_vfprintf_r+0xe9a>
   10f1c:	0404e493          	ori	s1,s1,64
   10f20:	2481                	sext.w	s1,s1
   10f22:	ba2d                	j	1085c <_vfprintf_r+0x150>
   10f24:	4705                	li	a4,1
   10f26:	00e79463          	bne	a5,a4,10f2e <_vfprintf_r+0x822>
   10f2a:	12a0106f          	j	12054 <_vfprintf_r+0x1948>
   10f2e:	4709                	li	a4,2
   10f30:	8da6                	mv	s11,s1
   10f32:	dae794e3          	bne	a5,a4,10cda <_vfprintf_r+0x5ce>
   10f36:	18c10b93          	addi	s7,sp,396
   10f3a:	8cde                	mv	s9,s7
   10f3c:	7722                	ld	a4,40(sp)
   10f3e:	00f9f793          	andi	a5,s3,15
   10f42:	1cfd                	addi	s9,s9,-1
   10f44:	97ba                	add	a5,a5,a4
   10f46:	0007c783          	lbu	a5,0(a5)
   10f4a:	0049d993          	srli	s3,s3,0x4
   10f4e:	00fc8023          	sb	a5,0(s9)
   10f52:	fe0995e3          	bnez	s3,10f3c <_vfprintf_r+0x830>
   10f56:	419b8bbb          	subw	s7,s7,s9
   10f5a:	84ee                	mv	s1,s11
   10f5c:	b62d                	j	10a86 <_vfprintf_r+0x37a>
   10f5e:	06500713          	li	a4,101
   10f62:	c5a75be3          	bge	a4,s10,10bb8 <_vfprintf_r+0x4ac>
   10f66:	6512                	ld	a0,256(sp)
   10f68:	65b2                	ld	a1,264(sp)
   10f6a:	4601                	li	a2,0
   10f6c:	4681                	li	a3,0
   10f6e:	fc3e                	sd	a5,56(sp)
   10f70:	f81a                	sd	t1,48(sp)
   10f72:	22e0a0ef          	jal	ra,1b1a0 <__eqtf2>
   10f76:	7342                	ld	t1,48(sp)
   10f78:	77e2                	ld	a5,56(sp)
   10f7a:	32051663          	bnez	a0,112a6 <_vfprintf_r+0xb9a>
   10f7e:	11812703          	lw	a4,280(sp)
   10f82:	66f1                	lui	a3,0x1c
   10f84:	7c868693          	addi	a3,a3,1992 # 1c7c8 <__clzdi2+0x1be>
   10f88:	2705                	addiw	a4,a4,1
   10f8a:	00d33023          	sd	a3,0(t1)
   10f8e:	0785                	addi	a5,a5,1
   10f90:	4685                	li	a3,1
   10f92:	00d33423          	sd	a3,8(t1)
   10f96:	10e12c23          	sw	a4,280(sp)
   10f9a:	0007069b          	sext.w	a3,a4
   10f9e:	f23e                	sd	a5,288(sp)
   10fa0:	471d                	li	a4,7
   10fa2:	0341                	addi	t1,t1,16
   10fa4:	08d748e3          	blt	a4,a3,11834 <_vfprintf_r+0x1128>
   10fa8:	572e                	lw	a4,232(sp)
   10faa:	7682                	ld	a3,32(sp)
   10fac:	4cd75463          	bge	a4,a3,11474 <_vfprintf_r+0xd68>
   10fb0:	76a6                	ld	a3,104(sp)
   10fb2:	11812703          	lw	a4,280(sp)
   10fb6:	7646                	ld	a2,112(sp)
   10fb8:	97b6                	add	a5,a5,a3
   10fba:	2705                	addiw	a4,a4,1
   10fbc:	00d33423          	sd	a3,8(t1)
   10fc0:	00c33023          	sd	a2,0(t1)
   10fc4:	0007069b          	sext.w	a3,a4
   10fc8:	10e12c23          	sw	a4,280(sp)
   10fcc:	f23e                	sd	a5,288(sp)
   10fce:	471d                	li	a4,7
   10fd0:	0341                	addi	t1,t1,16
   10fd2:	5ed74f63          	blt	a4,a3,115d0 <_vfprintf_r+0xec4>
   10fd6:	7702                	ld	a4,32(sp)
   10fd8:	fff70b9b          	addiw	s7,a4,-1
   10fdc:	9b7052e3          	blez	s7,10980 <_vfprintf_r+0x274>
   10fe0:	68f5                	lui	a7,0x1d
   10fe2:	46c1                	li	a3,16
   10fe4:	11812703          	lw	a4,280(sp)
   10fe8:	a1088d93          	addi	s11,a7,-1520 # 1ca10 <zeroes.0>
   10fec:	4cc1                	li	s9,16
   10fee:	4c1d                	li	s8,7
   10ff0:	0176c763          	blt	a3,s7,10ffe <_vfprintf_r+0x8f2>
   10ff4:	0570006f          	j	1184a <_vfprintf_r+0x113e>
   10ff8:	3bc1                	addiw	s7,s7,-16
   10ffa:	057cd8e3          	bge	s9,s7,1184a <_vfprintf_r+0x113e>
   10ffe:	2705                	addiw	a4,a4,1
   11000:	07c1                	addi	a5,a5,16
   11002:	01b33023          	sd	s11,0(t1)
   11006:	01933423          	sd	s9,8(t1)
   1100a:	f23e                	sd	a5,288(sp)
   1100c:	10e12c23          	sw	a4,280(sp)
   11010:	0341                	addi	t1,t1,16
   11012:	feec53e3          	bge	s8,a4,10ff8 <_vfprintf_r+0x8ec>
   11016:	0a10                	addi	a2,sp,272
   11018:	85ca                	mv	a1,s2
   1101a:	8552                	mv	a0,s4
   1101c:	307070ef          	jal	ra,18b22 <__sprint_r>
   11020:	12051663          	bnez	a0,1114c <_vfprintf_r+0xa40>
   11024:	7792                	ld	a5,288(sp)
   11026:	11812703          	lw	a4,280(sp)
   1102a:	835a                	mv	t1,s6
   1102c:	b7f1                	j	10ff8 <_vfprintf_r+0x8ec>
   1102e:	413a86bb          	subw	a3,s5,s3
   11032:	90d05ee3          	blez	a3,1094e <_vfprintf_r+0x242>
   11036:	68f5                	lui	a7,0x1d
   11038:	4641                	li	a2,16
   1103a:	11812703          	lw	a4,280(sp)
   1103e:	a1088d93          	addi	s11,a7,-1520 # 1ca10 <zeroes.0>
   11042:	4f41                	li	t5,16
   11044:	4f9d                	li	t6,7
   11046:	00d64663          	blt	a2,a3,11052 <_vfprintf_r+0x946>
   1104a:	a089                	j	1108c <_vfprintf_r+0x980>
   1104c:	36c1                	addiw	a3,a3,-16
   1104e:	02df5f63          	bge	t5,a3,1108c <_vfprintf_r+0x980>
   11052:	2705                	addiw	a4,a4,1
   11054:	07c1                	addi	a5,a5,16
   11056:	01b33023          	sd	s11,0(t1)
   1105a:	01e33423          	sd	t5,8(t1)
   1105e:	f23e                	sd	a5,288(sp)
   11060:	10e12c23          	sw	a4,280(sp)
   11064:	0341                	addi	t1,t1,16
   11066:	feefd3e3          	bge	t6,a4,1104c <_vfprintf_r+0x940>
   1106a:	0a10                	addi	a2,sp,272
   1106c:	85ca                	mv	a1,s2
   1106e:	8552                	mv	a0,s4
   11070:	f836                	sd	a3,48(sp)
   11072:	2b1070ef          	jal	ra,18b22 <__sprint_r>
   11076:	e979                	bnez	a0,1114c <_vfprintf_r+0xa40>
   11078:	76c2                	ld	a3,48(sp)
   1107a:	4f41                	li	t5,16
   1107c:	7792                	ld	a5,288(sp)
   1107e:	36c1                	addiw	a3,a3,-16
   11080:	11812703          	lw	a4,280(sp)
   11084:	835a                	mv	t1,s6
   11086:	4f9d                	li	t6,7
   11088:	fcdf45e3          	blt	t5,a3,11052 <_vfprintf_r+0x946>
   1108c:	2705                	addiw	a4,a4,1
   1108e:	97b6                	add	a5,a5,a3
   11090:	00d33423          	sd	a3,8(t1)
   11094:	01b33023          	sd	s11,0(t1)
   11098:	0007069b          	sext.w	a3,a4
   1109c:	10e12c23          	sw	a4,280(sp)
   110a0:	f23e                	sd	a5,288(sp)
   110a2:	471d                	li	a4,7
   110a4:	0341                	addi	t1,t1,16
   110a6:	8ad754e3          	bge	a4,a3,1094e <_vfprintf_r+0x242>
   110aa:	0a10                	addi	a2,sp,272
   110ac:	85ca                	mv	a1,s2
   110ae:	8552                	mv	a0,s4
   110b0:	273070ef          	jal	ra,18b22 <__sprint_r>
   110b4:	ed41                	bnez	a0,1114c <_vfprintf_r+0xa40>
   110b6:	7792                	ld	a5,288(sp)
   110b8:	835a                	mv	t1,s6
   110ba:	b851                	j	1094e <_vfprintf_r+0x242>
   110bc:	68f5                	lui	a7,0x1d
   110be:	4641                	li	a2,16
   110c0:	11812703          	lw	a4,280(sp)
   110c4:	a1088d93          	addi	s11,a7,-1520 # 1ca10 <zeroes.0>
   110c8:	4ec1                	li	t4,16
   110ca:	4f1d                	li	t5,7
   110cc:	01864663          	blt	a2,s8,110d8 <_vfprintf_r+0x9cc>
   110d0:	a83d                	j	1110e <_vfprintf_r+0xa02>
   110d2:	3c41                	addiw	s8,s8,-16
   110d4:	038edd63          	bge	t4,s8,1110e <_vfprintf_r+0xa02>
   110d8:	2705                	addiw	a4,a4,1
   110da:	07c1                	addi	a5,a5,16
   110dc:	01b33023          	sd	s11,0(t1)
   110e0:	01d33423          	sd	t4,8(t1)
   110e4:	f23e                	sd	a5,288(sp)
   110e6:	10e12c23          	sw	a4,280(sp)
   110ea:	0341                	addi	t1,t1,16
   110ec:	feef53e3          	bge	t5,a4,110d2 <_vfprintf_r+0x9c6>
   110f0:	0a10                	addi	a2,sp,272
   110f2:	85ca                	mv	a1,s2
   110f4:	8552                	mv	a0,s4
   110f6:	22d070ef          	jal	ra,18b22 <__sprint_r>
   110fa:	e929                	bnez	a0,1114c <_vfprintf_r+0xa40>
   110fc:	4ec1                	li	t4,16
   110fe:	3c41                	addiw	s8,s8,-16
   11100:	7792                	ld	a5,288(sp)
   11102:	11812703          	lw	a4,280(sp)
   11106:	835a                	mv	t1,s6
   11108:	4f1d                	li	t5,7
   1110a:	fd8ec7e3          	blt	t4,s8,110d8 <_vfprintf_r+0x9cc>
   1110e:	0017069b          	addiw	a3,a4,1
   11112:	97e2                	add	a5,a5,s8
   11114:	01b33023          	sd	s11,0(t1)
   11118:	01833423          	sd	s8,8(t1)
   1111c:	f23e                	sd	a5,288(sp)
   1111e:	10d12c23          	sw	a3,280(sp)
   11122:	471d                	li	a4,7
   11124:	0341                	addi	t1,t1,16
   11126:	82d758e3          	bge	a4,a3,10956 <_vfprintf_r+0x24a>
   1112a:	0a10                	addi	a2,sp,272
   1112c:	85ca                	mv	a1,s2
   1112e:	8552                	mv	a0,s4
   11130:	1f3070ef          	jal	ra,18b22 <__sprint_r>
   11134:	ed01                	bnez	a0,1114c <_vfprintf_r+0xa40>
   11136:	7792                	ld	a5,288(sp)
   11138:	835a                	mv	t1,s6
   1113a:	81dff06f          	j	10956 <_vfprintf_r+0x24a>
   1113e:	0a10                	addi	a2,sp,272
   11140:	85ca                	mv	a1,s2
   11142:	8552                	mv	a0,s4
   11144:	1df070ef          	jal	ra,18b22 <__sprint_r>
   11148:	84050be3          	beqz	a0,1099e <_vfprintf_r+0x292>
   1114c:	67e2                	ld	a5,24(sp)
   1114e:	86078ae3          	beqz	a5,109c2 <_vfprintf_r+0x2b6>
   11152:	85be                	mv	a1,a5
   11154:	8552                	mv	a0,s4
   11156:	04f010ef          	jal	ra,129a4 <_free_r>
   1115a:	b0a5                	j	109c2 <_vfprintf_r+0x2b6>
   1115c:	4705                	li	a4,1
   1115e:	8da6                	mv	s11,s1
   11160:	b6e79ae3          	bne	a5,a4,10cd4 <_vfprintf_r+0x5c8>
   11164:	47a5                	li	a5,9
   11166:	3737e763          	bltu	a5,s3,114d4 <_vfprintf_r+0xdc8>
   1116a:	0309899b          	addiw	s3,s3,48
   1116e:	193105a3          	sb	s3,395(sp)
   11172:	84ee                	mv	s1,s11
   11174:	4b85                	li	s7,1
   11176:	18b10c93          	addi	s9,sp,395
   1117a:	b231                	j	10a86 <_vfprintf_r+0x37a>
   1117c:	68f5                	lui	a7,0x1d
   1117e:	4641                	li	a2,16
   11180:	11812703          	lw	a4,280(sp)
   11184:	a0088893          	addi	a7,a7,-1536 # 1ca00 <blanks.1>
   11188:	4f41                	li	t5,16
   1118a:	439d                	li	t2,7
   1118c:	00d64663          	blt	a2,a3,11198 <_vfprintf_r+0xa8c>
   11190:	a0a9                	j	111da <_vfprintf_r+0xace>
   11192:	36c1                	addiw	a3,a3,-16
   11194:	04df5363          	bge	t5,a3,111da <_vfprintf_r+0xace>
   11198:	2705                	addiw	a4,a4,1
   1119a:	07c1                	addi	a5,a5,16
   1119c:	01133023          	sd	a7,0(t1)
   111a0:	01e33423          	sd	t5,8(t1)
   111a4:	f23e                	sd	a5,288(sp)
   111a6:	10e12c23          	sw	a4,280(sp)
   111aa:	0341                	addi	t1,t1,16
   111ac:	fee3d3e3          	bge	t2,a4,11192 <_vfprintf_r+0xa86>
   111b0:	0a10                	addi	a2,sp,272
   111b2:	85ca                	mv	a1,s2
   111b4:	8552                	mv	a0,s4
   111b6:	e0c6                	sd	a7,64(sp)
   111b8:	fc36                	sd	a3,56(sp)
   111ba:	f816                	sd	t0,48(sp)
   111bc:	167070ef          	jal	ra,18b22 <__sprint_r>
   111c0:	f551                	bnez	a0,1114c <_vfprintf_r+0xa40>
   111c2:	76e2                	ld	a3,56(sp)
   111c4:	4f41                	li	t5,16
   111c6:	7792                	ld	a5,288(sp)
   111c8:	36c1                	addiw	a3,a3,-16
   111ca:	11812703          	lw	a4,280(sp)
   111ce:	6886                	ld	a7,64(sp)
   111d0:	72c2                	ld	t0,48(sp)
   111d2:	835a                	mv	t1,s6
   111d4:	439d                	li	t2,7
   111d6:	fcdf41e3          	blt	t5,a3,11198 <_vfprintf_r+0xa8c>
   111da:	2705                	addiw	a4,a4,1
   111dc:	97b6                	add	a5,a5,a3
   111de:	00d33423          	sd	a3,8(t1)
   111e2:	01133023          	sd	a7,0(t1)
   111e6:	0007069b          	sext.w	a3,a4
   111ea:	10e12c23          	sw	a4,280(sp)
   111ee:	f23e                	sd	a5,288(sp)
   111f0:	471d                	li	a4,7
   111f2:	0341                	addi	t1,t1,16
   111f4:	eed75d63          	bge	a4,a3,108ee <_vfprintf_r+0x1e2>
   111f8:	0a10                	addi	a2,sp,272
   111fa:	85ca                	mv	a1,s2
   111fc:	8552                	mv	a0,s4
   111fe:	f816                	sd	t0,48(sp)
   11200:	123070ef          	jal	ra,18b22 <__sprint_r>
   11204:	f521                	bnez	a0,1114c <_vfprintf_r+0xa40>
   11206:	7792                	ld	a5,288(sp)
   11208:	72c2                	ld	t0,48(sp)
   1120a:	835a                	mv	t1,s6
   1120c:	ee2ff06f          	j	108ee <_vfprintf_r+0x1e2>
   11210:	0a10                	addi	a2,sp,272
   11212:	85ca                	mv	a1,s2
   11214:	8552                	mv	a0,s4
   11216:	10d070ef          	jal	ra,18b22 <__sprint_r>
   1121a:	f90d                	bnez	a0,1114c <_vfprintf_r+0xa40>
   1121c:	7792                	ld	a5,288(sp)
   1121e:	835a                	mv	t1,s6
   11220:	f26ff06f          	j	10946 <_vfprintf_r+0x23a>
   11224:	68f5                	lui	a7,0x1d
   11226:	46c1                	li	a3,16
   11228:	11812703          	lw	a4,280(sp)
   1122c:	a0088893          	addi	a7,a7,-1536 # 1ca00 <blanks.1>
   11230:	4bc1                	li	s7,16
   11232:	4c1d                	li	s8,7
   11234:	0096c663          	blt	a3,s1,11240 <_vfprintf_r+0xb34>
   11238:	a081                	j	11278 <_vfprintf_r+0xb6c>
   1123a:	34c1                	addiw	s1,s1,-16
   1123c:	029bde63          	bge	s7,s1,11278 <_vfprintf_r+0xb6c>
   11240:	2705                	addiw	a4,a4,1
   11242:	07c1                	addi	a5,a5,16
   11244:	01133023          	sd	a7,0(t1)
   11248:	01733423          	sd	s7,8(t1)
   1124c:	f23e                	sd	a5,288(sp)
   1124e:	10e12c23          	sw	a4,280(sp)
   11252:	0341                	addi	t1,t1,16
   11254:	feec53e3          	bge	s8,a4,1123a <_vfprintf_r+0xb2e>
   11258:	0a10                	addi	a2,sp,272
   1125a:	85ca                	mv	a1,s2
   1125c:	8552                	mv	a0,s4
   1125e:	f846                	sd	a7,48(sp)
   11260:	0c3070ef          	jal	ra,18b22 <__sprint_r>
   11264:	ee0514e3          	bnez	a0,1114c <_vfprintf_r+0xa40>
   11268:	34c1                	addiw	s1,s1,-16
   1126a:	7792                	ld	a5,288(sp)
   1126c:	11812703          	lw	a4,280(sp)
   11270:	78c2                	ld	a7,48(sp)
   11272:	835a                	mv	t1,s6
   11274:	fc9bc6e3          	blt	s7,s1,11240 <_vfprintf_r+0xb34>
   11278:	0017069b          	addiw	a3,a4,1
   1127c:	97a6                	add	a5,a5,s1
   1127e:	01133023          	sd	a7,0(t1)
   11282:	00933423          	sd	s1,8(t1)
   11286:	f23e                	sd	a5,288(sp)
   11288:	10d12c23          	sw	a3,280(sp)
   1128c:	471d                	li	a4,7
   1128e:	eed75f63          	bge	a4,a3,1098c <_vfprintf_r+0x280>
   11292:	0a10                	addi	a2,sp,272
   11294:	85ca                	mv	a1,s2
   11296:	8552                	mv	a0,s4
   11298:	08b070ef          	jal	ra,18b22 <__sprint_r>
   1129c:	ea0518e3          	bnez	a0,1114c <_vfprintf_r+0xa40>
   112a0:	7792                	ld	a5,288(sp)
   112a2:	eeaff06f          	j	1098c <_vfprintf_r+0x280>
   112a6:	562e                	lw	a2,232(sp)
   112a8:	50c05a63          	blez	a2,117bc <_vfprintf_r+0x10b0>
   112ac:	6726                	ld	a4,72(sp)
   112ae:	7682                	ld	a3,32(sp)
   112b0:	00070b9b          	sext.w	s7,a4
   112b4:	2ae6c063          	blt	a3,a4,11554 <_vfprintf_r+0xe48>
   112b8:	03705263          	blez	s7,112dc <_vfprintf_r+0xbd0>
   112bc:	11812703          	lw	a4,280(sp)
   112c0:	97de                	add	a5,a5,s7
   112c2:	01933023          	sd	s9,0(t1)
   112c6:	0017069b          	addiw	a3,a4,1
   112ca:	01733423          	sd	s7,8(t1)
   112ce:	f23e                	sd	a5,288(sp)
   112d0:	10d12c23          	sw	a3,280(sp)
   112d4:	471d                	li	a4,7
   112d6:	0341                	addi	t1,t1,16
   112d8:	0ad74ae3          	blt	a4,a3,11b8c <_vfprintf_r+0x1480>
   112dc:	fffbc713          	not	a4,s7
   112e0:	977d                	srai	a4,a4,0x3f
   112e2:	00ebfbb3          	and	s7,s7,a4
   112e6:	6726                	ld	a4,72(sp)
   112e8:	41770bbb          	subw	s7,a4,s7
   112ec:	31704863          	bgtz	s7,115fc <_vfprintf_r+0xef0>
   112f0:	66a6                	ld	a3,72(sp)
   112f2:	4004f713          	andi	a4,s1,1024
   112f6:	00dc8c33          	add	s8,s9,a3
   112fa:	70071f63          	bnez	a4,11a18 <_vfprintf_r+0x130c>
   112fe:	572e                	lw	a4,232(sp)
   11300:	7682                	ld	a3,32(sp)
   11302:	00d74663          	blt	a4,a3,1130e <_vfprintf_r+0xc02>
   11306:	0014f693          	andi	a3,s1,1
   1130a:	08068ee3          	beqz	a3,11ba6 <_vfprintf_r+0x149a>
   1130e:	7626                	ld	a2,104(sp)
   11310:	11812683          	lw	a3,280(sp)
   11314:	75c6                	ld	a1,112(sp)
   11316:	97b2                	add	a5,a5,a2
   11318:	2685                	addiw	a3,a3,1
   1131a:	00c33423          	sd	a2,8(t1)
   1131e:	00b33023          	sd	a1,0(t1)
   11322:	0006861b          	sext.w	a2,a3
   11326:	10d12c23          	sw	a3,280(sp)
   1132a:	f23e                	sd	a5,288(sp)
   1132c:	469d                	li	a3,7
   1132e:	0341                	addi	t1,t1,16
   11330:	3ac6c3e3          	blt	a3,a2,11ed6 <_vfprintf_r+0x17ca>
   11334:	7682                	ld	a3,32(sp)
   11336:	00dc8833          	add	a6,s9,a3
   1133a:	41880bb3          	sub	s7,a6,s8
   1133e:	9e99                	subw	a3,a3,a4
   11340:	000b861b          	sext.w	a2,s7
   11344:	00c6d363          	bge	a3,a2,1134a <_vfprintf_r+0xc3e>
   11348:	8bb6                	mv	s7,a3
   1134a:	2b81                	sext.w	s7,s7
   1134c:	03705263          	blez	s7,11370 <_vfprintf_r+0xc64>
   11350:	11812703          	lw	a4,280(sp)
   11354:	97de                	add	a5,a5,s7
   11356:	01833023          	sd	s8,0(t1)
   1135a:	0017061b          	addiw	a2,a4,1
   1135e:	01733423          	sd	s7,8(t1)
   11362:	f23e                	sd	a5,288(sp)
   11364:	10c12c23          	sw	a2,280(sp)
   11368:	471d                	li	a4,7
   1136a:	0341                	addi	t1,t1,16
   1136c:	38c74fe3          	blt	a4,a2,11f0a <_vfprintf_r+0x17fe>
   11370:	fffbc713          	not	a4,s7
   11374:	977d                	srai	a4,a4,0x3f
   11376:	00ebfbb3          	and	s7,s7,a4
   1137a:	41768bbb          	subw	s7,a3,s7
   1137e:	e1705163          	blez	s7,10980 <_vfprintf_r+0x274>
   11382:	68f5                	lui	a7,0x1d
   11384:	46c1                	li	a3,16
   11386:	11812703          	lw	a4,280(sp)
   1138a:	a1088d93          	addi	s11,a7,-1520 # 1ca10 <zeroes.0>
   1138e:	4cc1                	li	s9,16
   11390:	4c1d                	li	s8,7
   11392:	0176c663          	blt	a3,s7,1139e <_vfprintf_r+0xc92>
   11396:	a955                	j	1184a <_vfprintf_r+0x113e>
   11398:	3bc1                	addiw	s7,s7,-16
   1139a:	4b7cd863          	bge	s9,s7,1184a <_vfprintf_r+0x113e>
   1139e:	2705                	addiw	a4,a4,1
   113a0:	07c1                	addi	a5,a5,16
   113a2:	01b33023          	sd	s11,0(t1)
   113a6:	01933423          	sd	s9,8(t1)
   113aa:	f23e                	sd	a5,288(sp)
   113ac:	10e12c23          	sw	a4,280(sp)
   113b0:	0341                	addi	t1,t1,16
   113b2:	feec53e3          	bge	s8,a4,11398 <_vfprintf_r+0xc8c>
   113b6:	0a10                	addi	a2,sp,272
   113b8:	85ca                	mv	a1,s2
   113ba:	8552                	mv	a0,s4
   113bc:	766070ef          	jal	ra,18b22 <__sprint_r>
   113c0:	d80516e3          	bnez	a0,1114c <_vfprintf_r+0xa40>
   113c4:	7792                	ld	a5,288(sp)
   113c6:	11812703          	lw	a4,280(sp)
   113ca:	835a                	mv	t1,s6
   113cc:	b7f1                	j	11398 <_vfprintf_r+0xc8c>
   113ce:	0014f593          	andi	a1,s1,1
   113d2:	800592e3          	bnez	a1,10bd6 <_vfprintf_r+0x4ca>
   113d6:	00c33423          	sd	a2,8(t1)
   113da:	f26a                	sd	s10,288(sp)
   113dc:	11712c23          	sw	s7,280(sp)
   113e0:	469d                	li	a3,7
   113e2:	8576dde3          	bge	a3,s7,10c3c <_vfprintf_r+0x530>
   113e6:	0a10                	addi	a2,sp,272
   113e8:	85ca                	mv	a1,s2
   113ea:	8552                	mv	a0,s4
   113ec:	736070ef          	jal	ra,18b22 <__sprint_r>
   113f0:	d4051ee3          	bnez	a0,1114c <_vfprintf_r+0xa40>
   113f4:	7d12                	ld	s10,288(sp)
   113f6:	11812b83          	lw	s7,280(sp)
   113fa:	8c5a                	mv	s8,s6
   113fc:	841ff06f          	j	10c3c <_vfprintf_r+0x530>
   11400:	82d05ee3          	blez	a3,10c3c <_vfprintf_r+0x530>
   11404:	68f5                	lui	a7,0x1d
   11406:	4641                	li	a2,16
   11408:	a1088d93          	addi	s11,a7,-1520 # 1ca10 <zeroes.0>
   1140c:	4841                	li	a6,16
   1140e:	4c9d                	li	s9,7
   11410:	00d64663          	blt	a2,a3,1141c <_vfprintf_r+0xd10>
   11414:	a159                	j	1189a <_vfprintf_r+0x118e>
   11416:	36c1                	addiw	a3,a3,-16
   11418:	48d85163          	bge	a6,a3,1189a <_vfprintf_r+0x118e>
   1141c:	2b85                	addiw	s7,s7,1
   1141e:	0d41                	addi	s10,s10,16
   11420:	01bc3023          	sd	s11,0(s8)
   11424:	010c3423          	sd	a6,8(s8)
   11428:	f26a                	sd	s10,288(sp)
   1142a:	11712c23          	sw	s7,280(sp)
   1142e:	0c41                	addi	s8,s8,16
   11430:	ff7cd3e3          	bge	s9,s7,11416 <_vfprintf_r+0xd0a>
   11434:	0a10                	addi	a2,sp,272
   11436:	85ca                	mv	a1,s2
   11438:	8552                	mv	a0,s4
   1143a:	f836                	sd	a3,48(sp)
   1143c:	6e6070ef          	jal	ra,18b22 <__sprint_r>
   11440:	d00516e3          	bnez	a0,1114c <_vfprintf_r+0xa40>
   11444:	7d12                	ld	s10,288(sp)
   11446:	11812b83          	lw	s7,280(sp)
   1144a:	76c2                	ld	a3,48(sp)
   1144c:	8c5a                	mv	s8,s6
   1144e:	4841                	li	a6,16
   11450:	b7d9                	j	11416 <_vfprintf_r+0xd0a>
   11452:	010df793          	andi	a5,s11,16
   11456:	e3b9                	bnez	a5,1149c <_vfprintf_r+0xd90>
   11458:	66c2                	ld	a3,16(sp)
   1145a:	040df793          	andi	a5,s11,64
   1145e:	0006a983          	lw	s3,0(a3)
   11462:	4c078363          	beqz	a5,11928 <_vfprintf_r+0x121c>
   11466:	19c2                	slli	s3,s3,0x30
   11468:	0309d993          	srli	s3,s3,0x30
   1146c:	e83a                	sd	a4,16(sp)
   1146e:	4785                	li	a5,1
   11470:	e58ff06f          	j	10ac8 <_vfprintf_r+0x3bc>
   11474:	0014f713          	andi	a4,s1,1
   11478:	d0070463          	beqz	a4,10980 <_vfprintf_r+0x274>
   1147c:	be15                	j	10fb0 <_vfprintf_r+0x8a4>
   1147e:	00044e03          	lbu	t3,0(s0)
   11482:	e83e                	sd	a5,16(sp)
   11484:	bd8ff06f          	j	1085c <_vfprintf_r+0x150>
   11488:	67a2                	ld	a5,8(sp)
   1148a:	8ca2                	mv	s9,s0
   1148c:	e31c                	sd	a5,0(a4)
   1148e:	d24ff06f          	j	109b2 <_vfprintf_r+0x2a6>
   11492:	67c2                	ld	a5,16(sp)
   11494:	639c                	ld	a5,0(a5)
   11496:	89be                	mv	s3,a5
   11498:	dcaff06f          	j	10a62 <_vfprintf_r+0x356>
   1149c:	67c2                	ld	a5,16(sp)
   1149e:	e83a                	sd	a4,16(sp)
   114a0:	0007b983          	ld	s3,0(a5)
   114a4:	4785                	li	a5,1
   114a6:	e22ff06f          	j	10ac8 <_vfprintf_r+0x3bc>
   114aa:	67c2                	ld	a5,16(sp)
   114ac:	0007b983          	ld	s3,0(a5)
   114b0:	e0eff06f          	j	10abe <_vfprintf_r+0x3b2>
   114b4:	67c2                	ld	a5,16(sp)
   114b6:	ec1a                	sd	t1,24(sp)
   114b8:	2388                	fld	fa0,0(a5)
   114ba:	07a1                	addi	a5,a5,8
   114bc:	e83e                	sd	a5,16(sp)
   114be:	6690a0ef          	jal	ra,1c326 <__extenddftf2>
   114c2:	6362                	ld	t1,24(sp)
   114c4:	87aa                	mv	a5,a0
   114c6:	e70ff06f          	j	10b36 <_vfprintf_r+0x42a>
   114ca:	e83a                	sd	a4,16(sp)
   114cc:	47a5                	li	a5,9
   114ce:	8da6                	mv	s11,s1
   114d0:	c937fde3          	bgeu	a5,s3,1116a <_vfprintf_r+0xa5e>
   114d4:	18c10b93          	addi	s7,sp,396
   114d8:	400df713          	andi	a4,s11,1024
   114dc:	f002                	sd	zero,32(sp)
   114de:	865e                	mv	a2,s7
   114e0:	44a9                	li	s1,10
   114e2:	46a5                	li	a3,9
   114e4:	0ff00893          	li	a7,255
   114e8:	a039                	j	114f6 <_vfprintf_r+0xdea>
   114ea:	0299d7b3          	divu	a5,s3,s1
   114ee:	a736f4e3          	bgeu	a3,s3,10f56 <_vfprintf_r+0x84a>
   114f2:	89be                	mv	s3,a5
   114f4:	8666                	mv	a2,s9
   114f6:	7582                	ld	a1,32(sp)
   114f8:	fff60c93          	addi	s9,a2,-1
   114fc:	2585                	addiw	a1,a1,1
   114fe:	f02e                	sd	a1,32(sp)
   11500:	0299f7b3          	remu	a5,s3,s1
   11504:	0307879b          	addiw	a5,a5,48
   11508:	fef60fa3          	sb	a5,-1(a2)
   1150c:	df79                	beqz	a4,114ea <_vfprintf_r+0xdde>
   1150e:	7786                	ld	a5,96(sp)
   11510:	0007c783          	lbu	a5,0(a5)
   11514:	fcf59be3          	bne	a1,a5,114ea <_vfprintf_r+0xdde>
   11518:	fd1789e3          	beq	a5,a7,114ea <_vfprintf_r+0xdde>
   1151c:	a336fde3          	bgeu	a3,s3,10f56 <_vfprintf_r+0x84a>
   11520:	678a                	ld	a5,128(sp)
   11522:	65aa                	ld	a1,136(sp)
   11524:	f83a                	sd	a4,48(sp)
   11526:	40fc8cb3          	sub	s9,s9,a5
   1152a:	863e                	mv	a2,a5
   1152c:	8566                	mv	a0,s9
   1152e:	ec1a                	sd	t1,24(sp)
   11530:	291050ef          	jal	ra,16fc0 <strncpy>
   11534:	7706                	ld	a4,96(sp)
   11536:	0299d7b3          	divu	a5,s3,s1
   1153a:	6362                	ld	t1,24(sp)
   1153c:	00174603          	lbu	a2,1(a4)
   11540:	f002                	sd	zero,32(sp)
   11542:	46a5                	li	a3,9
   11544:	00c03633          	snez	a2,a2
   11548:	9732                	add	a4,a4,a2
   1154a:	f0ba                	sd	a4,96(sp)
   1154c:	0ff00893          	li	a7,255
   11550:	7742                	ld	a4,48(sp)
   11552:	b745                	j	114f2 <_vfprintf_r+0xde6>
   11554:	00068b9b          	sext.w	s7,a3
   11558:	d77042e3          	bgtz	s7,112bc <_vfprintf_r+0xbb0>
   1155c:	b341                	j	112dc <_vfprintf_r+0xbd0>
   1155e:	8da6                	mv	s11,s1
   11560:	ba21                	j	10e78 <_vfprintf_r+0x76c>
   11562:	67f1                	lui	a5,0x1c
   11564:	79078793          	addi	a5,a5,1936 # 1c790 <__clzdi2+0x186>
   11568:	f43e                	sd	a5,40(sp)
   1156a:	66c2                	ld	a3,16(sp)
   1156c:	0204f793          	andi	a5,s1,32
   11570:	00868713          	addi	a4,a3,8
   11574:	20078363          	beqz	a5,1177a <_vfprintf_r+0x106e>
   11578:	0006b983          	ld	s3,0(a3)
   1157c:	0014f793          	andi	a5,s1,1
   11580:	cf81                	beqz	a5,11598 <_vfprintf_r+0xe8c>
   11582:	00098b63          	beqz	s3,11598 <_vfprintf_r+0xe8c>
   11586:	0024e493          	ori	s1,s1,2
   1158a:	03000793          	li	a5,48
   1158e:	0ef10023          	sb	a5,224(sp)
   11592:	0fa100a3          	sb	s10,225(sp)
   11596:	2481                	sext.w	s1,s1
   11598:	bff4fd93          	andi	s11,s1,-1025
   1159c:	2d81                	sext.w	s11,s11
   1159e:	e83a                	sd	a4,16(sp)
   115a0:	4789                	li	a5,2
   115a2:	d26ff06f          	j	10ac8 <_vfprintf_r+0x3bc>
   115a6:	2004e493          	ori	s1,s1,512
   115aa:	00144e03          	lbu	t3,1(s0)
   115ae:	2481                	sext.w	s1,s1
   115b0:	0405                	addi	s0,s0,1
   115b2:	aaaff06f          	j	1085c <_vfprintf_r+0x150>
   115b6:	67f1                	lui	a5,0x1c
   115b8:	7a878793          	addi	a5,a5,1960 # 1c7a8 <__clzdi2+0x19e>
   115bc:	f43e                	sd	a5,40(sp)
   115be:	b775                	j	1156a <_vfprintf_r+0xe5e>
   115c0:	0204e493          	ori	s1,s1,32
   115c4:	00144e03          	lbu	t3,1(s0)
   115c8:	2481                	sext.w	s1,s1
   115ca:	0405                	addi	s0,s0,1
   115cc:	a90ff06f          	j	1085c <_vfprintf_r+0x150>
   115d0:	0a10                	addi	a2,sp,272
   115d2:	85ca                	mv	a1,s2
   115d4:	8552                	mv	a0,s4
   115d6:	54c070ef          	jal	ra,18b22 <__sprint_r>
   115da:	b60519e3          	bnez	a0,1114c <_vfprintf_r+0xa40>
   115de:	7792                	ld	a5,288(sp)
   115e0:	835a                	mv	t1,s6
   115e2:	bad5                	j	10fd6 <_vfprintf_r+0x8ca>
   115e4:	4799                	li	a5,6
   115e6:	000c0b9b          	sext.w	s7,s8
   115ea:	5b87ec63          	bltu	a5,s8,11ba2 <_vfprintf_r+0x1496>
   115ee:	6871                	lui	a6,0x1c
   115f0:	89de                	mv	s3,s7
   115f2:	e86e                	sd	s11,16(sp)
   115f4:	7c080c93          	addi	s9,a6,1984 # 1c7c0 <__clzdi2+0x1b6>
   115f8:	ad0ff06f          	j	108c8 <_vfprintf_r+0x1bc>
   115fc:	68f5                	lui	a7,0x1d
   115fe:	46c1                	li	a3,16
   11600:	11812703          	lw	a4,280(sp)
   11604:	a1088d93          	addi	s11,a7,-1520 # 1ca10 <zeroes.0>
   11608:	4d41                	li	s10,16
   1160a:	4c1d                	li	s8,7
   1160c:	0176c663          	blt	a3,s7,11618 <_vfprintf_r+0xf0c>
   11610:	aee1                	j	119e8 <_vfprintf_r+0x12dc>
   11612:	3bc1                	addiw	s7,s7,-16
   11614:	3d7d5a63          	bge	s10,s7,119e8 <_vfprintf_r+0x12dc>
   11618:	2705                	addiw	a4,a4,1
   1161a:	07c1                	addi	a5,a5,16
   1161c:	01b33023          	sd	s11,0(t1)
   11620:	01a33423          	sd	s10,8(t1)
   11624:	f23e                	sd	a5,288(sp)
   11626:	10e12c23          	sw	a4,280(sp)
   1162a:	0341                	addi	t1,t1,16
   1162c:	feec53e3          	bge	s8,a4,11612 <_vfprintf_r+0xf06>
   11630:	0a10                	addi	a2,sp,272
   11632:	85ca                	mv	a1,s2
   11634:	8552                	mv	a0,s4
   11636:	4ec070ef          	jal	ra,18b22 <__sprint_r>
   1163a:	b00519e3          	bnez	a0,1114c <_vfprintf_r+0xa40>
   1163e:	7792                	ld	a5,288(sp)
   11640:	11812703          	lw	a4,280(sp)
   11644:	835a                	mv	t1,s6
   11646:	b7f1                	j	11612 <_vfprintf_r+0xf06>
   11648:	07800713          	li	a4,120
   1164c:	0024e793          	ori	a5,s1,2
   11650:	03000693          	li	a3,48
   11654:	2781                	sext.w	a5,a5
   11656:	0ee100a3          	sb	a4,225(sp)
   1165a:	0ed10023          	sb	a3,224(sp)
   1165e:	06300713          	li	a4,99
   11662:	f53e                	sd	a5,168(sp)
   11664:	ec02                	sd	zero,24(sp)
   11666:	12810c93          	addi	s9,sp,296
   1166a:	6b874a63          	blt	a4,s8,11d1e <_vfprintf_r+0x1612>
   1166e:	69b2                	ld	s3,264(sp)
   11670:	fdfd7793          	andi	a5,s10,-33
   11674:	1024e493          	ori	s1,s1,258
   11678:	ecbe                	sd	a5,88(sp)
   1167a:	e582                	sd	zero,200(sp)
   1167c:	6b92                	ld	s7,256(sp)
   1167e:	2481                	sext.w	s1,s1
   11680:	6609ca63          	bltz	s3,11cf4 <_vfprintf_r+0x15e8>
   11684:	06100793          	li	a5,97
   11688:	1efd0ce3          	beq	s10,a5,12080 <_vfprintf_r+0x1974>
   1168c:	fbfd079b          	addiw	a5,s10,-65
   11690:	0007869b          	sext.w	a3,a5
   11694:	02500713          	li	a4,37
   11698:	00d76c63          	bltu	a4,a3,116b0 <_vfprintf_r+0xfa4>
   1169c:	02079713          	slli	a4,a5,0x20
   116a0:	01e75793          	srli	a5,a4,0x1e
   116a4:	6775                	lui	a4,0x1d
   116a6:	93870713          	addi	a4,a4,-1736 # 1c938 <__clzdi2+0x32e>
   116aa:	97ba                	add	a5,a5,a4
   116ac:	439c                	lw	a5,0(a5)
   116ae:	8782                	jr	a5
   116b0:	8de2                	mv	s11,s8
   116b2:	4689                	li	a3,2
   116b4:	11bc                	addi	a5,sp,232
   116b6:	876e                	mv	a4,s11
   116b8:	0f810893          	addi	a7,sp,248
   116bc:	0ec10813          	addi	a6,sp,236
   116c0:	85de                	mv	a1,s7
   116c2:	864e                	mv	a2,s3
   116c4:	8552                	mv	a0,s4
   116c6:	f01a                	sd	t1,32(sp)
   116c8:	363020ef          	jal	ra,1422a <_ldtoa_r>
   116cc:	6766                	ld	a4,88(sp)
   116ce:	04700793          	li	a5,71
   116d2:	7302                	ld	t1,32(sp)
   116d4:	8caa                	mv	s9,a0
   116d6:	7cf70463          	beq	a4,a5,11e9e <_vfprintf_r+0x1792>
   116da:	04600793          	li	a5,70
   116de:	01b508b3          	add	a7,a0,s11
   116e2:	00f71a63          	bne	a4,a5,116f6 <_vfprintf_r+0xfea>
   116e6:	00054703          	lbu	a4,0(a0)
   116ea:	03000793          	li	a5,48
   116ee:	64f70463          	beq	a4,a5,11d36 <_vfprintf_r+0x162a>
   116f2:	572e                	lw	a4,232(sp)
   116f4:	98ba                	add	a7,a7,a4
   116f6:	4681                	li	a3,0
   116f8:	4601                	li	a2,0
   116fa:	855e                	mv	a0,s7
   116fc:	85ce                	mv	a1,s3
   116fe:	f846                	sd	a7,48(sp)
   11700:	f01a                	sd	t1,32(sp)
   11702:	29f090ef          	jal	ra,1b1a0 <__eqtf2>
   11706:	78c2                	ld	a7,48(sp)
   11708:	7302                	ld	t1,32(sp)
   1170a:	86c6                	mv	a3,a7
   1170c:	e929                	bnez	a0,1175e <_vfprintf_r+0x1052>
   1170e:	419687bb          	subw	a5,a3,s9
   11712:	f03e                	sd	a5,32(sp)
   11714:	572e                	lw	a4,232(sp)
   11716:	04700793          	li	a5,71
   1171a:	e4ba                	sd	a4,72(sp)
   1171c:	6766                	ld	a4,88(sp)
   1171e:	24f70963          	beq	a4,a5,11970 <_vfprintf_r+0x1264>
   11722:	6766                	ld	a4,88(sp)
   11724:	04600793          	li	a5,70
   11728:	4af71163          	bne	a4,a5,11bca <_vfprintf_r+0x14be>
   1172c:	77aa                	ld	a5,168(sp)
   1172e:	6726                	ld	a4,72(sp)
   11730:	8b85                	andi	a5,a5,1
   11732:	00fc67b3          	or	a5,s8,a5
   11736:	20e055e3          	blez	a4,12140 <_vfprintf_r+0x1a34>
   1173a:	1e079ae3          	bnez	a5,1212e <_vfprintf_r+0x1a22>
   1173e:	6ba6                	ld	s7,72(sp)
   11740:	06600d13          	li	s10,102
   11744:	77aa                	ld	a5,168(sp)
   11746:	4007f793          	andi	a5,a5,1024
   1174a:	16079be3          	bnez	a5,120c0 <_vfprintf_r+0x19b4>
   1174e:	fffbc993          	not	s3,s7
   11752:	43f9d993          	srai	s3,s3,0x3f
   11756:	013bf9b3          	and	s3,s7,s3
   1175a:	2981                	sext.w	s3,s3
   1175c:	aca1                	j	119b4 <_vfprintf_r+0x12a8>
   1175e:	76ee                	ld	a3,248(sp)
   11760:	fb16f7e3          	bgeu	a3,a7,1170e <_vfprintf_r+0x1002>
   11764:	03000713          	li	a4,48
   11768:	00168793          	addi	a5,a3,1
   1176c:	fdbe                	sd	a5,248(sp)
   1176e:	00e68023          	sb	a4,0(a3)
   11772:	76ee                	ld	a3,248(sp)
   11774:	ff16eae3          	bltu	a3,a7,11768 <_vfprintf_r+0x105c>
   11778:	bf59                	j	1170e <_vfprintf_r+0x1002>
   1177a:	0104f793          	andi	a5,s1,16
   1177e:	c3c5                	beqz	a5,1181e <_vfprintf_r+0x1112>
   11780:	67c2                	ld	a5,16(sp)
   11782:	0007b983          	ld	s3,0(a5)
   11786:	bbdd                	j	1157c <_vfprintf_r+0xe70>
   11788:	0a10                	addi	a2,sp,272
   1178a:	85ca                	mv	a1,s2
   1178c:	8552                	mv	a0,s4
   1178e:	394070ef          	jal	ra,18b22 <__sprint_r>
   11792:	9a051de3          	bnez	a0,1114c <_vfprintf_r+0xa40>
   11796:	7d12                	ld	s10,288(sp)
   11798:	11812b83          	lw	s7,280(sp)
   1179c:	8c5a                	mv	s8,s6
   1179e:	c4aff06f          	j	10be8 <_vfprintf_r+0x4dc>
   117a2:	0a10                	addi	a2,sp,272
   117a4:	85ca                	mv	a1,s2
   117a6:	8552                	mv	a0,s4
   117a8:	37a070ef          	jal	ra,18b22 <__sprint_r>
   117ac:	9a0510e3          	bnez	a0,1114c <_vfprintf_r+0xa40>
   117b0:	7d12                	ld	s10,288(sp)
   117b2:	11812b83          	lw	s7,280(sp)
   117b6:	8c5a                	mv	s8,s6
   117b8:	c4eff06f          	j	10c06 <_vfprintf_r+0x4fa>
   117bc:	11812703          	lw	a4,280(sp)
   117c0:	66f1                	lui	a3,0x1c
   117c2:	7c868693          	addi	a3,a3,1992 # 1c7c8 <__clzdi2+0x1be>
   117c6:	2705                	addiw	a4,a4,1
   117c8:	00d33023          	sd	a3,0(t1)
   117cc:	0785                	addi	a5,a5,1
   117ce:	4685                	li	a3,1
   117d0:	00d33423          	sd	a3,8(t1)
   117d4:	10e12c23          	sw	a4,280(sp)
   117d8:	0007069b          	sext.w	a3,a4
   117dc:	f23e                	sd	a5,288(sp)
   117de:	471d                	li	a4,7
   117e0:	0341                	addi	t1,t1,16
   117e2:	38d74663          	blt	a4,a3,11b6e <_vfprintf_r+0x1462>
   117e6:	0e061a63          	bnez	a2,118da <_vfprintf_r+0x11ce>
   117ea:	7682                	ld	a3,32(sp)
   117ec:	0014f713          	andi	a4,s1,1
   117f0:	8f55                	or	a4,a4,a3
   117f2:	98070763          	beqz	a4,10980 <_vfprintf_r+0x274>
   117f6:	76a6                	ld	a3,104(sp)
   117f8:	11812703          	lw	a4,280(sp)
   117fc:	7646                	ld	a2,112(sp)
   117fe:	97b6                	add	a5,a5,a3
   11800:	2705                	addiw	a4,a4,1
   11802:	00d33423          	sd	a3,8(t1)
   11806:	10e12c23          	sw	a4,280(sp)
   1180a:	0007069b          	sext.w	a3,a4
   1180e:	00c33023          	sd	a2,0(t1)
   11812:	f23e                	sd	a5,288(sp)
   11814:	471d                	li	a4,7
   11816:	4ed74763          	blt	a4,a3,11d04 <_vfprintf_r+0x15f8>
   1181a:	0341                	addi	t1,t1,16
   1181c:	a0e5                	j	11904 <_vfprintf_r+0x11f8>
   1181e:	66c2                	ld	a3,16(sp)
   11820:	0404f793          	andi	a5,s1,64
   11824:	0006a983          	lw	s3,0(a3)
   11828:	10078a63          	beqz	a5,1193c <_vfprintf_r+0x1230>
   1182c:	19c2                	slli	s3,s3,0x30
   1182e:	0309d993          	srli	s3,s3,0x30
   11832:	b3a9                	j	1157c <_vfprintf_r+0xe70>
   11834:	0a10                	addi	a2,sp,272
   11836:	85ca                	mv	a1,s2
   11838:	8552                	mv	a0,s4
   1183a:	2e8070ef          	jal	ra,18b22 <__sprint_r>
   1183e:	900517e3          	bnez	a0,1114c <_vfprintf_r+0xa40>
   11842:	7792                	ld	a5,288(sp)
   11844:	835a                	mv	t1,s6
   11846:	f62ff06f          	j	10fa8 <_vfprintf_r+0x89c>
   1184a:	0017069b          	addiw	a3,a4,1
   1184e:	8736                	mv	a4,a3
   11850:	97de                	add	a5,a5,s7
   11852:	01b33023          	sd	s11,0(t1)
   11856:	918ff06f          	j	1096e <_vfprintf_r+0x262>
   1185a:	6512                	ld	a0,256(sp)
   1185c:	65b2                	ld	a1,264(sp)
   1185e:	4601                	li	a2,0
   11860:	4681                	li	a3,0
   11862:	285090ef          	jal	ra,1b2e6 <__letf2>
   11866:	6362                	ld	t1,24(sp)
   11868:	66054263          	bltz	a0,11ecc <_vfprintf_r+0x17c0>
   1186c:	0df14783          	lbu	a5,223(sp)
   11870:	04700713          	li	a4,71
   11874:	31a75863          	bge	a4,s10,11b84 <_vfprintf_r+0x1478>
   11878:	6871                	lui	a6,0x1c
   1187a:	77880c93          	addi	s9,a6,1912 # 1c778 <__clzdi2+0x16e>
   1187e:	f7f4f493          	andi	s1,s1,-129
   11882:	ec02                	sd	zero,24(sp)
   11884:	e882                	sd	zero,80(sp)
   11886:	ec82                	sd	zero,88(sp)
   11888:	e482                	sd	zero,72(sp)
   1188a:	2481                	sext.w	s1,s1
   1188c:	498d                	li	s3,3
   1188e:	4b8d                	li	s7,3
   11890:	4c01                	li	s8,0
   11892:	a0079863          	bnez	a5,10aa2 <_vfprintf_r+0x396>
   11896:	83cff06f          	j	108d2 <_vfprintf_r+0x1c6>
   1189a:	2b85                	addiw	s7,s7,1
   1189c:	865e                	mv	a2,s7
   1189e:	9d36                	add	s10,s10,a3
   118a0:	01bc3023          	sd	s11,0(s8)
   118a4:	b86ff06f          	j	10c2a <_vfprintf_r+0x51e>
   118a8:	8566                	mv	a0,s9
   118aa:	f81a                	sd	t1,48(sp)
   118ac:	dcdfe0ef          	jal	ra,10678 <strlen>
   118b0:	00050b9b          	sext.w	s7,a0
   118b4:	0df14783          	lbu	a5,223(sp)
   118b8:	fffbc993          	not	s3,s7
   118bc:	43f9d993          	srai	s3,s3,0x3f
   118c0:	e86e                	sd	s11,16(sp)
   118c2:	ec02                	sd	zero,24(sp)
   118c4:	e882                	sd	zero,80(sp)
   118c6:	ec82                	sd	zero,88(sp)
   118c8:	e482                	sd	zero,72(sp)
   118ca:	7342                	ld	t1,48(sp)
   118cc:	0179f9b3          	and	s3,s3,s7
   118d0:	4c01                	li	s8,0
   118d2:	9c079863          	bnez	a5,10aa2 <_vfprintf_r+0x396>
   118d6:	ffdfe06f          	j	108d2 <_vfprintf_r+0x1c6>
   118da:	76a6                	ld	a3,104(sp)
   118dc:	11812703          	lw	a4,280(sp)
   118e0:	75c6                	ld	a1,112(sp)
   118e2:	97b6                	add	a5,a5,a3
   118e4:	2705                	addiw	a4,a4,1
   118e6:	00d33423          	sd	a3,8(t1)
   118ea:	00b33023          	sd	a1,0(t1)
   118ee:	0007069b          	sext.w	a3,a4
   118f2:	10e12c23          	sw	a4,280(sp)
   118f6:	f23e                	sd	a5,288(sp)
   118f8:	471d                	li	a4,7
   118fa:	0341                	addi	t1,t1,16
   118fc:	40d74463          	blt	a4,a3,11d04 <_vfprintf_r+0x15f8>
   11900:	62064863          	bltz	a2,11f30 <_vfprintf_r+0x1824>
   11904:	7702                	ld	a4,32(sp)
   11906:	0016861b          	addiw	a2,a3,1
   1190a:	01933023          	sd	s9,0(t1)
   1190e:	97ba                	add	a5,a5,a4
   11910:	00e33423          	sd	a4,8(t1)
   11914:	f23e                	sd	a5,288(sp)
   11916:	10c12c23          	sw	a2,280(sp)
   1191a:	471d                	li	a4,7
   1191c:	00c74463          	blt	a4,a2,11924 <_vfprintf_r+0x1218>
   11920:	85eff06f          	j	1097e <_vfprintf_r+0x272>
   11924:	b3cff06f          	j	10c60 <_vfprintf_r+0x554>
   11928:	200df793          	andi	a5,s11,512
   1192c:	38078f63          	beqz	a5,11cca <_vfprintf_r+0x15be>
   11930:	0ff9f993          	zext.b	s3,s3
   11934:	e83a                	sd	a4,16(sp)
   11936:	4785                	li	a5,1
   11938:	990ff06f          	j	10ac8 <_vfprintf_r+0x3bc>
   1193c:	2004f793          	andi	a5,s1,512
   11940:	38078163          	beqz	a5,11cc2 <_vfprintf_r+0x15b6>
   11944:	0ff9f993          	zext.b	s3,s3
   11948:	b915                	j	1157c <_vfprintf_r+0xe70>
   1194a:	2004f793          	andi	a5,s1,512
   1194e:	36078563          	beqz	a5,11cb8 <_vfprintf_r+0x15ac>
   11952:	0ff9f993          	zext.b	s3,s3
   11956:	968ff06f          	j	10abe <_vfprintf_r+0x3b2>
   1195a:	2004f793          	andi	a5,s1,512
   1195e:	34078a63          	beqz	a5,11cb2 <_vfprintf_r+0x15a6>
   11962:	0189999b          	slliw	s3,s3,0x18
   11966:	4189d99b          	sraiw	s3,s3,0x18
   1196a:	87ce                	mv	a5,s3
   1196c:	8f6ff06f          	j	10a62 <_vfprintf_r+0x356>
   11970:	6726                	ld	a4,72(sp)
   11972:	57f5                	li	a5,-3
   11974:	24f74763          	blt	a4,a5,11bc2 <_vfprintf_r+0x14b6>
   11978:	24ec4563          	blt	s8,a4,11bc2 <_vfprintf_r+0x14b6>
   1197c:	7782                	ld	a5,32(sp)
   1197e:	6726                	ld	a4,72(sp)
   11980:	60f74263          	blt	a4,a5,11f84 <_vfprintf_r+0x1878>
   11984:	77aa                	ld	a5,168(sp)
   11986:	6726                	ld	a4,72(sp)
   11988:	8b85                	andi	a5,a5,1
   1198a:	8bba                	mv	s7,a4
   1198c:	c781                	beqz	a5,11994 <_vfprintf_r+0x1288>
   1198e:	77a6                	ld	a5,104(sp)
   11990:	00e78bbb          	addw	s7,a5,a4
   11994:	77aa                	ld	a5,168(sp)
   11996:	4007f793          	andi	a5,a5,1024
   1199a:	c781                	beqz	a5,119a2 <_vfprintf_r+0x1296>
   1199c:	67a6                	ld	a5,72(sp)
   1199e:	70f04f63          	bgtz	a5,120bc <_vfprintf_r+0x19b0>
   119a2:	fffbc993          	not	s3,s7
   119a6:	43f9d993          	srai	s3,s3,0x3f
   119aa:	013bf9b3          	and	s3,s7,s3
   119ae:	2981                	sext.w	s3,s3
   119b0:	06700d13          	li	s10,103
   119b4:	e882                	sd	zero,80(sp)
   119b6:	ec82                	sd	zero,88(sp)
   119b8:	67ae                	ld	a5,200(sp)
   119ba:	4c078a63          	beqz	a5,11e8e <_vfprintf_r+0x1782>
   119be:	02d00793          	li	a5,45
   119c2:	0cf10fa3          	sb	a5,223(sp)
   119c6:	4c01                	li	s8,0
   119c8:	2985                	addiw	s3,s3,1
   119ca:	f09fe06f          	j	108d2 <_vfprintf_r+0x1c6>
   119ce:	67b2                	ld	a5,264(sp)
   119d0:	3007cb63          	bltz	a5,11ce6 <_vfprintf_r+0x15da>
   119d4:	0df14783          	lbu	a5,223(sp)
   119d8:	04700713          	li	a4,71
   119dc:	55a75663          	bge	a4,s10,11f28 <_vfprintf_r+0x181c>
   119e0:	6871                	lui	a6,0x1c
   119e2:	78880c93          	addi	s9,a6,1928 # 1c788 <__clzdi2+0x17e>
   119e6:	bd61                	j	1187e <_vfprintf_r+0x1172>
   119e8:	0017069b          	addiw	a3,a4,1
   119ec:	97de                	add	a5,a5,s7
   119ee:	01b33023          	sd	s11,0(t1)
   119f2:	01733423          	sd	s7,8(t1)
   119f6:	f23e                	sd	a5,288(sp)
   119f8:	10d12c23          	sw	a3,280(sp)
   119fc:	471d                	li	a4,7
   119fe:	0341                	addi	t1,t1,16
   11a00:	8ed758e3          	bge	a4,a3,112f0 <_vfprintf_r+0xbe4>
   11a04:	0a10                	addi	a2,sp,272
   11a06:	85ca                	mv	a1,s2
   11a08:	8552                	mv	a0,s4
   11a0a:	118070ef          	jal	ra,18b22 <__sprint_r>
   11a0e:	f2051f63          	bnez	a0,1114c <_vfprintf_r+0xa40>
   11a12:	7792                	ld	a5,288(sp)
   11a14:	835a                	mv	t1,s6
   11a16:	b8e9                	j	112f0 <_vfprintf_r+0xbe4>
   11a18:	7702                	ld	a4,32(sp)
   11a1a:	6ef5                	lui	t4,0x1d
   11a1c:	4b9d                	li	s7,7
   11a1e:	9766                	add	a4,a4,s9
   11a20:	fc3a                	sd	a4,56(sp)
   11a22:	6766                	ld	a4,88(sp)
   11a24:	4dc1                	li	s11,16
   11a26:	a10e8d13          	addi	s10,t4,-1520 # 1ca10 <zeroes.0>
   11a2a:	cb49                	beqz	a4,11abc <_vfprintf_r+0x13b0>
   11a2c:	6746                	ld	a4,80(sp)
   11a2e:	eb51                	bnez	a4,11ac2 <_vfprintf_r+0x13b6>
   11a30:	7706                	ld	a4,96(sp)
   11a32:	177d                	addi	a4,a4,-1
   11a34:	f0ba                	sd	a4,96(sp)
   11a36:	6766                	ld	a4,88(sp)
   11a38:	377d                	addiw	a4,a4,-1
   11a3a:	ecba                	sd	a4,88(sp)
   11a3c:	668a                	ld	a3,128(sp)
   11a3e:	11812703          	lw	a4,280(sp)
   11a42:	662a                	ld	a2,136(sp)
   11a44:	97b6                	add	a5,a5,a3
   11a46:	2705                	addiw	a4,a4,1
   11a48:	00d33423          	sd	a3,8(t1)
   11a4c:	00c33023          	sd	a2,0(t1)
   11a50:	f23e                	sd	a5,288(sp)
   11a52:	0007069b          	sext.w	a3,a4
   11a56:	10e12c23          	sw	a4,280(sp)
   11a5a:	0341                	addi	t1,t1,16
   11a5c:	0cdbce63          	blt	s7,a3,11b38 <_vfprintf_r+0x142c>
   11a60:	7706                	ld	a4,96(sp)
   11a62:	00074603          	lbu	a2,0(a4)
   11a66:	7762                	ld	a4,56(sp)
   11a68:	418706b3          	sub	a3,a4,s8
   11a6c:	0006859b          	sext.w	a1,a3
   11a70:	0006071b          	sext.w	a4,a2
   11a74:	00b65363          	bge	a2,a1,11a7a <_vfprintf_r+0x136e>
   11a78:	86ba                	mv	a3,a4
   11a7a:	2681                	sext.w	a3,a3
   11a7c:	02d05663          	blez	a3,11aa8 <_vfprintf_r+0x139c>
   11a80:	11812703          	lw	a4,280(sp)
   11a84:	97b6                	add	a5,a5,a3
   11a86:	01833023          	sd	s8,0(t1)
   11a8a:	0017061b          	addiw	a2,a4,1
   11a8e:	00d33423          	sd	a3,8(t1)
   11a92:	f23e                	sd	a5,288(sp)
   11a94:	10c12c23          	sw	a2,280(sp)
   11a98:	0acbca63          	blt	s7,a2,11b4c <_vfprintf_r+0x1440>
   11a9c:	7706                	ld	a4,96(sp)
   11a9e:	0341                	addi	t1,t1,16
   11aa0:	00074603          	lbu	a2,0(a4)
   11aa4:	0006071b          	sext.w	a4,a2
   11aa8:	fff6c593          	not	a1,a3
   11aac:	95fd                	srai	a1,a1,0x3f
   11aae:	8eed                	and	a3,a3,a1
   11ab0:	9f15                	subw	a4,a4,a3
   11ab2:	00e04c63          	bgtz	a4,11aca <_vfprintf_r+0x13be>
   11ab6:	9c32                	add	s8,s8,a2
   11ab8:	6766                	ld	a4,88(sp)
   11aba:	fb2d                	bnez	a4,11a2c <_vfprintf_r+0x1320>
   11abc:	6746                	ld	a4,80(sp)
   11abe:	3c070163          	beqz	a4,11e80 <_vfprintf_r+0x1774>
   11ac2:	6746                	ld	a4,80(sp)
   11ac4:	377d                	addiw	a4,a4,-1
   11ac6:	e8ba                	sd	a4,80(sp)
   11ac8:	bf95                	j	11a3c <_vfprintf_r+0x1330>
   11aca:	11812683          	lw	a3,280(sp)
   11ace:	00edc663          	blt	s11,a4,11ada <_vfprintf_r+0x13ce>
   11ad2:	a081                	j	11b12 <_vfprintf_r+0x1406>
   11ad4:	3741                	addiw	a4,a4,-16
   11ad6:	02edde63          	bge	s11,a4,11b12 <_vfprintf_r+0x1406>
   11ada:	2685                	addiw	a3,a3,1
   11adc:	07c1                	addi	a5,a5,16
   11ade:	01a33023          	sd	s10,0(t1)
   11ae2:	01b33423          	sd	s11,8(t1)
   11ae6:	f23e                	sd	a5,288(sp)
   11ae8:	10d12c23          	sw	a3,280(sp)
   11aec:	0341                	addi	t1,t1,16
   11aee:	fedbd3e3          	bge	s7,a3,11ad4 <_vfprintf_r+0x13c8>
   11af2:	0a10                	addi	a2,sp,272
   11af4:	85ca                	mv	a1,s2
   11af6:	8552                	mv	a0,s4
   11af8:	f83a                	sd	a4,48(sp)
   11afa:	028070ef          	jal	ra,18b22 <__sprint_r>
   11afe:	e4051763          	bnez	a0,1114c <_vfprintf_r+0xa40>
   11b02:	7742                	ld	a4,48(sp)
   11b04:	7792                	ld	a5,288(sp)
   11b06:	11812683          	lw	a3,280(sp)
   11b0a:	3741                	addiw	a4,a4,-16
   11b0c:	835a                	mv	t1,s6
   11b0e:	fcedc6e3          	blt	s11,a4,11ada <_vfprintf_r+0x13ce>
   11b12:	2685                	addiw	a3,a3,1
   11b14:	97ba                	add	a5,a5,a4
   11b16:	00e33423          	sd	a4,8(t1)
   11b1a:	01a33023          	sd	s10,0(t1)
   11b1e:	f23e                	sd	a5,288(sp)
   11b20:	0006871b          	sext.w	a4,a3
   11b24:	10d12c23          	sw	a3,280(sp)
   11b28:	38ebc463          	blt	s7,a4,11eb0 <_vfprintf_r+0x17a4>
   11b2c:	7706                	ld	a4,96(sp)
   11b2e:	0341                	addi	t1,t1,16
   11b30:	00074603          	lbu	a2,0(a4)
   11b34:	9c32                	add	s8,s8,a2
   11b36:	b749                	j	11ab8 <_vfprintf_r+0x13ac>
   11b38:	0a10                	addi	a2,sp,272
   11b3a:	85ca                	mv	a1,s2
   11b3c:	8552                	mv	a0,s4
   11b3e:	7e5060ef          	jal	ra,18b22 <__sprint_r>
   11b42:	e0051563          	bnez	a0,1114c <_vfprintf_r+0xa40>
   11b46:	7792                	ld	a5,288(sp)
   11b48:	835a                	mv	t1,s6
   11b4a:	bf19                	j	11a60 <_vfprintf_r+0x1354>
   11b4c:	0a10                	addi	a2,sp,272
   11b4e:	85ca                	mv	a1,s2
   11b50:	8552                	mv	a0,s4
   11b52:	f836                	sd	a3,48(sp)
   11b54:	7cf060ef          	jal	ra,18b22 <__sprint_r>
   11b58:	de051a63          	bnez	a0,1114c <_vfprintf_r+0xa40>
   11b5c:	7786                	ld	a5,96(sp)
   11b5e:	76c2                	ld	a3,48(sp)
   11b60:	835a                	mv	t1,s6
   11b62:	0007c603          	lbu	a2,0(a5)
   11b66:	7792                	ld	a5,288(sp)
   11b68:	0006071b          	sext.w	a4,a2
   11b6c:	bf35                	j	11aa8 <_vfprintf_r+0x139c>
   11b6e:	0a10                	addi	a2,sp,272
   11b70:	85ca                	mv	a1,s2
   11b72:	8552                	mv	a0,s4
   11b74:	7af060ef          	jal	ra,18b22 <__sprint_r>
   11b78:	dc051a63          	bnez	a0,1114c <_vfprintf_r+0xa40>
   11b7c:	562e                	lw	a2,232(sp)
   11b7e:	7792                	ld	a5,288(sp)
   11b80:	835a                	mv	t1,s6
   11b82:	b195                	j	117e6 <_vfprintf_r+0x10da>
   11b84:	6871                	lui	a6,0x1c
   11b86:	77080c93          	addi	s9,a6,1904 # 1c770 <__clzdi2+0x166>
   11b8a:	b9d5                	j	1187e <_vfprintf_r+0x1172>
   11b8c:	0a10                	addi	a2,sp,272
   11b8e:	85ca                	mv	a1,s2
   11b90:	8552                	mv	a0,s4
   11b92:	791060ef          	jal	ra,18b22 <__sprint_r>
   11b96:	da051b63          	bnez	a0,1114c <_vfprintf_r+0xa40>
   11b9a:	7792                	ld	a5,288(sp)
   11b9c:	835a                	mv	t1,s6
   11b9e:	f3eff06f          	j	112dc <_vfprintf_r+0xbd0>
   11ba2:	4b99                	li	s7,6
   11ba4:	b4a9                	j	115ee <_vfprintf_r+0xee2>
   11ba6:	7682                	ld	a3,32(sp)
   11ba8:	00dc8bb3          	add	s7,s9,a3
   11bac:	418b8bb3          	sub	s7,s7,s8
   11bb0:	9e99                	subw	a3,a3,a4
   11bb2:	000b861b          	sext.w	a2,s7
   11bb6:	00c6d363          	bge	a3,a2,11bbc <_vfprintf_r+0x14b0>
   11bba:	8bb6                	mv	s7,a3
   11bbc:	2b81                	sext.w	s7,s7
   11bbe:	fb2ff06f          	j	11370 <_vfprintf_r+0xc64>
   11bc2:	3d79                	addiw	s10,s10,-2
   11bc4:	fdfd7793          	andi	a5,s10,-33
   11bc8:	ecbe                	sd	a5,88(sp)
   11bca:	67a6                	ld	a5,72(sp)
   11bcc:	65e6                	ld	a1,88(sp)
   11bce:	04100713          	li	a4,65
   11bd2:	fff7869b          	addiw	a3,a5,-1
   11bd6:	d5b6                	sw	a3,232(sp)
   11bd8:	0ffd7793          	zext.b	a5,s10
   11bdc:	4601                	li	a2,0
   11bde:	00e59663          	bne	a1,a4,11bea <_vfprintf_r+0x14de>
   11be2:	27bd                	addiw	a5,a5,15
   11be4:	0ff7f793          	zext.b	a5,a5
   11be8:	4605                	li	a2,1
   11bea:	0ef10823          	sb	a5,240(sp)
   11bee:	02b00793          	li	a5,43
   11bf2:	0006d763          	bgez	a3,11c00 <_vfprintf_r+0x14f4>
   11bf6:	67a6                	ld	a5,72(sp)
   11bf8:	4685                	li	a3,1
   11bfa:	9e9d                	subw	a3,a3,a5
   11bfc:	02d00793          	li	a5,45
   11c00:	0ef108a3          	sb	a5,241(sp)
   11c04:	47a5                	li	a5,9
   11c06:	3cd7dc63          	bge	a5,a3,11fde <_vfprintf_r+0x18d2>
   11c0a:	0ff10e93          	addi	t4,sp,255
   11c0e:	8676                	mv	a2,t4
   11c10:	45a9                	li	a1,10
   11c12:	06300793          	li	a5,99
   11c16:	02b6e73b          	remw	a4,a3,a1
   11c1a:	88b2                	mv	a7,a2
   11c1c:	8536                	mv	a0,a3
   11c1e:	167d                	addi	a2,a2,-1
   11c20:	0307071b          	addiw	a4,a4,48
   11c24:	fee88fa3          	sb	a4,-1(a7)
   11c28:	02b6c6bb          	divw	a3,a3,a1
   11c2c:	fea7c5e3          	blt	a5,a0,11c16 <_vfprintf_r+0x150a>
   11c30:	0306869b          	addiw	a3,a3,48
   11c34:	0ff6f693          	zext.b	a3,a3
   11c38:	ffe88793          	addi	a5,a7,-2
   11c3c:	fed60fa3          	sb	a3,-1(a2)
   11c40:	55d7f763          	bgeu	a5,t4,1218e <_vfprintf_r+0x1a82>
   11c44:	0f210713          	addi	a4,sp,242
   11c48:	a019                	j	11c4e <_vfprintf_r+0x1542>
   11c4a:	0007c683          	lbu	a3,0(a5)
   11c4e:	00d70023          	sb	a3,0(a4)
   11c52:	0785                	addi	a5,a5,1
   11c54:	0705                	addi	a4,a4,1
   11c56:	ffd79ae3          	bne	a5,t4,11c4a <_vfprintf_r+0x153e>
   11c5a:	10110793          	addi	a5,sp,257
   11c5e:	0f210713          	addi	a4,sp,242
   11c62:	411787b3          	sub	a5,a5,a7
   11c66:	97ba                	add	a5,a5,a4
   11c68:	1998                	addi	a4,sp,240
   11c6a:	9f99                	subw	a5,a5,a4
   11c6c:	fcbe                	sd	a5,120(sp)
   11c6e:	77e6                	ld	a5,120(sp)
   11c70:	7682                	ld	a3,32(sp)
   11c72:	4705                	li	a4,1
   11c74:	00f68bbb          	addw	s7,a3,a5
   11c78:	87de                	mv	a5,s7
   11c7a:	3ed75063          	bge	a4,a3,1205a <_vfprintf_r+0x194e>
   11c7e:	7726                	ld	a4,104(sp)
   11c80:	00e78bbb          	addw	s7,a5,a4
   11c84:	77aa                	ld	a5,168(sp)
   11c86:	fffbc993          	not	s3,s7
   11c8a:	43f9d993          	srai	s3,s3,0x3f
   11c8e:	bff7f493          	andi	s1,a5,-1025
   11c92:	2481                	sext.w	s1,s1
   11c94:	013bf9b3          	and	s3,s7,s3
   11c98:	1004e493          	ori	s1,s1,256
   11c9c:	2981                	sext.w	s3,s3
   11c9e:	e882                	sd	zero,80(sp)
   11ca0:	ec82                	sd	zero,88(sp)
   11ca2:	e482                	sd	zero,72(sp)
   11ca4:	bb11                	j	119b8 <_vfprintf_r+0x12ac>
   11ca6:	67a2                	ld	a5,8(sp)
   11ca8:	8ca2                	mv	s9,s0
   11caa:	00f71023          	sh	a5,0(a4)
   11cae:	d05fe06f          	j	109b2 <_vfprintf_r+0x2a6>
   11cb2:	87ce                	mv	a5,s3
   11cb4:	daffe06f          	j	10a62 <_vfprintf_r+0x356>
   11cb8:	1982                	slli	s3,s3,0x20
   11cba:	0209d993          	srli	s3,s3,0x20
   11cbe:	e01fe06f          	j	10abe <_vfprintf_r+0x3b2>
   11cc2:	1982                	slli	s3,s3,0x20
   11cc4:	0209d993          	srli	s3,s3,0x20
   11cc8:	b855                	j	1157c <_vfprintf_r+0xe70>
   11cca:	1982                	slli	s3,s3,0x20
   11ccc:	0209d993          	srli	s3,s3,0x20
   11cd0:	e83a                	sd	a4,16(sp)
   11cd2:	4785                	li	a5,1
   11cd4:	df5fe06f          	j	10ac8 <_vfprintf_r+0x3bc>
   11cd8:	0a10                	addi	a2,sp,272
   11cda:	85ca                	mv	a1,s2
   11cdc:	8552                	mv	a0,s4
   11cde:	645060ef          	jal	ra,18b22 <__sprint_r>
   11ce2:	ce1fe06f          	j	109c2 <_vfprintf_r+0x2b6>
   11ce6:	02d00793          	li	a5,45
   11cea:	0cf10fa3          	sb	a5,223(sp)
   11cee:	b1ed                	j	119d8 <_vfprintf_r+0x12cc>
   11cf0:	ec02                	sd	zero,24(sp)
   11cf2:	84be                	mv	s1,a5
   11cf4:	57fd                	li	a5,-1
   11cf6:	17fe                	slli	a5,a5,0x3f
   11cf8:	00f9c9b3          	xor	s3,s3,a5
   11cfc:	02d00793          	li	a5,45
   11d00:	e5be                	sd	a5,200(sp)
   11d02:	b249                	j	11684 <_vfprintf_r+0xf78>
   11d04:	0a10                	addi	a2,sp,272
   11d06:	85ca                	mv	a1,s2
   11d08:	8552                	mv	a0,s4
   11d0a:	619060ef          	jal	ra,18b22 <__sprint_r>
   11d0e:	c2051f63          	bnez	a0,1114c <_vfprintf_r+0xa40>
   11d12:	562e                	lw	a2,232(sp)
   11d14:	7792                	ld	a5,288(sp)
   11d16:	11812683          	lw	a3,280(sp)
   11d1a:	835a                	mv	t1,s6
   11d1c:	b6d5                	j	11900 <_vfprintf_r+0x11f4>
   11d1e:	001c059b          	addiw	a1,s8,1
   11d22:	8552                	mv	a0,s4
   11d24:	ec1a                	sd	t1,24(sp)
   11d26:	5b0030ef          	jal	ra,152d6 <_malloc_r>
   11d2a:	6362                	ld	t1,24(sp)
   11d2c:	8caa                	mv	s9,a0
   11d2e:	46050363          	beqz	a0,12194 <_vfprintf_r+0x1a88>
   11d32:	ec2a                	sd	a0,24(sp)
   11d34:	ba2d                	j	1166e <_vfprintf_r+0xf62>
   11d36:	4601                	li	a2,0
   11d38:	4681                	li	a3,0
   11d3a:	855e                	mv	a0,s7
   11d3c:	85ce                	mv	a1,s3
   11d3e:	f846                	sd	a7,48(sp)
   11d40:	f01a                	sd	t1,32(sp)
   11d42:	45e090ef          	jal	ra,1b1a0 <__eqtf2>
   11d46:	7302                	ld	t1,32(sp)
   11d48:	78c2                	ld	a7,48(sp)
   11d4a:	9a0504e3          	beqz	a0,116f2 <_vfprintf_r+0xfe6>
   11d4e:	4785                	li	a5,1
   11d50:	41b7873b          	subw	a4,a5,s11
   11d54:	d5ba                	sw	a4,232(sp)
   11d56:	98ba                	add	a7,a7,a4
   11d58:	ba79                	j	116f6 <_vfprintf_r+0xfea>
   11d5a:	001c0d9b          	addiw	s11,s8,1
   11d5e:	4689                	li	a3,2
   11d60:	ba91                	j	116b4 <_vfprintf_r+0xfa8>
   11d62:	8de2                	mv	s11,s8
   11d64:	468d                	li	a3,3
   11d66:	b2b9                	j	116b4 <_vfprintf_r+0xfa8>
   11d68:	85ce                	mv	a1,s3
   11d6a:	855e                	mv	a0,s7
   11d6c:	f81a                	sd	t1,48(sp)
   11d6e:	67c0a0ef          	jal	ra,1c3ea <__trunctfdf2>
   11d72:	11a8                	addi	a0,sp,232
   11d74:	6e1040ef          	jal	ra,16c54 <frexp>
   11d78:	5ae0a0ef          	jal	ra,1c326 <__extenddftf2>
   11d7c:	768a                	ld	a3,160(sp)
   11d7e:	4601                	li	a2,0
   11d80:	60c090ef          	jal	ra,1b38c <__multf3>
   11d84:	4601                	li	a2,0
   11d86:	4681                	li	a3,0
   11d88:	8baa                	mv	s7,a0
   11d8a:	f02e                	sd	a1,32(sp)
   11d8c:	414090ef          	jal	ra,1b1a0 <__eqtf2>
   11d90:	7f82                	ld	t6,32(sp)
   11d92:	7342                	ld	t1,48(sp)
   11d94:	e119                	bnez	a0,11d9a <_vfprintf_r+0x168e>
   11d96:	4785                	li	a5,1
   11d98:	d5be                	sw	a5,232(sp)
   11d9a:	67f1                	lui	a5,0x1c
   11d9c:	7a878793          	addi	a5,a5,1960 # 1c7a8 <__clzdi2+0x19e>
   11da0:	e4be                	sd	a5,72(sp)
   11da2:	020c1793          	slli	a5,s8,0x20
   11da6:	9381                	srli	a5,a5,0x20
   11da8:	0785                	addi	a5,a5,1
   11daa:	97e6                	add	a5,a5,s9
   11dac:	f93e                	sd	a5,176(sp)
   11dae:	018c87bb          	addw	a5,s9,s8
   11db2:	8de6                	mv	s11,s9
   11db4:	c3be                	sw	a5,196(sp)
   11db6:	a829                	j	11dd0 <_vfprintf_r+0x16c4>
   11db8:	4601                	li	a2,0
   11dba:	4681                	li	a3,0
   11dbc:	f01a                	sd	t1,32(sp)
   11dbe:	fc2e                	sd	a1,56(sp)
   11dc0:	f82a                	sd	a0,48(sp)
   11dc2:	3de090ef          	jal	ra,1b1a0 <__eqtf2>
   11dc6:	77e2                	ld	a5,56(sp)
   11dc8:	7302                	ld	t1,32(sp)
   11dca:	88de                	mv	a7,s7
   11dcc:	8fbe                	mv	t6,a5
   11dce:	cd31                	beqz	a0,11e2a <_vfprintf_r+0x171e>
   11dd0:	66ca                	ld	a3,144(sp)
   11dd2:	4601                	li	a2,0
   11dd4:	85fe                	mv	a1,t6
   11dd6:	855e                	mv	a0,s7
   11dd8:	f81a                	sd	t1,48(sp)
   11dda:	5b2090ef          	jal	ra,1b38c <__multf3>
   11dde:	8bae                	mv	s7,a1
   11de0:	f02a                	sd	a0,32(sp)
   11de2:	45c0a0ef          	jal	ra,1c23e <__fixtfsi>
   11de6:	0005099b          	sext.w	s3,a0
   11dea:	854e                	mv	a0,s3
   11dec:	4e40a0ef          	jal	ra,1c2d0 <__floatsitf>
   11df0:	7782                	ld	a5,32(sp)
   11df2:	86ae                	mv	a3,a1
   11df4:	862a                	mv	a2,a0
   11df6:	85de                	mv	a1,s7
   11df8:	853e                	mv	a0,a5
   11dfa:	3bd090ef          	jal	ra,1b9b6 <__subtf3>
   11dfe:	67a6                	ld	a5,72(sp)
   11e00:	471e                	lw	a4,196(sp)
   11e02:	fd6e                	sd	s11,184(sp)
   11e04:	97ce                	add	a5,a5,s3
   11e06:	0d85                	addi	s11,s11,1
   11e08:	0007c683          	lbu	a3,0(a5)
   11e0c:	41b7073b          	subw	a4,a4,s11
   11e10:	e8ba                	sd	a4,80(sp)
   11e12:	774a                	ld	a4,176(sp)
   11e14:	fedd8fa3          	sb	a3,-1(s11)
   11e18:	e0ae                	sd	a1,64(sp)
   11e1a:	7342                	ld	t1,48(sp)
   11e1c:	87ae                	mv	a5,a1
   11e1e:	88aa                	mv	a7,a0
   11e20:	8baa                	mv	s7,a0
   11e22:	f9b71be3          	bne	a4,s11,11db8 <_vfprintf_r+0x16ac>
   11e26:	577d                	li	a4,-1
   11e28:	e8ba                	sd	a4,80(sp)
   11e2a:	66ea                	ld	a3,152(sp)
   11e2c:	4601                	li	a2,0
   11e2e:	8546                	mv	a0,a7
   11e30:	85be                	mv	a1,a5
   11e32:	f01a                	sd	t1,32(sp)
   11e34:	fc46                	sd	a7,56(sp)
   11e36:	f83e                	sd	a5,48(sp)
   11e38:	408090ef          	jal	ra,1b240 <__getf2>
   11e3c:	7302                	ld	t1,32(sp)
   11e3e:	1ca04463          	bgtz	a0,12006 <_vfprintf_r+0x18fa>
   11e42:	78e2                	ld	a7,56(sp)
   11e44:	77c2                	ld	a5,48(sp)
   11e46:	66ea                	ld	a3,152(sp)
   11e48:	4601                	li	a2,0
   11e4a:	8546                	mv	a0,a7
   11e4c:	85be                	mv	a1,a5
   11e4e:	352090ef          	jal	ra,1b1a0 <__eqtf2>
   11e52:	7302                	ld	t1,32(sp)
   11e54:	e509                	bnez	a0,11e5e <_vfprintf_r+0x1752>
   11e56:	0019f993          	andi	s3,s3,1
   11e5a:	1a099663          	bnez	s3,12006 <_vfprintf_r+0x18fa>
   11e5e:	6746                	ld	a4,80(sp)
   11e60:	03000693          	li	a3,48
   11e64:	0017079b          	addiw	a5,a4,1
   11e68:	97ee                	add	a5,a5,s11
   11e6a:	00074763          	bltz	a4,11e78 <_vfprintf_r+0x176c>
   11e6e:	0d85                	addi	s11,s11,1
   11e70:	fedd8fa3          	sb	a3,-1(s11)
   11e74:	ffb79de3          	bne	a5,s11,11e6e <_vfprintf_r+0x1762>
   11e78:	419d87bb          	subw	a5,s11,s9
   11e7c:	f03e                	sd	a5,32(sp)
   11e7e:	b859                	j	11714 <_vfprintf_r+0x1008>
   11e80:	7702                	ld	a4,32(sp)
   11e82:	9766                	add	a4,a4,s9
   11e84:	c7877d63          	bgeu	a4,s8,112fe <_vfprintf_r+0xbf2>
   11e88:	8c3a                	mv	s8,a4
   11e8a:	c74ff06f          	j	112fe <_vfprintf_r+0xbf2>
   11e8e:	0df14783          	lbu	a5,223(sp)
   11e92:	4c01                	li	s8,0
   11e94:	c399                	beqz	a5,11e9a <_vfprintf_r+0x178e>
   11e96:	c0dfe06f          	j	10aa2 <_vfprintf_r+0x396>
   11e9a:	a39fe06f          	j	108d2 <_vfprintf_r+0x1c6>
   11e9e:	77aa                	ld	a5,168(sp)
   11ea0:	01b508b3          	add	a7,a0,s11
   11ea4:	8b85                	andi	a5,a5,1
   11ea6:	840798e3          	bnez	a5,116f6 <_vfprintf_r+0xfea>
   11eaa:	76ee                	ld	a3,248(sp)
   11eac:	863ff06f          	j	1170e <_vfprintf_r+0x1002>
   11eb0:	0a10                	addi	a2,sp,272
   11eb2:	85ca                	mv	a1,s2
   11eb4:	8552                	mv	a0,s4
   11eb6:	46d060ef          	jal	ra,18b22 <__sprint_r>
   11eba:	a8051963          	bnez	a0,1114c <_vfprintf_r+0xa40>
   11ebe:	7786                	ld	a5,96(sp)
   11ec0:	835a                	mv	t1,s6
   11ec2:	0007c603          	lbu	a2,0(a5)
   11ec6:	7792                	ld	a5,288(sp)
   11ec8:	9c32                	add	s8,s8,a2
   11eca:	b6fd                	j	11ab8 <_vfprintf_r+0x13ac>
   11ecc:	02d00793          	li	a5,45
   11ed0:	0cf10fa3          	sb	a5,223(sp)
   11ed4:	ba71                	j	11870 <_vfprintf_r+0x1164>
   11ed6:	0a10                	addi	a2,sp,272
   11ed8:	85ca                	mv	a1,s2
   11eda:	8552                	mv	a0,s4
   11edc:	447060ef          	jal	ra,18b22 <__sprint_r>
   11ee0:	a6051663          	bnez	a0,1114c <_vfprintf_r+0xa40>
   11ee4:	572e                	lw	a4,232(sp)
   11ee6:	7792                	ld	a5,288(sp)
   11ee8:	835a                	mv	t1,s6
   11eea:	c4aff06f          	j	11334 <_vfprintf_r+0xc28>
   11eee:	0df14783          	lbu	a5,223(sp)
   11ef2:	e86e                	sd	s11,16(sp)
   11ef4:	e882                	sd	zero,80(sp)
   11ef6:	ec82                	sd	zero,88(sp)
   11ef8:	e482                	sd	zero,72(sp)
   11efa:	89e2                	mv	s3,s8
   11efc:	8be2                	mv	s7,s8
   11efe:	4c01                	li	s8,0
   11f00:	c399                	beqz	a5,11f06 <_vfprintf_r+0x17fa>
   11f02:	ba1fe06f          	j	10aa2 <_vfprintf_r+0x396>
   11f06:	9cdfe06f          	j	108d2 <_vfprintf_r+0x1c6>
   11f0a:	0a10                	addi	a2,sp,272
   11f0c:	85ca                	mv	a1,s2
   11f0e:	8552                	mv	a0,s4
   11f10:	413060ef          	jal	ra,18b22 <__sprint_r>
   11f14:	a2051c63          	bnez	a0,1114c <_vfprintf_r+0xa40>
   11f18:	56ae                	lw	a3,232(sp)
   11f1a:	7702                	ld	a4,32(sp)
   11f1c:	7792                	ld	a5,288(sp)
   11f1e:	835a                	mv	t1,s6
   11f20:	40d706bb          	subw	a3,a4,a3
   11f24:	c4cff06f          	j	11370 <_vfprintf_r+0xc64>
   11f28:	6871                	lui	a6,0x1c
   11f2a:	78080c93          	addi	s9,a6,1920 # 1c780 <__clzdi2+0x176>
   11f2e:	ba81                	j	1187e <_vfprintf_r+0x1172>
   11f30:	68f5                	lui	a7,0x1d
   11f32:	5741                	li	a4,-16
   11f34:	40c00c3b          	negw	s8,a2
   11f38:	a1088d93          	addi	s11,a7,-1520 # 1ca10 <zeroes.0>
   11f3c:	4bc1                	li	s7,16
   11f3e:	4d1d                	li	s10,7
   11f40:	00e64663          	blt	a2,a4,11f4c <_vfprintf_r+0x1840>
   11f44:	a0ad                	j	11fae <_vfprintf_r+0x18a2>
   11f46:	3c41                	addiw	s8,s8,-16
   11f48:	078bd363          	bge	s7,s8,11fae <_vfprintf_r+0x18a2>
   11f4c:	2685                	addiw	a3,a3,1
   11f4e:	07c1                	addi	a5,a5,16
   11f50:	01b33023          	sd	s11,0(t1)
   11f54:	01733423          	sd	s7,8(t1)
   11f58:	f23e                	sd	a5,288(sp)
   11f5a:	10d12c23          	sw	a3,280(sp)
   11f5e:	0341                	addi	t1,t1,16
   11f60:	fedd53e3          	bge	s10,a3,11f46 <_vfprintf_r+0x183a>
   11f64:	0a10                	addi	a2,sp,272
   11f66:	85ca                	mv	a1,s2
   11f68:	8552                	mv	a0,s4
   11f6a:	3b9060ef          	jal	ra,18b22 <__sprint_r>
   11f6e:	9c051f63          	bnez	a0,1114c <_vfprintf_r+0xa40>
   11f72:	7792                	ld	a5,288(sp)
   11f74:	11812683          	lw	a3,280(sp)
   11f78:	835a                	mv	t1,s6
   11f7a:	b7f1                	j	11f46 <_vfprintf_r+0x183a>
   11f7c:	57fd                	li	a5,-1
   11f7e:	e43e                	sd	a5,8(sp)
   11f80:	a51fe06f          	j	109d0 <_vfprintf_r+0x2c4>
   11f84:	7702                	ld	a4,32(sp)
   11f86:	77a6                	ld	a5,104(sp)
   11f88:	06700d13          	li	s10,103
   11f8c:	00e78bbb          	addw	s7,a5,a4
   11f90:	6726                	ld	a4,72(sp)
   11f92:	fae04963          	bgtz	a4,11744 <_vfprintf_r+0x1038>
   11f96:	40eb87bb          	subw	a5,s7,a4
   11f9a:	2785                	addiw	a5,a5,1
   11f9c:	00078b9b          	sext.w	s7,a5
   11fa0:	fffbc713          	not	a4,s7
   11fa4:	977d                	srai	a4,a4,0x3f
   11fa6:	8ff9                	and	a5,a5,a4
   11fa8:	0007899b          	sext.w	s3,a5
   11fac:	b421                	j	119b4 <_vfprintf_r+0x12a8>
   11fae:	2685                	addiw	a3,a3,1
   11fb0:	97e2                	add	a5,a5,s8
   11fb2:	01b33023          	sd	s11,0(t1)
   11fb6:	01833423          	sd	s8,8(t1)
   11fba:	f23e                	sd	a5,288(sp)
   11fbc:	10d12c23          	sw	a3,280(sp)
   11fc0:	471d                	li	a4,7
   11fc2:	84d75ce3          	bge	a4,a3,1181a <_vfprintf_r+0x110e>
   11fc6:	0a10                	addi	a2,sp,272
   11fc8:	85ca                	mv	a1,s2
   11fca:	8552                	mv	a0,s4
   11fcc:	357060ef          	jal	ra,18b22 <__sprint_r>
   11fd0:	96051e63          	bnez	a0,1114c <_vfprintf_r+0xa40>
   11fd4:	7792                	ld	a5,288(sp)
   11fd6:	11812683          	lw	a3,280(sp)
   11fda:	835a                	mv	t1,s6
   11fdc:	b225                	j	11904 <_vfprintf_r+0x11f8>
   11fde:	0f210713          	addi	a4,sp,242
   11fe2:	e619                	bnez	a2,11ff0 <_vfprintf_r+0x18e4>
   11fe4:	03000793          	li	a5,48
   11fe8:	0ef10923          	sb	a5,242(sp)
   11fec:	0f310713          	addi	a4,sp,243
   11ff0:	0306879b          	addiw	a5,a3,48
   11ff4:	0c14                	addi	a3,sp,528
   11ff6:	40d706b3          	sub	a3,a4,a3
   11ffa:	00f70023          	sb	a5,0(a4)
   11ffe:	1216879b          	addiw	a5,a3,289
   12002:	fcbe                	sd	a5,120(sp)
   12004:	b1ad                	j	11c6e <_vfprintf_r+0x1562>
   12006:	77ea                	ld	a5,184(sp)
   12008:	fdbe                	sd	a5,248(sp)
   1200a:	67a6                	ld	a5,72(sp)
   1200c:	fffdc683          	lbu	a3,-1(s11)
   12010:	00f7c603          	lbu	a2,15(a5)
   12014:	87ee                	mv	a5,s11
   12016:	00d61e63          	bne	a2,a3,12032 <_vfprintf_r+0x1926>
   1201a:	03000593          	li	a1,48
   1201e:	feb78fa3          	sb	a1,-1(a5)
   12022:	77ee                	ld	a5,248(sp)
   12024:	fff78693          	addi	a3,a5,-1
   12028:	fdb6                	sd	a3,248(sp)
   1202a:	fff7c683          	lbu	a3,-1(a5)
   1202e:	fed608e3          	beq	a2,a3,1201e <_vfprintf_r+0x1912>
   12032:	0016861b          	addiw	a2,a3,1
   12036:	03900593          	li	a1,57
   1203a:	0ff67613          	zext.b	a2,a2
   1203e:	00b68563          	beq	a3,a1,12048 <_vfprintf_r+0x193c>
   12042:	fec78fa3          	sb	a2,-1(a5)
   12046:	bd0d                	j	11e78 <_vfprintf_r+0x176c>
   12048:	6726                	ld	a4,72(sp)
   1204a:	00a74603          	lbu	a2,10(a4)
   1204e:	fec78fa3          	sb	a2,-1(a5)
   12052:	b51d                	j	11e78 <_vfprintf_r+0x176c>
   12054:	8da6                	mv	s11,s1
   12056:	914ff06f          	j	1116a <_vfprintf_r+0xa5e>
   1205a:	772a                	ld	a4,168(sp)
   1205c:	8b05                	andi	a4,a4,1
   1205e:	c20703e3          	beqz	a4,11c84 <_vfprintf_r+0x1578>
   12062:	b931                	j	11c7e <_vfprintf_r+0x1572>
   12064:	000c0463          	beqz	s8,1206c <_vfprintf_r+0x1960>
   12068:	b1bfe06f          	j	10b82 <_vfprintf_r+0x476>
   1206c:	4c05                	li	s8,1
   1206e:	b15fe06f          	j	10b82 <_vfprintf_r+0x476>
   12072:	4c19                	li	s8,6
   12074:	b0ffe06f          	j	10b82 <_vfprintf_r+0x476>
   12078:	c31c                	sw	a5,0(a4)
   1207a:	8ca2                	mv	s9,s0
   1207c:	937fe06f          	j	109b2 <_vfprintf_r+0x2a6>
   12080:	85ce                	mv	a1,s3
   12082:	855e                	mv	a0,s7
   12084:	f81a                	sd	t1,48(sp)
   12086:	3640a0ef          	jal	ra,1c3ea <__trunctfdf2>
   1208a:	11a8                	addi	a0,sp,232
   1208c:	3c9040ef          	jal	ra,16c54 <frexp>
   12090:	2960a0ef          	jal	ra,1c326 <__extenddftf2>
   12094:	768a                	ld	a3,160(sp)
   12096:	4601                	li	a2,0
   12098:	2f4090ef          	jal	ra,1b38c <__multf3>
   1209c:	4601                	li	a2,0
   1209e:	4681                	li	a3,0
   120a0:	8baa                	mv	s7,a0
   120a2:	f02e                	sd	a1,32(sp)
   120a4:	0fc090ef          	jal	ra,1b1a0 <__eqtf2>
   120a8:	7f82                	ld	t6,32(sp)
   120aa:	7342                	ld	t1,48(sp)
   120ac:	e119                	bnez	a0,120b2 <_vfprintf_r+0x19a6>
   120ae:	4785                	li	a5,1
   120b0:	d5be                	sw	a5,232(sp)
   120b2:	67f1                	lui	a5,0x1c
   120b4:	79078793          	addi	a5,a5,1936 # 1c790 <__clzdi2+0x186>
   120b8:	e4be                	sd	a5,72(sp)
   120ba:	b1e5                	j	11da2 <_vfprintf_r+0x1696>
   120bc:	06700d13          	li	s10,103
   120c0:	7786                	ld	a5,96(sp)
   120c2:	0ff00713          	li	a4,255
   120c6:	e882                	sd	zero,80(sp)
   120c8:	0007c783          	lbu	a5,0(a5)
   120cc:	ec82                	sd	zero,88(sp)
   120ce:	02e78863          	beq	a5,a4,120fe <_vfprintf_r+0x19f2>
   120d2:	0ff00693          	li	a3,255
   120d6:	6626                	ld	a2,72(sp)
   120d8:	0007871b          	sext.w	a4,a5
   120dc:	02c7d163          	bge	a5,a2,120fe <_vfprintf_r+0x19f2>
   120e0:	7586                	ld	a1,96(sp)
   120e2:	40e6073b          	subw	a4,a2,a4
   120e6:	e4ba                	sd	a4,72(sp)
   120e8:	0015c783          	lbu	a5,1(a1)
   120ec:	cb95                	beqz	a5,12120 <_vfprintf_r+0x1a14>
   120ee:	6766                	ld	a4,88(sp)
   120f0:	2705                	addiw	a4,a4,1
   120f2:	ecba                	sd	a4,88(sp)
   120f4:	00158713          	addi	a4,a1,1
   120f8:	f0ba                	sd	a4,96(sp)
   120fa:	fcd79ee3          	bne	a5,a3,120d6 <_vfprintf_r+0x19ca>
   120fe:	6766                	ld	a4,88(sp)
   12100:	67c6                	ld	a5,80(sp)
   12102:	9fb9                	addw	a5,a5,a4
   12104:	670a                	ld	a4,128(sp)
   12106:	02e787bb          	mulw	a5,a5,a4
   1210a:	017787bb          	addw	a5,a5,s7
   1210e:	00078b9b          	sext.w	s7,a5
   12112:	fffbc713          	not	a4,s7
   12116:	977d                	srai	a4,a4,0x3f
   12118:	8ff9                	and	a5,a5,a4
   1211a:	0007899b          	sext.w	s3,a5
   1211e:	b869                	j	119b8 <_vfprintf_r+0x12ac>
   12120:	6746                	ld	a4,80(sp)
   12122:	7786                	ld	a5,96(sp)
   12124:	2705                	addiw	a4,a4,1
   12126:	0007c783          	lbu	a5,0(a5)
   1212a:	e8ba                	sd	a4,80(sp)
   1212c:	b7f9                	j	120fa <_vfprintf_r+0x19ee>
   1212e:	77a6                	ld	a5,104(sp)
   12130:	06600d13          	li	s10,102
   12134:	00e78bbb          	addw	s7,a5,a4
   12138:	018b8bbb          	addw	s7,s7,s8
   1213c:	e08ff06f          	j	11744 <_vfprintf_r+0x1038>
   12140:	e799                	bnez	a5,1214e <_vfprintf_r+0x1a42>
   12142:	4985                	li	s3,1
   12144:	06600d13          	li	s10,102
   12148:	4b85                	li	s7,1
   1214a:	86bff06f          	j	119b4 <_vfprintf_r+0x12a8>
   1214e:	77a6                	ld	a5,104(sp)
   12150:	06600d13          	li	s10,102
   12154:	2785                	addiw	a5,a5,1
   12156:	018787bb          	addw	a5,a5,s8
   1215a:	00078b9b          	sext.w	s7,a5
   1215e:	fffbc713          	not	a4,s7
   12162:	977d                	srai	a4,a4,0x3f
   12164:	8ff9                	and	a5,a5,a4
   12166:	0007899b          	sext.w	s3,a5
   1216a:	84bff06f          	j	119b4 <_vfprintf_r+0x12a8>
   1216e:	66c2                	ld	a3,16(sp)
   12170:	4298                	lw	a4,0(a3)
   12172:	00868613          	addi	a2,a3,8
   12176:	86ba                	mv	a3,a4
   12178:	00075363          	bgez	a4,1217e <_vfprintf_r+0x1a72>
   1217c:	56fd                	li	a3,-1
   1217e:	00144e03          	lbu	t3,1(s0)
   12182:	00068c1b          	sext.w	s8,a3
   12186:	e832                	sd	a2,16(sp)
   12188:	843e                	mv	s0,a5
   1218a:	ed2fe06f          	j	1085c <_vfprintf_r+0x150>
   1218e:	4789                	li	a5,2
   12190:	fcbe                	sd	a5,120(sp)
   12192:	bcf1                	j	11c6e <_vfprintf_r+0x1562>
   12194:	01095783          	lhu	a5,16(s2)
   12198:	0407e793          	ori	a5,a5,64
   1219c:	00f91823          	sh	a5,16(s2)
   121a0:	823fe06f          	j	109c2 <_vfprintf_r+0x2b6>

00000000000121a4 <vfprintf>:
   121a4:	87aa                	mv	a5,a0
   121a6:	8481b503          	ld	a0,-1976(gp) # 1f7a0 <_impure_ptr>
   121aa:	86b2                	mv	a3,a2
   121ac:	862e                	mv	a2,a1
   121ae:	85be                	mv	a1,a5
   121b0:	d5cfe06f          	j	1070c <_vfprintf_r>

00000000000121b4 <__sbprintf>:
   121b4:	0105d783          	lhu	a5,16(a1)
   121b8:	0ac5ae03          	lw	t3,172(a1)
   121bc:	0125d303          	lhu	t1,18(a1)
   121c0:	0305b883          	ld	a7,48(a1)
   121c4:	0405b803          	ld	a6,64(a1)
   121c8:	b3010113          	addi	sp,sp,-1232
   121cc:	9bf5                	andi	a5,a5,-3
   121ce:	40000713          	li	a4,1024
   121d2:	4c813023          	sd	s0,1216(sp)
   121d6:	00f11823          	sh	a5,16(sp)
   121da:	842e                	mv	s0,a1
   121dc:	191c                	addi	a5,sp,176
   121de:	858a                	mv	a1,sp
   121e0:	4a913c23          	sd	s1,1208(sp)
   121e4:	4b213823          	sd	s2,1200(sp)
   121e8:	4c113423          	sd	ra,1224(sp)
   121ec:	892a                	mv	s2,a0
   121ee:	d772                	sw	t3,172(sp)
   121f0:	00611923          	sh	t1,18(sp)
   121f4:	f846                	sd	a7,48(sp)
   121f6:	e0c2                	sd	a6,64(sp)
   121f8:	e03e                	sd	a5,0(sp)
   121fa:	ec3e                	sd	a5,24(sp)
   121fc:	c63a                	sw	a4,12(sp)
   121fe:	d03a                	sw	a4,32(sp)
   12200:	d402                	sw	zero,40(sp)
   12202:	d0afe0ef          	jal	ra,1070c <_vfprintf_r>
   12206:	84aa                	mv	s1,a0
   12208:	02055963          	bgez	a0,1223a <__sbprintf+0x86>
   1220c:	01015783          	lhu	a5,16(sp)
   12210:	0407f793          	andi	a5,a5,64
   12214:	c799                	beqz	a5,12222 <__sbprintf+0x6e>
   12216:	01045783          	lhu	a5,16(s0)
   1221a:	0407e793          	ori	a5,a5,64
   1221e:	00f41823          	sh	a5,16(s0)
   12222:	4c813083          	ld	ra,1224(sp)
   12226:	4c013403          	ld	s0,1216(sp)
   1222a:	4b013903          	ld	s2,1200(sp)
   1222e:	8526                	mv	a0,s1
   12230:	4b813483          	ld	s1,1208(sp)
   12234:	4d010113          	addi	sp,sp,1232
   12238:	8082                	ret
   1223a:	858a                	mv	a1,sp
   1223c:	854a                	mv	a0,s2
   1223e:	356000ef          	jal	ra,12594 <_fflush_r>
   12242:	d569                	beqz	a0,1220c <__sbprintf+0x58>
   12244:	54fd                	li	s1,-1
   12246:	b7d9                	j	1220c <__sbprintf+0x58>

0000000000012248 <__swsetup_r>:
   12248:	8481b783          	ld	a5,-1976(gp) # 1f7a0 <_impure_ptr>
   1224c:	1101                	addi	sp,sp,-32
   1224e:	e822                	sd	s0,16(sp)
   12250:	e426                	sd	s1,8(sp)
   12252:	ec06                	sd	ra,24(sp)
   12254:	84aa                	mv	s1,a0
   12256:	842e                	mv	s0,a1
   12258:	c399                	beqz	a5,1225e <__swsetup_r+0x16>
   1225a:	4bb8                	lw	a4,80(a5)
   1225c:	cf21                	beqz	a4,122b4 <__swsetup_r+0x6c>
   1225e:	01041703          	lh	a4,16(s0)
   12262:	03071793          	slli	a5,a4,0x30
   12266:	00877693          	andi	a3,a4,8
   1226a:	93c1                	srli	a5,a5,0x30
   1226c:	ceb9                	beqz	a3,122ca <__swsetup_r+0x82>
   1226e:	6c14                	ld	a3,24(s0)
   12270:	cabd                	beqz	a3,122e6 <__swsetup_r+0x9e>
   12272:	0017f613          	andi	a2,a5,1
   12276:	ce11                	beqz	a2,12292 <__swsetup_r+0x4a>
   12278:	5010                	lw	a2,32(s0)
   1227a:	00042623          	sw	zero,12(s0)
   1227e:	4501                	li	a0,0
   12280:	40c0063b          	negw	a2,a2
   12284:	d410                	sw	a2,40(s0)
   12286:	ce91                	beqz	a3,122a2 <__swsetup_r+0x5a>
   12288:	60e2                	ld	ra,24(sp)
   1228a:	6442                	ld	s0,16(sp)
   1228c:	64a2                	ld	s1,8(sp)
   1228e:	6105                	addi	sp,sp,32
   12290:	8082                	ret
   12292:	0027f613          	andi	a2,a5,2
   12296:	4581                	li	a1,0
   12298:	e211                	bnez	a2,1229c <__swsetup_r+0x54>
   1229a:	500c                	lw	a1,32(s0)
   1229c:	c44c                	sw	a1,12(s0)
   1229e:	4501                	li	a0,0
   122a0:	f6e5                	bnez	a3,12288 <__swsetup_r+0x40>
   122a2:	0807f793          	andi	a5,a5,128
   122a6:	d3ed                	beqz	a5,12288 <__swsetup_r+0x40>
   122a8:	04076713          	ori	a4,a4,64
   122ac:	00e41823          	sh	a4,16(s0)
   122b0:	557d                	li	a0,-1
   122b2:	bfd9                	j	12288 <__swsetup_r+0x40>
   122b4:	853e                	mv	a0,a5
   122b6:	5be000ef          	jal	ra,12874 <__sinit>
   122ba:	01041703          	lh	a4,16(s0)
   122be:	03071793          	slli	a5,a4,0x30
   122c2:	00877693          	andi	a3,a4,8
   122c6:	93c1                	srli	a5,a5,0x30
   122c8:	f2dd                	bnez	a3,1226e <__swsetup_r+0x26>
   122ca:	0107f693          	andi	a3,a5,16
   122ce:	c2ad                	beqz	a3,12330 <__swsetup_r+0xe8>
   122d0:	8b91                	andi	a5,a5,4
   122d2:	eb9d                	bnez	a5,12308 <__swsetup_r+0xc0>
   122d4:	6c14                	ld	a3,24(s0)
   122d6:	00876713          	ori	a4,a4,8
   122da:	03071793          	slli	a5,a4,0x30
   122de:	00e41823          	sh	a4,16(s0)
   122e2:	93c1                	srli	a5,a5,0x30
   122e4:	f6d9                	bnez	a3,12272 <__swsetup_r+0x2a>
   122e6:	2807f613          	andi	a2,a5,640
   122ea:	20000593          	li	a1,512
   122ee:	f8b602e3          	beq	a2,a1,12272 <__swsetup_r+0x2a>
   122f2:	85a2                	mv	a1,s0
   122f4:	8526                	mv	a0,s1
   122f6:	643020ef          	jal	ra,15138 <__smakebuf_r>
   122fa:	01041703          	lh	a4,16(s0)
   122fe:	6c14                	ld	a3,24(s0)
   12300:	03071793          	slli	a5,a4,0x30
   12304:	93c1                	srli	a5,a5,0x30
   12306:	b7b5                	j	12272 <__swsetup_r+0x2a>
   12308:	6c2c                	ld	a1,88(s0)
   1230a:	cd81                	beqz	a1,12322 <__swsetup_r+0xda>
   1230c:	07440793          	addi	a5,s0,116
   12310:	00f58763          	beq	a1,a5,1231e <__swsetup_r+0xd6>
   12314:	8526                	mv	a0,s1
   12316:	68e000ef          	jal	ra,129a4 <_free_r>
   1231a:	01041703          	lh	a4,16(s0)
   1231e:	04043c23          	sd	zero,88(s0)
   12322:	6c14                	ld	a3,24(s0)
   12324:	fdb77713          	andi	a4,a4,-37
   12328:	00042423          	sw	zero,8(s0)
   1232c:	e014                	sd	a3,0(s0)
   1232e:	b765                	j	122d6 <__swsetup_r+0x8e>
   12330:	47a5                	li	a5,9
   12332:	c09c                	sw	a5,0(s1)
   12334:	04076713          	ori	a4,a4,64
   12338:	00e41823          	sh	a4,16(s0)
   1233c:	557d                	li	a0,-1
   1233e:	b7a9                	j	12288 <__swsetup_r+0x40>

0000000000012340 <__call_exitprocs>:
   12340:	715d                	addi	sp,sp,-80
   12342:	f052                	sd	s4,32(sp)
   12344:	8381ba03          	ld	s4,-1992(gp) # 1f790 <_global_impure_ptr>
   12348:	f84a                	sd	s2,48(sp)
   1234a:	e486                	sd	ra,72(sp)
   1234c:	1f8a3903          	ld	s2,504(s4)
   12350:	e0a2                	sd	s0,64(sp)
   12352:	fc26                	sd	s1,56(sp)
   12354:	f44e                	sd	s3,40(sp)
   12356:	ec56                	sd	s5,24(sp)
   12358:	e85a                	sd	s6,16(sp)
   1235a:	e45e                	sd	s7,8(sp)
   1235c:	e062                	sd	s8,0(sp)
   1235e:	02090863          	beqz	s2,1238e <__call_exitprocs+0x4e>
   12362:	8b2a                	mv	s6,a0
   12364:	8bae                	mv	s7,a1
   12366:	4a85                	li	s5,1
   12368:	59fd                	li	s3,-1
   1236a:	00892483          	lw	s1,8(s2)
   1236e:	fff4841b          	addiw	s0,s1,-1
   12372:	00044e63          	bltz	s0,1238e <__call_exitprocs+0x4e>
   12376:	048e                	slli	s1,s1,0x3
   12378:	94ca                	add	s1,s1,s2
   1237a:	020b8663          	beqz	s7,123a6 <__call_exitprocs+0x66>
   1237e:	2084b783          	ld	a5,520(s1)
   12382:	03778263          	beq	a5,s7,123a6 <__call_exitprocs+0x66>
   12386:	347d                	addiw	s0,s0,-1
   12388:	14e1                	addi	s1,s1,-8
   1238a:	ff3418e3          	bne	s0,s3,1237a <__call_exitprocs+0x3a>
   1238e:	60a6                	ld	ra,72(sp)
   12390:	6406                	ld	s0,64(sp)
   12392:	74e2                	ld	s1,56(sp)
   12394:	7942                	ld	s2,48(sp)
   12396:	79a2                	ld	s3,40(sp)
   12398:	7a02                	ld	s4,32(sp)
   1239a:	6ae2                	ld	s5,24(sp)
   1239c:	6b42                	ld	s6,16(sp)
   1239e:	6ba2                	ld	s7,8(sp)
   123a0:	6c02                	ld	s8,0(sp)
   123a2:	6161                	addi	sp,sp,80
   123a4:	8082                	ret
   123a6:	00892783          	lw	a5,8(s2)
   123aa:	6498                	ld	a4,8(s1)
   123ac:	37fd                	addiw	a5,a5,-1
   123ae:	04878463          	beq	a5,s0,123f6 <__call_exitprocs+0xb6>
   123b2:	0004b423          	sd	zero,8(s1)
   123b6:	db61                	beqz	a4,12386 <__call_exitprocs+0x46>
   123b8:	31092783          	lw	a5,784(s2)
   123bc:	008a96bb          	sllw	a3,s5,s0
   123c0:	00892c03          	lw	s8,8(s2)
   123c4:	8ff5                	and	a5,a5,a3
   123c6:	2781                	sext.w	a5,a5
   123c8:	ef89                	bnez	a5,123e2 <__call_exitprocs+0xa2>
   123ca:	9702                	jalr	a4
   123cc:	00892703          	lw	a4,8(s2)
   123d0:	1f8a3783          	ld	a5,504(s4)
   123d4:	01871463          	bne	a4,s8,123dc <__call_exitprocs+0x9c>
   123d8:	fb2787e3          	beq	a5,s2,12386 <__call_exitprocs+0x46>
   123dc:	dbcd                	beqz	a5,1238e <__call_exitprocs+0x4e>
   123de:	893e                	mv	s2,a5
   123e0:	b769                	j	1236a <__call_exitprocs+0x2a>
   123e2:	31492783          	lw	a5,788(s2)
   123e6:	1084b583          	ld	a1,264(s1)
   123ea:	8ff5                	and	a5,a5,a3
   123ec:	2781                	sext.w	a5,a5
   123ee:	e799                	bnez	a5,123fc <__call_exitprocs+0xbc>
   123f0:	855a                	mv	a0,s6
   123f2:	9702                	jalr	a4
   123f4:	bfe1                	j	123cc <__call_exitprocs+0x8c>
   123f6:	00892423          	sw	s0,8(s2)
   123fa:	bf75                	j	123b6 <__call_exitprocs+0x76>
   123fc:	852e                	mv	a0,a1
   123fe:	9702                	jalr	a4
   12400:	b7f1                	j	123cc <__call_exitprocs+0x8c>

0000000000012402 <__sflush_r>:
   12402:	01059783          	lh	a5,16(a1)
   12406:	7179                	addi	sp,sp,-48
   12408:	f022                	sd	s0,32(sp)
   1240a:	e44e                	sd	s3,8(sp)
   1240c:	f406                	sd	ra,40(sp)
   1240e:	ec26                	sd	s1,24(sp)
   12410:	e84a                	sd	s2,16(sp)
   12412:	0087f693          	andi	a3,a5,8
   12416:	842e                	mv	s0,a1
   12418:	89aa                	mv	s3,a0
   1241a:	ead5                	bnez	a3,124ce <__sflush_r+0xcc>
   1241c:	6705                	lui	a4,0x1
   1241e:	80070713          	addi	a4,a4,-2048 # 800 <exit-0xf8b0>
   12422:	4594                	lw	a3,8(a1)
   12424:	8fd9                	or	a5,a5,a4
   12426:	00f59823          	sh	a5,16(a1)
   1242a:	10d05063          	blez	a3,1252a <__sflush_r+0x128>
   1242e:	6438                	ld	a4,72(s0)
   12430:	c759                	beqz	a4,124be <__sflush_r+0xbc>
   12432:	17c2                	slli	a5,a5,0x30
   12434:	93c1                	srli	a5,a5,0x30
   12436:	6685                	lui	a3,0x1
   12438:	0009a483          	lw	s1,0(s3)
   1243c:	8efd                	and	a3,a3,a5
   1243e:	0009a023          	sw	zero,0(s3)
   12442:	780c                	ld	a1,48(s0)
   12444:	e6fd                	bnez	a3,12532 <__sflush_r+0x130>
   12446:	4601                	li	a2,0
   12448:	4685                	li	a3,1
   1244a:	854e                	mv	a0,s3
   1244c:	9702                	jalr	a4
   1244e:	57fd                	li	a5,-1
   12450:	862a                	mv	a2,a0
   12452:	10f50763          	beq	a0,a5,12560 <__sflush_r+0x15e>
   12456:	01045783          	lhu	a5,16(s0)
   1245a:	6438                	ld	a4,72(s0)
   1245c:	780c                	ld	a1,48(s0)
   1245e:	8b91                	andi	a5,a5,4
   12460:	c799                	beqz	a5,1246e <__sflush_r+0x6c>
   12462:	4414                	lw	a3,8(s0)
   12464:	6c3c                	ld	a5,88(s0)
   12466:	8e15                	sub	a2,a2,a3
   12468:	c399                	beqz	a5,1246e <__sflush_r+0x6c>
   1246a:	583c                	lw	a5,112(s0)
   1246c:	8e1d                	sub	a2,a2,a5
   1246e:	4681                	li	a3,0
   12470:	854e                	mv	a0,s3
   12472:	9702                	jalr	a4
   12474:	57fd                	li	a5,-1
   12476:	0cf51063          	bne	a0,a5,12536 <__sflush_r+0x134>
   1247a:	0009a703          	lw	a4,0(s3)
   1247e:	01041783          	lh	a5,16(s0)
   12482:	cf6d                	beqz	a4,1257c <__sflush_r+0x17a>
   12484:	46f5                	li	a3,29
   12486:	00d70563          	beq	a4,a3,12490 <__sflush_r+0x8e>
   1248a:	46d9                	li	a3,22
   1248c:	0ed71e63          	bne	a4,a3,12588 <__sflush_r+0x186>
   12490:	6c14                	ld	a3,24(s0)
   12492:	777d                	lui	a4,0xfffff
   12494:	7ff70713          	addi	a4,a4,2047 # fffffffffffff7ff <__BSS_END__+0xffffffffffdcbfaf>
   12498:	8ff9                	and	a5,a5,a4
   1249a:	00f41823          	sh	a5,16(s0)
   1249e:	00042423          	sw	zero,8(s0)
   124a2:	e014                	sd	a3,0(s0)
   124a4:	6c2c                	ld	a1,88(s0)
   124a6:	0099a023          	sw	s1,0(s3)
   124aa:	c991                	beqz	a1,124be <__sflush_r+0xbc>
   124ac:	07440793          	addi	a5,s0,116
   124b0:	00f58563          	beq	a1,a5,124ba <__sflush_r+0xb8>
   124b4:	854e                	mv	a0,s3
   124b6:	4ee000ef          	jal	ra,129a4 <_free_r>
   124ba:	04043c23          	sd	zero,88(s0)
   124be:	4501                	li	a0,0
   124c0:	70a2                	ld	ra,40(sp)
   124c2:	7402                	ld	s0,32(sp)
   124c4:	64e2                	ld	s1,24(sp)
   124c6:	6942                	ld	s2,16(sp)
   124c8:	69a2                	ld	s3,8(sp)
   124ca:	6145                	addi	sp,sp,48
   124cc:	8082                	ret
   124ce:	0185b903          	ld	s2,24(a1)
   124d2:	fe0906e3          	beqz	s2,124be <__sflush_r+0xbc>
   124d6:	6184                	ld	s1,0(a1)
   124d8:	03079713          	slli	a4,a5,0x30
   124dc:	9341                	srli	a4,a4,0x30
   124de:	8b0d                	andi	a4,a4,3
   124e0:	0125b023          	sd	s2,0(a1)
   124e4:	412484bb          	subw	s1,s1,s2
   124e8:	4781                	li	a5,0
   124ea:	e311                	bnez	a4,124ee <__sflush_r+0xec>
   124ec:	519c                	lw	a5,32(a1)
   124ee:	c45c                	sw	a5,12(s0)
   124f0:	00904663          	bgtz	s1,124fc <__sflush_r+0xfa>
   124f4:	b7e9                	j	124be <__sflush_r+0xbc>
   124f6:	992a                	add	s2,s2,a0
   124f8:	fc9053e3          	blez	s1,124be <__sflush_r+0xbc>
   124fc:	603c                	ld	a5,64(s0)
   124fe:	780c                	ld	a1,48(s0)
   12500:	86a6                	mv	a3,s1
   12502:	864a                	mv	a2,s2
   12504:	854e                	mv	a0,s3
   12506:	9782                	jalr	a5
   12508:	9c89                	subw	s1,s1,a0
   1250a:	fea046e3          	bgtz	a0,124f6 <__sflush_r+0xf4>
   1250e:	01045783          	lhu	a5,16(s0)
   12512:	70a2                	ld	ra,40(sp)
   12514:	64e2                	ld	s1,24(sp)
   12516:	0407e793          	ori	a5,a5,64
   1251a:	00f41823          	sh	a5,16(s0)
   1251e:	7402                	ld	s0,32(sp)
   12520:	6942                	ld	s2,16(sp)
   12522:	69a2                	ld	s3,8(sp)
   12524:	557d                	li	a0,-1
   12526:	6145                	addi	sp,sp,48
   12528:	8082                	ret
   1252a:	59b8                	lw	a4,112(a1)
   1252c:	f0e041e3          	bgtz	a4,1242e <__sflush_r+0x2c>
   12530:	b779                	j	124be <__sflush_r+0xbc>
   12532:	6850                	ld	a2,144(s0)
   12534:	b72d                	j	1245e <__sflush_r+0x5c>
   12536:	01045783          	lhu	a5,16(s0)
   1253a:	777d                	lui	a4,0xfffff
   1253c:	7ff70713          	addi	a4,a4,2047 # fffffffffffff7ff <__BSS_END__+0xffffffffffdcbfaf>
   12540:	8ff9                	and	a5,a5,a4
   12542:	6c14                	ld	a3,24(s0)
   12544:	0107979b          	slliw	a5,a5,0x10
   12548:	4107d79b          	sraiw	a5,a5,0x10
   1254c:	6705                	lui	a4,0x1
   1254e:	00f41823          	sh	a5,16(s0)
   12552:	00042423          	sw	zero,8(s0)
   12556:	e014                	sd	a3,0(s0)
   12558:	8ff9                	and	a5,a5,a4
   1255a:	d7a9                	beqz	a5,124a4 <__sflush_r+0xa2>
   1255c:	e848                	sd	a0,144(s0)
   1255e:	b799                	j	124a4 <__sflush_r+0xa2>
   12560:	0009a783          	lw	a5,0(s3)
   12564:	ee0789e3          	beqz	a5,12456 <__sflush_r+0x54>
   12568:	4775                	li	a4,29
   1256a:	00e78563          	beq	a5,a4,12574 <__sflush_r+0x172>
   1256e:	4759                	li	a4,22
   12570:	f8e79fe3          	bne	a5,a4,1250e <__sflush_r+0x10c>
   12574:	0099a023          	sw	s1,0(s3)
   12578:	4501                	li	a0,0
   1257a:	b799                	j	124c0 <__sflush_r+0xbe>
   1257c:	777d                	lui	a4,0xfffff
   1257e:	7ff70713          	addi	a4,a4,2047 # fffffffffffff7ff <__BSS_END__+0xffffffffffdcbfaf>
   12582:	6c14                	ld	a3,24(s0)
   12584:	8ff9                	and	a5,a5,a4
   12586:	b7d9                	j	1254c <__sflush_r+0x14a>
   12588:	0407e793          	ori	a5,a5,64
   1258c:	00f41823          	sh	a5,16(s0)
   12590:	557d                	li	a0,-1
   12592:	b73d                	j	124c0 <__sflush_r+0xbe>

0000000000012594 <_fflush_r>:
   12594:	1101                	addi	sp,sp,-32
   12596:	e822                	sd	s0,16(sp)
   12598:	ec06                	sd	ra,24(sp)
   1259a:	842a                	mv	s0,a0
   1259c:	c119                	beqz	a0,125a2 <_fflush_r+0xe>
   1259e:	493c                	lw	a5,80(a0)
   125a0:	cb89                	beqz	a5,125b2 <_fflush_r+0x1e>
   125a2:	01059783          	lh	a5,16(a1)
   125a6:	ef89                	bnez	a5,125c0 <_fflush_r+0x2c>
   125a8:	60e2                	ld	ra,24(sp)
   125aa:	6442                	ld	s0,16(sp)
   125ac:	4501                	li	a0,0
   125ae:	6105                	addi	sp,sp,32
   125b0:	8082                	ret
   125b2:	e42e                	sd	a1,8(sp)
   125b4:	2c0000ef          	jal	ra,12874 <__sinit>
   125b8:	65a2                	ld	a1,8(sp)
   125ba:	01059783          	lh	a5,16(a1)
   125be:	d7ed                	beqz	a5,125a8 <_fflush_r+0x14>
   125c0:	8522                	mv	a0,s0
   125c2:	6442                	ld	s0,16(sp)
   125c4:	60e2                	ld	ra,24(sp)
   125c6:	6105                	addi	sp,sp,32
   125c8:	bd2d                	j	12402 <__sflush_r>

00000000000125ca <fflush>:
   125ca:	cd1d                	beqz	a0,12608 <fflush+0x3e>
   125cc:	1101                	addi	sp,sp,-32
   125ce:	e822                	sd	s0,16(sp)
   125d0:	842a                	mv	s0,a0
   125d2:	8481b503          	ld	a0,-1976(gp) # 1f7a0 <_impure_ptr>
   125d6:	ec06                	sd	ra,24(sp)
   125d8:	c119                	beqz	a0,125de <fflush+0x14>
   125da:	493c                	lw	a5,80(a0)
   125dc:	cf91                	beqz	a5,125f8 <fflush+0x2e>
   125de:	01041783          	lh	a5,16(s0)
   125e2:	e791                	bnez	a5,125ee <fflush+0x24>
   125e4:	60e2                	ld	ra,24(sp)
   125e6:	6442                	ld	s0,16(sp)
   125e8:	4501                	li	a0,0
   125ea:	6105                	addi	sp,sp,32
   125ec:	8082                	ret
   125ee:	85a2                	mv	a1,s0
   125f0:	6442                	ld	s0,16(sp)
   125f2:	60e2                	ld	ra,24(sp)
   125f4:	6105                	addi	sp,sp,32
   125f6:	b531                	j	12402 <__sflush_r>
   125f8:	e42a                	sd	a0,8(sp)
   125fa:	27a000ef          	jal	ra,12874 <__sinit>
   125fe:	01041783          	lh	a5,16(s0)
   12602:	6522                	ld	a0,8(sp)
   12604:	d3e5                	beqz	a5,125e4 <fflush+0x1a>
   12606:	b7e5                	j	125ee <fflush+0x24>
   12608:	8381b503          	ld	a0,-1992(gp) # 1f790 <_global_impure_ptr>
   1260c:	65c9                	lui	a1,0x12
   1260e:	59458593          	addi	a1,a1,1428 # 12594 <_fflush_r>
   12612:	1950006f          	j	12fa6 <_fwalk_reent>

0000000000012616 <__fp_lock>:
   12616:	4501                	li	a0,0
   12618:	8082                	ret

000000000001261a <_cleanup_r>:
   1261a:	65e9                	lui	a1,0x1a
   1261c:	9bc58593          	addi	a1,a1,-1604 # 199bc <_fclose_r>
   12620:	1870006f          	j	12fa6 <_fwalk_reent>

0000000000012624 <__fp_unlock>:
   12624:	4501                	li	a0,0
   12626:	8082                	ret

0000000000012628 <__sinit.part.0>:
   12628:	7139                	addi	sp,sp,-64
   1262a:	67c9                	lui	a5,0x12
   1262c:	fc06                	sd	ra,56(sp)
   1262e:	f822                	sd	s0,48(sp)
   12630:	f426                	sd	s1,40(sp)
   12632:	f04a                	sd	s2,32(sp)
   12634:	ec4e                	sd	s3,24(sp)
   12636:	e852                	sd	s4,16(sp)
   12638:	e456                	sd	s5,8(sp)
   1263a:	e05a                	sd	s6,0(sp)
   1263c:	6500                	ld	s0,8(a0)
   1263e:	61a78793          	addi	a5,a5,1562 # 1261a <_cleanup_r>
   12642:	ed3c                	sd	a5,88(a0)
   12644:	53850713          	addi	a4,a0,1336
   12648:	478d                	li	a5,3
   1264a:	52e53823          	sd	a4,1328(a0)
   1264e:	52f52423          	sw	a5,1320(a0)
   12652:	52053023          	sd	zero,1312(a0)
   12656:	4791                	li	a5,4
   12658:	892a                	mv	s2,a0
   1265a:	c81c                	sw	a5,16(s0)
   1265c:	4621                	li	a2,8
   1265e:	4581                	li	a1,0
   12660:	0a042623          	sw	zero,172(s0)
   12664:	00043023          	sd	zero,0(s0)
   12668:	00043423          	sd	zero,8(s0)
   1266c:	00043c23          	sd	zero,24(s0)
   12670:	02042023          	sw	zero,32(s0)
   12674:	02042423          	sw	zero,40(s0)
   12678:	0a440513          	addi	a0,s0,164
   1267c:	e55fd0ef          	jal	ra,104d0 <memset>
   12680:	6b5d                	lui	s6,0x17
   12682:	01093483          	ld	s1,16(s2)
   12686:	6add                	lui	s5,0x17
   12688:	6a5d                	lui	s4,0x17
   1268a:	69dd                	lui	s3,0x17
   1268c:	d5cb0b13          	addi	s6,s6,-676 # 16d5c <__sread>
   12690:	d98a8a93          	addi	s5,s5,-616 # 16d98 <__swrite>
   12694:	deca0a13          	addi	s4,s4,-532 # 16dec <__sseek>
   12698:	e2e98993          	addi	s3,s3,-466 # 16e2e <__sclose>
   1269c:	67c1                	lui	a5,0x10
   1269e:	03643c23          	sd	s6,56(s0)
   126a2:	05543023          	sd	s5,64(s0)
   126a6:	05443423          	sd	s4,72(s0)
   126aa:	05343823          	sd	s3,80(s0)
   126ae:	f800                	sd	s0,48(s0)
   126b0:	07a5                	addi	a5,a5,9
   126b2:	c89c                	sw	a5,16(s1)
   126b4:	4621                	li	a2,8
   126b6:	4581                	li	a1,0
   126b8:	0a04a623          	sw	zero,172(s1)
   126bc:	0004b023          	sd	zero,0(s1)
   126c0:	0004b423          	sd	zero,8(s1)
   126c4:	0004bc23          	sd	zero,24(s1)
   126c8:	0204a023          	sw	zero,32(s1)
   126cc:	0204a423          	sw	zero,40(s1)
   126d0:	0a448513          	addi	a0,s1,164
   126d4:	dfdfd0ef          	jal	ra,104d0 <memset>
   126d8:	01893403          	ld	s0,24(s2)
   126dc:	000207b7          	lui	a5,0x20
   126e0:	0364bc23          	sd	s6,56(s1)
   126e4:	0554b023          	sd	s5,64(s1)
   126e8:	0544b423          	sd	s4,72(s1)
   126ec:	0534b823          	sd	s3,80(s1)
   126f0:	f884                	sd	s1,48(s1)
   126f2:	07c9                	addi	a5,a5,18
   126f4:	c81c                	sw	a5,16(s0)
   126f6:	0a042623          	sw	zero,172(s0)
   126fa:	00043023          	sd	zero,0(s0)
   126fe:	00043423          	sd	zero,8(s0)
   12702:	00043c23          	sd	zero,24(s0)
   12706:	02042023          	sw	zero,32(s0)
   1270a:	02042423          	sw	zero,40(s0)
   1270e:	0a440513          	addi	a0,s0,164
   12712:	4621                	li	a2,8
   12714:	4581                	li	a1,0
   12716:	dbbfd0ef          	jal	ra,104d0 <memset>
   1271a:	70e2                	ld	ra,56(sp)
   1271c:	03643c23          	sd	s6,56(s0)
   12720:	05543023          	sd	s5,64(s0)
   12724:	05443423          	sd	s4,72(s0)
   12728:	05343823          	sd	s3,80(s0)
   1272c:	f800                	sd	s0,48(s0)
   1272e:	7442                	ld	s0,48(sp)
   12730:	4785                	li	a5,1
   12732:	04f92823          	sw	a5,80(s2)
   12736:	74a2                	ld	s1,40(sp)
   12738:	7902                	ld	s2,32(sp)
   1273a:	69e2                	ld	s3,24(sp)
   1273c:	6a42                	ld	s4,16(sp)
   1273e:	6aa2                	ld	s5,8(sp)
   12740:	6b02                	ld	s6,0(sp)
   12742:	6121                	addi	sp,sp,64
   12744:	8082                	ret

0000000000012746 <__sfmoreglue>:
   12746:	1101                	addi	sp,sp,-32
   12748:	e426                	sd	s1,8(sp)
   1274a:	0b000793          	li	a5,176
   1274e:	fff5849b          	addiw	s1,a1,-1
   12752:	02f484b3          	mul	s1,s1,a5
   12756:	e04a                	sd	s2,0(sp)
   12758:	892e                	mv	s2,a1
   1275a:	e822                	sd	s0,16(sp)
   1275c:	ec06                	sd	ra,24(sp)
   1275e:	0c848593          	addi	a1,s1,200
   12762:	375020ef          	jal	ra,152d6 <_malloc_r>
   12766:	842a                	mv	s0,a0
   12768:	cd01                	beqz	a0,12780 <__sfmoreglue+0x3a>
   1276a:	0561                	addi	a0,a0,24
   1276c:	00043023          	sd	zero,0(s0)
   12770:	01242423          	sw	s2,8(s0)
   12774:	e808                	sd	a0,16(s0)
   12776:	0b048613          	addi	a2,s1,176
   1277a:	4581                	li	a1,0
   1277c:	d55fd0ef          	jal	ra,104d0 <memset>
   12780:	60e2                	ld	ra,24(sp)
   12782:	8522                	mv	a0,s0
   12784:	6442                	ld	s0,16(sp)
   12786:	64a2                	ld	s1,8(sp)
   12788:	6902                	ld	s2,0(sp)
   1278a:	6105                	addi	sp,sp,32
   1278c:	8082                	ret

000000000001278e <__sfp>:
   1278e:	7179                	addi	sp,sp,-48
   12790:	ec26                	sd	s1,24(sp)
   12792:	8381b483          	ld	s1,-1992(gp) # 1f790 <_global_impure_ptr>
   12796:	e84a                	sd	s2,16(sp)
   12798:	f406                	sd	ra,40(sp)
   1279a:	48bc                	lw	a5,80(s1)
   1279c:	f022                	sd	s0,32(sp)
   1279e:	e44e                	sd	s3,8(sp)
   127a0:	e052                	sd	s4,0(sp)
   127a2:	892a                	mv	s2,a0
   127a4:	c3d9                	beqz	a5,1282a <__sfp+0x9c>
   127a6:	52048493          	addi	s1,s1,1312
   127aa:	0b000993          	li	s3,176
   127ae:	4a11                	li	s4,4
   127b0:	449c                	lw	a5,8(s1)
   127b2:	6880                	ld	s0,16(s1)
   127b4:	06f05763          	blez	a5,12822 <__sfp+0x94>
   127b8:	37fd                	addiw	a5,a5,-1
   127ba:	1782                	slli	a5,a5,0x20
   127bc:	9381                	srli	a5,a5,0x20
   127be:	0785                	addi	a5,a5,1
   127c0:	033787b3          	mul	a5,a5,s3
   127c4:	97a2                	add	a5,a5,s0
   127c6:	a029                	j	127d0 <__sfp+0x42>
   127c8:	0b040413          	addi	s0,s0,176
   127cc:	04f40b63          	beq	s0,a5,12822 <__sfp+0x94>
   127d0:	01041703          	lh	a4,16(s0)
   127d4:	fb75                	bnez	a4,127c8 <__sfp+0x3a>
   127d6:	77c1                	lui	a5,0xffff0
   127d8:	0785                	addi	a5,a5,1
   127da:	0a042623          	sw	zero,172(s0)
   127de:	00043023          	sd	zero,0(s0)
   127e2:	00043423          	sd	zero,8(s0)
   127e6:	c81c                	sw	a5,16(s0)
   127e8:	00043c23          	sd	zero,24(s0)
   127ec:	02042023          	sw	zero,32(s0)
   127f0:	02042423          	sw	zero,40(s0)
   127f4:	4621                	li	a2,8
   127f6:	4581                	li	a1,0
   127f8:	0a440513          	addi	a0,s0,164
   127fc:	cd5fd0ef          	jal	ra,104d0 <memset>
   12800:	04043c23          	sd	zero,88(s0)
   12804:	06042023          	sw	zero,96(s0)
   12808:	06043c23          	sd	zero,120(s0)
   1280c:	08042023          	sw	zero,128(s0)
   12810:	70a2                	ld	ra,40(sp)
   12812:	8522                	mv	a0,s0
   12814:	7402                	ld	s0,32(sp)
   12816:	64e2                	ld	s1,24(sp)
   12818:	6942                	ld	s2,16(sp)
   1281a:	69a2                	ld	s3,8(sp)
   1281c:	6a02                	ld	s4,0(sp)
   1281e:	6145                	addi	sp,sp,48
   12820:	8082                	ret
   12822:	6080                	ld	s0,0(s1)
   12824:	c419                	beqz	s0,12832 <__sfp+0xa4>
   12826:	84a2                	mv	s1,s0
   12828:	b761                	j	127b0 <__sfp+0x22>
   1282a:	8526                	mv	a0,s1
   1282c:	dfdff0ef          	jal	ra,12628 <__sinit.part.0>
   12830:	bf9d                	j	127a6 <__sfp+0x18>
   12832:	2d800593          	li	a1,728
   12836:	854a                	mv	a0,s2
   12838:	29f020ef          	jal	ra,152d6 <_malloc_r>
   1283c:	842a                	mv	s0,a0
   1283e:	cd19                	beqz	a0,1285c <__sfp+0xce>
   12840:	0561                	addi	a0,a0,24
   12842:	00043023          	sd	zero,0(s0)
   12846:	01442423          	sw	s4,8(s0)
   1284a:	e808                	sd	a0,16(s0)
   1284c:	2c000613          	li	a2,704
   12850:	4581                	li	a1,0
   12852:	c7ffd0ef          	jal	ra,104d0 <memset>
   12856:	e080                	sd	s0,0(s1)
   12858:	84a2                	mv	s1,s0
   1285a:	bf99                	j	127b0 <__sfp+0x22>
   1285c:	0004b023          	sd	zero,0(s1)
   12860:	47b1                	li	a5,12
   12862:	00f92023          	sw	a5,0(s2)
   12866:	b76d                	j	12810 <__sfp+0x82>

0000000000012868 <_cleanup>:
   12868:	8381b503          	ld	a0,-1992(gp) # 1f790 <_global_impure_ptr>
   1286c:	65e9                	lui	a1,0x1a
   1286e:	9bc58593          	addi	a1,a1,-1604 # 199bc <_fclose_r>
   12872:	af15                	j	12fa6 <_fwalk_reent>

0000000000012874 <__sinit>:
   12874:	493c                	lw	a5,80(a0)
   12876:	c391                	beqz	a5,1287a <__sinit+0x6>
   12878:	8082                	ret
   1287a:	b37d                	j	12628 <__sinit.part.0>

000000000001287c <__sfp_lock_acquire>:
   1287c:	8082                	ret

000000000001287e <__sfp_lock_release>:
   1287e:	8082                	ret

0000000000012880 <__sinit_lock_acquire>:
   12880:	8082                	ret

0000000000012882 <__sinit_lock_release>:
   12882:	8082                	ret

0000000000012884 <__fp_lock_all>:
   12884:	8481b503          	ld	a0,-1976(gp) # 1f7a0 <_impure_ptr>
   12888:	65c9                	lui	a1,0x12
   1288a:	61658593          	addi	a1,a1,1558 # 12616 <__fp_lock>
   1288e:	ad59                	j	12f24 <_fwalk>

0000000000012890 <__fp_unlock_all>:
   12890:	8481b503          	ld	a0,-1976(gp) # 1f7a0 <_impure_ptr>
   12894:	65c9                	lui	a1,0x12
   12896:	62458593          	addi	a1,a1,1572 # 12624 <__fp_unlock>
   1289a:	a569                	j	12f24 <_fwalk>

000000000001289c <__libc_fini_array>:
   1289c:	1101                	addi	sp,sp,-32
   1289e:	e822                	sd	s0,16(sp)
   128a0:	67f9                	lui	a5,0x1e
   128a2:	6479                	lui	s0,0x1e
   128a4:	65078793          	addi	a5,a5,1616 # 1e650 <__do_global_dtors_aux_fini_array_entry>
   128a8:	65840413          	addi	s0,s0,1624 # 1e658 <impure_data>
   128ac:	8c1d                	sub	s0,s0,a5
   128ae:	e426                	sd	s1,8(sp)
   128b0:	ec06                	sd	ra,24(sp)
   128b2:	40345493          	srai	s1,s0,0x3
   128b6:	c881                	beqz	s1,128c6 <__libc_fini_array+0x2a>
   128b8:	1461                	addi	s0,s0,-8
   128ba:	943e                	add	s0,s0,a5
   128bc:	601c                	ld	a5,0(s0)
   128be:	14fd                	addi	s1,s1,-1
   128c0:	1461                	addi	s0,s0,-8
   128c2:	9782                	jalr	a5
   128c4:	fce5                	bnez	s1,128bc <__libc_fini_array+0x20>
   128c6:	60e2                	ld	ra,24(sp)
   128c8:	6442                	ld	s0,16(sp)
   128ca:	64a2                	ld	s1,8(sp)
   128cc:	6105                	addi	sp,sp,32
   128ce:	8082                	ret

00000000000128d0 <_malloc_trim_r>:
   128d0:	7179                	addi	sp,sp,-48
   128d2:	e44e                	sd	s3,8(sp)
   128d4:	0001f9b7          	lui	s3,0x1f
   128d8:	f022                	sd	s0,32(sp)
   128da:	ec26                	sd	s1,24(sp)
   128dc:	e84a                	sd	s2,16(sp)
   128de:	e052                	sd	s4,0(sp)
   128e0:	f406                	sd	ra,40(sp)
   128e2:	8a2e                	mv	s4,a1
   128e4:	892a                	mv	s2,a0
   128e6:	f4898993          	addi	s3,s3,-184 # 1ef48 <__malloc_av_>
   128ea:	2a2030ef          	jal	ra,15b8c <__malloc_lock>
   128ee:	0109b703          	ld	a4,16(s3)
   128f2:	6785                	lui	a5,0x1
   128f4:	fdf78413          	addi	s0,a5,-33 # fdf <exit-0xf0d1>
   128f8:	6704                	ld	s1,8(a4)
   128fa:	41440433          	sub	s0,s0,s4
   128fe:	98f1                	andi	s1,s1,-4
   12900:	9426                	add	s0,s0,s1
   12902:	8031                	srli	s0,s0,0xc
   12904:	147d                	addi	s0,s0,-1
   12906:	0432                	slli	s0,s0,0xc
   12908:	00f44b63          	blt	s0,a5,1291e <_malloc_trim_r+0x4e>
   1290c:	4581                	li	a1,0
   1290e:	854a                	mv	a0,s2
   12910:	30e040ef          	jal	ra,16c1e <_sbrk_r>
   12914:	0109b783          	ld	a5,16(s3)
   12918:	97a6                	add	a5,a5,s1
   1291a:	00f50e63          	beq	a0,a5,12936 <_malloc_trim_r+0x66>
   1291e:	854a                	mv	a0,s2
   12920:	26e030ef          	jal	ra,15b8e <__malloc_unlock>
   12924:	70a2                	ld	ra,40(sp)
   12926:	7402                	ld	s0,32(sp)
   12928:	64e2                	ld	s1,24(sp)
   1292a:	6942                	ld	s2,16(sp)
   1292c:	69a2                	ld	s3,8(sp)
   1292e:	6a02                	ld	s4,0(sp)
   12930:	4501                	li	a0,0
   12932:	6145                	addi	sp,sp,48
   12934:	8082                	ret
   12936:	408005b3          	neg	a1,s0
   1293a:	854a                	mv	a0,s2
   1293c:	2e2040ef          	jal	ra,16c1e <_sbrk_r>
   12940:	57fd                	li	a5,-1
   12942:	02f50b63          	beq	a0,a5,12978 <_malloc_trim_r+0xa8>
   12946:	002347b7          	lui	a5,0x234
   1294a:	82878793          	addi	a5,a5,-2008 # 233828 <__malloc_current_mallinfo>
   1294e:	4398                	lw	a4,0(a5)
   12950:	0109b683          	ld	a3,16(s3)
   12954:	8c81                	sub	s1,s1,s0
   12956:	0014e493          	ori	s1,s1,1
   1295a:	9f01                	subw	a4,a4,s0
   1295c:	854a                	mv	a0,s2
   1295e:	e684                	sd	s1,8(a3)
   12960:	c398                	sw	a4,0(a5)
   12962:	22c030ef          	jal	ra,15b8e <__malloc_unlock>
   12966:	70a2                	ld	ra,40(sp)
   12968:	7402                	ld	s0,32(sp)
   1296a:	64e2                	ld	s1,24(sp)
   1296c:	6942                	ld	s2,16(sp)
   1296e:	69a2                	ld	s3,8(sp)
   12970:	6a02                	ld	s4,0(sp)
   12972:	4505                	li	a0,1
   12974:	6145                	addi	sp,sp,48
   12976:	8082                	ret
   12978:	4581                	li	a1,0
   1297a:	854a                	mv	a0,s2
   1297c:	2a2040ef          	jal	ra,16c1e <_sbrk_r>
   12980:	0109b703          	ld	a4,16(s3)
   12984:	46fd                	li	a3,31
   12986:	40e507b3          	sub	a5,a0,a4
   1298a:	f8f6dae3          	bge	a3,a5,1291e <_malloc_trim_r+0x4e>
   1298e:	8501b683          	ld	a3,-1968(gp) # 1f7a8 <__malloc_sbrk_base>
   12992:	0017e793          	ori	a5,a5,1
   12996:	e71c                	sd	a5,8(a4)
   12998:	8d15                	sub	a0,a0,a3
   1299a:	002346b7          	lui	a3,0x234
   1299e:	82a6a423          	sw	a0,-2008(a3) # 233828 <__malloc_current_mallinfo>
   129a2:	bfb5                	j	1291e <_malloc_trim_r+0x4e>

00000000000129a4 <_free_r>:
   129a4:	c9e5                	beqz	a1,12a94 <_free_r+0xf0>
   129a6:	1101                	addi	sp,sp,-32
   129a8:	e822                	sd	s0,16(sp)
   129aa:	e426                	sd	s1,8(sp)
   129ac:	842e                	mv	s0,a1
   129ae:	84aa                	mv	s1,a0
   129b0:	ec06                	sd	ra,24(sp)
   129b2:	1da030ef          	jal	ra,15b8c <__malloc_lock>
   129b6:	ff843503          	ld	a0,-8(s0)
   129ba:	ff040713          	addi	a4,s0,-16
   129be:	0001f5b7          	lui	a1,0x1f
   129c2:	ffe57793          	andi	a5,a0,-2
   129c6:	00f70633          	add	a2,a4,a5
   129ca:	f4858593          	addi	a1,a1,-184 # 1ef48 <__malloc_av_>
   129ce:	6614                	ld	a3,8(a2)
   129d0:	0105b803          	ld	a6,16(a1)
   129d4:	9af1                	andi	a3,a3,-4
   129d6:	14c80263          	beq	a6,a2,12b1a <_free_r+0x176>
   129da:	e614                	sd	a3,8(a2)
   129dc:	8905                	andi	a0,a0,1
   129de:	00d60833          	add	a6,a2,a3
   129e2:	e149                	bnez	a0,12a64 <_free_r+0xc0>
   129e4:	ff043303          	ld	t1,-16(s0)
   129e8:	00883803          	ld	a6,8(a6)
   129ec:	0001f537          	lui	a0,0x1f
   129f0:	40670733          	sub	a4,a4,t1
   129f4:	01073883          	ld	a7,16(a4)
   129f8:	f5850513          	addi	a0,a0,-168 # 1ef58 <__malloc_av_+0x10>
   129fc:	979a                	add	a5,a5,t1
   129fe:	00187813          	andi	a6,a6,1
   12a02:	0ea88963          	beq	a7,a0,12af4 <_free_r+0x150>
   12a06:	01873303          	ld	t1,24(a4)
   12a0a:	0068bc23          	sd	t1,24(a7)
   12a0e:	01133823          	sd	a7,16(t1)
   12a12:	14080e63          	beqz	a6,12b6e <_free_r+0x1ca>
   12a16:	0017e693          	ori	a3,a5,1
   12a1a:	e714                	sd	a3,8(a4)
   12a1c:	e21c                	sd	a5,0(a2)
   12a1e:	1ff00693          	li	a3,511
   12a22:	08f6e363          	bltu	a3,a5,12aa8 <_free_r+0x104>
   12a26:	838d                	srli	a5,a5,0x3
   12a28:	0017869b          	addiw	a3,a5,1
   12a2c:	0016969b          	slliw	a3,a3,0x1
   12a30:	068e                	slli	a3,a3,0x3
   12a32:	0085b803          	ld	a6,8(a1)
   12a36:	96ae                	add	a3,a3,a1
   12a38:	6288                	ld	a0,0(a3)
   12a3a:	4027d61b          	sraiw	a2,a5,0x2
   12a3e:	4785                	li	a5,1
   12a40:	00c797b3          	sll	a5,a5,a2
   12a44:	0107e7b3          	or	a5,a5,a6
   12a48:	ff068613          	addi	a2,a3,-16
   12a4c:	ef10                	sd	a2,24(a4)
   12a4e:	eb08                	sd	a0,16(a4)
   12a50:	e59c                	sd	a5,8(a1)
   12a52:	e298                	sd	a4,0(a3)
   12a54:	ed18                	sd	a4,24(a0)
   12a56:	6442                	ld	s0,16(sp)
   12a58:	60e2                	ld	ra,24(sp)
   12a5a:	8526                	mv	a0,s1
   12a5c:	64a2                	ld	s1,8(sp)
   12a5e:	6105                	addi	sp,sp,32
   12a60:	12e0306f          	j	15b8e <__malloc_unlock>
   12a64:	00883503          	ld	a0,8(a6)
   12a68:	8905                	andi	a0,a0,1
   12a6a:	e515                	bnez	a0,12a96 <_free_r+0xf2>
   12a6c:	0001f537          	lui	a0,0x1f
   12a70:	97b6                	add	a5,a5,a3
   12a72:	f5850513          	addi	a0,a0,-168 # 1ef58 <__malloc_av_+0x10>
   12a76:	6a14                	ld	a3,16(a2)
   12a78:	0017e893          	ori	a7,a5,1
   12a7c:	00f70833          	add	a6,a4,a5
   12a80:	10a68163          	beq	a3,a0,12b82 <_free_r+0x1de>
   12a84:	6e10                	ld	a2,24(a2)
   12a86:	ee90                	sd	a2,24(a3)
   12a88:	ea14                	sd	a3,16(a2)
   12a8a:	01173423          	sd	a7,8(a4)
   12a8e:	00f83023          	sd	a5,0(a6)
   12a92:	b771                	j	12a1e <_free_r+0x7a>
   12a94:	8082                	ret
   12a96:	0017e693          	ori	a3,a5,1
   12a9a:	fed43c23          	sd	a3,-8(s0)
   12a9e:	e21c                	sd	a5,0(a2)
   12aa0:	1ff00693          	li	a3,511
   12aa4:	f8f6f1e3          	bgeu	a3,a5,12a26 <_free_r+0x82>
   12aa8:	0097d693          	srli	a3,a5,0x9
   12aac:	4611                	li	a2,4
   12aae:	08d66f63          	bltu	a2,a3,12b4c <_free_r+0x1a8>
   12ab2:	0067d693          	srli	a3,a5,0x6
   12ab6:	0396851b          	addiw	a0,a3,57
   12aba:	0015151b          	slliw	a0,a0,0x1
   12abe:	0386861b          	addiw	a2,a3,56
   12ac2:	050e                	slli	a0,a0,0x3
   12ac4:	952e                	add	a0,a0,a1
   12ac6:	6114                	ld	a3,0(a0)
   12ac8:	1541                	addi	a0,a0,-16
   12aca:	0cd50563          	beq	a0,a3,12b94 <_free_r+0x1f0>
   12ace:	6690                	ld	a2,8(a3)
   12ad0:	9a71                	andi	a2,a2,-4
   12ad2:	00c7f563          	bgeu	a5,a2,12adc <_free_r+0x138>
   12ad6:	6a94                	ld	a3,16(a3)
   12ad8:	fed51be3          	bne	a0,a3,12ace <_free_r+0x12a>
   12adc:	6e88                	ld	a0,24(a3)
   12ade:	ef08                	sd	a0,24(a4)
   12ae0:	eb14                	sd	a3,16(a4)
   12ae2:	6442                	ld	s0,16(sp)
   12ae4:	e918                	sd	a4,16(a0)
   12ae6:	60e2                	ld	ra,24(sp)
   12ae8:	8526                	mv	a0,s1
   12aea:	64a2                	ld	s1,8(sp)
   12aec:	ee98                	sd	a4,24(a3)
   12aee:	6105                	addi	sp,sp,32
   12af0:	09e0306f          	j	15b8e <__malloc_unlock>
   12af4:	0e081c63          	bnez	a6,12bec <_free_r+0x248>
   12af8:	6e0c                	ld	a1,24(a2)
   12afa:	6a10                	ld	a2,16(a2)
   12afc:	96be                	add	a3,a3,a5
   12afe:	6442                	ld	s0,16(sp)
   12b00:	ee0c                	sd	a1,24(a2)
   12b02:	e990                	sd	a2,16(a1)
   12b04:	0016e793          	ori	a5,a3,1
   12b08:	60e2                	ld	ra,24(sp)
   12b0a:	e71c                	sd	a5,8(a4)
   12b0c:	8526                	mv	a0,s1
   12b0e:	9736                	add	a4,a4,a3
   12b10:	64a2                	ld	s1,8(sp)
   12b12:	e314                	sd	a3,0(a4)
   12b14:	6105                	addi	sp,sp,32
   12b16:	0780306f          	j	15b8e <__malloc_unlock>
   12b1a:	8905                	andi	a0,a0,1
   12b1c:	96be                	add	a3,a3,a5
   12b1e:	e909                	bnez	a0,12b30 <_free_r+0x18c>
   12b20:	ff043503          	ld	a0,-16(s0)
   12b24:	8f09                	sub	a4,a4,a0
   12b26:	6f1c                	ld	a5,24(a4)
   12b28:	6b10                	ld	a2,16(a4)
   12b2a:	96aa                	add	a3,a3,a0
   12b2c:	ee1c                	sd	a5,24(a2)
   12b2e:	eb90                	sd	a2,16(a5)
   12b30:	0016e613          	ori	a2,a3,1
   12b34:	8581b783          	ld	a5,-1960(gp) # 1f7b0 <__malloc_trim_threshold>
   12b38:	e710                	sd	a2,8(a4)
   12b3a:	e998                	sd	a4,16(a1)
   12b3c:	f0f6ede3          	bltu	a3,a5,12a56 <_free_r+0xb2>
   12b40:	8801b583          	ld	a1,-1920(gp) # 1f7d8 <__malloc_top_pad>
   12b44:	8526                	mv	a0,s1
   12b46:	d8bff0ef          	jal	ra,128d0 <_malloc_trim_r>
   12b4a:	b731                	j	12a56 <_free_r+0xb2>
   12b4c:	4651                	li	a2,20
   12b4e:	02d67263          	bgeu	a2,a3,12b72 <_free_r+0x1ce>
   12b52:	05400613          	li	a2,84
   12b56:	04d66a63          	bltu	a2,a3,12baa <_free_r+0x206>
   12b5a:	00c7d693          	srli	a3,a5,0xc
   12b5e:	06f6851b          	addiw	a0,a3,111
   12b62:	0015151b          	slliw	a0,a0,0x1
   12b66:	06e6861b          	addiw	a2,a3,110
   12b6a:	050e                	slli	a0,a0,0x3
   12b6c:	bfa1                	j	12ac4 <_free_r+0x120>
   12b6e:	97b6                	add	a5,a5,a3
   12b70:	b719                	j	12a76 <_free_r+0xd2>
   12b72:	05c6851b          	addiw	a0,a3,92
   12b76:	0015151b          	slliw	a0,a0,0x1
   12b7a:	05b6861b          	addiw	a2,a3,91
   12b7e:	050e                	slli	a0,a0,0x3
   12b80:	b791                	j	12ac4 <_free_r+0x120>
   12b82:	f598                	sd	a4,40(a1)
   12b84:	f198                	sd	a4,32(a1)
   12b86:	ef08                	sd	a0,24(a4)
   12b88:	eb08                	sd	a0,16(a4)
   12b8a:	01173423          	sd	a7,8(a4)
   12b8e:	00f83023          	sd	a5,0(a6)
   12b92:	b5d1                	j	12a56 <_free_r+0xb2>
   12b94:	0085b803          	ld	a6,8(a1)
   12b98:	4026561b          	sraiw	a2,a2,0x2
   12b9c:	4785                	li	a5,1
   12b9e:	00c797b3          	sll	a5,a5,a2
   12ba2:	0107e7b3          	or	a5,a5,a6
   12ba6:	e59c                	sd	a5,8(a1)
   12ba8:	bf1d                	j	12ade <_free_r+0x13a>
   12baa:	15400613          	li	a2,340
   12bae:	00d66c63          	bltu	a2,a3,12bc6 <_free_r+0x222>
   12bb2:	00f7d693          	srli	a3,a5,0xf
   12bb6:	0786851b          	addiw	a0,a3,120
   12bba:	0015151b          	slliw	a0,a0,0x1
   12bbe:	0776861b          	addiw	a2,a3,119
   12bc2:	050e                	slli	a0,a0,0x3
   12bc4:	b701                	j	12ac4 <_free_r+0x120>
   12bc6:	55400613          	li	a2,1364
   12bca:	00d66c63          	bltu	a2,a3,12be2 <_free_r+0x23e>
   12bce:	0127d693          	srli	a3,a5,0x12
   12bd2:	07d6851b          	addiw	a0,a3,125
   12bd6:	0015151b          	slliw	a0,a0,0x1
   12bda:	07c6861b          	addiw	a2,a3,124
   12bde:	050e                	slli	a0,a0,0x3
   12be0:	b5d5                	j	12ac4 <_free_r+0x120>
   12be2:	7f000513          	li	a0,2032
   12be6:	07e00613          	li	a2,126
   12bea:	bde9                	j	12ac4 <_free_r+0x120>
   12bec:	0017e693          	ori	a3,a5,1
   12bf0:	e714                	sd	a3,8(a4)
   12bf2:	e21c                	sd	a5,0(a2)
   12bf4:	b58d                	j	12a56 <_free_r+0xb2>

0000000000012bf6 <__sfvwrite_r>:
   12bf6:	6a1c                	ld	a5,16(a2)
   12bf8:	1a078b63          	beqz	a5,12dae <__sfvwrite_r+0x1b8>
   12bfc:	0105d683          	lhu	a3,16(a1)
   12c00:	711d                	addi	sp,sp,-96
   12c02:	e8a2                	sd	s0,80(sp)
   12c04:	f852                	sd	s4,48(sp)
   12c06:	f456                	sd	s5,40(sp)
   12c08:	ec86                	sd	ra,88(sp)
   12c0a:	e4a6                	sd	s1,72(sp)
   12c0c:	e0ca                	sd	s2,64(sp)
   12c0e:	fc4e                	sd	s3,56(sp)
   12c10:	f05a                	sd	s6,32(sp)
   12c12:	ec5e                	sd	s7,24(sp)
   12c14:	e862                	sd	s8,16(sp)
   12c16:	e466                	sd	s9,8(sp)
   12c18:	e06a                	sd	s10,0(sp)
   12c1a:	0086f793          	andi	a5,a3,8
   12c1e:	8a32                	mv	s4,a2
   12c20:	8aaa                	mv	s5,a0
   12c22:	842e                	mv	s0,a1
   12c24:	cfb9                	beqz	a5,12c82 <__sfvwrite_r+0x8c>
   12c26:	6d9c                	ld	a5,24(a1)
   12c28:	cfa9                	beqz	a5,12c82 <__sfvwrite_r+0x8c>
   12c2a:	0026f793          	andi	a5,a3,2
   12c2e:	000a3903          	ld	s2,0(s4)
   12c32:	c7ad                	beqz	a5,12c9c <__sfvwrite_r+0xa6>
   12c34:	603c                	ld	a5,64(s0)
   12c36:	780c                	ld	a1,48(s0)
   12c38:	80000b37          	lui	s6,0x80000
   12c3c:	4981                	li	s3,0
   12c3e:	4481                	li	s1,0
   12c40:	c00b4b13          	xori	s6,s6,-1024
   12c44:	864e                	mv	a2,s3
   12c46:	8556                	mv	a0,s5
   12c48:	c49d                	beqz	s1,12c76 <__sfvwrite_r+0x80>
   12c4a:	86a6                	mv	a3,s1
   12c4c:	009b7363          	bgeu	s6,s1,12c52 <__sfvwrite_r+0x5c>
   12c50:	86da                	mv	a3,s6
   12c52:	2681                	sext.w	a3,a3
   12c54:	9782                	jalr	a5
   12c56:	14a05463          	blez	a0,12d9e <__sfvwrite_r+0x1a8>
   12c5a:	010a3783          	ld	a5,16(s4)
   12c5e:	99aa                	add	s3,s3,a0
   12c60:	8c89                	sub	s1,s1,a0
   12c62:	8f89                	sub	a5,a5,a0
   12c64:	00fa3823          	sd	a5,16(s4)
   12c68:	10078763          	beqz	a5,12d76 <__sfvwrite_r+0x180>
   12c6c:	603c                	ld	a5,64(s0)
   12c6e:	780c                	ld	a1,48(s0)
   12c70:	864e                	mv	a2,s3
   12c72:	8556                	mv	a0,s5
   12c74:	f8f9                	bnez	s1,12c4a <__sfvwrite_r+0x54>
   12c76:	00093983          	ld	s3,0(s2)
   12c7a:	00893483          	ld	s1,8(s2)
   12c7e:	0941                	addi	s2,s2,16
   12c80:	b7d1                	j	12c44 <__sfvwrite_r+0x4e>
   12c82:	85a2                	mv	a1,s0
   12c84:	8556                	mv	a0,s5
   12c86:	dc2ff0ef          	jal	ra,12248 <__swsetup_r>
   12c8a:	28051b63          	bnez	a0,12f20 <__sfvwrite_r+0x32a>
   12c8e:	01045683          	lhu	a3,16(s0)
   12c92:	000a3903          	ld	s2,0(s4)
   12c96:	0026f793          	andi	a5,a3,2
   12c9a:	ffc9                	bnez	a5,12c34 <__sfvwrite_r+0x3e>
   12c9c:	0016f793          	andi	a5,a3,1
   12ca0:	ebbd                	bnez	a5,12d16 <__sfvwrite_r+0x120>
   12ca2:	4444                	lw	s1,12(s0)
   12ca4:	601c                	ld	a5,0(s0)
   12ca6:	80000b37          	lui	s6,0x80000
   12caa:	ffeb4b93          	xori	s7,s6,-2
   12cae:	4c01                	li	s8,0
   12cb0:	4981                	li	s3,0
   12cb2:	fffb4b13          	not	s6,s6
   12cb6:	853e                	mv	a0,a5
   12cb8:	8ca6                	mv	s9,s1
   12cba:	04098863          	beqz	s3,12d0a <__sfvwrite_r+0x114>
   12cbe:	2006f713          	andi	a4,a3,512
   12cc2:	12070a63          	beqz	a4,12df6 <__sfvwrite_r+0x200>
   12cc6:	8d26                	mv	s10,s1
   12cc8:	1899f863          	bgeu	s3,s1,12e58 <__sfvwrite_r+0x262>
   12ccc:	8cce                	mv	s9,s3
   12cce:	8d4e                	mv	s10,s3
   12cd0:	866a                	mv	a2,s10
   12cd2:	85e2                	mv	a1,s8
   12cd4:	5e3020ef          	jal	ra,15ab6 <memmove>
   12cd8:	4458                	lw	a4,12(s0)
   12cda:	601c                	ld	a5,0(s0)
   12cdc:	84ce                	mv	s1,s3
   12cde:	4197073b          	subw	a4,a4,s9
   12ce2:	9d3e                	add	s10,s10,a5
   12ce4:	c458                	sw	a4,12(s0)
   12ce6:	01a43023          	sd	s10,0(s0)
   12cea:	4981                	li	s3,0
   12cec:	010a3783          	ld	a5,16(s4)
   12cf0:	9c26                	add	s8,s8,s1
   12cf2:	8f85                	sub	a5,a5,s1
   12cf4:	00fa3823          	sd	a5,16(s4)
   12cf8:	cfbd                	beqz	a5,12d76 <__sfvwrite_r+0x180>
   12cfa:	4444                	lw	s1,12(s0)
   12cfc:	601c                	ld	a5,0(s0)
   12cfe:	01045683          	lhu	a3,16(s0)
   12d02:	8ca6                	mv	s9,s1
   12d04:	853e                	mv	a0,a5
   12d06:	fa099ce3          	bnez	s3,12cbe <__sfvwrite_r+0xc8>
   12d0a:	00093c03          	ld	s8,0(s2)
   12d0e:	00893983          	ld	s3,8(s2)
   12d12:	0941                	addi	s2,s2,16
   12d14:	b74d                	j	12cb6 <__sfvwrite_r+0xc0>
   12d16:	4b81                	li	s7,0
   12d18:	4501                	li	a0,0
   12d1a:	4c81                	li	s9,0
   12d1c:	4c01                	li	s8,0
   12d1e:	080c0a63          	beqz	s8,12db2 <__sfvwrite_r+0x1bc>
   12d22:	c145                	beqz	a0,12dc2 <__sfvwrite_r+0x1cc>
   12d24:	8b5e                	mv	s6,s7
   12d26:	017c7363          	bgeu	s8,s7,12d2c <__sfvwrite_r+0x136>
   12d2a:	8b62                	mv	s6,s8
   12d2c:	6008                	ld	a0,0(s0)
   12d2e:	6c18                	ld	a4,24(s0)
   12d30:	445c                	lw	a5,12(s0)
   12d32:	5014                	lw	a3,32(s0)
   12d34:	84da                	mv	s1,s6
   12d36:	00a77663          	bgeu	a4,a0,12d42 <__sfvwrite_r+0x14c>
   12d3a:	00d789bb          	addw	s3,a5,a3
   12d3e:	0969cd63          	blt	s3,s6,12dd8 <__sfvwrite_r+0x1e2>
   12d42:	18db4663          	blt	s6,a3,12ece <__sfvwrite_r+0x2d8>
   12d46:	603c                	ld	a5,64(s0)
   12d48:	780c                	ld	a1,48(s0)
   12d4a:	8666                	mv	a2,s9
   12d4c:	8556                	mv	a0,s5
   12d4e:	9782                	jalr	a5
   12d50:	84aa                	mv	s1,a0
   12d52:	04a05663          	blez	a0,12d9e <__sfvwrite_r+0x1a8>
   12d56:	0005079b          	sext.w	a5,a0
   12d5a:	40fb8bbb          	subw	s7,s7,a5
   12d5e:	4505                	li	a0,1
   12d60:	020b8a63          	beqz	s7,12d94 <__sfvwrite_r+0x19e>
   12d64:	010a3783          	ld	a5,16(s4)
   12d68:	9ca6                	add	s9,s9,s1
   12d6a:	409c0c33          	sub	s8,s8,s1
   12d6e:	8f85                	sub	a5,a5,s1
   12d70:	00fa3823          	sd	a5,16(s4)
   12d74:	f7cd                	bnez	a5,12d1e <__sfvwrite_r+0x128>
   12d76:	4501                	li	a0,0
   12d78:	60e6                	ld	ra,88(sp)
   12d7a:	6446                	ld	s0,80(sp)
   12d7c:	64a6                	ld	s1,72(sp)
   12d7e:	6906                	ld	s2,64(sp)
   12d80:	79e2                	ld	s3,56(sp)
   12d82:	7a42                	ld	s4,48(sp)
   12d84:	7aa2                	ld	s5,40(sp)
   12d86:	7b02                	ld	s6,32(sp)
   12d88:	6be2                	ld	s7,24(sp)
   12d8a:	6c42                	ld	s8,16(sp)
   12d8c:	6ca2                	ld	s9,8(sp)
   12d8e:	6d02                	ld	s10,0(sp)
   12d90:	6125                	addi	sp,sp,96
   12d92:	8082                	ret
   12d94:	85a2                	mv	a1,s0
   12d96:	8556                	mv	a0,s5
   12d98:	ffcff0ef          	jal	ra,12594 <_fflush_r>
   12d9c:	d561                	beqz	a0,12d64 <__sfvwrite_r+0x16e>
   12d9e:	01041783          	lh	a5,16(s0)
   12da2:	0407e793          	ori	a5,a5,64
   12da6:	00f41823          	sh	a5,16(s0)
   12daa:	557d                	li	a0,-1
   12dac:	b7f1                	j	12d78 <__sfvwrite_r+0x182>
   12dae:	4501                	li	a0,0
   12db0:	8082                	ret
   12db2:	00893c03          	ld	s8,8(s2)
   12db6:	87ca                	mv	a5,s2
   12db8:	0941                	addi	s2,s2,16
   12dba:	fe0c0ce3          	beqz	s8,12db2 <__sfvwrite_r+0x1bc>
   12dbe:	0007bc83          	ld	s9,0(a5)
   12dc2:	8662                	mv	a2,s8
   12dc4:	45a9                	li	a1,10
   12dc6:	8566                	mv	a0,s9
   12dc8:	379020ef          	jal	ra,15940 <memchr>
   12dcc:	14050163          	beqz	a0,12f0e <__sfvwrite_r+0x318>
   12dd0:	0505                	addi	a0,a0,1
   12dd2:	41950bbb          	subw	s7,a0,s9
   12dd6:	b7b9                	j	12d24 <__sfvwrite_r+0x12e>
   12dd8:	85e6                	mv	a1,s9
   12dda:	864e                	mv	a2,s3
   12ddc:	4db020ef          	jal	ra,15ab6 <memmove>
   12de0:	601c                	ld	a5,0(s0)
   12de2:	85a2                	mv	a1,s0
   12de4:	8556                	mv	a0,s5
   12de6:	97ce                	add	a5,a5,s3
   12de8:	e01c                	sd	a5,0(s0)
   12dea:	faaff0ef          	jal	ra,12594 <_fflush_r>
   12dee:	f945                	bnez	a0,12d9e <__sfvwrite_r+0x1a8>
   12df0:	87ce                	mv	a5,s3
   12df2:	84ce                	mv	s1,s3
   12df4:	b79d                	j	12d5a <__sfvwrite_r+0x164>
   12df6:	6c18                	ld	a4,24(s0)
   12df8:	02f76863          	bltu	a4,a5,12e28 <__sfvwrite_r+0x232>
   12dfc:	5018                	lw	a4,32(s0)
   12dfe:	02e9e563          	bltu	s3,a4,12e28 <__sfvwrite_r+0x232>
   12e02:	86ce                	mv	a3,s3
   12e04:	013bf363          	bgeu	s7,s3,12e0a <__sfvwrite_r+0x214>
   12e08:	86da                	mv	a3,s6
   12e0a:	02e6c6bb          	divw	a3,a3,a4
   12e0e:	603c                	ld	a5,64(s0)
   12e10:	780c                	ld	a1,48(s0)
   12e12:	8662                	mv	a2,s8
   12e14:	8556                	mv	a0,s5
   12e16:	02e686bb          	mulw	a3,a3,a4
   12e1a:	9782                	jalr	a5
   12e1c:	84aa                	mv	s1,a0
   12e1e:	f8a050e3          	blez	a0,12d9e <__sfvwrite_r+0x1a8>
   12e22:	409989b3          	sub	s3,s3,s1
   12e26:	b5d9                	j	12cec <__sfvwrite_r+0xf6>
   12e28:	0099f363          	bgeu	s3,s1,12e2e <__sfvwrite_r+0x238>
   12e2c:	84ce                	mv	s1,s3
   12e2e:	853e                	mv	a0,a5
   12e30:	8626                	mv	a2,s1
   12e32:	85e2                	mv	a1,s8
   12e34:	483020ef          	jal	ra,15ab6 <memmove>
   12e38:	4458                	lw	a4,12(s0)
   12e3a:	601c                	ld	a5,0(s0)
   12e3c:	409706bb          	subw	a3,a4,s1
   12e40:	97a6                	add	a5,a5,s1
   12e42:	c454                	sw	a3,12(s0)
   12e44:	e01c                	sd	a5,0(s0)
   12e46:	fef1                	bnez	a3,12e22 <__sfvwrite_r+0x22c>
   12e48:	85a2                	mv	a1,s0
   12e4a:	8556                	mv	a0,s5
   12e4c:	f48ff0ef          	jal	ra,12594 <_fflush_r>
   12e50:	f539                	bnez	a0,12d9e <__sfvwrite_r+0x1a8>
   12e52:	409989b3          	sub	s3,s3,s1
   12e56:	bd59                	j	12cec <__sfvwrite_r+0xf6>
   12e58:	4806f713          	andi	a4,a3,1152
   12e5c:	e6070ae3          	beqz	a4,12cd0 <__sfvwrite_r+0xda>
   12e60:	5010                	lw	a2,32(s0)
   12e62:	6c0c                	ld	a1,24(s0)
   12e64:	0016171b          	slliw	a4,a2,0x1
   12e68:	9f31                	addw	a4,a4,a2
   12e6a:	8f8d                	sub	a5,a5,a1
   12e6c:	01f7549b          	srliw	s1,a4,0x1f
   12e70:	00078d1b          	sext.w	s10,a5
   12e74:	9cb9                	addw	s1,s1,a4
   12e76:	001d0713          	addi	a4,s10,1
   12e7a:	4014d49b          	sraiw	s1,s1,0x1
   12e7e:	974e                	add	a4,a4,s3
   12e80:	00e4f663          	bgeu	s1,a4,12e8c <__sfvwrite_r+0x296>
   12e84:	0017871b          	addiw	a4,a5,1
   12e88:	013704bb          	addw	s1,a4,s3
   12e8c:	4006f693          	andi	a3,a3,1024
   12e90:	cea9                	beqz	a3,12eea <__sfvwrite_r+0x2f4>
   12e92:	85a6                	mv	a1,s1
   12e94:	8556                	mv	a0,s5
   12e96:	440020ef          	jal	ra,152d6 <_malloc_r>
   12e9a:	8caa                	mv	s9,a0
   12e9c:	cd25                	beqz	a0,12f14 <__sfvwrite_r+0x31e>
   12e9e:	6c0c                	ld	a1,24(s0)
   12ea0:	866a                	mv	a2,s10
   12ea2:	32d020ef          	jal	ra,159ce <memcpy>
   12ea6:	01045783          	lhu	a5,16(s0)
   12eaa:	b7f7f793          	andi	a5,a5,-1153
   12eae:	0807e793          	ori	a5,a5,128
   12eb2:	00f41823          	sh	a5,16(s0)
   12eb6:	01ac8533          	add	a0,s9,s10
   12eba:	41a487bb          	subw	a5,s1,s10
   12ebe:	01943c23          	sd	s9,24(s0)
   12ec2:	e008                	sd	a0,0(s0)
   12ec4:	d004                	sw	s1,32(s0)
   12ec6:	8cce                	mv	s9,s3
   12ec8:	c45c                	sw	a5,12(s0)
   12eca:	8d4e                	mv	s10,s3
   12ecc:	b511                	j	12cd0 <__sfvwrite_r+0xda>
   12ece:	865a                	mv	a2,s6
   12ed0:	85e6                	mv	a1,s9
   12ed2:	3e5020ef          	jal	ra,15ab6 <memmove>
   12ed6:	4454                	lw	a3,12(s0)
   12ed8:	6018                	ld	a4,0(s0)
   12eda:	000b079b          	sext.w	a5,s6
   12ede:	416686bb          	subw	a3,a3,s6
   12ee2:	975a                	add	a4,a4,s6
   12ee4:	c454                	sw	a3,12(s0)
   12ee6:	e018                	sd	a4,0(s0)
   12ee8:	bd8d                	j	12d5a <__sfvwrite_r+0x164>
   12eea:	8626                	mv	a2,s1
   12eec:	8556                	mv	a0,s5
   12eee:	149030ef          	jal	ra,16836 <_realloc_r>
   12ef2:	8caa                	mv	s9,a0
   12ef4:	f169                	bnez	a0,12eb6 <__sfvwrite_r+0x2c0>
   12ef6:	6c0c                	ld	a1,24(s0)
   12ef8:	8556                	mv	a0,s5
   12efa:	aabff0ef          	jal	ra,129a4 <_free_r>
   12efe:	01041783          	lh	a5,16(s0)
   12f02:	4731                	li	a4,12
   12f04:	00eaa023          	sw	a4,0(s5)
   12f08:	f7f7f793          	andi	a5,a5,-129
   12f0c:	bd59                	j	12da2 <__sfvwrite_r+0x1ac>
   12f0e:	001c0b9b          	addiw	s7,s8,1
   12f12:	bd09                	j	12d24 <__sfvwrite_r+0x12e>
   12f14:	4731                	li	a4,12
   12f16:	01041783          	lh	a5,16(s0)
   12f1a:	00eaa023          	sw	a4,0(s5)
   12f1e:	b551                	j	12da2 <__sfvwrite_r+0x1ac>
   12f20:	557d                	li	a0,-1
   12f22:	bd99                	j	12d78 <__sfvwrite_r+0x182>

0000000000012f24 <_fwalk>:
   12f24:	715d                	addi	sp,sp,-80
   12f26:	f84a                	sd	s2,48(sp)
   12f28:	f44e                	sd	s3,40(sp)
   12f2a:	f052                	sd	s4,32(sp)
   12f2c:	ec56                	sd	s5,24(sp)
   12f2e:	e85a                	sd	s6,16(sp)
   12f30:	e45e                	sd	s7,8(sp)
   12f32:	e486                	sd	ra,72(sp)
   12f34:	e0a2                	sd	s0,64(sp)
   12f36:	fc26                	sd	s1,56(sp)
   12f38:	8a2e                	mv	s4,a1
   12f3a:	52050913          	addi	s2,a0,1312
   12f3e:	4b01                	li	s6,0
   12f40:	0b000a93          	li	s5,176
   12f44:	4b85                	li	s7,1
   12f46:	59fd                	li	s3,-1
   12f48:	00892783          	lw	a5,8(s2)
   12f4c:	01093403          	ld	s0,16(s2)
   12f50:	02f05b63          	blez	a5,12f86 <_fwalk+0x62>
   12f54:	fff7849b          	addiw	s1,a5,-1
   12f58:	1482                	slli	s1,s1,0x20
   12f5a:	9081                	srli	s1,s1,0x20
   12f5c:	0485                	addi	s1,s1,1
   12f5e:	035484b3          	mul	s1,s1,s5
   12f62:	94a2                	add	s1,s1,s0
   12f64:	01045783          	lhu	a5,16(s0)
   12f68:	00fbfb63          	bgeu	s7,a5,12f7e <_fwalk+0x5a>
   12f6c:	01241783          	lh	a5,18(s0)
   12f70:	8522                	mv	a0,s0
   12f72:	01378663          	beq	a5,s3,12f7e <_fwalk+0x5a>
   12f76:	9a02                	jalr	s4
   12f78:	01656b33          	or	s6,a0,s6
   12f7c:	2b01                	sext.w	s6,s6
   12f7e:	0b040413          	addi	s0,s0,176
   12f82:	fe8491e3          	bne	s1,s0,12f64 <_fwalk+0x40>
   12f86:	00093903          	ld	s2,0(s2)
   12f8a:	fa091fe3          	bnez	s2,12f48 <_fwalk+0x24>
   12f8e:	60a6                	ld	ra,72(sp)
   12f90:	6406                	ld	s0,64(sp)
   12f92:	74e2                	ld	s1,56(sp)
   12f94:	7942                	ld	s2,48(sp)
   12f96:	79a2                	ld	s3,40(sp)
   12f98:	7a02                	ld	s4,32(sp)
   12f9a:	6ae2                	ld	s5,24(sp)
   12f9c:	6ba2                	ld	s7,8(sp)
   12f9e:	855a                	mv	a0,s6
   12fa0:	6b42                	ld	s6,16(sp)
   12fa2:	6161                	addi	sp,sp,80
   12fa4:	8082                	ret

0000000000012fa6 <_fwalk_reent>:
   12fa6:	715d                	addi	sp,sp,-80
   12fa8:	f84a                	sd	s2,48(sp)
   12faa:	f44e                	sd	s3,40(sp)
   12fac:	f052                	sd	s4,32(sp)
   12fae:	ec56                	sd	s5,24(sp)
   12fb0:	e85a                	sd	s6,16(sp)
   12fb2:	e45e                	sd	s7,8(sp)
   12fb4:	e062                	sd	s8,0(sp)
   12fb6:	e486                	sd	ra,72(sp)
   12fb8:	e0a2                	sd	s0,64(sp)
   12fba:	fc26                	sd	s1,56(sp)
   12fbc:	8c2a                	mv	s8,a0
   12fbe:	8a2e                	mv	s4,a1
   12fc0:	52050913          	addi	s2,a0,1312
   12fc4:	4b01                	li	s6,0
   12fc6:	0b000a93          	li	s5,176
   12fca:	4b85                	li	s7,1
   12fcc:	59fd                	li	s3,-1
   12fce:	00892783          	lw	a5,8(s2)
   12fd2:	01093403          	ld	s0,16(s2)
   12fd6:	02f05c63          	blez	a5,1300e <_fwalk_reent+0x68>
   12fda:	fff7849b          	addiw	s1,a5,-1
   12fde:	1482                	slli	s1,s1,0x20
   12fe0:	9081                	srli	s1,s1,0x20
   12fe2:	0485                	addi	s1,s1,1
   12fe4:	035484b3          	mul	s1,s1,s5
   12fe8:	94a2                	add	s1,s1,s0
   12fea:	01045783          	lhu	a5,16(s0)
   12fee:	00fbfc63          	bgeu	s7,a5,13006 <_fwalk_reent+0x60>
   12ff2:	01241783          	lh	a5,18(s0)
   12ff6:	85a2                	mv	a1,s0
   12ff8:	8562                	mv	a0,s8
   12ffa:	01378663          	beq	a5,s3,13006 <_fwalk_reent+0x60>
   12ffe:	9a02                	jalr	s4
   13000:	01656b33          	or	s6,a0,s6
   13004:	2b01                	sext.w	s6,s6
   13006:	0b040413          	addi	s0,s0,176
   1300a:	fe8490e3          	bne	s1,s0,12fea <_fwalk_reent+0x44>
   1300e:	00093903          	ld	s2,0(s2)
   13012:	fa091ee3          	bnez	s2,12fce <_fwalk_reent+0x28>
   13016:	60a6                	ld	ra,72(sp)
   13018:	6406                	ld	s0,64(sp)
   1301a:	74e2                	ld	s1,56(sp)
   1301c:	7942                	ld	s2,48(sp)
   1301e:	79a2                	ld	s3,40(sp)
   13020:	7a02                	ld	s4,32(sp)
   13022:	6ae2                	ld	s5,24(sp)
   13024:	6ba2                	ld	s7,8(sp)
   13026:	6c02                	ld	s8,0(sp)
   13028:	855a                	mv	a0,s6
   1302a:	6b42                	ld	s6,16(sp)
   1302c:	6161                	addi	sp,sp,80
   1302e:	8082                	ret

0000000000013030 <eshdn1>:
   13030:	00450693          	addi	a3,a0,4
   13034:	4781                	li	a5,0
   13036:	0569                	addi	a0,a0,26
   13038:	7861                	lui	a6,0xffff8
   1303a:	a811                	j	1304e <eshdn1+0x1e>
   1303c:	0017979b          	slliw	a5,a5,0x1
   13040:	00e69023          	sh	a4,0(a3)
   13044:	17c2                	slli	a5,a5,0x30
   13046:	0689                	addi	a3,a3,2
   13048:	93c1                	srli	a5,a5,0x30
   1304a:	02d50863          	beq	a0,a3,1307a <eshdn1+0x4a>
   1304e:	0006d703          	lhu	a4,0(a3)
   13052:	00177613          	andi	a2,a4,1
   13056:	c219                	beqz	a2,1305c <eshdn1+0x2c>
   13058:	0017e793          	ori	a5,a5,1
   1305c:	8305                	srli	a4,a4,0x1
   1305e:	0027f613          	andi	a2,a5,2
   13062:	010765b3          	or	a1,a4,a6
   13066:	da79                	beqz	a2,1303c <eshdn1+0xc>
   13068:	0017979b          	slliw	a5,a5,0x1
   1306c:	00b69023          	sh	a1,0(a3)
   13070:	17c2                	slli	a5,a5,0x30
   13072:	0689                	addi	a3,a3,2
   13074:	93c1                	srli	a5,a5,0x30
   13076:	fcd51ce3          	bne	a0,a3,1304e <eshdn1+0x1e>
   1307a:	8082                	ret

000000000001307c <eshup1>:
   1307c:	01850693          	addi	a3,a0,24
   13080:	4701                	li	a4,0
   13082:	0509                	addi	a0,a0,2
   13084:	a811                	j	13098 <eshup1+0x1c>
   13086:	0017171b          	slliw	a4,a4,0x1
   1308a:	00f69023          	sh	a5,0(a3)
   1308e:	1742                	slli	a4,a4,0x30
   13090:	16f9                	addi	a3,a3,-2
   13092:	9341                	srli	a4,a4,0x30
   13094:	02d50b63          	beq	a0,a3,130ca <eshup1+0x4e>
   13098:	0006d783          	lhu	a5,0(a3)
   1309c:	00f7d613          	srli	a2,a5,0xf
   130a0:	0017979b          	slliw	a5,a5,0x1
   130a4:	c219                	beqz	a2,130aa <eshup1+0x2e>
   130a6:	00176713          	ori	a4,a4,1
   130aa:	17c2                	slli	a5,a5,0x30
   130ac:	93c1                	srli	a5,a5,0x30
   130ae:	00277613          	andi	a2,a4,2
   130b2:	0017e593          	ori	a1,a5,1
   130b6:	da61                	beqz	a2,13086 <eshup1+0xa>
   130b8:	0017171b          	slliw	a4,a4,0x1
   130bc:	00b69023          	sh	a1,0(a3)
   130c0:	1742                	slli	a4,a4,0x30
   130c2:	16f9                	addi	a3,a3,-2
   130c4:	9341                	srli	a4,a4,0x30
   130c6:	fcd519e3          	bne	a0,a3,13098 <eshup1+0x1c>
   130ca:	8082                	ret

00000000000130cc <m16m>:
   130cc:	1101                	addi	sp,sp,-32
   130ce:	6e41                	lui	t3,0x10
   130d0:	00011b23          	sh	zero,22(sp)
   130d4:	00011c23          	sh	zero,24(sp)
   130d8:	05e1                	addi	a1,a1,24
   130da:	083c                	addi	a5,sp,24
   130dc:	00410813          	addi	a6,sp,4
   130e0:	1e7d                	addi	t3,t3,-1
   130e2:	0005d703          	lhu	a4,0(a1)
   130e6:	17f9                	addi	a5,a5,-2
   130e8:	15f9                	addi	a1,a1,-2
   130ea:	c705                	beqz	a4,13112 <m16m+0x46>
   130ec:	02a70733          	mul	a4,a4,a0
   130f0:	0027d883          	lhu	a7,2(a5)
   130f4:	0007d303          	lhu	t1,0(a5)
   130f8:	01c776b3          	and	a3,a4,t3
   130fc:	96c6                	add	a3,a3,a7
   130fe:	8341                	srli	a4,a4,0x10
   13100:	0106d893          	srli	a7,a3,0x10
   13104:	971a                	add	a4,a4,t1
   13106:	9746                	add	a4,a4,a7
   13108:	00e79023          	sh	a4,0(a5)
   1310c:	00d79123          	sh	a3,2(a5)
   13110:	8341                	srli	a4,a4,0x10
   13112:	fee79f23          	sh	a4,-2(a5)
   13116:	fd0796e3          	bne	a5,a6,130e2 <m16m+0x16>
   1311a:	0611                	addi	a2,a2,4
   1311c:	01a10693          	addi	a3,sp,26
   13120:	0007d703          	lhu	a4,0(a5)
   13124:	0789                	addi	a5,a5,2
   13126:	0609                	addi	a2,a2,2
   13128:	fee61f23          	sh	a4,-2(a2)
   1312c:	fed79ae3          	bne	a5,a3,13120 <m16m+0x54>
   13130:	6105                	addi	sp,sp,32
   13132:	8082                	ret

0000000000013134 <emovo.constprop.0>:
   13134:	00055703          	lhu	a4,0(a0)
   13138:	00255783          	lhu	a5,2(a0)
   1313c:	c319                	beqz	a4,13142 <emovo.constprop.0+0xe>
   1313e:	6721                	lui	a4,0x8
   13140:	8fd9                	or	a5,a5,a4
   13142:	00f59923          	sh	a5,18(a1)
   13146:	00255703          	lhu	a4,2(a0)
   1314a:	67a1                	lui	a5,0x8
   1314c:	17fd                	addi	a5,a5,-1
   1314e:	00f70f63          	beq	a4,a5,1316c <emovo.constprop.0+0x38>
   13152:	00650793          	addi	a5,a0,6
   13156:	05c1                	addi	a1,a1,16
   13158:	0561                	addi	a0,a0,24
   1315a:	0007d703          	lhu	a4,0(a5) # 8000 <exit-0x80b0>
   1315e:	0789                	addi	a5,a5,2
   13160:	15f9                	addi	a1,a1,-2
   13162:	00e59123          	sh	a4,2(a1)
   13166:	fea79ae3          	bne	a5,a0,1315a <emovo.constprop.0+0x26>
   1316a:	8082                	ret
   1316c:	00650793          	addi	a5,a0,6
   13170:	0569                	addi	a0,a0,26
   13172:	0007d703          	lhu	a4,0(a5)
   13176:	0789                	addi	a5,a5,2
   13178:	e31d                	bnez	a4,1319e <emovo.constprop.0+0x6a>
   1317a:	fea79ce3          	bne	a5,a0,13172 <emovo.constprop.0+0x3e>
   1317e:	01258713          	addi	a4,a1,18
   13182:	87ae                	mv	a5,a1
   13184:	0789                	addi	a5,a5,2
   13186:	fe079f23          	sh	zero,-2(a5)
   1318a:	fef71de3          	bne	a4,a5,13184 <emovo.constprop.0+0x50>
   1318e:	0125d783          	lhu	a5,18(a1)
   13192:	6721                	lui	a4,0x8
   13194:	177d                	addi	a4,a4,-1
   13196:	8fd9                	or	a5,a5,a4
   13198:	00f59923          	sh	a5,18(a1)
   1319c:	8082                	ret
   1319e:	01058713          	addi	a4,a1,16
   131a2:	87ae                	mv	a5,a1
   131a4:	0789                	addi	a5,a5,2
   131a6:	fe079f23          	sh	zero,-2(a5)
   131aa:	fef71de3          	bne	a4,a5,131a4 <emovo.constprop.0+0x70>
   131ae:	77f1                	lui	a5,0xffffc
   131b0:	00f59823          	sh	a5,16(a1)
   131b4:	77e1                	lui	a5,0xffff8
   131b6:	fff7c793          	not	a5,a5
   131ba:	00f59923          	sh	a5,18(a1)
   131be:	8082                	ret

00000000000131c0 <enormlz>:
   131c0:	00455783          	lhu	a5,4(a0)
   131c4:	1101                	addi	sp,sp,-32
   131c6:	e426                	sd	s1,8(sp)
   131c8:	ec06                	sd	ra,24(sp)
   131ca:	e822                	sd	s0,16(sp)
   131cc:	e04a                	sd	s2,0(sp)
   131ce:	84aa                	mv	s1,a0
   131d0:	efc9                	bnez	a5,1326a <enormlz+0xaa>
   131d2:	00655703          	lhu	a4,6(a0)
   131d6:	4401                	li	s0,0
   131d8:	00f75793          	srli	a5,a4,0xf
   131dc:	e3c1                	bnez	a5,1325c <enormlz+0x9c>
   131de:	01a50693          	addi	a3,a0,26
   131e2:	0a000613          	li	a2,160
   131e6:	e31d                	bnez	a4,1320c <enormlz+0x4c>
   131e8:	00648793          	addi	a5,s1,6
   131ec:	a019                	j	131f2 <enormlz+0x32>
   131ee:	0007d703          	lhu	a4,0(a5) # ffffffffffff8000 <__BSS_END__+0xffffffffffdc47b0>
   131f2:	0789                	addi	a5,a5,2
   131f4:	fee79e23          	sh	a4,-4(a5)
   131f8:	fed79be3          	bne	a5,a3,131ee <enormlz+0x2e>
   131fc:	00049c23          	sh	zero,24(s1)
   13200:	2441                	addiw	s0,s0,16
   13202:	04c40d63          	beq	s0,a2,1325c <enormlz+0x9c>
   13206:	0064d703          	lhu	a4,6(s1)
   1320a:	df79                	beqz	a4,131e8 <enormlz+0x28>
   1320c:	f0077793          	andi	a5,a4,-256
   13210:	eb8d                	bnez	a5,13242 <enormlz+0x82>
   13212:	01848513          	addi	a0,s1,24
   13216:	00248593          	addi	a1,s1,2
   1321a:	4781                	li	a5,0
   1321c:	872a                	mv	a4,a0
   1321e:	00075683          	lhu	a3,0(a4) # 8000 <exit-0x80b0>
   13222:	1779                	addi	a4,a4,-2
   13224:	0086961b          	slliw	a2,a3,0x8
   13228:	8fd1                	or	a5,a5,a2
   1322a:	00f71123          	sh	a5,2(a4)
   1322e:	0086d793          	srli	a5,a3,0x8
   13232:	feb716e3          	bne	a4,a1,1321e <enormlz+0x5e>
   13236:	0064d703          	lhu	a4,6(s1)
   1323a:	2421                	addiw	s0,s0,8
   1323c:	f0077793          	andi	a5,a4,-256
   13240:	dfe9                	beqz	a5,1321a <enormlz+0x5a>
   13242:	0a000913          	li	s2,160
   13246:	a801                	j	13256 <enormlz+0x96>
   13248:	2405                	addiw	s0,s0,1
   1324a:	e33ff0ef          	jal	ra,1307c <eshup1>
   1324e:	00894763          	blt	s2,s0,1325c <enormlz+0x9c>
   13252:	0064d703          	lhu	a4,6(s1)
   13256:	833d                	srli	a4,a4,0xf
   13258:	8526                	mv	a0,s1
   1325a:	d77d                	beqz	a4,13248 <enormlz+0x88>
   1325c:	60e2                	ld	ra,24(sp)
   1325e:	8522                	mv	a0,s0
   13260:	6442                	ld	s0,16(sp)
   13262:	64a2                	ld	s1,8(sp)
   13264:	6902                	ld	s2,0(sp)
   13266:	6105                	addi	sp,sp,32
   13268:	8082                	ret
   1326a:	f007f713          	andi	a4,a5,-256
   1326e:	4401                	li	s0,0
   13270:	e705                	bnez	a4,13298 <enormlz+0xd8>
   13272:	f6f00913          	li	s2,-145
   13276:	a801                	j	13286 <enormlz+0xc6>
   13278:	347d                	addiw	s0,s0,-1
   1327a:	db7ff0ef          	jal	ra,13030 <eshdn1>
   1327e:	fd240fe3          	beq	s0,s2,1325c <enormlz+0x9c>
   13282:	0044d783          	lhu	a5,4(s1)
   13286:	8526                	mv	a0,s1
   13288:	fbe5                	bnez	a5,13278 <enormlz+0xb8>
   1328a:	60e2                	ld	ra,24(sp)
   1328c:	8522                	mv	a0,s0
   1328e:	6442                	ld	s0,16(sp)
   13290:	64a2                	ld	s1,8(sp)
   13292:	6902                	ld	s2,0(sp)
   13294:	6105                	addi	sp,sp,32
   13296:	8082                	ret
   13298:	00450693          	addi	a3,a0,4
   1329c:	01a50593          	addi	a1,a0,26
   132a0:	4701                	li	a4,0
   132a2:	a019                	j	132a8 <enormlz+0xe8>
   132a4:	0006d783          	lhu	a5,0(a3)
   132a8:	0087d61b          	srliw	a2,a5,0x8
   132ac:	8f51                	or	a4,a4,a2
   132ae:	0087979b          	slliw	a5,a5,0x8
   132b2:	00e69023          	sh	a4,0(a3)
   132b6:	03079713          	slli	a4,a5,0x30
   132ba:	0689                	addi	a3,a3,2
   132bc:	9341                	srli	a4,a4,0x30
   132be:	fed593e3          	bne	a1,a3,132a4 <enormlz+0xe4>
   132c2:	0044d783          	lhu	a5,4(s1)
   132c6:	5461                	li	s0,-8
   132c8:	b76d                	j	13272 <enormlz+0xb2>

00000000000132ca <eshift.part.0>:
   132ca:	7179                	addi	sp,sp,-48
   132cc:	f022                	sd	s0,32(sp)
   132ce:	ec26                	sd	s1,24(sp)
   132d0:	f406                	sd	ra,40(sp)
   132d2:	e84a                	sd	s2,16(sp)
   132d4:	e44e                	sd	s3,8(sp)
   132d6:	84ae                	mv	s1,a1
   132d8:	842a                	mv	s0,a0
   132da:	0605cb63          	bltz	a1,13350 <eshift.part.0+0x86>
   132de:	47bd                	li	a5,15
   132e0:	862e                	mv	a2,a1
   132e2:	0511                	addi	a0,a0,4
   132e4:	01840693          	addi	a3,s0,24
   132e8:	45bd                	li	a1,15
   132ea:	0297d063          	bge	a5,s1,1330a <eshift.part.0+0x40>
   132ee:	87aa                	mv	a5,a0
   132f0:	0027d703          	lhu	a4,2(a5)
   132f4:	0789                	addi	a5,a5,2
   132f6:	fee79f23          	sh	a4,-2(a5)
   132fa:	fef69be3          	bne	a3,a5,132f0 <eshift.part.0+0x26>
   132fe:	00041c23          	sh	zero,24(s0)
   13302:	3641                	addiw	a2,a2,-16
   13304:	fec5c5e3          	blt	a1,a2,132ee <eshift.part.0+0x24>
   13308:	88bd                	andi	s1,s1,15
   1330a:	479d                	li	a5,7
   1330c:	0297d463          	bge	a5,s1,13334 <eshift.part.0+0x6a>
   13310:	01840713          	addi	a4,s0,24
   13314:	00240593          	addi	a1,s0,2
   13318:	4781                	li	a5,0
   1331a:	00075683          	lhu	a3,0(a4)
   1331e:	1779                	addi	a4,a4,-2
   13320:	0086961b          	slliw	a2,a3,0x8
   13324:	8fd1                	or	a5,a5,a2
   13326:	00f71123          	sh	a5,2(a4)
   1332a:	0086d793          	srli	a5,a3,0x8
   1332e:	fee596e3          	bne	a1,a4,1331a <eshift.part.0+0x50>
   13332:	34e1                	addiw	s1,s1,-8
   13334:	c491                	beqz	s1,13340 <eshift.part.0+0x76>
   13336:	34fd                	addiw	s1,s1,-1
   13338:	8522                	mv	a0,s0
   1333a:	d43ff0ef          	jal	ra,1307c <eshup1>
   1333e:	fce5                	bnez	s1,13336 <eshift.part.0+0x6c>
   13340:	70a2                	ld	ra,40(sp)
   13342:	7402                	ld	s0,32(sp)
   13344:	64e2                	ld	s1,24(sp)
   13346:	6942                	ld	s2,16(sp)
   13348:	69a2                	ld	s3,8(sp)
   1334a:	4501                	li	a0,0
   1334c:	6145                	addi	sp,sp,48
   1334e:	8082                	ret
   13350:	57c5                	li	a5,-15
   13352:	40b0093b          	negw	s2,a1
   13356:	06f5db63          	bge	a1,a5,133cc <eshift.part.0+0x102>
   1335a:	01850593          	addi	a1,a0,24
   1335e:	4981                	li	s3,0
   13360:	00450693          	addi	a3,a0,4
   13364:	463d                	li	a2,15
   13366:	01845703          	lhu	a4,24(s0)
   1336a:	87ae                	mv	a5,a1
   1336c:	00e9e9b3          	or	s3,s3,a4
   13370:	ffe7d703          	lhu	a4,-2(a5)
   13374:	17f9                	addi	a5,a5,-2
   13376:	00e79123          	sh	a4,2(a5)
   1337a:	fed79be3          	bne	a5,a3,13370 <eshift.part.0+0xa6>
   1337e:	00041223          	sh	zero,4(s0)
   13382:	3941                	addiw	s2,s2,-16
   13384:	ff2641e3          	blt	a2,s2,13366 <eshift.part.0+0x9c>
   13388:	5941                	li	s2,-16
   1338a:	5745                	li	a4,-15
   1338c:	4099093b          	subw	s2,s2,s1
   13390:	4781                	li	a5,0
   13392:	06e4cb63          	blt	s1,a4,13408 <eshift.part.0+0x13e>
   13396:	00f9093b          	addw	s2,s2,a5
   1339a:	479d                	li	a5,7
   1339c:	0327ce63          	blt	a5,s2,133d8 <eshift.part.0+0x10e>
   133a0:	00090d63          	beqz	s2,133ba <eshift.part.0+0xf0>
   133a4:	01845783          	lhu	a5,24(s0)
   133a8:	397d                	addiw	s2,s2,-1
   133aa:	8522                	mv	a0,s0
   133ac:	8b85                	andi	a5,a5,1
   133ae:	00f9e9b3          	or	s3,s3,a5
   133b2:	c7fff0ef          	jal	ra,13030 <eshdn1>
   133b6:	fe0917e3          	bnez	s2,133a4 <eshift.part.0+0xda>
   133ba:	70a2                	ld	ra,40(sp)
   133bc:	7402                	ld	s0,32(sp)
   133be:	64e2                	ld	s1,24(sp)
   133c0:	6942                	ld	s2,16(sp)
   133c2:	01303533          	snez	a0,s3
   133c6:	69a2                	ld	s3,8(sp)
   133c8:	6145                	addi	sp,sp,48
   133ca:	8082                	ret
   133cc:	57e5                	li	a5,-7
   133ce:	4981                	li	s3,0
   133d0:	00450693          	addi	a3,a0,4
   133d4:	fcf5d8e3          	bge	a1,a5,133a4 <eshift.part.0+0xda>
   133d8:	01844783          	lbu	a5,24(s0)
   133dc:	01a40593          	addi	a1,s0,26
   133e0:	00f9e9b3          	or	s3,s3,a5
   133e4:	4781                	li	a5,0
   133e6:	0006d703          	lhu	a4,0(a3)
   133ea:	0689                	addi	a3,a3,2
   133ec:	0087561b          	srliw	a2,a4,0x8
   133f0:	8fd1                	or	a5,a5,a2
   133f2:	0087171b          	slliw	a4,a4,0x8
   133f6:	fef69f23          	sh	a5,-2(a3)
   133fa:	03071793          	slli	a5,a4,0x30
   133fe:	93c1                	srli	a5,a5,0x30
   13400:	feb693e3          	bne	a3,a1,133e6 <eshift.part.0+0x11c>
   13404:	3961                	addiw	s2,s2,-8
   13406:	bf69                	j	133a0 <eshift.part.0+0xd6>
   13408:	ff097793          	andi	a5,s2,-16
   1340c:	40f007bb          	negw	a5,a5
   13410:	00f9093b          	addw	s2,s2,a5
   13414:	479d                	li	a5,7
   13416:	f927d5e3          	bge	a5,s2,133a0 <eshift.part.0+0xd6>
   1341a:	bf7d                	j	133d8 <eshift.part.0+0x10e>

000000000001341c <emovi>:
   1341c:	01255783          	lhu	a5,18(a0)
   13420:	6621                	lui	a2,0x8
   13422:	167d                	addi	a2,a2,-1
   13424:	00f7d79b          	srliw	a5,a5,0xf
   13428:	40f007bb          	negw	a5,a5
   1342c:	00f59023          	sh	a5,0(a1)
   13430:	01255683          	lhu	a3,18(a0)
   13434:	01050793          	addi	a5,a0,16
   13438:	00458713          	addi	a4,a1,4
   1343c:	8ef1                	and	a3,a3,a2
   1343e:	00d59123          	sh	a3,2(a1)
   13442:	0006881b          	sext.w	a6,a3
   13446:	02c68263          	beq	a3,a2,1346a <emovi+0x4e>
   1344a:	00658713          	addi	a4,a1,6
   1344e:	00059223          	sh	zero,4(a1)
   13452:	1579                	addi	a0,a0,-2
   13454:	0007d683          	lhu	a3,0(a5)
   13458:	17f9                	addi	a5,a5,-2
   1345a:	0709                	addi	a4,a4,2
   1345c:	fed71f23          	sh	a3,-2(a4)
   13460:	fef51ae3          	bne	a0,a5,13454 <emovi+0x38>
   13464:	00059c23          	sh	zero,24(a1)
   13468:	8082                	ret
   1346a:	01255683          	lhu	a3,18(a0)
   1346e:	0106f6b3          	and	a3,a3,a6
   13472:	01069b63          	bne	a3,a6,13488 <emovi+0x6c>
   13476:	01250813          	addi	a6,a0,18
   1347a:	86aa                	mv	a3,a0
   1347c:	0006d603          	lhu	a2,0(a3)
   13480:	0689                	addi	a3,a3,2
   13482:	ea11                	bnez	a2,13496 <emovi+0x7a>
   13484:	ff069ce3          	bne	a3,a6,1347c <emovi+0x60>
   13488:	05e9                	addi	a1,a1,26
   1348a:	0709                	addi	a4,a4,2
   1348c:	fe071f23          	sh	zero,-2(a4)
   13490:	fee59de3          	bne	a1,a4,1348a <emovi+0x6e>
   13494:	8082                	ret
   13496:	00658713          	addi	a4,a1,6
   1349a:	00059223          	sh	zero,4(a1)
   1349e:	1571                	addi	a0,a0,-4
   134a0:	0007d683          	lhu	a3,0(a5)
   134a4:	17f9                	addi	a5,a5,-2
   134a6:	0709                	addi	a4,a4,2
   134a8:	fed71f23          	sh	a3,-2(a4)
   134ac:	fea79ae3          	bne	a5,a0,134a0 <emovi+0x84>
   134b0:	8082                	ret

00000000000134b2 <ecmp>:
   134b2:	01255783          	lhu	a5,18(a0)
   134b6:	715d                	addi	sp,sp,-80
   134b8:	e0a2                	sd	s0,64(sp)
   134ba:	fff7c793          	not	a5,a5
   134be:	e486                	sd	ra,72(sp)
   134c0:	03179713          	slli	a4,a5,0x31
   134c4:	842e                	mv	s0,a1
   134c6:	eb11                	bnez	a4,134da <ecmp+0x28>
   134c8:	01250693          	addi	a3,a0,18
   134cc:	87aa                	mv	a5,a0
   134ce:	0007d703          	lhu	a4,0(a5)
   134d2:	0789                	addi	a5,a5,2
   134d4:	eb25                	bnez	a4,13544 <ecmp+0x92>
   134d6:	fed79ce3          	bne	a5,a3,134ce <ecmp+0x1c>
   134da:	01245783          	lhu	a5,18(s0)
   134de:	fff7c793          	not	a5,a5
   134e2:	03179713          	slli	a4,a5,0x31
   134e6:	c331                	beqz	a4,1352a <ecmp+0x78>
   134e8:	858a                	mv	a1,sp
   134ea:	f33ff0ef          	jal	ra,1341c <emovi>
   134ee:	100c                	addi	a1,sp,32
   134f0:	8522                	mv	a0,s0
   134f2:	f2bff0ef          	jal	ra,1341c <emovi>
   134f6:	00015583          	lhu	a1,0(sp)
   134fa:	02015783          	lhu	a5,32(sp)
   134fe:	04b78863          	beq	a5,a1,1354e <ecmp+0x9c>
   13502:	00210793          	addi	a5,sp,2
   13506:	02210713          	addi	a4,sp,34
   1350a:	0830                	addi	a2,sp,24
   1350c:	0007d683          	lhu	a3,0(a5)
   13510:	0789                	addi	a5,a5,2
   13512:	eea5                	bnez	a3,1358a <ecmp+0xd8>
   13514:	00075683          	lhu	a3,0(a4)
   13518:	0709                	addi	a4,a4,2
   1351a:	eaa5                	bnez	a3,1358a <ecmp+0xd8>
   1351c:	fef618e3          	bne	a2,a5,1350c <ecmp+0x5a>
   13520:	4501                	li	a0,0
   13522:	60a6                	ld	ra,72(sp)
   13524:	6406                	ld	s0,64(sp)
   13526:	6161                	addi	sp,sp,80
   13528:	8082                	ret
   1352a:	87a2                	mv	a5,s0
   1352c:	0007d703          	lhu	a4,0(a5)
   13530:	01240693          	addi	a3,s0,18
   13534:	0789                	addi	a5,a5,2
   13536:	e719                	bnez	a4,13544 <ecmp+0x92>
   13538:	fad788e3          	beq	a5,a3,134e8 <ecmp+0x36>
   1353c:	0007d703          	lhu	a4,0(a5)
   13540:	0789                	addi	a5,a5,2
   13542:	db7d                	beqz	a4,13538 <ecmp+0x86>
   13544:	60a6                	ld	ra,72(sp)
   13546:	6406                	ld	s0,64(sp)
   13548:	5579                	li	a0,-2
   1354a:	6161                	addi	sp,sp,80
   1354c:	8082                	ret
   1354e:	4505                	li	a0,1
   13550:	e1a9                	bnez	a1,13592 <ecmp+0xe0>
   13552:	00215603          	lhu	a2,2(sp)
   13556:	02215683          	lhu	a3,34(sp)
   1355a:	00210713          	addi	a4,sp,2
   1355e:	02210793          	addi	a5,sp,34
   13562:	182c                	addi	a1,sp,56
   13564:	0789                	addi	a5,a5,2
   13566:	0709                	addi	a4,a4,2
   13568:	00d61c63          	bne	a2,a3,13580 <ecmp+0xce>
   1356c:	fab78ae3          	beq	a5,a1,13520 <ecmp+0x6e>
   13570:	00075603          	lhu	a2,0(a4)
   13574:	0007d683          	lhu	a3,0(a5)
   13578:	0709                	addi	a4,a4,2
   1357a:	0789                	addi	a5,a5,2
   1357c:	fed608e3          	beq	a2,a3,1356c <ecmp+0xba>
   13580:	fac6e1e3          	bltu	a3,a2,13522 <ecmp+0x70>
   13584:	40a0053b          	negw	a0,a0
   13588:	bf69                	j	13522 <ecmp+0x70>
   1358a:	4505                	li	a0,1
   1358c:	d9d9                	beqz	a1,13522 <ecmp+0x70>
   1358e:	557d                	li	a0,-1
   13590:	bf49                	j	13522 <ecmp+0x70>
   13592:	557d                	li	a0,-1
   13594:	bf7d                	j	13552 <ecmp+0xa0>

0000000000013596 <emdnorm>:
   13596:	715d                	addi	sp,sp,-80
   13598:	e0a2                	sd	s0,64(sp)
   1359a:	fc26                	sd	s1,56(sp)
   1359c:	f84a                	sd	s2,48(sp)
   1359e:	f44e                	sd	s3,40(sp)
   135a0:	f052                	sd	s4,32(sp)
   135a2:	ec56                	sd	s5,24(sp)
   135a4:	8936                	mv	s2,a3
   135a6:	84be                	mv	s1,a5
   135a8:	e486                	sd	ra,72(sp)
   135aa:	e85a                	sd	s6,16(sp)
   135ac:	e45e                	sd	s7,8(sp)
   135ae:	842a                	mv	s0,a0
   135b0:	89ae                	mv	s3,a1
   135b2:	8a32                	mv	s4,a2
   135b4:	8aba                	mv	s5,a4
   135b6:	c0bff0ef          	jal	ra,131c0 <enormlz>
   135ba:	09000793          	li	a5,144
   135be:	40a90933          	sub	s2,s2,a0
   135c2:	10a7dc63          	bge	a5,a0,136da <emdnorm+0x144>
   135c6:	67a1                	lui	a5,0x8
   135c8:	17f9                	addi	a5,a5,-2
   135ca:	1f27dd63          	bge	a5,s2,137c4 <emdnorm+0x22e>
   135ce:	1c0a8b63          	beqz	s5,137a4 <emdnorm+0x20e>
   135d2:	0044aa83          	lw	s5,4(s1)
   135d6:	4094                	lw	a3,0(s1)
   135d8:	01a48713          	addi	a4,s1,26
   135dc:	03448793          	addi	a5,s1,52
   135e0:	23568463          	beq	a3,s5,13808 <emdnorm+0x272>
   135e4:	0709                	addi	a4,a4,2
   135e6:	fe071f23          	sh	zero,-2(a4)
   135ea:	fef71de3          	bne	a4,a5,135e4 <emdnorm+0x4e>
   135ee:	03800793          	li	a5,56
   135f2:	28fa8363          	beq	s5,a5,13878 <emdnorm+0x2e2>
   135f6:	1157d163          	bge	a5,s5,136f8 <emdnorm+0x162>
   135fa:	04000793          	li	a5,64
   135fe:	22fa8b63          	beq	s5,a5,13834 <emdnorm+0x29e>
   13602:	07100793          	li	a5,113
   13606:	28fa9363          	bne	s5,a5,1388c <emdnorm+0x2f6>
   1360a:	6721                	lui	a4,0x8
   1360c:	177d                	addi	a4,a4,-1
   1360e:	6591                	lui	a1,0x4
   13610:	4b51                	li	s6,20
   13612:	4ba9                	li	s7,10
   13614:	67a1                	lui	a5,0x8
   13616:	4629                	li	a2,10
   13618:	00860693          	addi	a3,a2,8 # 8008 <exit-0x80a8>
   1361c:	0686                	slli	a3,a3,0x1
   1361e:	00e49a23          	sh	a4,20(s1)
   13622:	0174a423          	sw	s7,8(s1)
   13626:	00b49b23          	sh	a1,22(s1)
   1362a:	00f49c23          	sh	a5,24(s1)
   1362e:	c4d0                	sw	a2,12(s1)
   13630:	00d48733          	add	a4,s1,a3
   13634:	00f71523          	sh	a5,10(a4) # 800a <exit-0x80a6>
   13638:	0154a023          	sw	s5,0(s1)
   1363c:	9b22                	add	s6,s6,s0
   1363e:	1d205c63          	blez	s2,13816 <emdnorm+0x280>
   13642:	000b5703          	lhu	a4,0(s6) # ffffffff80000000 <__BSS_END__+0xffffffff7fdcc7b0>
   13646:	0144d683          	lhu	a3,20(s1)
   1364a:	08f00793          	li	a5,143
   1364e:	00d77633          	and	a2,a4,a3
   13652:	0557c163          	blt	a5,s5,13694 <emdnorm+0xfe>
   13656:	001b879b          	addiw	a5,s7,1
   1365a:	45b1                	li	a1,12
   1365c:	02f5cc63          	blt	a1,a5,13694 <emdnorm+0xfe>
   13660:	472d                	li	a4,11
   13662:	4177073b          	subw	a4,a4,s7
   13666:	1702                	slli	a4,a4,0x20
   13668:	9301                	srli	a4,a4,0x20
   1366a:	975e                	add	a4,a4,s7
   1366c:	0786                	slli	a5,a5,0x1
   1366e:	0706                	slli	a4,a4,0x1
   13670:	00440693          	addi	a3,s0,4
   13674:	97a2                	add	a5,a5,s0
   13676:	9736                	add	a4,a4,a3
   13678:	0007d683          	lhu	a3,0(a5) # 8000 <exit-0x80b0>
   1367c:	c299                	beqz	a3,13682 <emdnorm+0xec>
   1367e:	00166613          	ori	a2,a2,1
   13682:	00079023          	sh	zero,0(a5)
   13686:	0789                	addi	a5,a5,2
   13688:	fee798e3          	bne	a5,a4,13678 <emdnorm+0xe2>
   1368c:	000b5703          	lhu	a4,0(s6)
   13690:	0144d683          	lhu	a3,20(s1)
   13694:	fff6c693          	not	a3,a3
   13698:	8f75                	and	a4,a4,a3
   1369a:	00eb1023          	sh	a4,0(s6)
   1369e:	0164d783          	lhu	a5,22(s1)
   136a2:	00c7f733          	and	a4,a5,a2
   136a6:	eb51                	bnez	a4,1373a <emdnorm+0x1a4>
   136a8:	0d205d63          	blez	s2,13782 <emdnorm+0x1ec>
   136ac:	00445783          	lhu	a5,4(s0)
   136b0:	1a079463          	bnez	a5,13858 <emdnorm+0x2c2>
   136b4:	67a1                	lui	a5,0x8
   136b6:	00041c23          	sh	zero,24(s0)
   136ba:	17f9                	addi	a5,a5,-2
   136bc:	0f27c663          	blt	a5,s2,137a8 <emdnorm+0x212>
   136c0:	01241123          	sh	s2,2(s0)
   136c4:	60a6                	ld	ra,72(sp)
   136c6:	6406                	ld	s0,64(sp)
   136c8:	74e2                	ld	s1,56(sp)
   136ca:	7942                	ld	s2,48(sp)
   136cc:	79a2                	ld	s3,40(sp)
   136ce:	7a02                	ld	s4,32(sp)
   136d0:	6ae2                	ld	s5,24(sp)
   136d2:	6b42                	ld	s6,16(sp)
   136d4:	6ba2                	ld	s7,8(sp)
   136d6:	6161                	addi	sp,sp,80
   136d8:	8082                	ret
   136da:	10095c63          	bgez	s2,137f2 <emdnorm+0x25c>
   136de:	f7000793          	li	a5,-144
   136e2:	0ef95a63          	bge	s2,a5,137d6 <emdnorm+0x240>
   136e6:	00240793          	addi	a5,s0,2
   136ea:	0469                	addi	s0,s0,26
   136ec:	0789                	addi	a5,a5,2
   136ee:	fe079f23          	sh	zero,-2(a5) # 7ffe <exit-0x80b2>
   136f2:	fe879de3          	bne	a5,s0,136ec <emdnorm+0x156>
   136f6:	b7f9                	j	136c4 <emdnorm+0x12e>
   136f8:	47e1                	li	a5,24
   136fa:	14fa8563          	beq	s5,a5,13844 <emdnorm+0x2ae>
   136fe:	03500793          	li	a5,53
   13702:	18fa9563          	bne	s5,a5,1388c <emdnorm+0x2f6>
   13706:	6785                	lui	a5,0x1
   13708:	7ff00713          	li	a4,2047
   1370c:	40000593          	li	a1,1024
   13710:	4b31                	li	s6,12
   13712:	4b99                	li	s7,6
   13714:	80078793          	addi	a5,a5,-2048 # 800 <exit-0xf8b0>
   13718:	4619                	li	a2,6
   1371a:	bdfd                	j	13618 <emdnorm+0x82>
   1371c:	0144d703          	lhu	a4,20(s1)
   13720:	000b5603          	lhu	a2,0(s6)
   13724:	fff74793          	not	a5,a4
   13728:	8ff1                	and	a5,a5,a2
   1372a:	00fb1023          	sh	a5,0(s6)
   1372e:	0164d783          	lhu	a5,22(s1)
   13732:	8e79                	and	a2,a2,a4
   13734:	00c7f733          	and	a4,a5,a2
   13738:	cf21                	beqz	a4,13790 <emdnorm+0x1fa>
   1373a:	00c79d63          	bne	a5,a2,13754 <emdnorm+0x1be>
   1373e:	12099a63          	bnez	s3,13872 <emdnorm+0x2dc>
   13742:	44dc                	lw	a5,12(s1)
   13744:	0184d703          	lhu	a4,24(s1)
   13748:	0786                	slli	a5,a5,0x1
   1374a:	97a2                	add	a5,a5,s0
   1374c:	0007d783          	lhu	a5,0(a5)
   13750:	8ff9                	and	a5,a5,a4
   13752:	dbb9                	beqz	a5,136a8 <emdnorm+0x112>
   13754:	03248613          	addi	a2,s1,50
   13758:	01840693          	addi	a3,s0,24
   1375c:	04f1                	addi	s1,s1,28
   1375e:	4781                	li	a5,0
   13760:	00065703          	lhu	a4,0(a2)
   13764:	0006d583          	lhu	a1,0(a3)
   13768:	16f9                	addi	a3,a3,-2
   1376a:	1679                	addi	a2,a2,-2
   1376c:	972e                	add	a4,a4,a1
   1376e:	973e                	add	a4,a4,a5
   13770:	01075793          	srli	a5,a4,0x10
   13774:	00e69123          	sh	a4,2(a3)
   13778:	8b85                	andi	a5,a5,1
   1377a:	fec493e3          	bne	s1,a2,13760 <emdnorm+0x1ca>
   1377e:	f32047e3          	bgtz	s2,136ac <emdnorm+0x116>
   13782:	09000793          	li	a5,144
   13786:	00fa8563          	beq	s5,a5,13790 <emdnorm+0x1fa>
   1378a:	8522                	mv	a0,s0
   1378c:	8f1ff0ef          	jal	ra,1307c <eshup1>
   13790:	00445783          	lhu	a5,4(s0)
   13794:	e3f1                	bnez	a5,13858 <emdnorm+0x2c2>
   13796:	00041c23          	sh	zero,24(s0)
   1379a:	f20953e3          	bgez	s2,136c0 <emdnorm+0x12a>
   1379e:	00041123          	sh	zero,2(s0)
   137a2:	b70d                	j	136c4 <emdnorm+0x12e>
   137a4:	00041c23          	sh	zero,24(s0)
   137a8:	77e1                	lui	a5,0xffff8
   137aa:	fff7c793          	not	a5,a5
   137ae:	00f41123          	sh	a5,2(s0)
   137b2:	00440793          	addi	a5,s0,4
   137b6:	0461                	addi	s0,s0,24
   137b8:	00079023          	sh	zero,0(a5) # ffffffffffff8000 <__BSS_END__+0xffffffffffdc47b0>
   137bc:	0789                	addi	a5,a5,2
   137be:	fe879de3          	bne	a5,s0,137b8 <emdnorm+0x222>
   137c2:	b709                	j	136c4 <emdnorm+0x12e>
   137c4:	00240793          	addi	a5,s0,2
   137c8:	0469                	addi	s0,s0,26
   137ca:	0789                	addi	a5,a5,2
   137cc:	fe079f23          	sh	zero,-2(a5)
   137d0:	fef41de3          	bne	s0,a5,137ca <emdnorm+0x234>
   137d4:	bdc5                	j	136c4 <emdnorm+0x12e>
   137d6:	0009059b          	sext.w	a1,s2
   137da:	8522                	mv	a0,s0
   137dc:	aefff0ef          	jal	ra,132ca <eshift.part.0>
   137e0:	c111                	beqz	a0,137e4 <emdnorm+0x24e>
   137e2:	4985                	li	s3,1
   137e4:	de0a97e3          	bnez	s5,135d2 <emdnorm+0x3c>
   137e8:	00041c23          	sh	zero,24(s0)
   137ec:	00041123          	sh	zero,2(s0)
   137f0:	bdd1                	j	136c4 <emdnorm+0x12e>
   137f2:	ec0a81e3          	beqz	s5,136b4 <emdnorm+0x11e>
   137f6:	0044aa83          	lw	s5,4(s1)
   137fa:	4094                	lw	a3,0(s1)
   137fc:	01a48713          	addi	a4,s1,26
   13800:	03448793          	addi	a5,s1,52
   13804:	df5690e3          	bne	a3,s5,135e4 <emdnorm+0x4e>
   13808:	0084ab83          	lw	s7,8(s1)
   1380c:	001b9b13          	slli	s6,s7,0x1
   13810:	9b22                	add	s6,s6,s0
   13812:	e32048e3          	bgtz	s2,13642 <emdnorm+0xac>
   13816:	09000793          	li	a5,144
   1381a:	f0fa81e3          	beq	s5,a5,1371c <emdnorm+0x186>
   1381e:	01845783          	lhu	a5,24(s0)
   13822:	8522                	mv	a0,s0
   13824:	8b85                	andi	a5,a5,1
   13826:	00f9e7b3          	or	a5,s3,a5
   1382a:	0007899b          	sext.w	s3,a5
   1382e:	803ff0ef          	jal	ra,13030 <eshdn1>
   13832:	bd01                	j	13642 <emdnorm+0xac>
   13834:	6741                	lui	a4,0x10
   13836:	177d                	addi	a4,a4,-1
   13838:	65a1                	lui	a1,0x8
   1383a:	4b39                	li	s6,14
   1383c:	4b9d                	li	s7,7
   1383e:	4785                	li	a5,1
   13840:	4619                	li	a2,6
   13842:	bbd9                	j	13618 <emdnorm+0x82>
   13844:	0ff00713          	li	a4,255
   13848:	08000593          	li	a1,128
   1384c:	4b21                	li	s6,8
   1384e:	4b91                	li	s7,4
   13850:	10000793          	li	a5,256
   13854:	4611                	li	a2,4
   13856:	b3c9                	j	13618 <emdnorm+0x82>
   13858:	8522                	mv	a0,s0
   1385a:	fd6ff0ef          	jal	ra,13030 <eshdn1>
   1385e:	67a1                	lui	a5,0x8
   13860:	0905                	addi	s2,s2,1
   13862:	00041c23          	sh	zero,24(s0)
   13866:	17f9                	addi	a5,a5,-2
   13868:	f527c0e3          	blt	a5,s2,137a8 <emdnorm+0x212>
   1386c:	f20949e3          	bltz	s2,1379e <emdnorm+0x208>
   13870:	bd81                	j	136c0 <emdnorm+0x12a>
   13872:	ee0a01e3          	beqz	s4,13754 <emdnorm+0x1be>
   13876:	bd0d                	j	136a8 <emdnorm+0x112>
   13878:	0ff00713          	li	a4,255
   1387c:	08000593          	li	a1,128
   13880:	4b31                	li	s6,12
   13882:	4b99                	li	s7,6
   13884:	10000793          	li	a5,256
   13888:	4619                	li	a2,6
   1388a:	b379                	j	13618 <emdnorm+0x82>
   1388c:	6741                	lui	a4,0x10
   1388e:	177d                	addi	a4,a4,-1
   13890:	65a1                	lui	a1,0x8
   13892:	4b61                	li	s6,24
   13894:	4bb1                	li	s7,12
   13896:	4785                	li	a5,1
   13898:	462d                	li	a2,11
   1389a:	bbbd                	j	13618 <emdnorm+0x82>

000000000001389c <eiremain>:
   1389c:	711d                	addi	sp,sp,-96
   1389e:	e0ca                	sd	s2,64(sp)
   138a0:	fc4e                	sd	s3,56(sp)
   138a2:	892e                	mv	s2,a1
   138a4:	00255983          	lhu	s3,2(a0)
   138a8:	ec86                	sd	ra,88(sp)
   138aa:	e8a2                	sd	s0,80(sp)
   138ac:	e4a6                	sd	s1,72(sp)
   138ae:	f852                	sd	s4,48(sp)
   138b0:	84b2                	mv	s1,a2
   138b2:	ec5e                	sd	s7,24(sp)
   138b4:	f456                	sd	s5,40(sp)
   138b6:	f05a                	sd	s6,32(sp)
   138b8:	e862                	sd	s8,16(sp)
   138ba:	e466                	sd	s9,8(sp)
   138bc:	e06a                	sd	s10,0(sp)
   138be:	8baa                	mv	s7,a0
   138c0:	901ff0ef          	jal	ra,131c0 <enormlz>
   138c4:	00295403          	lhu	s0,2(s2)
   138c8:	87aa                	mv	a5,a0
   138ca:	854a                	mv	a0,s2
   138cc:	40f989b3          	sub	s3,s3,a5
   138d0:	03448a13          	addi	s4,s1,52
   138d4:	8edff0ef          	jal	ra,131c0 <enormlz>
   138d8:	8c09                	sub	s0,s0,a0
   138da:	04e48713          	addi	a4,s1,78
   138de:	87d2                	mv	a5,s4
   138e0:	0789                	addi	a5,a5,2
   138e2:	fe079f23          	sh	zero,-2(a5) # 7ffe <exit-0x80b2>
   138e6:	fee79de3          	bne	a5,a4,138e0 <eiremain+0x44>
   138ea:	07344a63          	blt	s0,s3,1395e <eiremain+0xc2>
   138ee:	004b8b13          	addi	s6,s7,4
   138f2:	00490a93          	addi	s5,s2,4
   138f6:	01ab8c13          	addi	s8,s7,26
   138fa:	00290d13          	addi	s10,s2,2
   138fe:	8756                	mv	a4,s5
   13900:	87da                	mv	a5,s6
   13902:	0007d603          	lhu	a2,0(a5)
   13906:	00075683          	lhu	a3,0(a4) # 10000 <exit-0xb0>
   1390a:	0789                	addi	a5,a5,2
   1390c:	0709                	addi	a4,a4,2
   1390e:	06d61c63          	bne	a2,a3,13986 <eiremain+0xea>
   13912:	ff8798e3          	bne	a5,s8,13902 <eiremain+0x66>
   13916:	018b8613          	addi	a2,s7,24
   1391a:	01890713          	addi	a4,s2,24
   1391e:	4681                	li	a3,0
   13920:	00075783          	lhu	a5,0(a4)
   13924:	00065583          	lhu	a1,0(a2)
   13928:	1779                	addi	a4,a4,-2
   1392a:	8f95                	sub	a5,a5,a3
   1392c:	8f8d                	sub	a5,a5,a1
   1392e:	0107d693          	srli	a3,a5,0x10
   13932:	00f71123          	sh	a5,2(a4)
   13936:	8a85                	andi	a3,a3,1
   13938:	1679                	addi	a2,a2,-2
   1393a:	feed13e3          	bne	s10,a4,13920 <eiremain+0x84>
   1393e:	4c85                	li	s9,1
   13940:	8552                	mv	a0,s4
   13942:	f3aff0ef          	jal	ra,1307c <eshup1>
   13946:	04c4d783          	lhu	a5,76(s1)
   1394a:	147d                	addi	s0,s0,-1
   1394c:	854a                	mv	a0,s2
   1394e:	00fce7b3          	or	a5,s9,a5
   13952:	04f49623          	sh	a5,76(s1)
   13956:	f26ff0ef          	jal	ra,1307c <eshup1>
   1395a:	fb3452e3          	bge	s0,s3,138fe <eiremain+0x62>
   1395e:	86a2                	mv	a3,s0
   13960:	6446                	ld	s0,80(sp)
   13962:	60e6                	ld	ra,88(sp)
   13964:	79e2                	ld	s3,56(sp)
   13966:	7a42                	ld	s4,48(sp)
   13968:	7aa2                	ld	s5,40(sp)
   1396a:	7b02                	ld	s6,32(sp)
   1396c:	6be2                	ld	s7,24(sp)
   1396e:	6c42                	ld	s8,16(sp)
   13970:	6ca2                	ld	s9,8(sp)
   13972:	6d02                	ld	s10,0(sp)
   13974:	87a6                	mv	a5,s1
   13976:	854a                	mv	a0,s2
   13978:	64a6                	ld	s1,72(sp)
   1397a:	6906                	ld	s2,64(sp)
   1397c:	4701                	li	a4,0
   1397e:	4601                	li	a2,0
   13980:	4581                	li	a1,0
   13982:	6125                	addi	sp,sp,96
   13984:	b909                	j	13596 <emdnorm>
   13986:	4c81                	li	s9,0
   13988:	fac6ece3          	bltu	a3,a2,13940 <eiremain+0xa4>
   1398c:	b769                	j	13916 <eiremain+0x7a>

000000000001398e <e113toe.isra.0>:
   1398e:	7179                	addi	sp,sp,-48
   13990:	f022                	sd	s0,32(sp)
   13992:	f406                	sd	ra,40(sp)
   13994:	842e                	mv	s0,a1
   13996:	878a                	mv	a5,sp
   13998:	01a10713          	addi	a4,sp,26
   1399c:	0789                	addi	a5,a5,2
   1399e:	fe079f23          	sh	zero,-2(a5)
   139a2:	fee79de3          	bne	a5,a4,1399c <e113toe.isra.0+0xe>
   139a6:	00e55783          	lhu	a5,14(a0)
   139aa:	6721                	lui	a4,0x8
   139ac:	177d                	addi	a4,a4,-1
   139ae:	03079693          	slli	a3,a5,0x30
   139b2:	96fd                	srai	a3,a3,0x3f
   139b4:	00d11023          	sh	a3,0(sp)
   139b8:	00e7f6b3          	and	a3,a5,a4
   139bc:	8636                	mv	a2,a3
   139be:	04e68363          	beq	a3,a4,13a04 <e113toe.isra.0+0x76>
   139c2:	00e50793          	addi	a5,a0,14
   139c6:	00d11123          	sh	a3,2(sp)
   139ca:	00610713          	addi	a4,sp,6
   139ce:	ffe7d683          	lhu	a3,-2(a5)
   139d2:	17f9                	addi	a5,a5,-2
   139d4:	0709                	addi	a4,a4,2
   139d6:	fed71f23          	sh	a3,-2(a4) # 7ffe <exit-0x80b2>
   139da:	fef51ae3          	bne	a0,a5,139ce <e113toe.isra.0+0x40>
   139de:	ea19                	bnez	a2,139f4 <e113toe.isra.0+0x66>
   139e0:	00011223          	sh	zero,4(sp)
   139e4:	85a2                	mv	a1,s0
   139e6:	850a                	mv	a0,sp
   139e8:	f4cff0ef          	jal	ra,13134 <emovo.constprop.0>
   139ec:	70a2                	ld	ra,40(sp)
   139ee:	7402                	ld	s0,32(sp)
   139f0:	6145                	addi	sp,sp,48
   139f2:	8082                	ret
   139f4:	4785                	li	a5,1
   139f6:	55fd                	li	a1,-1
   139f8:	850a                	mv	a0,sp
   139fa:	00f11223          	sh	a5,4(sp)
   139fe:	8cdff0ef          	jal	ra,132ca <eshift.part.0>
   13a02:	b7cd                	j	139e4 <e113toe.isra.0+0x56>
   13a04:	87aa                	mv	a5,a0
   13a06:	00e50693          	addi	a3,a0,14
   13a0a:	0007d703          	lhu	a4,0(a5)
   13a0e:	0789                	addi	a5,a5,2
   13a10:	ef21                	bnez	a4,13a68 <e113toe.isra.0+0xda>
   13a12:	fef69ce3          	bne	a3,a5,13a0a <e113toe.isra.0+0x7c>
   13a16:	01440713          	addi	a4,s0,20
   13a1a:	87a2                	mv	a5,s0
   13a1c:	0789                	addi	a5,a5,2
   13a1e:	fe079f23          	sh	zero,-2(a5)
   13a22:	fee79de3          	bne	a5,a4,13a1c <e113toe.isra.0+0x8e>
   13a26:	01240713          	addi	a4,s0,18
   13a2a:	87a2                	mv	a5,s0
   13a2c:	0789                	addi	a5,a5,2
   13a2e:	fe079f23          	sh	zero,-2(a5)
   13a32:	fef71de3          	bne	a4,a5,13a2c <e113toe.isra.0+0x9e>
   13a36:	01245783          	lhu	a5,18(s0)
   13a3a:	66a1                	lui	a3,0x8
   13a3c:	16fd                	addi	a3,a3,-1
   13a3e:	8fd5                	or	a5,a5,a3
   13a40:	17c2                	slli	a5,a5,0x30
   13a42:	93c1                	srli	a5,a5,0x30
   13a44:	00f41923          	sh	a5,18(s0)
   13a48:	00e51683          	lh	a3,14(a0)
   13a4c:	fa06d0e3          	bgez	a3,139ec <e113toe.isra.0+0x5e>
   13a50:	86a2                	mv	a3,s0
   13a52:	0006d603          	lhu	a2,0(a3) # 8000 <exit-0x80b0>
   13a56:	0689                	addi	a3,a3,2
   13a58:	fa51                	bnez	a2,139ec <e113toe.isra.0+0x5e>
   13a5a:	fed71ce3          	bne	a4,a3,13a52 <e113toe.isra.0+0xc4>
   13a5e:	7761                	lui	a4,0xffff8
   13a60:	8fb9                	xor	a5,a5,a4
   13a62:	00f41923          	sh	a5,18(s0)
   13a66:	b759                	j	139ec <e113toe.isra.0+0x5e>
   13a68:	01040713          	addi	a4,s0,16
   13a6c:	87a2                	mv	a5,s0
   13a6e:	0789                	addi	a5,a5,2
   13a70:	fe079f23          	sh	zero,-2(a5)
   13a74:	fee79de3          	bne	a5,a4,13a6e <e113toe.isra.0+0xe0>
   13a78:	77f1                	lui	a5,0xffffc
   13a7a:	00f41823          	sh	a5,16(s0)
   13a7e:	77e1                	lui	a5,0xffff8
   13a80:	fff7c793          	not	a5,a5
   13a84:	00f41923          	sh	a5,18(s0)
   13a88:	b795                	j	139ec <e113toe.isra.0+0x5e>

0000000000013a8a <ediv>:
   13a8a:	01255783          	lhu	a5,18(a0)
   13a8e:	7115                	addi	sp,sp,-224
   13a90:	e9a2                	sd	s0,208(sp)
   13a92:	fff7c793          	not	a5,a5
   13a96:	e5a6                	sd	s1,200(sp)
   13a98:	e1ca                	sd	s2,192(sp)
   13a9a:	fd4e                	sd	s3,184(sp)
   13a9c:	ed86                	sd	ra,216(sp)
   13a9e:	f952                	sd	s4,176(sp)
   13aa0:	f556                	sd	s5,168(sp)
   13aa2:	f15a                	sd	s6,160(sp)
   13aa4:	ed5e                	sd	s7,152(sp)
   13aa6:	e962                	sd	s8,144(sp)
   13aa8:	e566                	sd	s9,136(sp)
   13aaa:	e16a                	sd	s10,128(sp)
   13aac:	fcee                	sd	s11,120(sp)
   13aae:	03179713          	slli	a4,a5,0x31
   13ab2:	84aa                	mv	s1,a0
   13ab4:	89ae                	mv	s3,a1
   13ab6:	8432                	mv	s0,a2
   13ab8:	8936                	mv	s2,a3
   13aba:	eb19                	bnez	a4,13ad0 <ediv+0x46>
   13abc:	01250693          	addi	a3,a0,18
   13ac0:	87aa                	mv	a5,a0
   13ac2:	0007d703          	lhu	a4,0(a5) # ffffffffffff8000 <__BSS_END__+0xffffffffffdc47b0>
   13ac6:	0789                	addi	a5,a5,2
   13ac8:	22071a63          	bnez	a4,13cfc <ediv+0x272>
   13acc:	fed79be3          	bne	a5,a3,13ac2 <ediv+0x38>
   13ad0:	0129d783          	lhu	a5,18(s3)
   13ad4:	fff7c793          	not	a5,a5
   13ad8:	03179713          	slli	a4,a5,0x31
   13adc:	eb19                	bnez	a4,13af2 <ediv+0x68>
   13ade:	01298693          	addi	a3,s3,18
   13ae2:	87ce                	mv	a5,s3
   13ae4:	0007d703          	lhu	a4,0(a5)
   13ae8:	0789                	addi	a5,a5,2
   13aea:	22071463          	bnez	a4,13d12 <ediv+0x288>
   13aee:	fed79be3          	bne	a5,a3,13ae4 <ediv+0x5a>
   13af2:	6a75                	lui	s4,0x1d
   13af4:	d10a0593          	addi	a1,s4,-752 # 1cd10 <ezero>
   13af8:	8526                	mv	a0,s1
   13afa:	9b9ff0ef          	jal	ra,134b2 <ecmp>
   13afe:	22050563          	beqz	a0,13d28 <ediv+0x29e>
   13b02:	0124d603          	lhu	a2,18(s1)
   13b06:	0129d703          	lhu	a4,18(s3)
   13b0a:	67a1                	lui	a5,0x8
   13b0c:	17fd                	addi	a5,a5,-1
   13b0e:	00f67533          	and	a0,a2,a5
   13b12:	00f775b3          	and	a1,a4,a5
   13b16:	06f51a63          	bne	a0,a5,13b8a <ediv+0x100>
   13b1a:	01248813          	addi	a6,s1,18
   13b1e:	87a6                	mv	a5,s1
   13b20:	0007d683          	lhu	a3,0(a5) # 8000 <exit-0x80b0>
   13b24:	0789                	addi	a5,a5,2
   13b26:	e2a5                	bnez	a3,13b86 <ediv+0xfc>
   13b28:	ff079ce3          	bne	a5,a6,13b20 <ediv+0x96>
   13b2c:	67a1                	lui	a5,0x8
   13b2e:	17fd                	addi	a5,a5,-1
   13b30:	20f59663          	bne	a1,a5,13d3c <ediv+0x2b2>
   13b34:	01298693          	addi	a3,s3,18
   13b38:	87ce                	mv	a5,s3
   13b3a:	0007d583          	lhu	a1,0(a5) # 8000 <exit-0x80b0>
   13b3e:	0789                	addi	a5,a5,2
   13b40:	36059163          	bnez	a1,13ea2 <ediv+0x418>
   13b44:	fed79be3          	bne	a5,a3,13b3a <ediv+0xb0>
   13b48:	01040713          	addi	a4,s0,16
   13b4c:	87a2                	mv	a5,s0
   13b4e:	0789                	addi	a5,a5,2
   13b50:	fe079f23          	sh	zero,-2(a5)
   13b54:	fee79de3          	bne	a5,a4,13b4e <ediv+0xc4>
   13b58:	77f1                	lui	a5,0xffffc
   13b5a:	00f41823          	sh	a5,16(s0)
   13b5e:	77e1                	lui	a5,0xffff8
   13b60:	fff7c793          	not	a5,a5
   13b64:	00f41923          	sh	a5,18(s0)
   13b68:	60ee                	ld	ra,216(sp)
   13b6a:	644e                	ld	s0,208(sp)
   13b6c:	64ae                	ld	s1,200(sp)
   13b6e:	690e                	ld	s2,192(sp)
   13b70:	79ea                	ld	s3,184(sp)
   13b72:	7a4a                	ld	s4,176(sp)
   13b74:	7aaa                	ld	s5,168(sp)
   13b76:	7b0a                	ld	s6,160(sp)
   13b78:	6bea                	ld	s7,152(sp)
   13b7a:	6c4a                	ld	s8,144(sp)
   13b7c:	6caa                	ld	s9,136(sp)
   13b7e:	6d0a                	ld	s10,128(sp)
   13b80:	7de6                	ld	s11,120(sp)
   13b82:	612d                	addi	sp,sp,224
   13b84:	8082                	ret
   13b86:	67a1                	lui	a5,0x8
   13b88:	17fd                	addi	a5,a5,-1
   13b8a:	1cf58163          	beq	a1,a5,13d4c <ediv+0x2c2>
   13b8e:	8526                	mv	a0,s1
   13b90:	080c                	addi	a1,sp,16
   13b92:	88bff0ef          	jal	ra,1341c <emovi>
   13b96:	180c                	addi	a1,sp,48
   13b98:	854e                	mv	a0,s3
   13b9a:	883ff0ef          	jal	ra,1341c <emovi>
   13b9e:	03215a83          	lhu	s5,50(sp)
   13ba2:	01215483          	lhu	s1,18(sp)
