
bin/jfflushCacheTest.riscv：     文件格式 elf64-littleriscv


Disassembly of section .text:

00000000000100b0 <_start>:
   100b0:	0000d197          	auipc	gp,0xd
   100b4:	4a818193          	addi	gp,gp,1192 # 1d558 <__global_pointer$>
   100b8:	85018513          	addi	a0,gp,-1968 # 1cda8 <_edata>
   100bc:	00221617          	auipc	a2,0x221
   100c0:	d8460613          	addi	a2,a2,-636 # 230e40 <_end>
   100c4:	8e09                	sub	a2,a2,a0
   100c6:	4581                	li	a1,0
   100c8:	494000ef          	jal	ra,1055c <memset>
   100cc:	00000517          	auipc	a0,0x0
   100d0:	3e650513          	addi	a0,a0,998 # 104b2 <__libc_fini_array>
   100d4:	3b4000ef          	jal	ra,10488 <atexit>
   100d8:	422000ef          	jal	ra,104fa <__libc_init_array>
   100dc:	4502                	lw	a0,0(sp)
   100de:	002c                	addi	a1,sp,8
   100e0:	4601                	li	a2,0
   100e2:	216000ef          	jal	ra,102f8 <main>
   100e6:	3ae0006f          	j	10494 <exit>

00000000000100ea <_fini>:
   100ea:	8082                	ret

00000000000100ec <deregister_tm_clones>:
   100ec:	6575                	lui	a0,0x1d
   100ee:	67f5                	lui	a5,0x1d
   100f0:	d5850713          	addi	a4,a0,-680 # 1cd58 <__TMC_END__>
   100f4:	d5878793          	addi	a5,a5,-680 # 1cd58 <__TMC_END__>
   100f8:	00e78b63          	beq	a5,a4,1010e <deregister_tm_clones+0x22>
   100fc:	00000337          	lui	t1,0x0
   10100:	00030313          	mv	t1,t1
   10104:	00030563          	beqz	t1,1010e <deregister_tm_clones+0x22>
   10108:	d5850513          	addi	a0,a0,-680
   1010c:	8302                	jr	t1
   1010e:	8082                	ret

0000000000010110 <register_tm_clones>:
   10110:	67f5                	lui	a5,0x1d
   10112:	6575                	lui	a0,0x1d
   10114:	d5878593          	addi	a1,a5,-680 # 1cd58 <__TMC_END__>
   10118:	d5850793          	addi	a5,a0,-680 # 1cd58 <__TMC_END__>
   1011c:	8d9d                	sub	a1,a1,a5
   1011e:	858d                	srai	a1,a1,0x3
   10120:	4789                	li	a5,2
   10122:	02f5c5b3          	div	a1,a1,a5
   10126:	c991                	beqz	a1,1013a <register_tm_clones+0x2a>
   10128:	00000337          	lui	t1,0x0
   1012c:	00030313          	mv	t1,t1
   10130:	00030563          	beqz	t1,1013a <register_tm_clones+0x2a>
   10134:	d5850513          	addi	a0,a0,-680
   10138:	8302                	jr	t1
   1013a:	8082                	ret

000000000001013c <__do_global_dtors_aux>:
   1013c:	8801c703          	lbu	a4,-1920(gp) # 1cdd8 <completed.5212>
   10140:	eb15                	bnez	a4,10174 <__do_global_dtors_aux+0x38>
   10142:	1141                	addi	sp,sp,-16
   10144:	e022                	sd	s0,0(sp)
   10146:	e406                	sd	ra,8(sp)
   10148:	843e                	mv	s0,a5
   1014a:	fa3ff0ef          	jal	ra,100ec <deregister_tm_clones>
   1014e:	000007b7          	lui	a5,0x0
   10152:	00078793          	mv	a5,a5
   10156:	cb81                	beqz	a5,10166 <__do_global_dtors_aux+0x2a>
   10158:	6571                	lui	a0,0x1c
   1015a:	c4050513          	addi	a0,a0,-960 # 1bc40 <__EH_FRAME_BEGIN__>
   1015e:	ffff0097          	auipc	ra,0xffff0
   10162:	ea2080e7          	jalr	-350(ra) # 0 <_start-0x100b0>
   10166:	4785                	li	a5,1
   10168:	88f18023          	sb	a5,-1920(gp) # 1cdd8 <completed.5212>
   1016c:	60a2                	ld	ra,8(sp)
   1016e:	6402                	ld	s0,0(sp)
   10170:	0141                	addi	sp,sp,16
   10172:	8082                	ret
   10174:	8082                	ret

0000000000010176 <frame_dummy>:
   10176:	000007b7          	lui	a5,0x0
   1017a:	00078793          	mv	a5,a5
   1017e:	cf91                	beqz	a5,1019a <frame_dummy+0x24>
   10180:	6571                	lui	a0,0x1c
   10182:	1141                	addi	sp,sp,-16
   10184:	88818593          	addi	a1,gp,-1912 # 1cde0 <object.5217>
   10188:	c4050513          	addi	a0,a0,-960 # 1bc40 <__EH_FRAME_BEGIN__>
   1018c:	e406                	sd	ra,8(sp)
   1018e:	ffff0097          	auipc	ra,0xffff0
   10192:	e72080e7          	jalr	-398(ra) # 0 <_start-0x100b0>
   10196:	60a2                	ld	ra,8(sp)
   10198:	0141                	addi	sp,sp,16
   1019a:	f77ff06f          	j	10110 <register_tm_clones>

000000000001019e <flushCache>:
uint8_t unusedarr2[L1_SZ_BYTES];
volatile uint8_t dummyMem3[8 * L1_SZ_BYTES];
uint8_t unusedarr3[L1_SZ_BYTES];
volatile uint8_t dummyMem4[16 * L1_SZ_BYTES];

void flushCache(){
   1019e:	7179                	addi	sp,sp,-48
   101a0:	f406                	sd	ra,40(sp)
   101a2:	f022                	sd	s0,32(sp)
   101a4:	1800                	addi	s0,sp,48
    volatile uint8_t dummy = 0;
   101a6:	fc040da3          	sb	zero,-37(s0)
    int tmpNum = 2*1024;
   101aa:	6785                	lui	a5,0x1
   101ac:	8007879b          	addiw	a5,a5,-2048
   101b0:	fcf42e23          	sw	a5,-36(s0)
    for(int idx=0;idx<tmpNum;idx++){
   101b4:	fe042623          	sw	zero,-20(s0)
   101b8:	a81d                	j	101ee <flushCache+0x50>
        dummy = dummyMem1[rand()%tmpNum];
   101ba:	528000ef          	jal	ra,106e2 <rand>
   101be:	87aa                	mv	a5,a0
   101c0:	873e                	mv	a4,a5
   101c2:	fdc42783          	lw	a5,-36(s0)
   101c6:	02f767bb          	remw	a5,a4,a5
   101ca:	0007871b          	sext.w	a4,a5
   101ce:	001017b7          	lui	a5,0x101
   101d2:	e3878793          	addi	a5,a5,-456 # 100e38 <dummyMem1>
   101d6:	97ba                	add	a5,a5,a4
   101d8:	0007c783          	lbu	a5,0(a5)
   101dc:	0ff7f793          	andi	a5,a5,255
   101e0:	fcf40da3          	sb	a5,-37(s0)
    for(int idx=0;idx<tmpNum;idx++){
   101e4:	fec42783          	lw	a5,-20(s0)
   101e8:	2785                	addiw	a5,a5,1
   101ea:	fef42623          	sw	a5,-20(s0)
   101ee:	fec42703          	lw	a4,-20(s0)
   101f2:	fdc42783          	lw	a5,-36(s0)
   101f6:	2701                	sext.w	a4,a4
   101f8:	2781                	sext.w	a5,a5
   101fa:	fcf740e3          	blt	a4,a5,101ba <flushCache+0x1c>
       // printf("dummy=%d\n",dummy);
    }
    tmpNum = 4*1024;
   101fe:	6785                	lui	a5,0x1
   10200:	fcf42e23          	sw	a5,-36(s0)
    for(int idx=0;idx<tmpNum;idx++){
   10204:	fe042423          	sw	zero,-24(s0)
   10208:	a81d                	j	1023e <flushCache+0xa0>
        dummy = dummyMem2[rand()%tmpNum];
   1020a:	4d8000ef          	jal	ra,106e2 <rand>
   1020e:	87aa                	mv	a5,a0
   10210:	873e                	mv	a4,a5
   10212:	fdc42783          	lw	a5,-36(s0)
   10216:	02f767bb          	remw	a5,a4,a5
   1021a:	0007871b          	sext.w	a4,a5
   1021e:	000c17b7          	lui	a5,0xc1
   10222:	e3878793          	addi	a5,a5,-456 # c0e38 <dummyMem2>
   10226:	97ba                	add	a5,a5,a4
   10228:	0007c783          	lbu	a5,0(a5)
   1022c:	0ff7f793          	andi	a5,a5,255
   10230:	fcf40da3          	sb	a5,-37(s0)
    for(int idx=0;idx<tmpNum;idx++){
   10234:	fe842783          	lw	a5,-24(s0)
   10238:	2785                	addiw	a5,a5,1
   1023a:	fef42423          	sw	a5,-24(s0)
   1023e:	fe842703          	lw	a4,-24(s0)
   10242:	fdc42783          	lw	a5,-36(s0)
   10246:	2701                	sext.w	a4,a4
   10248:	2781                	sext.w	a5,a5
   1024a:	fcf740e3          	blt	a4,a5,1020a <flushCache+0x6c>
          //printf("dummy=%d\n",dummy);
    }
    tmpNum = 8*1024;
   1024e:	6789                	lui	a5,0x2
   10250:	fcf42e23          	sw	a5,-36(s0)
    for(int idx=0;idx<tmpNum;idx++){
   10254:	fe042223          	sw	zero,-28(s0)
   10258:	a81d                	j	1028e <flushCache+0xf0>
        dummy = dummyMem3[rand()%tmpNum];
   1025a:	488000ef          	jal	ra,106e2 <rand>
   1025e:	87aa                	mv	a5,a0
   10260:	873e                	mv	a4,a5
   10262:	fdc42783          	lw	a5,-36(s0)
   10266:	02f767bb          	remw	a5,a4,a5
   1026a:	0007871b          	sext.w	a4,a5
   1026e:	000417b7          	lui	a5,0x41
   10272:	e3878793          	addi	a5,a5,-456 # 40e38 <dummyMem3>
   10276:	97ba                	add	a5,a5,a4
   10278:	0007c783          	lbu	a5,0(a5)
   1027c:	0ff7f793          	andi	a5,a5,255
   10280:	fcf40da3          	sb	a5,-37(s0)
    for(int idx=0;idx<tmpNum;idx++){
   10284:	fe442783          	lw	a5,-28(s0)
   10288:	2785                	addiw	a5,a5,1
   1028a:	fef42223          	sw	a5,-28(s0)
   1028e:	fe442703          	lw	a4,-28(s0)
   10292:	fdc42783          	lw	a5,-36(s0)
   10296:	2701                	sext.w	a4,a4
   10298:	2781                	sext.w	a5,a5
   1029a:	fcf740e3          	blt	a4,a5,1025a <flushCache+0xbc>
         // printf("dummy=%d\n",dummy);
    }
    tmpNum = 16*1024;
   1029e:	6791                	lui	a5,0x4
   102a0:	fcf42e23          	sw	a5,-36(s0)
    for(int idx=0;idx<tmpNum;idx++){
   102a4:	fe042023          	sw	zero,-32(s0)
   102a8:	a81d                	j	102de <flushCache+0x140>
        dummy = dummyMem3[rand()%tmpNum];
   102aa:	438000ef          	jal	ra,106e2 <rand>
   102ae:	87aa                	mv	a5,a0
   102b0:	873e                	mv	a4,a5
   102b2:	fdc42783          	lw	a5,-36(s0)
   102b6:	02f767bb          	remw	a5,a4,a5
   102ba:	0007871b          	sext.w	a4,a5
   102be:	000417b7          	lui	a5,0x41
   102c2:	e3878793          	addi	a5,a5,-456 # 40e38 <dummyMem3>
   102c6:	97ba                	add	a5,a5,a4
   102c8:	0007c783          	lbu	a5,0(a5)
   102cc:	0ff7f793          	andi	a5,a5,255
   102d0:	fcf40da3          	sb	a5,-37(s0)
    for(int idx=0;idx<tmpNum;idx++){
   102d4:	fe042783          	lw	a5,-32(s0)
   102d8:	2785                	addiw	a5,a5,1
   102da:	fef42023          	sw	a5,-32(s0)
   102de:	fe042703          	lw	a4,-32(s0)
   102e2:	fdc42783          	lw	a5,-36(s0)
   102e6:	2701                	sext.w	a4,a4
   102e8:	2781                	sext.w	a5,a5
   102ea:	fcf740e3          	blt	a4,a5,102aa <flushCache+0x10c>
          //printf("dummy=%d\n",dummy);
    }
  // printf("FLUSH Complete\n");       
}
   102ee:	0001                	nop
   102f0:	70a2                	ld	ra,40(sp)
   102f2:	7402                	ld	s0,32(sp)
   102f4:	6145                	addi	sp,sp,48
   102f6:	8082                	ret

00000000000102f8 <main>:
#define SET_IDX  4   //This is critical, SET_IDX =2,3, sometimes it does not work; but SET_IDX =4 is ok
uint8_t array2[256 * L1_BLOCK_SZ_BYTES]={0};
int j=0;

int main(void)
{
   102f8:	7159                	addi	sp,sp,-112
   102fa:	f486                	sd	ra,104(sp)
   102fc:	f0a2                	sd	s0,96(sp)
   102fe:	1880                	addi	s0,sp,112
    uint8_t    dummy = 0;
   10300:	fe0405a3          	sb	zero,-21(s0)
    uint64_t   start=0, diff=0;
   10304:	fe043023          	sd	zero,-32(s0)
   10308:	fc043c23          	sd	zero,-40(s0)
    printf("================= data cache test ========================= \n");
   1030c:	67e9                	lui	a5,0x1a
   1030e:	e2078513          	addi	a0,a5,-480 # 19e20 <__clzdi2+0x32>
   10312:	3ba000ef          	jal	ra,106cc <puts>

    //flush the above element from data cache then read from RAM
    for(int i=0; i<10; i++)
   10316:	fe042623          	sw	zero,-20(s0)
   1031a:	aa91                	j	1046e <main+0x176>
    {  
        // make sure the array you read from is not in the cache
        flushCache();     
   1031c:	e83ff0ef          	jal	ra,1019e <flushCache>
        start = rdcycle();
   10320:	c00027f3          	rdcycle	a5
   10324:	fcf43823          	sd	a5,-48(s0)
   10328:	fd043783          	ld	a5,-48(s0)
   1032c:	fef43023          	sd	a5,-32(s0)
        dummy = array2[0 * L1_BLOCK_SZ_BYTES];
   10330:	67f5                	lui	a5,0x1d
   10332:	e107c783          	lbu	a5,-496(a5) # 1ce10 <array2>
   10336:	fef405a3          	sb	a5,-21(s0)
        diff = (rdcycle() - start);
   1033a:	c00027f3          	rdcycle	a5
   1033e:	fcf43423          	sd	a5,-56(s0)
   10342:	fc843703          	ld	a4,-56(s0)
   10346:	fe043783          	ld	a5,-32(s0)
   1034a:	40f707b3          	sub	a5,a4,a5
   1034e:	fcf43c23          	sd	a5,-40(s0)
        printf("iteration=%d, read from ram, cycles = %lu\n", i, diff);   
   10352:	fec42783          	lw	a5,-20(s0)
   10356:	fd843603          	ld	a2,-40(s0)
   1035a:	85be                	mv	a1,a5
   1035c:	67e9                	lui	a5,0x1a
   1035e:	e6078513          	addi	a0,a5,-416 # 19e60 <__clzdi2+0x72>
   10362:	2c6000ef          	jal	ra,10628 <printf>

        //preload the data into data cache
        dummy = array2[SET_IDX*L1_BLOCK_SZ_BYTES];
   10366:	67f5                	lui	a5,0x1d
   10368:	e1078793          	addi	a5,a5,-496 # 1ce10 <array2>
   1036c:	1007c783          	lbu	a5,256(a5)
   10370:	fef405a3          	sb	a5,-21(s0)

        //read from data cache
        start = rdcycle();
   10374:	c00027f3          	rdcycle	a5
   10378:	fcf43023          	sd	a5,-64(s0)
   1037c:	fc043783          	ld	a5,-64(s0)
   10380:	fef43023          	sd	a5,-32(s0)
        dummy = array2[SET_IDX * L1_BLOCK_SZ_BYTES];
   10384:	67f5                	lui	a5,0x1d
   10386:	e1078793          	addi	a5,a5,-496 # 1ce10 <array2>
   1038a:	1007c783          	lbu	a5,256(a5)
   1038e:	fef405a3          	sb	a5,-21(s0)
        diff = (rdcycle() - start);
   10392:	c00027f3          	rdcycle	a5
   10396:	faf43c23          	sd	a5,-72(s0)
   1039a:	fb843703          	ld	a4,-72(s0)
   1039e:	fe043783          	ld	a5,-32(s0)
   103a2:	40f707b3          	sub	a5,a4,a5
   103a6:	fcf43c23          	sd	a5,-40(s0)
        printf("iteration=%d, read from data cache, cycles = %lu\n", i, diff);   
   103aa:	fec42783          	lw	a5,-20(s0)
   103ae:	fd843603          	ld	a2,-40(s0)
   103b2:	85be                	mv	a1,a5
   103b4:	67e9                	lui	a5,0x1a
   103b6:	e9078513          	addi	a0,a5,-368 # 19e90 <__clzdi2+0xa2>
   103ba:	26e000ef          	jal	ra,10628 <printf>

        //read from ram after flush
        uint64_t addr = (uint64_t)array2 + SET_IDX * L1_BLOCK_SZ_BYTES;
   103be:	67f5                	lui	a5,0x1d
   103c0:	e1078793          	addi	a5,a5,-496 # 1ce10 <array2>
   103c4:	10078793          	addi	a5,a5,256
   103c8:	faf43823          	sd	a5,-80(s0)
        //printf("flush the addr:0x%lx , array2 =0x%lx\n", addr, (uint64_t)array2);
        flushCache();
   103cc:	dd3ff0ef          	jal	ra,1019e <flushCache>
        //read from cache after flush
        start = rdcycle();
   103d0:	c00027f3          	rdcycle	a5
   103d4:	faf43423          	sd	a5,-88(s0)
   103d8:	fa843783          	ld	a5,-88(s0)
   103dc:	fef43023          	sd	a5,-32(s0)
        dummy = array2[SET_IDX * L1_BLOCK_SZ_BYTES];
   103e0:	67f5                	lui	a5,0x1d
   103e2:	e1078793          	addi	a5,a5,-496 # 1ce10 <array2>
   103e6:	1007c783          	lbu	a5,256(a5)
   103ea:	fef405a3          	sb	a5,-21(s0)
        diff = (rdcycle() - start);
   103ee:	c00027f3          	rdcycle	a5
   103f2:	faf43023          	sd	a5,-96(s0)
   103f6:	fa043703          	ld	a4,-96(s0)
   103fa:	fe043783          	ld	a5,-32(s0)
   103fe:	40f707b3          	sub	a5,a4,a5
   10402:	fcf43c23          	sd	a5,-40(s0)
        printf("iteration=%d, flush and then read from ram, cycles = %lu\n", i, diff); 
   10406:	fec42783          	lw	a5,-20(s0)
   1040a:	fd843603          	ld	a2,-40(s0)
   1040e:	85be                	mv	a1,a5
   10410:	67e9                	lui	a5,0x1a
   10412:	ec878513          	addi	a0,a5,-312 # 19ec8 <__clzdi2+0xda>
   10416:	212000ef          	jal	ra,10628 <printf>

        //read from cache after flush
        start = rdcycle();
   1041a:	c00027f3          	rdcycle	a5
   1041e:	f8f43c23          	sd	a5,-104(s0)
   10422:	f9843783          	ld	a5,-104(s0)
   10426:	fef43023          	sd	a5,-32(s0)
        dummy = array2[SET_IDX * L1_BLOCK_SZ_BYTES];
   1042a:	67f5                	lui	a5,0x1d
   1042c:	e1078793          	addi	a5,a5,-496 # 1ce10 <array2>
   10430:	1007c783          	lbu	a5,256(a5)
   10434:	fef405a3          	sb	a5,-21(s0)
        diff = (rdcycle() - start);
   10438:	c00027f3          	rdcycle	a5
   1043c:	f8f43823          	sd	a5,-112(s0)
   10440:	f9043703          	ld	a4,-112(s0)
   10444:	fe043783          	ld	a5,-32(s0)
   10448:	40f707b3          	sub	a5,a4,a5
   1044c:	fcf43c23          	sd	a5,-40(s0)
        printf("iteration=%d, read from data cache after flush, cycles = %lu\n\n", i, diff);          
   10450:	fec42783          	lw	a5,-20(s0)
   10454:	fd843603          	ld	a2,-40(s0)
   10458:	85be                	mv	a1,a5
   1045a:	67e9                	lui	a5,0x1a
   1045c:	f0878513          	addi	a0,a5,-248 # 19f08 <__clzdi2+0x11a>
   10460:	1c8000ef          	jal	ra,10628 <printf>
    for(int i=0; i<10; i++)
   10464:	fec42783          	lw	a5,-20(s0)
   10468:	2785                	addiw	a5,a5,1
   1046a:	fef42623          	sw	a5,-20(s0)
   1046e:	fec42783          	lw	a5,-20(s0)
   10472:	0007871b          	sext.w	a4,a5
   10476:	47a5                	li	a5,9
   10478:	eae7d2e3          	ble	a4,a5,1031c <main+0x24>
    }
    return 0;
   1047c:	4781                	li	a5,0
}
   1047e:	853e                	mv	a0,a5
   10480:	70a6                	ld	ra,104(sp)
   10482:	7406                	ld	s0,96(sp)
   10484:	6165                	addi	sp,sp,112
   10486:	8082                	ret

0000000000010488 <atexit>:
   10488:	85aa                	mv	a1,a0
   1048a:	4681                	li	a3,0
   1048c:	4601                	li	a2,0
   1048e:	4501                	li	a0,0
   10490:	1ab0106f          	j	11e3a <__register_exitproc>

0000000000010494 <exit>:
   10494:	1141                	addi	sp,sp,-16
   10496:	4581                	li	a1,0
   10498:	e022                	sd	s0,0(sp)
   1049a:	e406                	sd	ra,8(sp)
   1049c:	842a                	mv	s0,a0
   1049e:	201010ef          	jal	ra,11e9e <__call_exitprocs>
   104a2:	8301b503          	ld	a0,-2000(gp) # 1cd88 <_global_impure_ptr>
   104a6:	6d3c                	ld	a5,88(a0)
   104a8:	c391                	beqz	a5,104ac <exit+0x18>
   104aa:	9782                	jalr	a5
   104ac:	8522                	mv	a0,s0
   104ae:	29e080ef          	jal	ra,1874c <_exit>

00000000000104b2 <__libc_fini_array>:
   104b2:	7179                	addi	sp,sp,-48
   104b4:	67f1                	lui	a5,0x1c
   104b6:	6771                	lui	a4,0x1c
   104b8:	f022                	sd	s0,32(sp)
   104ba:	c5070713          	addi	a4,a4,-944 # 1bc50 <__init_array_end>
   104be:	c5878413          	addi	s0,a5,-936 # 1bc58 <__fini_array_end>
   104c2:	8c19                	sub	s0,s0,a4
   104c4:	ec26                	sd	s1,24(sp)
   104c6:	e84a                	sd	s2,16(sp)
   104c8:	e44e                	sd	s3,8(sp)
   104ca:	f406                	sd	ra,40(sp)
   104cc:	840d                	srai	s0,s0,0x3
   104ce:	4481                	li	s1,0
   104d0:	c5878913          	addi	s2,a5,-936
   104d4:	59e1                	li	s3,-8
   104d6:	00941a63          	bne	s0,s1,104ea <__libc_fini_array+0x38>
   104da:	7402                	ld	s0,32(sp)
   104dc:	70a2                	ld	ra,40(sp)
   104de:	64e2                	ld	s1,24(sp)
   104e0:	6942                	ld	s2,16(sp)
   104e2:	69a2                	ld	s3,8(sp)
   104e4:	6145                	addi	sp,sp,48
   104e6:	c05ff06f          	j	100ea <_fini>
   104ea:	033487b3          	mul	a5,s1,s3
   104ee:	0485                	addi	s1,s1,1
   104f0:	97ca                	add	a5,a5,s2
   104f2:	ff87b783          	ld	a5,-8(a5)
   104f6:	9782                	jalr	a5
   104f8:	bff9                	j	104d6 <__libc_fini_array+0x24>

00000000000104fa <__libc_init_array>:
   104fa:	1101                	addi	sp,sp,-32
   104fc:	e822                	sd	s0,16(sp)
   104fe:	e426                	sd	s1,8(sp)
   10500:	6471                	lui	s0,0x1c
   10502:	64f1                	lui	s1,0x1c
   10504:	c4448793          	addi	a5,s1,-956 # 1bc44 <__preinit_array_end>
   10508:	c4440413          	addi	s0,s0,-956 # 1bc44 <__preinit_array_end>
   1050c:	8c1d                	sub	s0,s0,a5
   1050e:	e04a                	sd	s2,0(sp)
   10510:	ec06                	sd	ra,24(sp)
   10512:	840d                	srai	s0,s0,0x3
   10514:	c4448493          	addi	s1,s1,-956
   10518:	4901                	li	s2,0
   1051a:	02891763          	bne	s2,s0,10548 <__libc_init_array+0x4e>
   1051e:	64f1                	lui	s1,0x1c
   10520:	bcbff0ef          	jal	ra,100ea <_fini>
   10524:	6471                	lui	s0,0x1c
   10526:	c4848793          	addi	a5,s1,-952 # 1bc48 <__frame_dummy_init_array_entry>
   1052a:	c5040413          	addi	s0,s0,-944 # 1bc50 <__init_array_end>
   1052e:	8c1d                	sub	s0,s0,a5
   10530:	840d                	srai	s0,s0,0x3
   10532:	c4848493          	addi	s1,s1,-952
   10536:	4901                	li	s2,0
   10538:	00891d63          	bne	s2,s0,10552 <__libc_init_array+0x58>
   1053c:	60e2                	ld	ra,24(sp)
   1053e:	6442                	ld	s0,16(sp)
   10540:	64a2                	ld	s1,8(sp)
   10542:	6902                	ld	s2,0(sp)
   10544:	6105                	addi	sp,sp,32
   10546:	8082                	ret
   10548:	609c                	ld	a5,0(s1)
   1054a:	0905                	addi	s2,s2,1
   1054c:	04a1                	addi	s1,s1,8
   1054e:	9782                	jalr	a5
   10550:	b7e9                	j	1051a <__libc_init_array+0x20>
   10552:	609c                	ld	a5,0(s1)
   10554:	0905                	addi	s2,s2,1
   10556:	04a1                	addi	s1,s1,8
   10558:	9782                	jalr	a5
   1055a:	bff9                	j	10538 <__libc_init_array+0x3e>

000000000001055c <memset>:
   1055c:	433d                	li	t1,15
   1055e:	872a                	mv	a4,a0
   10560:	02c37163          	bleu	a2,t1,10582 <memset+0x26>
   10564:	00f77793          	andi	a5,a4,15
   10568:	e3c1                	bnez	a5,105e8 <memset+0x8c>
   1056a:	e1bd                	bnez	a1,105d0 <memset+0x74>
   1056c:	ff067693          	andi	a3,a2,-16
   10570:	8a3d                	andi	a2,a2,15
   10572:	96ba                	add	a3,a3,a4
   10574:	e30c                	sd	a1,0(a4)
   10576:	e70c                	sd	a1,8(a4)
   10578:	0741                	addi	a4,a4,16
   1057a:	fed76de3          	bltu	a4,a3,10574 <memset+0x18>
   1057e:	e211                	bnez	a2,10582 <memset+0x26>
   10580:	8082                	ret
   10582:	40c306b3          	sub	a3,t1,a2
   10586:	068a                	slli	a3,a3,0x2
   10588:	00000297          	auipc	t0,0x0
   1058c:	9696                	add	a3,a3,t0
   1058e:	00a68067          	jr	10(a3)
   10592:	00b70723          	sb	a1,14(a4)
   10596:	00b706a3          	sb	a1,13(a4)
   1059a:	00b70623          	sb	a1,12(a4)
   1059e:	00b705a3          	sb	a1,11(a4)
   105a2:	00b70523          	sb	a1,10(a4)
   105a6:	00b704a3          	sb	a1,9(a4)
   105aa:	00b70423          	sb	a1,8(a4)
   105ae:	00b703a3          	sb	a1,7(a4)
   105b2:	00b70323          	sb	a1,6(a4)
   105b6:	00b702a3          	sb	a1,5(a4)
   105ba:	00b70223          	sb	a1,4(a4)
   105be:	00b701a3          	sb	a1,3(a4)
   105c2:	00b70123          	sb	a1,2(a4)
   105c6:	00b700a3          	sb	a1,1(a4)
   105ca:	00b70023          	sb	a1,0(a4)
   105ce:	8082                	ret
   105d0:	0ff5f593          	andi	a1,a1,255
   105d4:	00859693          	slli	a3,a1,0x8
   105d8:	8dd5                	or	a1,a1,a3
   105da:	01059693          	slli	a3,a1,0x10
   105de:	8dd5                	or	a1,a1,a3
   105e0:	02059693          	slli	a3,a1,0x20
   105e4:	8dd5                	or	a1,a1,a3
   105e6:	b759                	j	1056c <memset+0x10>
   105e8:	00279693          	slli	a3,a5,0x2
   105ec:	00000297          	auipc	t0,0x0
   105f0:	9696                	add	a3,a3,t0
   105f2:	8286                	mv	t0,ra
   105f4:	fa2680e7          	jalr	-94(a3)
   105f8:	8096                	mv	ra,t0
   105fa:	17c1                	addi	a5,a5,-16
   105fc:	8f1d                	sub	a4,a4,a5
   105fe:	963e                	add	a2,a2,a5
   10600:	f8c371e3          	bleu	a2,t1,10582 <memset+0x26>
   10604:	b79d                	j	1056a <memset+0xe>

0000000000010606 <_printf_r>:
   10606:	715d                	addi	sp,sp,-80
   10608:	f032                	sd	a2,32(sp)
   1060a:	f436                	sd	a3,40(sp)
   1060c:	f83a                	sd	a4,48(sp)
   1060e:	fc3e                	sd	a5,56(sp)
   10610:	e0c2                	sd	a6,64(sp)
   10612:	e4c6                	sd	a7,72(sp)
   10614:	862e                	mv	a2,a1
   10616:	690c                	ld	a1,16(a0)
   10618:	1014                	addi	a3,sp,32
   1061a:	ec06                	sd	ra,24(sp)
   1061c:	e436                	sd	a3,8(sp)
   1061e:	0f2000ef          	jal	ra,10710 <_vfprintf_r>
   10622:	60e2                	ld	ra,24(sp)
   10624:	6161                	addi	sp,sp,80
   10626:	8082                	ret

0000000000010628 <printf>:
   10628:	711d                	addi	sp,sp,-96
   1062a:	e4be                	sd	a5,72(sp)
   1062c:	8381b783          	ld	a5,-1992(gp) # 1cd90 <_impure_ptr>
   10630:	f832                	sd	a2,48(sp)
   10632:	fc36                	sd	a3,56(sp)
   10634:	f42e                	sd	a1,40(sp)
   10636:	e0ba                	sd	a4,64(sp)
   10638:	e8c2                	sd	a6,80(sp)
   1063a:	ecc6                	sd	a7,88(sp)
   1063c:	6b8c                	ld	a1,16(a5)
   1063e:	1034                	addi	a3,sp,40
   10640:	862a                	mv	a2,a0
   10642:	853e                	mv	a0,a5
   10644:	ec06                	sd	ra,24(sp)
   10646:	e436                	sd	a3,8(sp)
   10648:	0c8000ef          	jal	ra,10710 <_vfprintf_r>
   1064c:	60e2                	ld	ra,24(sp)
   1064e:	6125                	addi	sp,sp,96
   10650:	8082                	ret

0000000000010652 <_puts_r>:
   10652:	711d                	addi	sp,sp,-96
   10654:	e8a2                	sd	s0,80(sp)
   10656:	842a                	mv	s0,a0
   10658:	852e                	mv	a0,a1
   1065a:	e42e                	sd	a1,8(sp)
   1065c:	ec86                	sd	ra,88(sp)
   1065e:	0a0000ef          	jal	ra,106fe <strlen>
   10662:	0001a7b7          	lui	a5,0x1a
   10666:	f4878793          	addi	a5,a5,-184 # 19f48 <__clzdi2+0x15a>
   1066a:	e0be                	sd	a5,64(sp)
   1066c:	4785                	li	a5,1
   1066e:	e4be                	sd	a5,72(sp)
   10670:	181c                	addi	a5,sp,48
   10672:	65a2                	ld	a1,8(sp)
   10674:	ec3e                	sd	a5,24(sp)
   10676:	4789                	li	a5,2
   10678:	d03e                	sw	a5,32(sp)
   1067a:	483c                	lw	a5,80(s0)
   1067c:	fc2a                	sd	a0,56(sp)
   1067e:	0505                	addi	a0,a0,1
   10680:	f82e                	sd	a1,48(sp)
   10682:	f42a                	sd	a0,40(sp)
   10684:	680c                	ld	a1,16(s0)
   10686:	e791                	bnez	a5,10692 <_puts_r+0x40>
   10688:	8522                	mv	a0,s0
   1068a:	e42e                	sd	a1,8(sp)
   1068c:	33b010ef          	jal	ra,121c6 <__sinit>
   10690:	65a2                	ld	a1,8(sp)
   10692:	01059783          	lh	a5,16(a1)
   10696:	03279713          	slli	a4,a5,0x32
   1069a:	00074d63          	bltz	a4,106b4 <_puts_r+0x62>
   1069e:	6689                	lui	a3,0x2
   106a0:	0ac5a703          	lw	a4,172(a1)
   106a4:	8fd5                	or	a5,a5,a3
   106a6:	00f59823          	sh	a5,16(a1)
   106aa:	77f9                	lui	a5,0xffffe
   106ac:	17fd                	addi	a5,a5,-1
   106ae:	8ff9                	and	a5,a5,a4
   106b0:	0af5a623          	sw	a5,172(a1)
   106b4:	0830                	addi	a2,sp,24
   106b6:	8522                	mv	a0,s0
   106b8:	699010ef          	jal	ra,12550 <__sfvwrite_r>
   106bc:	57fd                	li	a5,-1
   106be:	e111                	bnez	a0,106c2 <_puts_r+0x70>
   106c0:	47a9                	li	a5,10
   106c2:	60e6                	ld	ra,88(sp)
   106c4:	6446                	ld	s0,80(sp)
   106c6:	853e                	mv	a0,a5
   106c8:	6125                	addi	sp,sp,96
   106ca:	8082                	ret

00000000000106cc <puts>:
   106cc:	85aa                	mv	a1,a0
   106ce:	8381b503          	ld	a0,-1992(gp) # 1cd90 <_impure_ptr>
   106d2:	f81ff06f          	j	10652 <_puts_r>

00000000000106d6 <srand>:
   106d6:	8381b783          	ld	a5,-1992(gp) # 1cd90 <_impure_ptr>
   106da:	1502                	slli	a0,a0,0x20
   106dc:	9101                	srli	a0,a0,0x20
   106de:	f7e8                	sd	a0,232(a5)
   106e0:	8082                	ret

00000000000106e2 <rand>:
   106e2:	8381b783          	ld	a5,-1992(gp) # 1cd90 <_impure_ptr>
   106e6:	0001d737          	lui	a4,0x1d
   106ea:	d5873703          	ld	a4,-680(a4) # 1cd58 <__TMC_END__>
   106ee:	77e8                	ld	a0,232(a5)
   106f0:	02e50533          	mul	a0,a0,a4
   106f4:	0505                	addi	a0,a0,1
   106f6:	f7e8                	sd	a0,232(a5)
   106f8:	0506                	slli	a0,a0,0x1
   106fa:	9105                	srli	a0,a0,0x21
   106fc:	8082                	ret

00000000000106fe <strlen>:
   106fe:	87aa                	mv	a5,a0
   10700:	0785                	addi	a5,a5,1
   10702:	fff7c703          	lbu	a4,-1(a5) # ffffffffffffdfff <_end+0xffffffffffdcd1bf>
   10706:	ff6d                	bnez	a4,10700 <strlen+0x2>
   10708:	40a78533          	sub	a0,a5,a0
   1070c:	157d                	addi	a0,a0,-1
   1070e:	8082                	ret

0000000000010710 <_vfprintf_r>:
   10710:	d9010113          	addi	sp,sp,-624
   10714:	26113423          	sd	ra,616(sp)
   10718:	24913c23          	sd	s1,600(sp)
   1071c:	25213823          	sd	s2,592(sp)
   10720:	25313423          	sd	s3,584(sp)
   10724:	23713423          	sd	s7,552(sp)
   10728:	892e                	mv	s2,a1
   1072a:	84b2                	mv	s1,a2
   1072c:	8bb6                	mv	s7,a3
   1072e:	26813023          	sd	s0,608(sp)
   10732:	25413023          	sd	s4,576(sp)
   10736:	23513c23          	sd	s5,568(sp)
   1073a:	23613823          	sd	s6,560(sp)
   1073e:	23813023          	sd	s8,544(sp)
   10742:	21913c23          	sd	s9,536(sp)
   10746:	21a13823          	sd	s10,528(sp)
   1074a:	21b13423          	sd	s11,520(sp)
   1074e:	89aa                	mv	s3,a0
   10750:	0c9030ef          	jal	ra,14018 <_localeconv_r>
   10754:	611c                	ld	a5,0(a0)
   10756:	853e                	mv	a0,a5
   10758:	e4be                	sd	a5,72(sp)
   1075a:	fa5ff0ef          	jal	ra,106fe <strlen>
   1075e:	ec2a                	sd	a0,24(sp)
   10760:	f982                	sd	zero,240(sp)
   10762:	fd82                	sd	zero,248(sp)
   10764:	00098863          	beqz	s3,10774 <_vfprintf_r+0x64>
   10768:	0509a783          	lw	a5,80(s3)
   1076c:	e781                	bnez	a5,10774 <_vfprintf_r+0x64>
   1076e:	854e                	mv	a0,s3
   10770:	257010ef          	jal	ra,121c6 <__sinit>
   10774:	01091783          	lh	a5,16(s2)
   10778:	03279713          	slli	a4,a5,0x32
   1077c:	00074d63          	bltz	a4,10796 <_vfprintf_r+0x86>
   10780:	6689                	lui	a3,0x2
   10782:	0ac92703          	lw	a4,172(s2)
   10786:	8fd5                	or	a5,a5,a3
   10788:	00f91823          	sh	a5,16(s2)
   1078c:	77f9                	lui	a5,0xffffe
   1078e:	17fd                	addi	a5,a5,-1
   10790:	8ff9                	and	a5,a5,a4
   10792:	0af92623          	sw	a5,172(s2)
   10796:	01095783          	lhu	a5,16(s2)
   1079a:	8ba1                	andi	a5,a5,8
   1079c:	c3bd                	beqz	a5,10802 <_vfprintf_r+0xf2>
   1079e:	01893783          	ld	a5,24(s2)
   107a2:	c3a5                	beqz	a5,10802 <_vfprintf_r+0xf2>
   107a4:	01095783          	lhu	a5,16(s2)
   107a8:	4729                	li	a4,10
   107aa:	8be9                	andi	a5,a5,26
   107ac:	06e79363          	bne	a5,a4,10812 <_vfprintf_r+0x102>
   107b0:	01291783          	lh	a5,18(s2)
   107b4:	0407cf63          	bltz	a5,10812 <_vfprintf_r+0x102>
   107b8:	86de                	mv	a3,s7
   107ba:	8626                	mv	a2,s1
   107bc:	85ca                	mv	a1,s2
   107be:	854e                	mv	a0,s3
   107c0:	512010ef          	jal	ra,11cd2 <__sbprintf>
   107c4:	f42a                	sd	a0,40(sp)
   107c6:	26813083          	ld	ra,616(sp)
   107ca:	26013403          	ld	s0,608(sp)
   107ce:	7522                	ld	a0,40(sp)
   107d0:	25813483          	ld	s1,600(sp)
   107d4:	25013903          	ld	s2,592(sp)
   107d8:	24813983          	ld	s3,584(sp)
   107dc:	24013a03          	ld	s4,576(sp)
   107e0:	23813a83          	ld	s5,568(sp)
   107e4:	23013b03          	ld	s6,560(sp)
   107e8:	22813b83          	ld	s7,552(sp)
   107ec:	22013c03          	ld	s8,544(sp)
   107f0:	21813c83          	ld	s9,536(sp)
   107f4:	21013d03          	ld	s10,528(sp)
   107f8:	20813d83          	ld	s11,520(sp)
   107fc:	27010113          	addi	sp,sp,624
   10800:	8082                	ret
   10802:	85ca                	mv	a1,s2
   10804:	854e                	mv	a0,s3
   10806:	55a010ef          	jal	ra,11d60 <__swsetup_r>
   1080a:	dd49                	beqz	a0,107a4 <_vfprintf_r+0x94>
   1080c:	57fd                	li	a5,-1
   1080e:	f43e                	sd	a5,40(sp)
   10810:	bf5d                	j	107c6 <_vfprintf_r+0xb6>
   10812:	67e9                	lui	a5,0x1a
   10814:	f5078793          	addi	a5,a5,-176 # 19f50 <__clzdi2+0x162>
   10818:	ed3e                	sd	a5,152(sp)
   1081a:	0001a7b7          	lui	a5,0x1a
   1081e:	0e87b783          	ld	a5,232(a5) # 1a0e8 <zeroes.4441+0x18>
   10822:	18010a93          	addi	s5,sp,384
   10826:	e256                	sd	s5,256(sp)
   10828:	f13e                	sd	a5,160(sp)
   1082a:	0001a7b7          	lui	a5,0x1a
   1082e:	0f87b783          	ld	a5,248(a5) # 1a0f8 <zeroes.4441+0x28>
   10832:	ea02                	sd	zero,272(sp)
   10834:	10012423          	sw	zero,264(sp)
   10838:	f53e                	sd	a5,168(sp)
   1083a:	0001a7b7          	lui	a5,0x1a
   1083e:	1087b783          	ld	a5,264(a5) # 1a108 <zeroes.4441+0x38>
   10842:	4a01                	li	s4,0
   10844:	8cd6                	mv	s9,s5
   10846:	f082                	sd	zero,96(sp)
   10848:	ec82                	sd	zero,88(sp)
   1084a:	e002                	sd	zero,0(sp)
   1084c:	e082                	sd	zero,64(sp)
   1084e:	e882                	sd	zero,80(sp)
   10850:	f402                	sd	zero,40(sp)
   10852:	e93e                	sd	a5,144(sp)
   10854:	8426                	mv	s0,s1
   10856:	02500713          	li	a4,37
   1085a:	00044783          	lbu	a5,0(s0)
   1085e:	c399                	beqz	a5,10864 <_vfprintf_r+0x154>
   10860:	08e79663          	bne	a5,a4,108ec <_vfprintf_r+0x1dc>
   10864:	40940b3b          	subw	s6,s0,s1
   10868:	020b0f63          	beqz	s6,108a6 <_vfprintf_r+0x196>
   1086c:	67d2                	ld	a5,272(sp)
   1086e:	009cb023          	sd	s1,0(s9)
   10872:	016cb423          	sd	s6,8(s9)
   10876:	97da                	add	a5,a5,s6
   10878:	ea3e                	sd	a5,272(sp)
   1087a:	10812783          	lw	a5,264(sp)
   1087e:	0cc1                	addi	s9,s9,16
   10880:	0017871b          	addiw	a4,a5,1
   10884:	10e12423          	sw	a4,264(sp)
   10888:	479d                	li	a5,7
   1088a:	00e7da63          	ble	a4,a5,1089e <_vfprintf_r+0x18e>
   1088e:	0210                	addi	a2,sp,256
   10890:	85ca                	mv	a1,s2
   10892:	854e                	mv	a0,s3
   10894:	5fc060ef          	jal	ra,16e90 <__sprint_r>
   10898:	54051363          	bnez	a0,10dde <_vfprintf_r+0x6ce>
   1089c:	8cd6                	mv	s9,s5
   1089e:	57a2                	lw	a5,40(sp)
   108a0:	016787bb          	addw	a5,a5,s6
   108a4:	f43e                	sd	a5,40(sp)
   108a6:	00044783          	lbu	a5,0(s0)
   108aa:	e399                	bnez	a5,108b0 <_vfprintf_r+0x1a0>
   108ac:	4040106f          	j	11cb0 <_vfprintf_r+0x15a0>
   108b0:	00140793          	addi	a5,s0,1
   108b4:	0c0107a3          	sb	zero,207(sp)
   108b8:	5dfd                	li	s11,-1
   108ba:	f002                	sd	zero,32(sp)
   108bc:	4401                	li	s0,0
   108be:	05a00d13          	li	s10,90
   108c2:	4c29                	li	s8,10
   108c4:	0007cb03          	lbu	s6,0(a5)
   108c8:	00178713          	addi	a4,a5,1
   108cc:	e83a                	sd	a4,16(sp)
   108ce:	46a5                	li	a3,9
   108d0:	02a00613          	li	a2,42
   108d4:	fe0b079b          	addiw	a5,s6,-32
   108d8:	0007871b          	sext.w	a4,a5
   108dc:	3aed68e3          	bltu	s10,a4,1148c <_vfprintf_r+0xd7c>
   108e0:	676a                	ld	a4,152(sp)
   108e2:	1782                	slli	a5,a5,0x20
   108e4:	83f9                	srli	a5,a5,0x1e
   108e6:	97ba                	add	a5,a5,a4
   108e8:	439c                	lw	a5,0(a5)
   108ea:	8782                	jr	a5
   108ec:	0405                	addi	s0,s0,1
   108ee:	b7b5                	j	1085a <_vfprintf_r+0x14a>
   108f0:	0001a7b7          	lui	a5,0x1a
   108f4:	14878793          	addi	a5,a5,328 # 1a148 <zeroes.4441+0x78>
   108f8:	f0be                	sd	a5,96(sp)
   108fa:	008b8793          	addi	a5,s7,8
   108fe:	f83e                	sd	a5,48(sp)
   10900:	02047793          	andi	a5,s0,32
   10904:	24078de3          	beqz	a5,1135e <_vfprintf_r+0xc4e>
   10908:	000bbb83          	ld	s7,0(s7)
   1090c:	00147793          	andi	a5,s0,1
   10910:	cf81                	beqz	a5,10928 <_vfprintf_r+0x218>
   10912:	000b8b63          	beqz	s7,10928 <_vfprintf_r+0x218>
   10916:	03000793          	li	a5,48
   1091a:	00246413          	ori	s0,s0,2
   1091e:	0cf10823          	sb	a5,208(sp)
   10922:	0d6108a3          	sb	s6,209(sp)
   10926:	2401                	sext.w	s0,s0
   10928:	bff47413          	andi	s0,s0,-1025
   1092c:	2401                	sext.w	s0,s0
   1092e:	4789                	li	a5,2
   10930:	12b0006f          	j	1125a <_vfprintf_r+0xb4a>
   10934:	854e                	mv	a0,s3
   10936:	6e2030ef          	jal	ra,14018 <_localeconv_r>
   1093a:	651c                	ld	a5,8(a0)
   1093c:	853e                	mv	a0,a5
   1093e:	e8be                	sd	a5,80(sp)
   10940:	dbfff0ef          	jal	ra,106fe <strlen>
   10944:	e0aa                	sd	a0,64(sp)
   10946:	854e                	mv	a0,s3
   10948:	6d0030ef          	jal	ra,14018 <_localeconv_r>
   1094c:	691c                	ld	a5,16(a0)
   1094e:	e03e                	sd	a5,0(sp)
   10950:	6786                	ld	a5,64(sp)
   10952:	c38d                	beqz	a5,10974 <_vfprintf_r+0x264>
   10954:	6782                	ld	a5,0(sp)
   10956:	cf99                	beqz	a5,10974 <_vfprintf_r+0x264>
   10958:	0007c783          	lbu	a5,0(a5)
   1095c:	cf81                	beqz	a5,10974 <_vfprintf_r+0x264>
   1095e:	40046413          	ori	s0,s0,1024
   10962:	2401                	sext.w	s0,s0
   10964:	a801                	j	10974 <_vfprintf_r+0x264>
   10966:	0cf14783          	lbu	a5,207(sp)
   1096a:	e789                	bnez	a5,10974 <_vfprintf_r+0x264>
   1096c:	02000793          	li	a5,32
   10970:	0cf107a3          	sb	a5,207(sp)
   10974:	67c2                	ld	a5,16(sp)
   10976:	b7b9                	j	108c4 <_vfprintf_r+0x1b4>
   10978:	00146413          	ori	s0,s0,1
   1097c:	b7dd                	j	10962 <_vfprintf_r+0x252>
   1097e:	000ba783          	lw	a5,0(s7)
   10982:	0ba1                	addi	s7,s7,8
   10984:	f03e                	sd	a5,32(sp)
   10986:	fe07d7e3          	bgez	a5,10974 <_vfprintf_r+0x264>
   1098a:	5782                	lw	a5,32(sp)
   1098c:	40f007bb          	negw	a5,a5
   10990:	f03e                	sd	a5,32(sp)
   10992:	00446413          	ori	s0,s0,4
   10996:	b7f1                	j	10962 <_vfprintf_r+0x252>
   10998:	02b00793          	li	a5,43
   1099c:	bfd1                	j	10970 <_vfprintf_r+0x260>
   1099e:	6742                	ld	a4,16(sp)
   109a0:	67c2                	ld	a5,16(sp)
   109a2:	00074b03          	lbu	s6,0(a4)
   109a6:	0785                	addi	a5,a5,1
   109a8:	02cb1c63          	bne	s6,a2,109e0 <_vfprintf_r+0x2d0>
   109ac:	000bae03          	lw	t3,0(s7)
   109b0:	008b8713          	addi	a4,s7,8
   109b4:	000e5363          	bgez	t3,109ba <_vfprintf_r+0x2aa>
   109b8:	5e7d                	li	t3,-1
   109ba:	000e0d9b          	sext.w	s11,t3
   109be:	8bba                	mv	s7,a4
   109c0:	e83e                	sd	a5,16(sp)
   109c2:	bf4d                	j	10974 <_vfprintf_r+0x264>
   109c4:	03bc0e3b          	mulw	t3,s8,s11
   109c8:	0785                	addi	a5,a5,1
   109ca:	fff7cb03          	lbu	s6,-1(a5)
   109ce:	00ee0dbb          	addw	s11,t3,a4
   109d2:	fd0b059b          	addiw	a1,s6,-48
   109d6:	872e                	mv	a4,a1
   109d8:	feb6f6e3          	bleu	a1,a3,109c4 <_vfprintf_r+0x2b4>
   109dc:	e83e                	sd	a5,16(sp)
   109de:	bddd                	j	108d4 <_vfprintf_r+0x1c4>
   109e0:	4d81                	li	s11,0
   109e2:	bfc5                	j	109d2 <_vfprintf_r+0x2c2>
   109e4:	08046413          	ori	s0,s0,128
   109e8:	bfad                	j	10962 <_vfprintf_r+0x252>
   109ea:	67c2                	ld	a5,16(sp)
   109ec:	f002                	sd	zero,32(sp)
   109ee:	5702                	lw	a4,32(sp)
   109f0:	fd0b0b1b          	addiw	s6,s6,-48
   109f4:	0785                	addi	a5,a5,1
   109f6:	02ec073b          	mulw	a4,s8,a4
   109fa:	00eb073b          	addw	a4,s6,a4
   109fe:	fff7cb03          	lbu	s6,-1(a5)
   10a02:	f03a                	sd	a4,32(sp)
   10a04:	fd0b071b          	addiw	a4,s6,-48
   10a08:	fee6f3e3          	bleu	a4,a3,109ee <_vfprintf_r+0x2de>
   10a0c:	bfc1                	j	109dc <_vfprintf_r+0x2cc>
   10a0e:	00846413          	ori	s0,s0,8
   10a12:	bf81                	j	10962 <_vfprintf_r+0x252>
   10a14:	67c2                	ld	a5,16(sp)
   10a16:	0007c703          	lbu	a4,0(a5)
   10a1a:	06800793          	li	a5,104
   10a1e:	00f71863          	bne	a4,a5,10a2e <_vfprintf_r+0x31e>
   10a22:	67c2                	ld	a5,16(sp)
   10a24:	20046413          	ori	s0,s0,512
   10a28:	0785                	addi	a5,a5,1
   10a2a:	e83e                	sd	a5,16(sp)
   10a2c:	bf1d                	j	10962 <_vfprintf_r+0x252>
   10a2e:	04046413          	ori	s0,s0,64
   10a32:	bf05                	j	10962 <_vfprintf_r+0x252>
   10a34:	67c2                	ld	a5,16(sp)
   10a36:	0007c703          	lbu	a4,0(a5)
   10a3a:	06c00793          	li	a5,108
   10a3e:	00f71863          	bne	a4,a5,10a4e <_vfprintf_r+0x33e>
   10a42:	67c2                	ld	a5,16(sp)
   10a44:	0785                	addi	a5,a5,1
   10a46:	e83e                	sd	a5,16(sp)
   10a48:	02046413          	ori	s0,s0,32
   10a4c:	bf19                	j	10962 <_vfprintf_r+0x252>
   10a4e:	01046413          	ori	s0,s0,16
   10a52:	bf01                	j	10962 <_vfprintf_r+0x252>
   10a54:	008b8793          	addi	a5,s7,8
   10a58:	f83e                	sd	a5,48(sp)
   10a5a:	000ba783          	lw	a5,0(s7)
   10a5e:	0c0107a3          	sb	zero,207(sp)
   10a62:	10f10c23          	sb	a5,280(sp)
   10a66:	4b81                	li	s7,0
   10a68:	4d85                	li	s11,1
   10a6a:	4701                	li	a4,0
   10a6c:	e402                	sd	zero,8(sp)
   10a6e:	4c01                	li	s8,0
   10a70:	4d01                	li	s10,0
   10a72:	0a24                	addi	s1,sp,280
   10a74:	86ba                	mv	a3,a4
   10a76:	01b75363          	ble	s11,a4,10a7c <_vfprintf_r+0x36c>
   10a7a:	86ee                	mv	a3,s11
   10a7c:	0cf14603          	lbu	a2,207(sp)
   10a80:	0006879b          	sext.w	a5,a3
   10a84:	fc3e                	sd	a5,56(sp)
   10a86:	c601                	beqz	a2,10a8e <_vfprintf_r+0x37e>
   10a88:	0016879b          	addiw	a5,a3,1
   10a8c:	fc3e                	sd	a5,56(sp)
   10a8e:	00247693          	andi	a3,s0,2
   10a92:	0006879b          	sext.w	a5,a3
   10a96:	f4be                	sd	a5,104(sp)
   10a98:	c781                	beqz	a5,10aa0 <_vfprintf_r+0x390>
   10a9a:	57e2                	lw	a5,56(sp)
   10a9c:	2789                	addiw	a5,a5,2
   10a9e:	fc3e                	sd	a5,56(sp)
   10aa0:	08447793          	andi	a5,s0,132
   10aa4:	f8be                	sd	a5,112(sp)
   10aa6:	efa9                	bnez	a5,10b00 <_vfprintf_r+0x3f0>
   10aa8:	5782                	lw	a5,32(sp)
   10aaa:	56e2                	lw	a3,56(sp)
   10aac:	40d786bb          	subw	a3,a5,a3
   10ab0:	04d05863          	blez	a3,10b00 <_vfprintf_r+0x3f0>
   10ab4:	6869                	lui	a6,0x1a
   10ab6:	48c1                	li	a7,16
   10ab8:	0c080813          	addi	a6,a6,192 # 1a0c0 <blanks.4440>
   10abc:	4e9d                	li	t4,7
   10abe:	10812583          	lw	a1,264(sp)
   10ac2:	010cb023          	sd	a6,0(s9)
   10ac6:	6652                	ld	a2,272(sp)
   10ac8:	0015851b          	addiw	a0,a1,1
   10acc:	85aa                	mv	a1,a0
   10ace:	010c8f13          	addi	t5,s9,16
   10ad2:	1cd8c6e3          	blt	a7,a3,1149e <_vfprintf_r+0xd8e>
   10ad6:	00dcb423          	sd	a3,8(s9)
   10ada:	96b2                	add	a3,a3,a2
   10adc:	ea36                	sd	a3,272(sp)
   10ade:	10a12423          	sw	a0,264(sp)
   10ae2:	469d                	li	a3,7
   10ae4:	8cfa                	mv	s9,t5
   10ae6:	00a6dd63          	ble	a0,a3,10b00 <_vfprintf_r+0x3f0>
   10aea:	0210                	addi	a2,sp,256
   10aec:	85ca                	mv	a1,s2
   10aee:	854e                	mv	a0,s3
   10af0:	fcba                	sd	a4,120(sp)
   10af2:	39e060ef          	jal	ra,16e90 <__sprint_r>
   10af6:	c119                	beqz	a0,10afc <_vfprintf_r+0x3ec>
   10af8:	17a0106f          	j	11c72 <_vfprintf_r+0x1562>
   10afc:	7766                	ld	a4,120(sp)
   10afe:	8cd6                	mv	s9,s5
   10b00:	0cf14683          	lbu	a3,207(sp)
   10b04:	c2a1                	beqz	a3,10b44 <_vfprintf_r+0x434>
   10b06:	0cf10693          	addi	a3,sp,207
   10b0a:	00dcb023          	sd	a3,0(s9)
   10b0e:	4685                	li	a3,1
   10b10:	00dcb423          	sd	a3,8(s9)
   10b14:	66d2                	ld	a3,272(sp)
   10b16:	0cc1                	addi	s9,s9,16
   10b18:	0685                	addi	a3,a3,1
   10b1a:	ea36                	sd	a3,272(sp)
   10b1c:	10812683          	lw	a3,264(sp)
   10b20:	0016861b          	addiw	a2,a3,1
   10b24:	10c12423          	sw	a2,264(sp)
   10b28:	469d                	li	a3,7
   10b2a:	00c6dd63          	ble	a2,a3,10b44 <_vfprintf_r+0x434>
   10b2e:	0210                	addi	a2,sp,256
   10b30:	85ca                	mv	a1,s2
   10b32:	854e                	mv	a0,s3
   10b34:	fcba                	sd	a4,120(sp)
   10b36:	35a060ef          	jal	ra,16e90 <__sprint_r>
   10b3a:	c119                	beqz	a0,10b40 <_vfprintf_r+0x430>
   10b3c:	1360106f          	j	11c72 <_vfprintf_r+0x1562>
   10b40:	7766                	ld	a4,120(sp)
   10b42:	8cd6                	mv	s9,s5
   10b44:	77a6                	ld	a5,104(sp)
   10b46:	cf9d                	beqz	a5,10b84 <_vfprintf_r+0x474>
   10b48:	0994                	addi	a3,sp,208
   10b4a:	00dcb023          	sd	a3,0(s9)
   10b4e:	4689                	li	a3,2
   10b50:	00dcb423          	sd	a3,8(s9)
   10b54:	66d2                	ld	a3,272(sp)
   10b56:	0cc1                	addi	s9,s9,16
   10b58:	0689                	addi	a3,a3,2
   10b5a:	ea36                	sd	a3,272(sp)
   10b5c:	10812683          	lw	a3,264(sp)
   10b60:	0016861b          	addiw	a2,a3,1
   10b64:	10c12423          	sw	a2,264(sp)
   10b68:	469d                	li	a3,7
   10b6a:	00c6dd63          	ble	a2,a3,10b84 <_vfprintf_r+0x474>
   10b6e:	0210                	addi	a2,sp,256
   10b70:	85ca                	mv	a1,s2
   10b72:	854e                	mv	a0,s3
   10b74:	f4ba                	sd	a4,104(sp)
   10b76:	31a060ef          	jal	ra,16e90 <__sprint_r>
   10b7a:	c119                	beqz	a0,10b80 <_vfprintf_r+0x470>
   10b7c:	0f60106f          	j	11c72 <_vfprintf_r+0x1562>
   10b80:	7726                	ld	a4,104(sp)
   10b82:	8cd6                	mv	s9,s5
   10b84:	77c6                	ld	a5,112(sp)
   10b86:	08000693          	li	a3,128
   10b8a:	04d79e63          	bne	a5,a3,10be6 <_vfprintf_r+0x4d6>
   10b8e:	5782                	lw	a5,32(sp)
   10b90:	56e2                	lw	a3,56(sp)
   10b92:	40d786bb          	subw	a3,a5,a3
   10b96:	04d05863          	blez	a3,10be6 <_vfprintf_r+0x4d6>
   10b9a:	6869                	lui	a6,0x1a
   10b9c:	48c1                	li	a7,16
   10b9e:	0d080813          	addi	a6,a6,208 # 1a0d0 <zeroes.4441>
   10ba2:	4e9d                	li	t4,7
   10ba4:	10812583          	lw	a1,264(sp)
   10ba8:	010cb023          	sd	a6,0(s9)
   10bac:	6652                	ld	a2,272(sp)
   10bae:	0015851b          	addiw	a0,a1,1
   10bb2:	85aa                	mv	a1,a0
   10bb4:	010c8f13          	addi	t5,s9,16
   10bb8:	12d8c1e3          	blt	a7,a3,114da <_vfprintf_r+0xdca>
   10bbc:	00dcb423          	sd	a3,8(s9)
   10bc0:	96b2                	add	a3,a3,a2
   10bc2:	ea36                	sd	a3,272(sp)
   10bc4:	10a12423          	sw	a0,264(sp)
   10bc8:	469d                	li	a3,7
   10bca:	8cfa                	mv	s9,t5
   10bcc:	00a6dd63          	ble	a0,a3,10be6 <_vfprintf_r+0x4d6>
   10bd0:	0210                	addi	a2,sp,256
   10bd2:	85ca                	mv	a1,s2
   10bd4:	854e                	mv	a0,s3
   10bd6:	f4ba                	sd	a4,104(sp)
   10bd8:	2b8060ef          	jal	ra,16e90 <__sprint_r>
   10bdc:	c119                	beqz	a0,10be2 <_vfprintf_r+0x4d2>
   10bde:	0940106f          	j	11c72 <_vfprintf_r+0x1562>
   10be2:	7726                	ld	a4,104(sp)
   10be4:	8cd6                	mv	s9,s5
   10be6:	41b7073b          	subw	a4,a4,s11
   10bea:	04e05663          	blez	a4,10c36 <_vfprintf_r+0x526>
   10bee:	6869                	lui	a6,0x1a
   10bf0:	48c1                	li	a7,16
   10bf2:	0d080813          	addi	a6,a6,208 # 1a0d0 <zeroes.4441>
   10bf6:	4e9d                	li	t4,7
   10bf8:	10812603          	lw	a2,264(sp)
   10bfc:	010cb023          	sd	a6,0(s9)
   10c00:	66d2                	ld	a3,272(sp)
   10c02:	0016059b          	addiw	a1,a2,1
   10c06:	862e                	mv	a2,a1
   10c08:	010c8513          	addi	a0,s9,16
   10c0c:	10e8c5e3          	blt	a7,a4,11516 <_vfprintf_r+0xe06>
   10c10:	00ecb423          	sd	a4,8(s9)
   10c14:	9736                	add	a4,a4,a3
   10c16:	ea3a                	sd	a4,272(sp)
   10c18:	10b12423          	sw	a1,264(sp)
   10c1c:	471d                	li	a4,7
   10c1e:	8caa                	mv	s9,a0
   10c20:	00b75b63          	ble	a1,a4,10c36 <_vfprintf_r+0x526>
   10c24:	0210                	addi	a2,sp,256
   10c26:	85ca                	mv	a1,s2
   10c28:	854e                	mv	a0,s3
   10c2a:	266060ef          	jal	ra,16e90 <__sprint_r>
   10c2e:	c119                	beqz	a0,10c34 <_vfprintf_r+0x524>
   10c30:	0420106f          	j	11c72 <_vfprintf_r+0x1562>
   10c34:	8cd6                	mv	s9,s5
   10c36:	10047693          	andi	a3,s0,256
   10c3a:	6752                	ld	a4,272(sp)
   10c3c:	100699e3          	bnez	a3,1154e <_vfprintf_r+0xe3e>
   10c40:	10812783          	lw	a5,264(sp)
   10c44:	00ed8e33          	add	t3,s11,a4
   10c48:	009cb023          	sd	s1,0(s9)
   10c4c:	0017871b          	addiw	a4,a5,1
   10c50:	01bcb423          	sd	s11,8(s9)
   10c54:	ea72                	sd	t3,272(sp)
   10c56:	10e12423          	sw	a4,264(sp)
   10c5a:	479d                	li	a5,7
   10c5c:	0cc1                	addi	s9,s9,16
   10c5e:	1ce7d4e3          	ble	a4,a5,11626 <_vfprintf_r+0xf16>
   10c62:	0210                	addi	a2,sp,256
   10c64:	85ca                	mv	a1,s2
   10c66:	854e                	mv	a0,s3
   10c68:	228060ef          	jal	ra,16e90 <__sprint_r>
   10c6c:	c119                	beqz	a0,10c72 <_vfprintf_r+0x562>
   10c6e:	0040106f          	j	11c72 <_vfprintf_r+0x1562>
   10c72:	8cd6                	mv	s9,s5
   10c74:	1b30006f          	j	11626 <_vfprintf_r+0xf16>
   10c78:	01046413          	ori	s0,s0,16
   10c7c:	2401                	sext.w	s0,s0
   10c7e:	008b8793          	addi	a5,s7,8
   10c82:	f83e                	sd	a5,48(sp)
   10c84:	02047793          	andi	a5,s0,32
   10c88:	cb85                	beqz	a5,10cb8 <_vfprintf_r+0x5a8>
   10c8a:	000bbb83          	ld	s7,0(s7)
   10c8e:	000bd863          	bgez	s7,10c9e <_vfprintf_r+0x58e>
   10c92:	02d00793          	li	a5,45
   10c96:	41700bb3          	neg	s7,s7
   10c9a:	0cf107a3          	sb	a5,207(sp)
   10c9e:	57fd                	li	a5,-1
   10ca0:	6efd9963          	bne	s11,a5,11392 <_vfprintf_r+0xc82>
   10ca4:	47a5                	li	a5,9
   10ca6:	7577e463          	bltu	a5,s7,113ee <_vfprintf_r+0xcde>
   10caa:	030b8b9b          	addiw	s7,s7,48
   10cae:	17710da3          	sb	s7,379(sp)
   10cb2:	17b10493          	addi	s1,sp,379
   10cb6:	af39                	j	113d4 <_vfprintf_r+0xcc4>
   10cb8:	01047793          	andi	a5,s0,16
   10cbc:	f7f9                	bnez	a5,10c8a <_vfprintf_r+0x57a>
   10cbe:	04047793          	andi	a5,s0,64
   10cc2:	c781                	beqz	a5,10cca <_vfprintf_r+0x5ba>
   10cc4:	000b9b83          	lh	s7,0(s7)
   10cc8:	b7d9                	j	10c8e <_vfprintf_r+0x57e>
   10cca:	20047793          	andi	a5,s0,512
   10cce:	c781                	beqz	a5,10cd6 <_vfprintf_r+0x5c6>
   10cd0:	000b8b83          	lb	s7,0(s7)
   10cd4:	bf6d                	j	10c8e <_vfprintf_r+0x57e>
   10cd6:	000bab83          	lw	s7,0(s7)
   10cda:	bf55                	j	10c8e <_vfprintf_r+0x57e>
   10cdc:	00847793          	andi	a5,s0,8
   10ce0:	cfb9                	beqz	a5,10d3e <_vfprintf_r+0x62e>
   10ce2:	0bbd                	addi	s7,s7,15
   10ce4:	ff0bfb93          	andi	s7,s7,-16
   10ce8:	010b8793          	addi	a5,s7,16
   10cec:	f83e                	sd	a5,48(sp)
   10cee:	000bb783          	ld	a5,0(s7)
   10cf2:	f9be                	sd	a5,240(sp)
   10cf4:	008bb783          	ld	a5,8(s7)
   10cf8:	fdbe                	sd	a5,248(sp)
   10cfa:	1988                	addi	a0,sp,240
   10cfc:	2e0030ef          	jal	ra,13fdc <_ldcheck>
   10d00:	cdaa                	sw	a0,216(sp)
   10d02:	4789                	li	a5,2
   10d04:	04f51c63          	bne	a0,a5,10d5c <_vfprintf_r+0x64c>
   10d08:	754e                	ld	a0,240(sp)
   10d0a:	75ee                	ld	a1,248(sp)
   10d0c:	4601                	li	a2,0
   10d0e:	4681                	li	a3,0
   10d10:	58f070ef          	jal	ra,18a9e <__letf2>
   10d14:	00055663          	bgez	a0,10d20 <_vfprintf_r+0x610>
   10d18:	02d00793          	li	a5,45
   10d1c:	0cf107a3          	sb	a5,207(sp)
   10d20:	04700793          	li	a5,71
   10d24:	0367c763          	blt	a5,s6,10d52 <_vfprintf_r+0x642>
   10d28:	0001a4b7          	lui	s1,0x1a
   10d2c:	11048493          	addi	s1,s1,272 # 1a110 <zeroes.4441+0x40>
   10d30:	f7f47413          	andi	s0,s0,-129
   10d34:	2401                	sext.w	s0,s0
   10d36:	4b81                	li	s7,0
   10d38:	4d8d                	li	s11,3
   10d3a:	4701                	li	a4,0
   10d3c:	a555                	j	113e0 <_vfprintf_r+0xcd0>
   10d3e:	000bb507          	fld	fa0,0(s7)
   10d42:	008b8793          	addi	a5,s7,8
   10d46:	f83e                	sd	a5,48(sp)
   10d48:	581080ef          	jal	ra,19ac8 <__extenddftf2>
   10d4c:	f9aa                	sd	a0,240(sp)
   10d4e:	fdae                	sd	a1,248(sp)
   10d50:	b76d                	j	10cfa <_vfprintf_r+0x5ea>
   10d52:	0001a4b7          	lui	s1,0x1a
   10d56:	11848493          	addi	s1,s1,280 # 1a118 <zeroes.4441+0x48>
   10d5a:	bfd9                	j	10d30 <_vfprintf_r+0x620>
   10d5c:	4785                	li	a5,1
   10d5e:	02f51763          	bne	a0,a5,10d8c <_vfprintf_r+0x67c>
   10d62:	77ee                	ld	a5,248(sp)
   10d64:	0007d663          	bgez	a5,10d70 <_vfprintf_r+0x660>
   10d68:	02d00793          	li	a5,45
   10d6c:	0cf107a3          	sb	a5,207(sp)
   10d70:	04700793          	li	a5,71
   10d74:	0167c763          	blt	a5,s6,10d82 <_vfprintf_r+0x672>
   10d78:	0001a4b7          	lui	s1,0x1a
   10d7c:	12048493          	addi	s1,s1,288 # 1a120 <zeroes.4441+0x50>
   10d80:	bf45                	j	10d30 <_vfprintf_r+0x620>
   10d82:	0001a4b7          	lui	s1,0x1a
   10d86:	12848493          	addi	s1,s1,296 # 1a128 <zeroes.4441+0x58>
   10d8a:	b75d                	j	10d30 <_vfprintf_r+0x620>
   10d8c:	fdfb7c13          	andi	s8,s6,-33
   10d90:	04100793          	li	a5,65
   10d94:	04fc1c63          	bne	s8,a5,10dec <_vfprintf_r+0x6dc>
   10d98:	03000793          	li	a5,48
   10d9c:	0cf10823          	sb	a5,208(sp)
   10da0:	06100713          	li	a4,97
   10da4:	05800793          	li	a5,88
   10da8:	00eb1463          	bne	s6,a4,10db0 <_vfprintf_r+0x6a0>
   10dac:	07800793          	li	a5,120
   10db0:	0cf108a3          	sb	a5,209(sp)
   10db4:	00246413          	ori	s0,s0,2
   10db8:	06300793          	li	a5,99
   10dbc:	2401                	sext.w	s0,s0
   10dbe:	15b7db63          	ble	s11,a5,10f14 <_vfprintf_r+0x804>
   10dc2:	001d859b          	addiw	a1,s11,1
   10dc6:	854e                	mv	a0,s3
   10dc8:	404030ef          	jal	ra,141cc <_malloc_r>
   10dcc:	84aa                	mv	s1,a0
   10dce:	14051663          	bnez	a0,10f1a <_vfprintf_r+0x80a>
   10dd2:	01095783          	lhu	a5,16(s2)
   10dd6:	0407e793          	ori	a5,a5,64
   10dda:	00f91823          	sh	a5,16(s2)
   10dde:	01095783          	lhu	a5,16(s2)
   10de2:	0407f793          	andi	a5,a5,64
   10de6:	9e0780e3          	beqz	a5,107c6 <_vfprintf_r+0xb6>
   10dea:	b40d                	j	1080c <_vfprintf_r+0xfc>
   10dec:	57fd                	li	a5,-1
   10dee:	12fd8863          	beq	s11,a5,10f1e <_vfprintf_r+0x80e>
   10df2:	04700793          	li	a5,71
   10df6:	4b81                	li	s7,0
   10df8:	00fc1463          	bne	s8,a5,10e00 <_vfprintf_r+0x6f0>
   10dfc:	120d8463          	beqz	s11,10f24 <_vfprintf_r+0x814>
   10e00:	10046793          	ori	a5,s0,256
   10e04:	7a6e                	ld	s4,248(sp)
   10e06:	2781                	sext.w	a5,a5
   10e08:	fc3e                	sd	a5,56(sp)
   10e0a:	fc82                	sd	zero,120(sp)
   10e0c:	7ece                	ld	t4,240(sp)
   10e0e:	000a5963          	bgez	s4,10e20 <_vfprintf_r+0x710>
   10e12:	57fd                	li	a5,-1
   10e14:	17fe                	slli	a5,a5,0x3f
   10e16:	00fa4a33          	xor	s4,s4,a5
   10e1a:	02d00793          	li	a5,45
   10e1e:	fcbe                	sd	a5,120(sp)
   10e20:	04100793          	li	a5,65
   10e24:	22fc1363          	bne	s8,a5,1104a <_vfprintf_r+0x93a>
   10e28:	8576                	mv	a0,t4
   10e2a:	85d2                	mv	a1,s4
   10e2c:	581080ef          	jal	ra,19bac <__trunctfdf2>
   10e30:	09a8                	addi	a0,sp,216
   10e32:	7f8040ef          	jal	ra,1562a <frexp>
   10e36:	493080ef          	jal	ra,19ac8 <__extenddftf2>
   10e3a:	768a                	ld	a3,160(sp)
   10e3c:	4601                	li	a2,0
   10e3e:	525070ef          	jal	ra,18b62 <__multf3>
   10e42:	4601                	li	a2,0
   10e44:	4681                	li	a3,0
   10e46:	e12a                	sd	a0,128(sp)
   10e48:	e52e                	sd	a1,136(sp)
   10e4a:	2ed070ef          	jal	ra,18936 <__eqtf2>
   10e4e:	e119                	bnez	a0,10e54 <_vfprintf_r+0x744>
   10e50:	4785                	li	a5,1
   10e52:	cdbe                	sw	a5,216(sp)
   10e54:	06100793          	li	a5,97
   10e58:	0cfb1963          	bne	s6,a5,10f2a <_vfprintf_r+0x81a>
   10e5c:	0001a7b7          	lui	a5,0x1a
   10e60:	13078793          	addi	a5,a5,304 # 1a130 <zeroes.4441+0x60>
   10e64:	e43e                	sd	a5,8(sp)
   10e66:	fffd871b          	addiw	a4,s11,-1
   10e6a:	8a26                	mv	s4,s1
   10e6c:	76aa                	ld	a3,168(sp)
   10e6e:	650a                	ld	a0,128(sp)
   10e70:	65aa                	ld	a1,136(sp)
   10e72:	4601                	li	a2,0
   10e74:	f93a                	sd	a4,176(sp)
   10e76:	4ed070ef          	jal	ra,18b62 <__multf3>
   10e7a:	8d2a                	mv	s10,a0
   10e7c:	f4ae                	sd	a1,104(sp)
   10e7e:	33b080ef          	jal	ra,199b8 <__fixtfsi>
   10e82:	0005079b          	sext.w	a5,a0
   10e86:	f8be                	sd	a5,112(sp)
   10e88:	3c3080ef          	jal	ra,19a4a <__floatsitf>
   10e8c:	77a6                	ld	a5,104(sp)
   10e8e:	86ae                	mv	a3,a1
   10e90:	862a                	mv	a2,a0
   10e92:	85be                	mv	a1,a5
   10e94:	856a                	mv	a0,s10
   10e96:	312080ef          	jal	ra,191a8 <__subtf3>
   10e9a:	67a2                	ld	a5,8(sp)
   10e9c:	7746                	ld	a4,112(sp)
   10e9e:	0a05                	addi	s4,s4,1
   10ea0:	e12a                	sd	a0,128(sp)
   10ea2:	00e786b3          	add	a3,a5,a4
   10ea6:	774a                	ld	a4,176(sp)
   10ea8:	0006c683          	lbu	a3,0(a3) # 2000 <_start-0xe0b0>
   10eac:	e52e                	sd	a1,136(sp)
   10eae:	0007079b          	sext.w	a5,a4
   10eb2:	f4be                	sd	a5,104(sp)
   10eb4:	feda0fa3          	sb	a3,-1(s4)
   10eb8:	57fd                	li	a5,-1
   10eba:	88aa                	mv	a7,a0
   10ebc:	8d2e                	mv	s10,a1
   10ebe:	06f70b63          	beq	a4,a5,10f34 <_vfprintf_r+0x824>
   10ec2:	377d                	addiw	a4,a4,-1
   10ec4:	4601                	li	a2,0
   10ec6:	4681                	li	a3,0
   10ec8:	f93a                	sd	a4,176(sp)
   10eca:	fd2a                	sd	a0,184(sp)
   10ecc:	26b070ef          	jal	ra,18936 <__eqtf2>
   10ed0:	774a                	ld	a4,176(sp)
   10ed2:	78ea                	ld	a7,184(sp)
   10ed4:	fd41                	bnez	a0,10e6c <_vfprintf_r+0x75c>
   10ed6:	66ca                	ld	a3,144(sp)
   10ed8:	4601                	li	a2,0
   10eda:	8546                	mv	a0,a7
   10edc:	85ea                	mv	a1,s10
   10ede:	e146                	sd	a7,128(sp)
   10ee0:	2fb070ef          	jal	ra,189da <__getf2>
   10ee4:	04a04b63          	bgtz	a0,10f3a <_vfprintf_r+0x82a>
   10ee8:	688a                	ld	a7,128(sp)
   10eea:	66ca                	ld	a3,144(sp)
   10eec:	4601                	li	a2,0
   10eee:	8546                	mv	a0,a7
   10ef0:	85ea                	mv	a1,s10
   10ef2:	245070ef          	jal	ra,18936 <__eqtf2>
   10ef6:	e509                	bnez	a0,10f00 <_vfprintf_r+0x7f0>
   10ef8:	77c6                	ld	a5,112(sp)
   10efa:	0017f713          	andi	a4,a5,1
   10efe:	ef15                	bnez	a4,10f3a <_vfprintf_r+0x82a>
   10f00:	5726                	lw	a4,104(sp)
   10f02:	03000693          	li	a3,48
   10f06:	06074163          	bltz	a4,10f68 <_vfprintf_r+0x858>
   10f0a:	0a05                	addi	s4,s4,1
   10f0c:	feda0fa3          	sb	a3,-1(s4)
   10f10:	377d                	addiw	a4,a4,-1
   10f12:	bfd5                	j	10f06 <_vfprintf_r+0x7f6>
   10f14:	4b81                	li	s7,0
   10f16:	0a24                	addi	s1,sp,280
   10f18:	b5e5                	j	10e00 <_vfprintf_r+0x6f0>
   10f1a:	8baa                	mv	s7,a0
   10f1c:	b5d5                	j	10e00 <_vfprintf_r+0x6f0>
   10f1e:	4b81                	li	s7,0
   10f20:	4d99                	li	s11,6
   10f22:	bdf9                	j	10e00 <_vfprintf_r+0x6f0>
   10f24:	8bee                	mv	s7,s11
   10f26:	4d85                	li	s11,1
   10f28:	bde1                	j	10e00 <_vfprintf_r+0x6f0>
   10f2a:	0001a7b7          	lui	a5,0x1a
   10f2e:	14878793          	addi	a5,a5,328 # 1a148 <zeroes.4441+0x78>
   10f32:	bf0d                	j	10e64 <_vfprintf_r+0x754>
   10f34:	57fd                	li	a5,-1
   10f36:	f4be                	sd	a5,104(sp)
   10f38:	bf79                	j	10ed6 <_vfprintf_r+0x7c6>
   10f3a:	67a2                	ld	a5,8(sp)
   10f3c:	f5d2                	sd	s4,232(sp)
   10f3e:	03000593          	li	a1,48
   10f42:	00f7c603          	lbu	a2,15(a5)
   10f46:	76ae                	ld	a3,232(sp)
   10f48:	fff68713          	addi	a4,a3,-1
   10f4c:	f5ba                	sd	a4,232(sp)
   10f4e:	fff6c703          	lbu	a4,-1(a3)
   10f52:	0ec70563          	beq	a4,a2,1103c <_vfprintf_r+0x92c>
   10f56:	03900613          	li	a2,57
   10f5a:	0ec71463          	bne	a4,a2,11042 <_vfprintf_r+0x932>
   10f5e:	67a2                	ld	a5,8(sp)
   10f60:	00a7c703          	lbu	a4,10(a5)
   10f64:	fee68fa3          	sb	a4,-1(a3)
   10f68:	04700713          	li	a4,71
   10f6c:	409a0a3b          	subw	s4,s4,s1
   10f70:	4d6e                	lw	s10,216(sp)
   10f72:	18ec1463          	bne	s8,a4,110fa <_vfprintf_r+0x9ea>
   10f76:	5775                	li	a4,-3
   10f78:	00ed4463          	blt	s10,a4,10f80 <_vfprintf_r+0x870>
   10f7c:	1fadd463          	ble	s10,s11,11164 <_vfprintf_r+0xa54>
   10f80:	3b79                	addiw	s6,s6,-2
   10f82:	fffd069b          	addiw	a3,s10,-1
   10f86:	cdb6                	sw	a3,216(sp)
   10f88:	fdfb7613          	andi	a2,s6,-33
   10f8c:	04100513          	li	a0,65
   10f90:	0ffb7713          	andi	a4,s6,255
   10f94:	4581                	li	a1,0
   10f96:	00a61663          	bne	a2,a0,10fa2 <_vfprintf_r+0x892>
   10f9a:	273d                	addiw	a4,a4,15
   10f9c:	0ff77713          	andi	a4,a4,255
   10fa0:	4585                	li	a1,1
   10fa2:	0ee10023          	sb	a4,224(sp)
   10fa6:	02b00793          	li	a5,43
   10faa:	0006d763          	bgez	a3,10fb8 <_vfprintf_r+0x8a8>
   10fae:	4685                	li	a3,1
   10fb0:	41a686bb          	subw	a3,a3,s10
   10fb4:	02d00793          	li	a5,45
   10fb8:	0ef100a3          	sb	a5,225(sp)
   10fbc:	47a5                	li	a5,9
   10fbe:	16d7da63          	ble	a3,a5,11132 <_vfprintf_r+0xa22>
   10fc2:	0ef10713          	addi	a4,sp,239
   10fc6:	853a                	mv	a0,a4
   10fc8:	45a9                	li	a1,10
   10fca:	4825                	li	a6,9
   10fcc:	02b6e7bb          	remw	a5,a3,a1
   10fd0:	fff70613          	addi	a2,a4,-1
   10fd4:	02b6c6bb          	divw	a3,a3,a1
   10fd8:	0307879b          	addiw	a5,a5,48
   10fdc:	fef70fa3          	sb	a5,-1(a4)
   10fe0:	14d84063          	blt	a6,a3,11120 <_vfprintf_r+0xa10>
   10fe4:	0306879b          	addiw	a5,a3,48
   10fe8:	fef60fa3          	sb	a5,-1(a2)
   10fec:	1779                	addi	a4,a4,-2
   10fee:	0e210613          	addi	a2,sp,226
   10ff2:	12a76963          	bltu	a4,a0,11124 <_vfprintf_r+0xa14>
   10ff6:	119c                	addi	a5,sp,224
   10ff8:	40f607bb          	subw	a5,a2,a5
   10ffc:	ecbe                	sd	a5,88(sp)
   10ffe:	47e6                	lw	a5,88(sp)
   11000:	4705                	li	a4,1
   11002:	01478dbb          	addw	s11,a5,s4
   11006:	87ee                	mv	a5,s11
   11008:	01474563          	blt	a4,s4,11012 <_vfprintf_r+0x902>
   1100c:	00147713          	andi	a4,s0,1
   11010:	c701                	beqz	a4,11018 <_vfprintf_r+0x908>
   11012:	4762                	lw	a4,24(sp)
   11014:	00e78dbb          	addw	s11,a5,a4
   11018:	bff47413          	andi	s0,s0,-1025
   1101c:	2401                	sext.w	s0,s0
   1101e:	10046793          	ori	a5,s0,256
   11022:	fc3e                	sd	a5,56(sp)
   11024:	e402                	sd	zero,8(sp)
   11026:	4c01                	li	s8,0
   11028:	4d01                	li	s10,0
   1102a:	77e6                	ld	a5,120(sp)
   1102c:	c789                	beqz	a5,11036 <_vfprintf_r+0x926>
   1102e:	02d00713          	li	a4,45
   11032:	0ce107a3          	sb	a4,207(sp)
   11036:	7462                	ld	s0,56(sp)
   11038:	4701                	li	a4,0
   1103a:	bc2d                	j	10a74 <_vfprintf_r+0x364>
   1103c:	feb68fa3          	sb	a1,-1(a3)
   11040:	b719                	j	10f46 <_vfprintf_r+0x836>
   11042:	2705                	addiw	a4,a4,1
   11044:	0ff77713          	andi	a4,a4,255
   11048:	bf31                	j	10f64 <_vfprintf_r+0x854>
   1104a:	04600793          	li	a5,70
   1104e:	00fc0b63          	beq	s8,a5,11064 <_vfprintf_r+0x954>
   11052:	04500793          	li	a5,69
   11056:	8d6e                	mv	s10,s11
   11058:	00fc1463          	bne	s8,a5,11060 <_vfprintf_r+0x950>
   1105c:	001d8d1b          	addiw	s10,s11,1
   11060:	4689                	li	a3,2
   11062:	a019                	j	11068 <_vfprintf_r+0x958>
   11064:	8d6e                	mv	s10,s11
   11066:	468d                	li	a3,3
   11068:	09bc                	addi	a5,sp,216
   1106a:	85f6                	mv	a1,t4
   1106c:	0e810893          	addi	a7,sp,232
   11070:	0dc10813          	addi	a6,sp,220
   11074:	876a                	mv	a4,s10
   11076:	8652                	mv	a2,s4
   11078:	854e                	mv	a0,s3
   1107a:	e476                	sd	t4,8(sp)
   1107c:	64a020ef          	jal	ra,136c6 <_ldtoa_r>
   11080:	04700793          	li	a5,71
   11084:	84aa                	mv	s1,a0
   11086:	6ea2                	ld	t4,8(sp)
   11088:	00fc1563          	bne	s8,a5,11092 <_vfprintf_r+0x982>
   1108c:	00147793          	andi	a5,s0,1
   11090:	cbb1                	beqz	a5,110e4 <_vfprintf_r+0x9d4>
   11092:	04600713          	li	a4,70
   11096:	01a487b3          	add	a5,s1,s10
   1109a:	02ec1963          	bne	s8,a4,110cc <_vfprintf_r+0x9bc>
   1109e:	0004c683          	lbu	a3,0(s1)
   110a2:	03000713          	li	a4,48
   110a6:	02e69163          	bne	a3,a4,110c8 <_vfprintf_r+0x9b8>
   110aa:	8576                	mv	a0,t4
   110ac:	4601                	li	a2,0
   110ae:	4681                	li	a3,0
   110b0:	85d2                	mv	a1,s4
   110b2:	f4be                	sd	a5,104(sp)
   110b4:	e476                	sd	t4,8(sp)
   110b6:	081070ef          	jal	ra,18936 <__eqtf2>
   110ba:	6ea2                	ld	t4,8(sp)
   110bc:	77a6                	ld	a5,104(sp)
   110be:	c509                	beqz	a0,110c8 <_vfprintf_r+0x9b8>
   110c0:	4705                	li	a4,1
   110c2:	41a70d3b          	subw	s10,a4,s10
   110c6:	cdea                	sw	s10,216(sp)
   110c8:	476e                	lw	a4,216(sp)
   110ca:	97ba                	add	a5,a5,a4
   110cc:	4681                	li	a3,0
   110ce:	4601                	li	a2,0
   110d0:	8576                	mv	a0,t4
   110d2:	85d2                	mv	a1,s4
   110d4:	e43e                	sd	a5,8(sp)
   110d6:	061070ef          	jal	ra,18936 <__eqtf2>
   110da:	67a2                	ld	a5,8(sp)
   110dc:	03000693          	li	a3,48
   110e0:	e909                	bnez	a0,110f2 <_vfprintf_r+0x9e2>
   110e2:	f5be                	sd	a5,232(sp)
   110e4:	7a2e                	ld	s4,232(sp)
   110e6:	b549                	j	10f68 <_vfprintf_r+0x858>
   110e8:	00170613          	addi	a2,a4,1
   110ec:	f5b2                	sd	a2,232(sp)
   110ee:	00d70023          	sb	a3,0(a4)
   110f2:	772e                	ld	a4,232(sp)
   110f4:	fef76ae3          	bltu	a4,a5,110e8 <_vfprintf_r+0x9d8>
   110f8:	b7f5                	j	110e4 <_vfprintf_r+0x9d4>
   110fa:	04600713          	li	a4,70
   110fe:	e8ec12e3          	bne	s8,a4,10f82 <_vfprintf_r+0x872>
   11102:	05a05863          	blez	s10,11152 <_vfprintf_r+0xa42>
   11106:	000d9563          	bnez	s11,11110 <_vfprintf_r+0xa00>
   1110a:	00147713          	andi	a4,s0,1
   1110e:	cf59                	beqz	a4,111ac <_vfprintf_r+0xa9c>
   11110:	47e2                	lw	a5,24(sp)
   11112:	01a7873b          	addw	a4,a5,s10
   11116:	01b70dbb          	addw	s11,a4,s11
   1111a:	06600b13          	li	s6,102
   1111e:	a895                	j	11192 <_vfprintf_r+0xa82>
   11120:	8732                	mv	a4,a2
   11122:	b56d                	j	10fcc <_vfprintf_r+0x8bc>
   11124:	0705                	addi	a4,a4,1
   11126:	fff74783          	lbu	a5,-1(a4)
   1112a:	0605                	addi	a2,a2,1
   1112c:	fef60fa3          	sb	a5,-1(a2)
   11130:	b5c9                	j	10ff2 <_vfprintf_r+0x8e2>
   11132:	0e210713          	addi	a4,sp,226
   11136:	e599                	bnez	a1,11144 <_vfprintf_r+0xa34>
   11138:	03000793          	li	a5,48
   1113c:	0ef10123          	sb	a5,226(sp)
   11140:	0e310713          	addi	a4,sp,227
   11144:	0306879b          	addiw	a5,a3,48
   11148:	00170613          	addi	a2,a4,1
   1114c:	00f70023          	sb	a5,0(a4)
   11150:	b55d                	j	10ff6 <_vfprintf_r+0x8e6>
   11152:	000d9563          	bnez	s11,1115c <_vfprintf_r+0xa4c>
   11156:	00147713          	andi	a4,s0,1
   1115a:	cb39                	beqz	a4,111b0 <_vfprintf_r+0xaa0>
   1115c:	47e2                	lw	a5,24(sp)
   1115e:	0017871b          	addiw	a4,a5,1
   11162:	bf55                	j	11116 <_vfprintf_r+0xa06>
   11164:	014d4c63          	blt	s10,s4,1117c <_vfprintf_r+0xa6c>
   11168:	00147713          	andi	a4,s0,1
   1116c:	8dea                	mv	s11,s10
   1116e:	c701                	beqz	a4,11176 <_vfprintf_r+0xa66>
   11170:	47e2                	lw	a5,24(sp)
   11172:	01a78dbb          	addw	s11,a5,s10
   11176:	06700b13          	li	s6,103
   1117a:	a821                	j	11192 <_vfprintf_r+0xa82>
   1117c:	47e2                	lw	a5,24(sp)
   1117e:	06700b13          	li	s6,103
   11182:	01478dbb          	addw	s11,a5,s4
   11186:	01a04663          	bgtz	s10,11192 <_vfprintf_r+0xa82>
   1118a:	41ad8e3b          	subw	t3,s11,s10
   1118e:	001e0d9b          	addiw	s11,t3,1
   11192:	40047413          	andi	s0,s0,1024
   11196:	00040c1b          	sext.w	s8,s0
   1119a:	e402                	sd	zero,8(sp)
   1119c:	e80c07e3          	beqz	s8,1102a <_vfprintf_r+0x91a>
   111a0:	4c01                	li	s8,0
   111a2:	e9a054e3          	blez	s10,1102a <_vfprintf_r+0x91a>
   111a6:	0ff00693          	li	a3,255
   111aa:	a01d                	j	111d0 <_vfprintf_r+0xac0>
   111ac:	8dea                	mv	s11,s10
   111ae:	b7b5                	j	1111a <_vfprintf_r+0xa0a>
   111b0:	06600b13          	li	s6,102
   111b4:	4d85                	li	s11,1
   111b6:	bff1                	j	11192 <_vfprintf_r+0xa82>
   111b8:	2701                	sext.w	a4,a4
   111ba:	03a75063          	ble	s10,a4,111da <_vfprintf_r+0xaca>
   111be:	6782                	ld	a5,0(sp)
   111c0:	40ed0d3b          	subw	s10,s10,a4
   111c4:	0017c703          	lbu	a4,1(a5)
   111c8:	c315                	beqz	a4,111ec <_vfprintf_r+0xadc>
   111ca:	0785                	addi	a5,a5,1
   111cc:	2c05                	addiw	s8,s8,1
   111ce:	e03e                	sd	a5,0(sp)
   111d0:	6782                	ld	a5,0(sp)
   111d2:	0007c703          	lbu	a4,0(a5)
   111d6:	fed711e3          	bne	a4,a3,111b8 <_vfprintf_r+0xaa8>
   111da:	47a2                	lw	a5,8(sp)
   111dc:	00fc073b          	addw	a4,s8,a5
   111e0:	4786                	lw	a5,64(sp)
   111e2:	02f7073b          	mulw	a4,a4,a5
   111e6:	01b70dbb          	addw	s11,a4,s11
   111ea:	b581                	j	1102a <_vfprintf_r+0x91a>
   111ec:	47a2                	lw	a5,8(sp)
   111ee:	2785                	addiw	a5,a5,1
   111f0:	e43e                	sd	a5,8(sp)
   111f2:	bff9                	j	111d0 <_vfprintf_r+0xac0>
   111f4:	008b8713          	addi	a4,s7,8
   111f8:	f83a                	sd	a4,48(sp)
   111fa:	02047713          	andi	a4,s0,32
   111fe:	000bb783          	ld	a5,0(s7)
   11202:	c719                	beqz	a4,11210 <_vfprintf_r+0xb00>
   11204:	7722                	ld	a4,40(sp)
   11206:	e398                	sd	a4,0(a5)
   11208:	7bc2                	ld	s7,48(sp)
   1120a:	64c2                	ld	s1,16(sp)
   1120c:	e48ff06f          	j	10854 <_vfprintf_r+0x144>
   11210:	01047713          	andi	a4,s0,16
   11214:	fb65                	bnez	a4,11204 <_vfprintf_r+0xaf4>
   11216:	04047713          	andi	a4,s0,64
   1121a:	c711                	beqz	a4,11226 <_vfprintf_r+0xb16>
   1121c:	02815703          	lhu	a4,40(sp)
   11220:	00e79023          	sh	a4,0(a5)
   11224:	b7d5                	j	11208 <_vfprintf_r+0xaf8>
   11226:	20047413          	andi	s0,s0,512
   1122a:	c411                	beqz	s0,11236 <_vfprintf_r+0xb26>
   1122c:	02814703          	lbu	a4,40(sp)
   11230:	00e78023          	sb	a4,0(a5)
   11234:	bfd1                	j	11208 <_vfprintf_r+0xaf8>
   11236:	5722                	lw	a4,40(sp)
   11238:	c398                	sw	a4,0(a5)
   1123a:	b7f9                	j	11208 <_vfprintf_r+0xaf8>
   1123c:	01046413          	ori	s0,s0,16
   11240:	2401                	sext.w	s0,s0
   11242:	008b8793          	addi	a5,s7,8
   11246:	f83e                	sd	a5,48(sp)
   11248:	02047793          	andi	a5,s0,32
   1124c:	cb85                	beqz	a5,1127c <_vfprintf_r+0xb6c>
   1124e:	000bbb83          	ld	s7,0(s7)
   11252:	bff47413          	andi	s0,s0,-1025
   11256:	2401                	sext.w	s0,s0
   11258:	4781                	li	a5,0
   1125a:	0c0107a3          	sb	zero,207(sp)
   1125e:	577d                	li	a4,-1
   11260:	12ed8c63          	beq	s11,a4,11398 <_vfprintf_r+0xc88>
   11264:	8722                	mv	a4,s0
   11266:	f7f47413          	andi	s0,s0,-129
   1126a:	2401                	sext.w	s0,s0
   1126c:	120b9663          	bnez	s7,11398 <_vfprintf_r+0xc88>
   11270:	200d8463          	beqz	s11,11478 <_vfprintf_r+0xd68>
   11274:	4705                	li	a4,1
   11276:	12e79463          	bne	a5,a4,1139e <_vfprintf_r+0xc8e>
   1127a:	bc05                	j	10caa <_vfprintf_r+0x59a>
   1127c:	01047793          	andi	a5,s0,16
   11280:	f7f9                	bnez	a5,1124e <_vfprintf_r+0xb3e>
   11282:	04047793          	andi	a5,s0,64
   11286:	000bab83          	lw	s7,0(s7)
   1128a:	c789                	beqz	a5,11294 <_vfprintf_r+0xb84>
   1128c:	1bc2                	slli	s7,s7,0x30
   1128e:	030bdb93          	srli	s7,s7,0x30
   11292:	b7c1                	j	11252 <_vfprintf_r+0xb42>
   11294:	20047793          	andi	a5,s0,512
   11298:	c781                	beqz	a5,112a0 <_vfprintf_r+0xb90>
   1129a:	0ffbfb93          	andi	s7,s7,255
   1129e:	bf55                	j	11252 <_vfprintf_r+0xb42>
   112a0:	1b82                	slli	s7,s7,0x20
   112a2:	020bdb93          	srli	s7,s7,0x20
   112a6:	b775                	j	11252 <_vfprintf_r+0xb42>
   112a8:	008b8793          	addi	a5,s7,8
   112ac:	f83e                	sd	a5,48(sp)
   112ae:	77e1                	lui	a5,0xffff8
   112b0:	8307c793          	xori	a5,a5,-2000
   112b4:	0cf11823          	sh	a5,208(sp)
   112b8:	0001a7b7          	lui	a5,0x1a
   112bc:	13078793          	addi	a5,a5,304 # 1a130 <zeroes.4441+0x60>
   112c0:	00246413          	ori	s0,s0,2
   112c4:	f0be                	sd	a5,96(sp)
   112c6:	000bbb83          	ld	s7,0(s7)
   112ca:	2401                	sext.w	s0,s0
   112cc:	4789                	li	a5,2
   112ce:	07800b13          	li	s6,120
   112d2:	b761                	j	1125a <_vfprintf_r+0xb4a>
   112d4:	008b8793          	addi	a5,s7,8
   112d8:	f83e                	sd	a5,48(sp)
   112da:	0c0107a3          	sb	zero,207(sp)
   112de:	57fd                	li	a5,-1
   112e0:	000bb483          	ld	s1,0(s7)
   112e4:	00fd8e63          	beq	s11,a5,11300 <_vfprintf_r+0xbf0>
   112e8:	866e                	mv	a2,s11
   112ea:	4581                	li	a1,0
   112ec:	8526                	mv	a0,s1
   112ee:	410030ef          	jal	ra,146fe <memchr>
   112f2:	8baa                	mv	s7,a0
   112f4:	a40503e3          	beqz	a0,10d3a <_vfprintf_r+0x62a>
   112f8:	40950dbb          	subw	s11,a0,s1
   112fc:	4b81                	li	s7,0
   112fe:	bc35                	j	10d3a <_vfprintf_r+0x62a>
   11300:	8526                	mv	a0,s1
   11302:	bfcff0ef          	jal	ra,106fe <strlen>
   11306:	00050d9b          	sext.w	s11,a0
   1130a:	bfcd                	j	112fc <_vfprintf_r+0xbec>
   1130c:	01046413          	ori	s0,s0,16
   11310:	2401                	sext.w	s0,s0
   11312:	008b8793          	addi	a5,s7,8
   11316:	f83e                	sd	a5,48(sp)
   11318:	02047793          	andi	a5,s0,32
   1131c:	c789                	beqz	a5,11326 <_vfprintf_r+0xc16>
   1131e:	000bbb83          	ld	s7,0(s7)
   11322:	4785                	li	a5,1
   11324:	bf1d                	j	1125a <_vfprintf_r+0xb4a>
   11326:	01047793          	andi	a5,s0,16
   1132a:	fbf5                	bnez	a5,1131e <_vfprintf_r+0xc0e>
   1132c:	04047793          	andi	a5,s0,64
   11330:	000bab83          	lw	s7,0(s7)
   11334:	c789                	beqz	a5,1133e <_vfprintf_r+0xc2e>
   11336:	1bc2                	slli	s7,s7,0x30
   11338:	030bdb93          	srli	s7,s7,0x30
   1133c:	b7dd                	j	11322 <_vfprintf_r+0xc12>
   1133e:	20047793          	andi	a5,s0,512
   11342:	c781                	beqz	a5,1134a <_vfprintf_r+0xc3a>
   11344:	0ffbfb93          	andi	s7,s7,255
   11348:	bfe9                	j	11322 <_vfprintf_r+0xc12>
   1134a:	1b82                	slli	s7,s7,0x20
   1134c:	020bdb93          	srli	s7,s7,0x20
   11350:	bfc9                	j	11322 <_vfprintf_r+0xc12>
   11352:	0001a7b7          	lui	a5,0x1a
   11356:	13078793          	addi	a5,a5,304 # 1a130 <zeroes.4441+0x60>
   1135a:	d9eff06f          	j	108f8 <_vfprintf_r+0x1e8>
   1135e:	01047793          	andi	a5,s0,16
   11362:	da079363          	bnez	a5,10908 <_vfprintf_r+0x1f8>
   11366:	04047793          	andi	a5,s0,64
   1136a:	000bab83          	lw	s7,0(s7)
   1136e:	c791                	beqz	a5,1137a <_vfprintf_r+0xc6a>
   11370:	1bc2                	slli	s7,s7,0x30
   11372:	030bdb93          	srli	s7,s7,0x30
   11376:	d96ff06f          	j	1090c <_vfprintf_r+0x1fc>
   1137a:	20047793          	andi	a5,s0,512
   1137e:	c789                	beqz	a5,11388 <_vfprintf_r+0xc78>
   11380:	0ffbfb93          	andi	s7,s7,255
   11384:	d88ff06f          	j	1090c <_vfprintf_r+0x1fc>
   11388:	1b82                	slli	s7,s7,0x20
   1138a:	020bdb93          	srli	s7,s7,0x20
   1138e:	d7eff06f          	j	1090c <_vfprintf_r+0x1fc>
   11392:	8722                	mv	a4,s0
   11394:	4785                	li	a5,1
   11396:	bdc1                	j	11266 <_vfprintf_r+0xb56>
   11398:	4705                	li	a4,1
   1139a:	90e785e3          	beq	a5,a4,10ca4 <_vfprintf_r+0x594>
   1139e:	4709                	li	a4,2
   113a0:	0ae78d63          	beq	a5,a4,1145a <_vfprintf_r+0xd4a>
   113a4:	1afc                	addi	a5,sp,380
   113a6:	007bf713          	andi	a4,s7,7
   113aa:	03070713          	addi	a4,a4,48
   113ae:	fee78fa3          	sb	a4,-1(a5)
   113b2:	003bdb93          	srli	s7,s7,0x3
   113b6:	fff78493          	addi	s1,a5,-1
   113ba:	020b9863          	bnez	s7,113ea <_vfprintf_r+0xcda>
   113be:	00147693          	andi	a3,s0,1
   113c2:	ca89                	beqz	a3,113d4 <_vfprintf_r+0xcc4>
   113c4:	03000693          	li	a3,48
   113c8:	00d70663          	beq	a4,a3,113d4 <_vfprintf_r+0xcc4>
   113cc:	fed48fa3          	sb	a3,-1(s1)
   113d0:	ffe78493          	addi	s1,a5,-2
   113d4:	17c10e13          	addi	t3,sp,380
   113d8:	876e                	mv	a4,s11
   113da:	4b81                	li	s7,0
   113dc:	409e0dbb          	subw	s11,t3,s1
   113e0:	e402                	sd	zero,8(sp)
   113e2:	4c01                	li	s8,0
   113e4:	4d01                	li	s10,0
   113e6:	e8eff06f          	j	10a74 <_vfprintf_r+0x364>
   113ea:	87a6                	mv	a5,s1
   113ec:	bf6d                	j	113a6 <_vfprintf_r+0xc96>
   113ee:	40047c13          	andi	s8,s0,1024
   113f2:	4a01                	li	s4,0
   113f4:	1afc                	addi	a5,sp,380
   113f6:	4d29                	li	s10,10
   113f8:	2c01                	sext.w	s8,s8
   113fa:	0ff00693          	li	a3,255
   113fe:	4825                	li	a6,9
   11400:	03abf733          	remu	a4,s7,s10
   11404:	fff78493          	addi	s1,a5,-1
   11408:	2a05                	addiw	s4,s4,1
   1140a:	0307071b          	addiw	a4,a4,48
   1140e:	fee78fa3          	sb	a4,-1(a5)
   11412:	020c0e63          	beqz	s8,1144e <_vfprintf_r+0xd3e>
   11416:	6782                	ld	a5,0(sp)
   11418:	0007c783          	lbu	a5,0(a5)
   1141c:	02fa1963          	bne	s4,a5,1144e <_vfprintf_r+0xd3e>
   11420:	02d78763          	beq	a5,a3,1144e <_vfprintf_r+0xd3e>
   11424:	03787563          	bleu	s7,a6,1144e <_vfprintf_r+0xd3e>
   11428:	6786                	ld	a5,64(sp)
   1142a:	65c6                	ld	a1,80(sp)
   1142c:	fc42                	sd	a6,56(sp)
   1142e:	8c9d                	sub	s1,s1,a5
   11430:	863e                	mv	a2,a5
   11432:	8526                	mv	a0,s1
   11434:	e436                	sd	a3,8(sp)
   11436:	4b2040ef          	jal	ra,158e8 <strncpy>
   1143a:	6782                	ld	a5,0(sp)
   1143c:	4a01                	li	s4,0
   1143e:	66a2                	ld	a3,8(sp)
   11440:	0017c783          	lbu	a5,1(a5)
   11444:	7862                	ld	a6,56(sp)
   11446:	c781                	beqz	a5,1144e <_vfprintf_r+0xd3e>
   11448:	6782                	ld	a5,0(sp)
   1144a:	0785                	addi	a5,a5,1
   1144c:	e03e                	sd	a5,0(sp)
   1144e:	03abdbb3          	divu	s7,s7,s10
   11452:	f80b81e3          	beqz	s7,113d4 <_vfprintf_r+0xcc4>
   11456:	87a6                	mv	a5,s1
   11458:	b765                	j	11400 <_vfprintf_r+0xcf0>
   1145a:	1ae4                	addi	s1,sp,380
   1145c:	7706                	ld	a4,96(sp)
   1145e:	00fbf793          	andi	a5,s7,15
   11462:	14fd                	addi	s1,s1,-1
   11464:	97ba                	add	a5,a5,a4
   11466:	0007c783          	lbu	a5,0(a5)
   1146a:	004bdb93          	srli	s7,s7,0x4
   1146e:	00f48023          	sb	a5,0(s1)
   11472:	fe0b95e3          	bnez	s7,1145c <_vfprintf_r+0xd4c>
   11476:	bfb9                	j	113d4 <_vfprintf_r+0xcc4>
   11478:	1ae4                	addi	s1,sp,380
   1147a:	ffa9                	bnez	a5,113d4 <_vfprintf_r+0xcc4>
   1147c:	8b05                	andi	a4,a4,1
   1147e:	db39                	beqz	a4,113d4 <_vfprintf_r+0xcc4>
   11480:	03000793          	li	a5,48
   11484:	16f10da3          	sb	a5,379(sp)
   11488:	82bff06f          	j	10cb2 <_vfprintf_r+0x5a2>
   1148c:	020b02e3          	beqz	s6,11cb0 <_vfprintf_r+0x15a0>
   11490:	11610c23          	sb	s6,280(sp)
   11494:	0c0107a3          	sb	zero,207(sp)
   11498:	f85e                	sd	s7,48(sp)
   1149a:	dccff06f          	j	10a66 <_vfprintf_r+0x356>
   1149e:	0641                	addi	a2,a2,16
   114a0:	011cb423          	sd	a7,8(s9)
   114a4:	ea32                	sd	a2,272(sp)
   114a6:	10b12423          	sw	a1,264(sp)
   114aa:	02aed463          	ble	a0,t4,114d2 <_vfprintf_r+0xdc2>
   114ae:	0210                	addi	a2,sp,256
   114b0:	85ca                	mv	a1,s2
   114b2:	854e                	mv	a0,s3
   114b4:	fd76                	sd	t4,184(sp)
   114b6:	f942                	sd	a6,176(sp)
   114b8:	e546                	sd	a7,136(sp)
   114ba:	e13a                	sd	a4,128(sp)
   114bc:	fcb6                	sd	a3,120(sp)
   114be:	1d3050ef          	jal	ra,16e90 <__sprint_r>
   114c2:	7a051863          	bnez	a0,11c72 <_vfprintf_r+0x1562>
   114c6:	7eea                	ld	t4,184(sp)
   114c8:	784a                	ld	a6,176(sp)
   114ca:	68aa                	ld	a7,136(sp)
   114cc:	670a                	ld	a4,128(sp)
   114ce:	76e6                	ld	a3,120(sp)
   114d0:	8f56                	mv	t5,s5
   114d2:	36c1                	addiw	a3,a3,-16
   114d4:	8cfa                	mv	s9,t5
   114d6:	de8ff06f          	j	10abe <_vfprintf_r+0x3ae>
   114da:	0641                	addi	a2,a2,16
   114dc:	011cb423          	sd	a7,8(s9)
   114e0:	ea32                	sd	a2,272(sp)
   114e2:	10b12423          	sw	a1,264(sp)
   114e6:	02aed463          	ble	a0,t4,1150e <_vfprintf_r+0xdfe>
   114ea:	0210                	addi	a2,sp,256
   114ec:	85ca                	mv	a1,s2
   114ee:	854e                	mv	a0,s3
   114f0:	e576                	sd	t4,136(sp)
   114f2:	e142                	sd	a6,128(sp)
   114f4:	fcc6                	sd	a7,120(sp)
   114f6:	f8ba                	sd	a4,112(sp)
   114f8:	f4b6                	sd	a3,104(sp)
   114fa:	197050ef          	jal	ra,16e90 <__sprint_r>
   114fe:	76051a63          	bnez	a0,11c72 <_vfprintf_r+0x1562>
   11502:	6eaa                	ld	t4,136(sp)
   11504:	680a                	ld	a6,128(sp)
   11506:	78e6                	ld	a7,120(sp)
   11508:	7746                	ld	a4,112(sp)
   1150a:	76a6                	ld	a3,104(sp)
   1150c:	8f56                	mv	t5,s5
   1150e:	36c1                	addiw	a3,a3,-16
   11510:	8cfa                	mv	s9,t5
   11512:	e92ff06f          	j	10ba4 <_vfprintf_r+0x494>
   11516:	06c1                	addi	a3,a3,16
   11518:	011cb423          	sd	a7,8(s9)
   1151c:	ea36                	sd	a3,272(sp)
   1151e:	10c12423          	sw	a2,264(sp)
   11522:	02bed263          	ble	a1,t4,11546 <_vfprintf_r+0xe36>
   11526:	0210                	addi	a2,sp,256
   11528:	85ca                	mv	a1,s2
   1152a:	854e                	mv	a0,s3
   1152c:	e176                	sd	t4,128(sp)
   1152e:	fcc2                	sd	a6,120(sp)
   11530:	f8c6                	sd	a7,112(sp)
   11532:	f4ba                	sd	a4,104(sp)
   11534:	15d050ef          	jal	ra,16e90 <__sprint_r>
   11538:	72051d63          	bnez	a0,11c72 <_vfprintf_r+0x1562>
   1153c:	6e8a                	ld	t4,128(sp)
   1153e:	7866                	ld	a6,120(sp)
   11540:	78c6                	ld	a7,112(sp)
   11542:	7726                	ld	a4,104(sp)
   11544:	8556                	mv	a0,s5
   11546:	3741                	addiw	a4,a4,-16
   11548:	8caa                	mv	s9,a0
   1154a:	eaeff06f          	j	10bf8 <_vfprintf_r+0x4e8>
   1154e:	06500693          	li	a3,101
   11552:	5766df63          	ble	s6,a3,11ad0 <_vfprintf_r+0x13c0>
   11556:	754e                	ld	a0,240(sp)
   11558:	75ee                	ld	a1,248(sp)
   1155a:	4601                	li	a2,0
   1155c:	4681                	li	a3,0
   1155e:	f4ba                	sd	a4,104(sp)
   11560:	3d6070ef          	jal	ra,18936 <__eqtf2>
   11564:	7726                	ld	a4,104(sp)
   11566:	10051e63          	bnez	a0,11682 <_vfprintf_r+0xf72>
   1156a:	0001a7b7          	lui	a5,0x1a
   1156e:	16078793          	addi	a5,a5,352 # 1a160 <zeroes.4441+0x90>
   11572:	00fcb023          	sd	a5,0(s9)
   11576:	4785                	li	a5,1
   11578:	00fcb423          	sd	a5,8(s9)
   1157c:	10812783          	lw	a5,264(sp)
   11580:	0705                	addi	a4,a4,1
   11582:	ea3a                	sd	a4,272(sp)
   11584:	0017871b          	addiw	a4,a5,1
   11588:	10e12423          	sw	a4,264(sp)
   1158c:	479d                	li	a5,7
   1158e:	0cc1                	addi	s9,s9,16
   11590:	00e7da63          	ble	a4,a5,115a4 <_vfprintf_r+0xe94>
   11594:	0210                	addi	a2,sp,256
   11596:	85ca                	mv	a1,s2
   11598:	854e                	mv	a0,s3
   1159a:	0f7050ef          	jal	ra,16e90 <__sprint_r>
   1159e:	6c051a63          	bnez	a0,11c72 <_vfprintf_r+0x1562>
   115a2:	8cd6                	mv	s9,s5
   115a4:	47ee                	lw	a5,216(sp)
   115a6:	0147c563          	blt	a5,s4,115b0 <_vfprintf_r+0xea0>
   115aa:	00147793          	andi	a5,s0,1
   115ae:	cfa5                	beqz	a5,11626 <_vfprintf_r+0xf16>
   115b0:	67a6                	ld	a5,72(sp)
   115b2:	6762                	ld	a4,24(sp)
   115b4:	0cc1                	addi	s9,s9,16
   115b6:	fefcb823          	sd	a5,-16(s9)
   115ba:	67e2                	ld	a5,24(sp)
   115bc:	fefcbc23          	sd	a5,-8(s9)
   115c0:	67d2                	ld	a5,272(sp)
   115c2:	97ba                	add	a5,a5,a4
   115c4:	ea3e                	sd	a5,272(sp)
   115c6:	10812783          	lw	a5,264(sp)
   115ca:	0017871b          	addiw	a4,a5,1
   115ce:	10e12423          	sw	a4,264(sp)
   115d2:	479d                	li	a5,7
   115d4:	00e7da63          	ble	a4,a5,115e8 <_vfprintf_r+0xed8>
   115d8:	0210                	addi	a2,sp,256
   115da:	85ca                	mv	a1,s2
   115dc:	854e                	mv	a0,s3
   115de:	0b3050ef          	jal	ra,16e90 <__sprint_r>
   115e2:	68051863          	bnez	a0,11c72 <_vfprintf_r+0x1562>
   115e6:	8cd6                	mv	s9,s5
   115e8:	fffa049b          	addiw	s1,s4,-1
   115ec:	02905d63          	blez	s1,11626 <_vfprintf_r+0xf16>
   115f0:	6b69                	lui	s6,0x1a
   115f2:	4c41                	li	s8,16
   115f4:	0d0b0b13          	addi	s6,s6,208 # 1a0d0 <zeroes.4441>
   115f8:	4d1d                	li	s10,7
   115fa:	10812703          	lw	a4,264(sp)
   115fe:	016cb023          	sd	s6,0(s9)
   11602:	67d2                	ld	a5,272(sp)
   11604:	0017069b          	addiw	a3,a4,1
   11608:	8736                	mv	a4,a3
   1160a:	010c8613          	addi	a2,s9,16
   1160e:	049c4763          	blt	s8,s1,1165c <_vfprintf_r+0xf4c>
   11612:	009cb423          	sd	s1,8(s9)
   11616:	94be                	add	s1,s1,a5
   11618:	ea26                	sd	s1,272(sp)
   1161a:	10d12423          	sw	a3,264(sp)
   1161e:	479d                	li	a5,7
   11620:	8cb2                	mv	s9,a2
   11622:	e4d7c063          	blt	a5,a3,10c62 <_vfprintf_r+0x552>
   11626:	8811                	andi	s0,s0,4
   11628:	60041063          	bnez	s0,11c28 <_vfprintf_r+0x1518>
   1162c:	7702                	ld	a4,32(sp)
   1162e:	76e2                	ld	a3,56(sp)
   11630:	5782                	lw	a5,32(sp)
   11632:	00d75363          	ble	a3,a4,11638 <_vfprintf_r+0xf28>
   11636:	57e2                	lw	a5,56(sp)
   11638:	5722                	lw	a4,40(sp)
   1163a:	9fb9                	addw	a5,a5,a4
   1163c:	f43e                	sd	a5,40(sp)
   1163e:	67d2                	ld	a5,272(sp)
   11640:	cb81                	beqz	a5,11650 <_vfprintf_r+0xf40>
   11642:	0210                	addi	a2,sp,256
   11644:	85ca                	mv	a1,s2
   11646:	854e                	mv	a0,s3
   11648:	049050ef          	jal	ra,16e90 <__sprint_r>
   1164c:	62051363          	bnez	a0,11c72 <_vfprintf_r+0x1562>
   11650:	10012423          	sw	zero,264(sp)
   11654:	640b9963          	bnez	s7,11ca6 <_vfprintf_r+0x1596>
   11658:	8cd6                	mv	s9,s5
   1165a:	b67d                	j	11208 <_vfprintf_r+0xaf8>
   1165c:	07c1                	addi	a5,a5,16
   1165e:	018cb423          	sd	s8,8(s9)
   11662:	ea3e                	sd	a5,272(sp)
   11664:	10e12423          	sw	a4,264(sp)
   11668:	00dd5a63          	ble	a3,s10,1167c <_vfprintf_r+0xf6c>
   1166c:	0210                	addi	a2,sp,256
   1166e:	85ca                	mv	a1,s2
   11670:	854e                	mv	a0,s3
   11672:	01f050ef          	jal	ra,16e90 <__sprint_r>
   11676:	5e051e63          	bnez	a0,11c72 <_vfprintf_r+0x1562>
   1167a:	8656                	mv	a2,s5
   1167c:	34c1                	addiw	s1,s1,-16
   1167e:	8cb2                	mv	s9,a2
   11680:	bfad                	j	115fa <_vfprintf_r+0xeea>
   11682:	46ee                	lw	a3,216(sp)
   11684:	12d04163          	bgtz	a3,117a6 <_vfprintf_r+0x1096>
   11688:	0001a7b7          	lui	a5,0x1a
   1168c:	16078793          	addi	a5,a5,352 # 1a160 <zeroes.4441+0x90>
   11690:	00fcb023          	sd	a5,0(s9)
   11694:	4785                	li	a5,1
   11696:	00fcb423          	sd	a5,8(s9)
   1169a:	10812783          	lw	a5,264(sp)
   1169e:	0705                	addi	a4,a4,1
   116a0:	ea3a                	sd	a4,272(sp)
   116a2:	0017871b          	addiw	a4,a5,1
   116a6:	10e12423          	sw	a4,264(sp)
   116aa:	479d                	li	a5,7
   116ac:	0cc1                	addi	s9,s9,16
   116ae:	00e7da63          	ble	a4,a5,116c2 <_vfprintf_r+0xfb2>
   116b2:	0210                	addi	a2,sp,256
   116b4:	85ca                	mv	a1,s2
   116b6:	854e                	mv	a0,s3
   116b8:	7d8050ef          	jal	ra,16e90 <__sprint_r>
   116bc:	5a051b63          	bnez	a0,11c72 <_vfprintf_r+0x1562>
   116c0:	8cd6                	mv	s9,s5
   116c2:	47ee                	lw	a5,216(sp)
   116c4:	e791                	bnez	a5,116d0 <_vfprintf_r+0xfc0>
   116c6:	000a1563          	bnez	s4,116d0 <_vfprintf_r+0xfc0>
   116ca:	00147793          	andi	a5,s0,1
   116ce:	dfa1                	beqz	a5,11626 <_vfprintf_r+0xf16>
   116d0:	67a6                	ld	a5,72(sp)
   116d2:	6762                	ld	a4,24(sp)
   116d4:	010c8313          	addi	t1,s9,16
   116d8:	00fcb023          	sd	a5,0(s9)
   116dc:	67e2                	ld	a5,24(sp)
   116de:	00fcb423          	sd	a5,8(s9)
   116e2:	67d2                	ld	a5,272(sp)
   116e4:	97ba                	add	a5,a5,a4
   116e6:	ea3e                	sd	a5,272(sp)
   116e8:	10812783          	lw	a5,264(sp)
   116ec:	0017871b          	addiw	a4,a5,1
   116f0:	10e12423          	sw	a4,264(sp)
   116f4:	479d                	li	a5,7
   116f6:	00e7da63          	ble	a4,a5,1170a <_vfprintf_r+0xffa>
   116fa:	0210                	addi	a2,sp,256
   116fc:	85ca                	mv	a1,s2
   116fe:	854e                	mv	a0,s3
   11700:	790050ef          	jal	ra,16e90 <__sprint_r>
   11704:	56051763          	bnez	a0,11c72 <_vfprintf_r+0x1562>
   11708:	8356                	mv	t1,s5
   1170a:	4b6e                	lw	s6,216(sp)
   1170c:	040b5663          	bgez	s6,11758 <_vfprintf_r+0x1048>
   11710:	6c69                	lui	s8,0x1a
   11712:	41600b3b          	negw	s6,s6
   11716:	879a                	mv	a5,t1
   11718:	4d41                	li	s10,16
   1171a:	0d0c0c13          	addi	s8,s8,208 # 1a0d0 <zeroes.4441>
   1171e:	4c9d                	li	s9,7
   11720:	10812683          	lw	a3,264(sp)
   11724:	0187b023          	sd	s8,0(a5)
   11728:	6752                	ld	a4,272(sp)
   1172a:	0016861b          	addiw	a2,a3,1
   1172e:	86b2                	mv	a3,a2
   11730:	0341                	addi	t1,t1,16
   11732:	056d4763          	blt	s10,s6,11780 <_vfprintf_r+0x1070>
   11736:	0167b423          	sd	s6,8(a5)
   1173a:	9b3a                	add	s6,s6,a4
   1173c:	ea5a                	sd	s6,272(sp)
   1173e:	10c12423          	sw	a2,264(sp)
   11742:	479d                	li	a5,7
   11744:	00c7da63          	ble	a2,a5,11758 <_vfprintf_r+0x1048>
   11748:	0210                	addi	a2,sp,256
   1174a:	85ca                	mv	a1,s2
   1174c:	854e                	mv	a0,s3
   1174e:	742050ef          	jal	ra,16e90 <__sprint_r>
   11752:	52051063          	bnez	a0,11c72 <_vfprintf_r+0x1562>
   11756:	8356                	mv	t1,s5
   11758:	67d2                	ld	a5,272(sp)
   1175a:	00933023          	sd	s1,0(t1) # 0 <_start-0x100b0>
   1175e:	01433423          	sd	s4,8(t1)
   11762:	97d2                	add	a5,a5,s4
   11764:	ea3e                	sd	a5,272(sp)
   11766:	10812783          	lw	a5,264(sp)
   1176a:	01030c93          	addi	s9,t1,16
   1176e:	0017871b          	addiw	a4,a5,1
   11772:	10e12423          	sw	a4,264(sp)
   11776:	479d                	li	a5,7
   11778:	eae7d7e3          	ble	a4,a5,11626 <_vfprintf_r+0xf16>
   1177c:	ce6ff06f          	j	10c62 <_vfprintf_r+0x552>
   11780:	0741                	addi	a4,a4,16
   11782:	01a7b423          	sd	s10,8(a5)
   11786:	ea3a                	sd	a4,272(sp)
   11788:	10d12423          	sw	a3,264(sp)
   1178c:	00ccda63          	ble	a2,s9,117a0 <_vfprintf_r+0x1090>
   11790:	0210                	addi	a2,sp,256
   11792:	85ca                	mv	a1,s2
   11794:	854e                	mv	a0,s3
   11796:	6fa050ef          	jal	ra,16e90 <__sprint_r>
   1179a:	4c051c63          	bnez	a0,11c72 <_vfprintf_r+0x1562>
   1179e:	8356                	mv	t1,s5
   117a0:	3b41                	addiw	s6,s6,-16
   117a2:	879a                	mv	a5,t1
   117a4:	bfb5                	j	11720 <_vfprintf_r+0x1010>
   117a6:	000d0b1b          	sext.w	s6,s10
   117aa:	01aa5463          	ble	s10,s4,117b2 <_vfprintf_r+0x10a2>
   117ae:	000a0b1b          	sext.w	s6,s4
   117b2:	03605a63          	blez	s6,117e6 <_vfprintf_r+0x10d6>
   117b6:	975a                	add	a4,a4,s6
   117b8:	ea3a                	sd	a4,272(sp)
   117ba:	10812703          	lw	a4,264(sp)
   117be:	009cb023          	sd	s1,0(s9)
   117c2:	016cb423          	sd	s6,8(s9)
   117c6:	0017069b          	addiw	a3,a4,1
   117ca:	10d12423          	sw	a3,264(sp)
   117ce:	471d                	li	a4,7
   117d0:	0cc1                	addi	s9,s9,16
   117d2:	00d75a63          	ble	a3,a4,117e6 <_vfprintf_r+0x10d6>
   117d6:	0210                	addi	a2,sp,256
   117d8:	85ca                	mv	a1,s2
   117da:	854e                	mv	a0,s3
   117dc:	6b4050ef          	jal	ra,16e90 <__sprint_r>
   117e0:	48051963          	bnez	a0,11c72 <_vfprintf_r+0x1562>
   117e4:	8cd6                	mv	s9,s5
   117e6:	875a                	mv	a4,s6
   117e8:	000b5363          	bgez	s6,117ee <_vfprintf_r+0x10de>
   117ec:	4701                	li	a4,0
   117ee:	40ed0b3b          	subw	s6,s10,a4
   117f2:	05605563          	blez	s6,1183c <_vfprintf_r+0x112c>
   117f6:	66e9                	lui	a3,0x1a
   117f8:	4841                	li	a6,16
   117fa:	0d068d93          	addi	s11,a3,208 # 1a0d0 <zeroes.4441>
   117fe:	489d                	li	a7,7
   11800:	10812603          	lw	a2,264(sp)
   11804:	01bcb023          	sd	s11,0(s9)
   11808:	6752                	ld	a4,272(sp)
   1180a:	0016059b          	addiw	a1,a2,1
   1180e:	862e                	mv	a2,a1
   11810:	010c8513          	addi	a0,s9,16
   11814:	15684263          	blt	a6,s6,11958 <_vfprintf_r+0x1248>
   11818:	016cb423          	sd	s6,8(s9)
   1181c:	9b3a                	add	s6,s6,a4
   1181e:	ea5a                	sd	s6,272(sp)
   11820:	10b12423          	sw	a1,264(sp)
   11824:	471d                	li	a4,7
   11826:	8caa                	mv	s9,a0
   11828:	00b75a63          	ble	a1,a4,1183c <_vfprintf_r+0x112c>
   1182c:	0210                	addi	a2,sp,256
   1182e:	85ca                	mv	a1,s2
   11830:	854e                	mv	a0,s3
   11832:	65e050ef          	jal	ra,16e90 <__sprint_r>
   11836:	42051e63          	bnez	a0,11c72 <_vfprintf_r+0x1562>
   1183a:	8cd6                	mv	s9,s5
   1183c:	40047793          	andi	a5,s0,1024
   11840:	01a48b33          	add	s6,s1,s10
   11844:	c39d                	beqz	a5,1186a <_vfprintf_r+0x115a>
   11846:	014487b3          	add	a5,s1,s4
   1184a:	f4be                	sd	a5,104(sp)
   1184c:	67e9                	lui	a5,0x1a
   1184e:	0d078793          	addi	a5,a5,208 # 1a0d0 <zeroes.4441>
   11852:	4d9d                	li	s11,7
   11854:	8d3e                	mv	s10,a5
   11856:	67a2                	ld	a5,8(sp)
   11858:	120c1763          	bnez	s8,11986 <_vfprintf_r+0x1276>
   1185c:	12079663          	bnez	a5,11988 <_vfprintf_r+0x1278>
   11860:	014487b3          	add	a5,s1,s4
   11864:	0167f363          	bleu	s6,a5,1186a <_vfprintf_r+0x115a>
   11868:	8b3e                	mv	s6,a5
   1186a:	47ee                	lw	a5,216(sp)
   1186c:	0147c563          	blt	a5,s4,11876 <_vfprintf_r+0x1166>
   11870:	00147793          	andi	a5,s0,1
   11874:	cf8d                	beqz	a5,118ae <_vfprintf_r+0x119e>
   11876:	67a6                	ld	a5,72(sp)
   11878:	6762                	ld	a4,24(sp)
   1187a:	0cc1                	addi	s9,s9,16
   1187c:	fefcb823          	sd	a5,-16(s9)
   11880:	67e2                	ld	a5,24(sp)
   11882:	fefcbc23          	sd	a5,-8(s9)
   11886:	67d2                	ld	a5,272(sp)
   11888:	97ba                	add	a5,a5,a4
   1188a:	ea3e                	sd	a5,272(sp)
   1188c:	10812783          	lw	a5,264(sp)
   11890:	0017871b          	addiw	a4,a5,1
   11894:	10e12423          	sw	a4,264(sp)
   11898:	479d                	li	a5,7
   1189a:	00e7da63          	ble	a4,a5,118ae <_vfprintf_r+0x119e>
   1189e:	0210                	addi	a2,sp,256
   118a0:	85ca                	mv	a1,s2
   118a2:	854e                	mv	a0,s3
   118a4:	5ec050ef          	jal	ra,16e90 <__sprint_r>
   118a8:	3c051563          	bnez	a0,11c72 <_vfprintf_r+0x1562>
   118ac:	8cd6                	mv	s9,s5
   118ae:	4c6e                	lw	s8,216(sp)
   118b0:	94d2                	add	s1,s1,s4
   118b2:	416484bb          	subw	s1,s1,s6
   118b6:	418a07bb          	subw	a5,s4,s8
   118ba:	8c3e                	mv	s8,a5
   118bc:	00f4d463          	ble	a5,s1,118c4 <_vfprintf_r+0x11b4>
   118c0:	00048c1b          	sext.w	s8,s1
   118c4:	03805b63          	blez	s8,118fa <_vfprintf_r+0x11ea>
   118c8:	67d2                	ld	a5,272(sp)
   118ca:	016cb023          	sd	s6,0(s9)
   118ce:	018cb423          	sd	s8,8(s9)
   118d2:	97e2                	add	a5,a5,s8
   118d4:	ea3e                	sd	a5,272(sp)
   118d6:	10812783          	lw	a5,264(sp)
   118da:	0cc1                	addi	s9,s9,16
   118dc:	0017871b          	addiw	a4,a5,1
   118e0:	10e12423          	sw	a4,264(sp)
   118e4:	479d                	li	a5,7
   118e6:	00e7da63          	ble	a4,a5,118fa <_vfprintf_r+0x11ea>
   118ea:	0210                	addi	a2,sp,256
   118ec:	85ca                	mv	a1,s2
   118ee:	854e                	mv	a0,s3
   118f0:	5a0050ef          	jal	ra,16e90 <__sprint_r>
   118f4:	36051f63          	bnez	a0,11c72 <_vfprintf_r+0x1562>
   118f8:	8cd6                	mv	s9,s5
   118fa:	87e2                	mv	a5,s8
   118fc:	000c5363          	bgez	s8,11902 <_vfprintf_r+0x11f2>
   11900:	4781                	li	a5,0
   11902:	44ee                	lw	s1,216(sp)
   11904:	409a04bb          	subw	s1,s4,s1
   11908:	9c9d                	subw	s1,s1,a5
   1190a:	d0905ee3          	blez	s1,11626 <_vfprintf_r+0xf16>
   1190e:	6b69                	lui	s6,0x1a
   11910:	4c41                	li	s8,16
   11912:	0d0b0b13          	addi	s6,s6,208 # 1a0d0 <zeroes.4441>
   11916:	4d1d                	li	s10,7
   11918:	10812703          	lw	a4,264(sp)
   1191c:	016cb023          	sd	s6,0(s9)
   11920:	67d2                	ld	a5,272(sp)
   11922:	0017069b          	addiw	a3,a4,1
   11926:	8736                	mv	a4,a3
   11928:	010c8613          	addi	a2,s9,16
   1192c:	169c4f63          	blt	s8,s1,11aaa <_vfprintf_r+0x139a>
   11930:	009cb423          	sd	s1,8(s9)
   11934:	94be                	add	s1,s1,a5
   11936:	ea26                	sd	s1,272(sp)
   11938:	10d12423          	sw	a3,264(sp)
   1193c:	479d                	li	a5,7
   1193e:	8cb2                	mv	s9,a2
   11940:	ced7d3e3          	ble	a3,a5,11626 <_vfprintf_r+0xf16>
   11944:	0210                	addi	a2,sp,256
   11946:	85ca                	mv	a1,s2
   11948:	854e                	mv	a0,s3
   1194a:	546050ef          	jal	ra,16e90 <__sprint_r>
   1194e:	32051263          	bnez	a0,11c72 <_vfprintf_r+0x1562>
   11952:	18010c93          	addi	s9,sp,384
   11956:	b9c1                	j	11626 <_vfprintf_r+0xf16>
   11958:	0741                	addi	a4,a4,16
   1195a:	010cb423          	sd	a6,8(s9)
   1195e:	ea3a                	sd	a4,272(sp)
   11960:	10c12423          	sw	a2,264(sp)
   11964:	00b8de63          	ble	a1,a7,11980 <_vfprintf_r+0x1270>
   11968:	0210                	addi	a2,sp,256
   1196a:	85ca                	mv	a1,s2
   1196c:	854e                	mv	a0,s3
   1196e:	f8c6                	sd	a7,112(sp)
   11970:	f4c2                	sd	a6,104(sp)
   11972:	51e050ef          	jal	ra,16e90 <__sprint_r>
   11976:	2e051e63          	bnez	a0,11c72 <_vfprintf_r+0x1562>
   1197a:	78c6                	ld	a7,112(sp)
   1197c:	7826                	ld	a6,104(sp)
   1197e:	8556                	mv	a0,s5
   11980:	3b41                	addiw	s6,s6,-16
   11982:	8caa                	mv	s9,a0
   11984:	bdb5                	j	11800 <_vfprintf_r+0x10f0>
   11986:	c7d5                	beqz	a5,11a32 <_vfprintf_r+0x1322>
   11988:	47a2                	lw	a5,8(sp)
   1198a:	37fd                	addiw	a5,a5,-1
   1198c:	e43e                	sd	a5,8(sp)
   1198e:	67c6                	ld	a5,80(sp)
   11990:	6706                	ld	a4,64(sp)
   11992:	0cc1                	addi	s9,s9,16
   11994:	fefcb823          	sd	a5,-16(s9)
   11998:	6786                	ld	a5,64(sp)
   1199a:	fefcbc23          	sd	a5,-8(s9)
   1199e:	67d2                	ld	a5,272(sp)
   119a0:	97ba                	add	a5,a5,a4
   119a2:	ea3e                	sd	a5,272(sp)
   119a4:	10812783          	lw	a5,264(sp)
   119a8:	0017871b          	addiw	a4,a5,1
   119ac:	10e12423          	sw	a4,264(sp)
   119b0:	00edda63          	ble	a4,s11,119c4 <_vfprintf_r+0x12b4>
   119b4:	0210                	addi	a2,sp,256
   119b6:	85ca                	mv	a1,s2
   119b8:	854e                	mv	a0,s3
   119ba:	4d6050ef          	jal	ra,16e90 <__sprint_r>
   119be:	2a051a63          	bnez	a0,11c72 <_vfprintf_r+0x1562>
   119c2:	8cd6                	mv	s9,s5
   119c4:	6702                	ld	a4,0(sp)
   119c6:	57a6                	lw	a5,104(sp)
   119c8:	00074703          	lbu	a4,0(a4)
   119cc:	416787bb          	subw	a5,a5,s6
   119d0:	00e7d463          	ble	a4,a5,119d8 <_vfprintf_r+0x12c8>
   119d4:	0007871b          	sext.w	a4,a5
   119d8:	02e05d63          	blez	a4,11a12 <_vfprintf_r+0x1302>
   119dc:	67d2                	ld	a5,272(sp)
   119de:	016cb023          	sd	s6,0(s9)
   119e2:	00ecb423          	sd	a4,8(s9)
   119e6:	97ba                	add	a5,a5,a4
   119e8:	ea3e                	sd	a5,272(sp)
   119ea:	10812783          	lw	a5,264(sp)
   119ee:	0cc1                	addi	s9,s9,16
   119f0:	0017869b          	addiw	a3,a5,1
   119f4:	10d12423          	sw	a3,264(sp)
   119f8:	00dddd63          	ble	a3,s11,11a12 <_vfprintf_r+0x1302>
   119fc:	0210                	addi	a2,sp,256
   119fe:	85ca                	mv	a1,s2
   11a00:	854e                	mv	a0,s3
   11a02:	f8ba                	sd	a4,112(sp)
   11a04:	48c050ef          	jal	ra,16e90 <__sprint_r>
   11a08:	26051563          	bnez	a0,11c72 <_vfprintf_r+0x1562>
   11a0c:	7746                	ld	a4,112(sp)
   11a0e:	18010c93          	addi	s9,sp,384
   11a12:	86ba                	mv	a3,a4
   11a14:	00075363          	bgez	a4,11a1a <_vfprintf_r+0x130a>
   11a18:	4681                	li	a3,0
   11a1a:	6782                	ld	a5,0(sp)
   11a1c:	4841                	li	a6,16
   11a1e:	0007c783          	lbu	a5,0(a5)
   11a22:	9f95                	subw	a5,a5,a3
   11a24:	04f04463          	bgtz	a5,11a6c <_vfprintf_r+0x135c>
   11a28:	6782                	ld	a5,0(sp)
   11a2a:	0007c783          	lbu	a5,0(a5)
   11a2e:	9b3e                	add	s6,s6,a5
   11a30:	b51d                	j	11856 <_vfprintf_r+0x1146>
   11a32:	6782                	ld	a5,0(sp)
   11a34:	3c7d                	addiw	s8,s8,-1
   11a36:	17fd                	addi	a5,a5,-1
   11a38:	e03e                	sd	a5,0(sp)
   11a3a:	bf91                	j	1198e <_vfprintf_r+0x127e>
   11a3c:	0741                	addi	a4,a4,16
   11a3e:	01acb023          	sd	s10,0(s9)
   11a42:	010cb423          	sd	a6,8(s9)
   11a46:	ea3a                	sd	a4,272(sp)
   11a48:	10d12423          	sw	a3,264(sp)
   11a4c:	00cdde63          	ble	a2,s11,11a68 <_vfprintf_r+0x1358>
   11a50:	0210                	addi	a2,sp,256
   11a52:	85ca                	mv	a1,s2
   11a54:	854e                	mv	a0,s3
   11a56:	fcc2                	sd	a6,120(sp)
   11a58:	f8be                	sd	a5,112(sp)
   11a5a:	436050ef          	jal	ra,16e90 <__sprint_r>
   11a5e:	20051a63          	bnez	a0,11c72 <_vfprintf_r+0x1562>
   11a62:	7866                	ld	a6,120(sp)
   11a64:	77c6                	ld	a5,112(sp)
   11a66:	030c                	addi	a1,sp,384
   11a68:	37c1                	addiw	a5,a5,-16
   11a6a:	8cae                	mv	s9,a1
   11a6c:	10812683          	lw	a3,264(sp)
   11a70:	6752                	ld	a4,272(sp)
   11a72:	010c8593          	addi	a1,s9,16
   11a76:	0016861b          	addiw	a2,a3,1
   11a7a:	86b2                	mv	a3,a2
   11a7c:	fcf840e3          	blt	a6,a5,11a3c <_vfprintf_r+0x132c>
   11a80:	00fcb423          	sd	a5,8(s9)
   11a84:	97ba                	add	a5,a5,a4
   11a86:	01acb023          	sd	s10,0(s9)
   11a8a:	ea3e                	sd	a5,272(sp)
   11a8c:	10c12423          	sw	a2,264(sp)
   11a90:	8cae                	mv	s9,a1
   11a92:	f8cddbe3          	ble	a2,s11,11a28 <_vfprintf_r+0x1318>
   11a96:	0210                	addi	a2,sp,256
   11a98:	85ca                	mv	a1,s2
   11a9a:	854e                	mv	a0,s3
   11a9c:	3f4050ef          	jal	ra,16e90 <__sprint_r>
   11aa0:	1c051963          	bnez	a0,11c72 <_vfprintf_r+0x1562>
   11aa4:	18010c93          	addi	s9,sp,384
   11aa8:	b741                	j	11a28 <_vfprintf_r+0x1318>
   11aaa:	07c1                	addi	a5,a5,16
   11aac:	018cb423          	sd	s8,8(s9)
   11ab0:	ea3e                	sd	a5,272(sp)
   11ab2:	10e12423          	sw	a4,264(sp)
   11ab6:	00dd5a63          	ble	a3,s10,11aca <_vfprintf_r+0x13ba>
   11aba:	0210                	addi	a2,sp,256
   11abc:	85ca                	mv	a1,s2
   11abe:	854e                	mv	a0,s3
   11ac0:	3d0050ef          	jal	ra,16e90 <__sprint_r>
   11ac4:	1a051763          	bnez	a0,11c72 <_vfprintf_r+0x1562>
   11ac8:	0310                	addi	a2,sp,384
   11aca:	34c1                	addiw	s1,s1,-16
   11acc:	8cb2                	mv	s9,a2
   11ace:	b5a9                	j	11918 <_vfprintf_r+0x1208>
   11ad0:	10812783          	lw	a5,264(sp)
   11ad4:	4605                	li	a2,1
   11ad6:	009cb023          	sd	s1,0(s9)
   11ada:	0017869b          	addiw	a3,a5,1
   11ade:	0705                	addi	a4,a4,1
   11ae0:	87b6                	mv	a5,a3
   11ae2:	010c8c13          	addi	s8,s9,16
   11ae6:	01464663          	blt	a2,s4,11af2 <_vfprintf_r+0x13e2>
   11aea:	00147593          	andi	a1,s0,1
   11aee:	12058663          	beqz	a1,11c1a <_vfprintf_r+0x150a>
   11af2:	4605                	li	a2,1
   11af4:	10f12423          	sw	a5,264(sp)
   11af8:	00ccb423          	sd	a2,8(s9)
   11afc:	ea3a                	sd	a4,272(sp)
   11afe:	479d                	li	a5,7
   11b00:	00d7da63          	ble	a3,a5,11b14 <_vfprintf_r+0x1404>
   11b04:	0210                	addi	a2,sp,256
   11b06:	85ca                	mv	a1,s2
   11b08:	854e                	mv	a0,s3
   11b0a:	386050ef          	jal	ra,16e90 <__sprint_r>
   11b0e:	16051263          	bnez	a0,11c72 <_vfprintf_r+0x1562>
   11b12:	8c56                	mv	s8,s5
   11b14:	67a6                	ld	a5,72(sp)
   11b16:	6762                	ld	a4,24(sp)
   11b18:	0c41                	addi	s8,s8,16
   11b1a:	fefc3823          	sd	a5,-16(s8)
   11b1e:	67e2                	ld	a5,24(sp)
   11b20:	fefc3c23          	sd	a5,-8(s8)
   11b24:	67d2                	ld	a5,272(sp)
   11b26:	97ba                	add	a5,a5,a4
   11b28:	ea3e                	sd	a5,272(sp)
   11b2a:	10812783          	lw	a5,264(sp)
   11b2e:	0017871b          	addiw	a4,a5,1
   11b32:	10e12423          	sw	a4,264(sp)
   11b36:	479d                	li	a5,7
   11b38:	00e7da63          	ble	a4,a5,11b4c <_vfprintf_r+0x143c>
   11b3c:	0210                	addi	a2,sp,256
   11b3e:	85ca                	mv	a1,s2
   11b40:	854e                	mv	a0,s3
   11b42:	34e050ef          	jal	ra,16e90 <__sprint_r>
   11b46:	12051663          	bnez	a0,11c72 <_vfprintf_r+0x1562>
   11b4a:	8c56                	mv	s8,s5
   11b4c:	754e                	ld	a0,240(sp)
   11b4e:	75ee                	ld	a1,248(sp)
   11b50:	4601                	li	a2,0
   11b52:	4681                	li	a3,0
   11b54:	fffa0b1b          	addiw	s6,s4,-1
   11b58:	5df060ef          	jal	ra,18936 <__eqtf2>
   11b5c:	c12d                	beqz	a0,11bbe <_vfprintf_r+0x14ae>
   11b5e:	10812703          	lw	a4,264(sp)
   11b62:	67d2                	ld	a5,272(sp)
   11b64:	0485                	addi	s1,s1,1
   11b66:	0017069b          	addiw	a3,a4,1
   11b6a:	97da                	add	a5,a5,s6
   11b6c:	009c3023          	sd	s1,0(s8)
   11b70:	016c3423          	sd	s6,8(s8)
   11b74:	ea3e                	sd	a5,272(sp)
   11b76:	10d12423          	sw	a3,264(sp)
   11b7a:	479d                	li	a5,7
   11b7c:	0c41                	addi	s8,s8,16
   11b7e:	00d7d963          	ble	a3,a5,11b90 <_vfprintf_r+0x1480>
   11b82:	0210                	addi	a2,sp,256
   11b84:	85ca                	mv	a1,s2
   11b86:	854e                	mv	a0,s3
   11b88:	308050ef          	jal	ra,16e90 <__sprint_r>
   11b8c:	e17d                	bnez	a0,11c72 <_vfprintf_r+0x1562>
   11b8e:	8c56                	mv	s8,s5
   11b90:	119c                	addi	a5,sp,224
   11b92:	00fc3023          	sd	a5,0(s8)
   11b96:	67e6                	ld	a5,88(sp)
   11b98:	6766                	ld	a4,88(sp)
   11b9a:	010c0c93          	addi	s9,s8,16
   11b9e:	00fc3423          	sd	a5,8(s8)
   11ba2:	67d2                	ld	a5,272(sp)
   11ba4:	97ba                	add	a5,a5,a4
   11ba6:	ea3e                	sd	a5,272(sp)
   11ba8:	10812783          	lw	a5,264(sp)
   11bac:	0017871b          	addiw	a4,a5,1
   11bb0:	10e12423          	sw	a4,264(sp)
   11bb4:	479d                	li	a5,7
   11bb6:	a6e7d8e3          	ble	a4,a5,11626 <_vfprintf_r+0xf16>
   11bba:	8a8ff06f          	j	10c62 <_vfprintf_r+0x552>
   11bbe:	fd6059e3          	blez	s6,11b90 <_vfprintf_r+0x1480>
   11bc2:	64e9                	lui	s1,0x1a
   11bc4:	4d41                	li	s10,16
   11bc6:	0d048493          	addi	s1,s1,208 # 1a0d0 <zeroes.4441>
   11bca:	4c9d                	li	s9,7
   11bcc:	10812703          	lw	a4,264(sp)
   11bd0:	009c3023          	sd	s1,0(s8)
   11bd4:	67d2                	ld	a5,272(sp)
   11bd6:	0017069b          	addiw	a3,a4,1
   11bda:	8736                	mv	a4,a3
   11bdc:	010c0613          	addi	a2,s8,16
   11be0:	016d4b63          	blt	s10,s6,11bf6 <_vfprintf_r+0x14e6>
   11be4:	97da                	add	a5,a5,s6
   11be6:	016c3423          	sd	s6,8(s8)
   11bea:	ea3e                	sd	a5,272(sp)
   11bec:	10d12423          	sw	a3,264(sp)
   11bf0:	479d                	li	a5,7
   11bf2:	8c32                	mv	s8,a2
   11bf4:	b769                	j	11b7e <_vfprintf_r+0x146e>
   11bf6:	07c1                	addi	a5,a5,16
   11bf8:	01ac3423          	sd	s10,8(s8)
   11bfc:	ea3e                	sd	a5,272(sp)
   11bfe:	10e12423          	sw	a4,264(sp)
   11c02:	00dcd963          	ble	a3,s9,11c14 <_vfprintf_r+0x1504>
   11c06:	0210                	addi	a2,sp,256
   11c08:	85ca                	mv	a1,s2
   11c0a:	854e                	mv	a0,s3
   11c0c:	284050ef          	jal	ra,16e90 <__sprint_r>
   11c10:	e12d                	bnez	a0,11c72 <_vfprintf_r+0x1562>
   11c12:	8656                	mv	a2,s5
   11c14:	3b41                	addiw	s6,s6,-16
   11c16:	8c32                	mv	s8,a2
   11c18:	bf55                	j	11bcc <_vfprintf_r+0x14bc>
   11c1a:	00ccb423          	sd	a2,8(s9)
   11c1e:	ea3a                	sd	a4,272(sp)
   11c20:	10d12423          	sw	a3,264(sp)
   11c24:	479d                	li	a5,7
   11c26:	bfa1                	j	11b7e <_vfprintf_r+0x146e>
   11c28:	5782                	lw	a5,32(sp)
   11c2a:	5762                	lw	a4,56(sp)
   11c2c:	40e7843b          	subw	s0,a5,a4
   11c30:	9e805ee3          	blez	s0,1162c <_vfprintf_r+0xf1c>
   11c34:	64e9                	lui	s1,0x1a
   11c36:	4b41                	li	s6,16
   11c38:	0c048493          	addi	s1,s1,192 # 1a0c0 <blanks.4440>
   11c3c:	4c1d                	li	s8,7
   11c3e:	10812703          	lw	a4,264(sp)
   11c42:	009cb023          	sd	s1,0(s9)
   11c46:	67d2                	ld	a5,272(sp)
   11c48:	0017069b          	addiw	a3,a4,1
   11c4c:	8736                	mv	a4,a3
   11c4e:	028b4a63          	blt	s6,s0,11c82 <_vfprintf_r+0x1572>
   11c52:	008cb423          	sd	s0,8(s9)
   11c56:	943e                	add	s0,s0,a5
   11c58:	ea22                	sd	s0,272(sp)
   11c5a:	10d12423          	sw	a3,264(sp)
   11c5e:	479d                	li	a5,7
   11c60:	9cd7d6e3          	ble	a3,a5,1162c <_vfprintf_r+0xf1c>
   11c64:	0210                	addi	a2,sp,256
   11c66:	85ca                	mv	a1,s2
   11c68:	854e                	mv	a0,s3
   11c6a:	226050ef          	jal	ra,16e90 <__sprint_r>
   11c6e:	9a050fe3          	beqz	a0,1162c <_vfprintf_r+0xf1c>
   11c72:	960b8663          	beqz	s7,10dde <_vfprintf_r+0x6ce>
   11c76:	85de                	mv	a1,s7
   11c78:	854e                	mv	a0,s3
   11c7a:	724000ef          	jal	ra,1239e <_free_r>
   11c7e:	960ff06f          	j	10dde <_vfprintf_r+0x6ce>
   11c82:	07c1                	addi	a5,a5,16
   11c84:	016cb423          	sd	s6,8(s9)
   11c88:	ea3e                	sd	a5,272(sp)
   11c8a:	10e12423          	sw	a4,264(sp)
   11c8e:	0cc1                	addi	s9,s9,16
   11c90:	00dc5963          	ble	a3,s8,11ca2 <_vfprintf_r+0x1592>
   11c94:	0210                	addi	a2,sp,256
   11c96:	85ca                	mv	a1,s2
   11c98:	854e                	mv	a0,s3
   11c9a:	1f6050ef          	jal	ra,16e90 <__sprint_r>
   11c9e:	f971                	bnez	a0,11c72 <_vfprintf_r+0x1562>
   11ca0:	8cd6                	mv	s9,s5
   11ca2:	3441                	addiw	s0,s0,-16
   11ca4:	bf69                	j	11c3e <_vfprintf_r+0x152e>
   11ca6:	85de                	mv	a1,s7
   11ca8:	854e                	mv	a0,s3
   11caa:	6f4000ef          	jal	ra,1239e <_free_r>
   11cae:	b26d                	j	11658 <_vfprintf_r+0xf48>
   11cb0:	67d2                	ld	a5,272(sp)
   11cb2:	92078663          	beqz	a5,10dde <_vfprintf_r+0x6ce>
   11cb6:	0210                	addi	a2,sp,256
   11cb8:	85ca                	mv	a1,s2
   11cba:	854e                	mv	a0,s3
   11cbc:	1d4050ef          	jal	ra,16e90 <__sprint_r>
   11cc0:	91eff06f          	j	10dde <_vfprintf_r+0x6ce>

0000000000011cc4 <vfprintf>:
   11cc4:	86b2                	mv	a3,a2
   11cc6:	862e                	mv	a2,a1
   11cc8:	85aa                	mv	a1,a0
   11cca:	8381b503          	ld	a0,-1992(gp) # 1cd90 <_impure_ptr>
   11cce:	a43fe06f          	j	10710 <_vfprintf_r>

0000000000011cd2 <__sbprintf>:
   11cd2:	0105d783          	lhu	a5,16(a1)
   11cd6:	b3010113          	addi	sp,sp,-1232
   11cda:	4c813023          	sd	s0,1216(sp)
   11cde:	9bf5                	andi	a5,a5,-3
   11ce0:	00f11823          	sh	a5,16(sp)
   11ce4:	0ac5a783          	lw	a5,172(a1)
   11ce8:	842e                	mv	s0,a1
   11cea:	4a913c23          	sd	s1,1208(sp)
   11cee:	d73e                	sw	a5,172(sp)
   11cf0:	0125d783          	lhu	a5,18(a1)
   11cf4:	4b213823          	sd	s2,1200(sp)
   11cf8:	4c113423          	sd	ra,1224(sp)
   11cfc:	00f11923          	sh	a5,18(sp)
   11d00:	799c                	ld	a5,48(a1)
   11d02:	892a                	mv	s2,a0
   11d04:	d402                	sw	zero,40(sp)
   11d06:	f83e                	sd	a5,48(sp)
   11d08:	61bc                	ld	a5,64(a1)
   11d0a:	858a                	mv	a1,sp
   11d0c:	e0be                	sd	a5,64(sp)
   11d0e:	191c                	addi	a5,sp,176
   11d10:	e03e                	sd	a5,0(sp)
   11d12:	ec3e                	sd	a5,24(sp)
   11d14:	40000793          	li	a5,1024
   11d18:	c63e                	sw	a5,12(sp)
   11d1a:	d03e                	sw	a5,32(sp)
   11d1c:	9f5fe0ef          	jal	ra,10710 <_vfprintf_r>
   11d20:	84aa                	mv	s1,a0
   11d22:	00054863          	bltz	a0,11d32 <__sbprintf+0x60>
   11d26:	858a                	mv	a1,sp
   11d28:	854a                	mv	a0,s2
   11d2a:	384000ef          	jal	ra,120ae <_fflush_r>
   11d2e:	c111                	beqz	a0,11d32 <__sbprintf+0x60>
   11d30:	54fd                	li	s1,-1
   11d32:	01015783          	lhu	a5,16(sp)
   11d36:	0407f793          	andi	a5,a5,64
   11d3a:	c799                	beqz	a5,11d48 <__sbprintf+0x76>
   11d3c:	01045783          	lhu	a5,16(s0)
   11d40:	0407e793          	ori	a5,a5,64
   11d44:	00f41823          	sh	a5,16(s0)
   11d48:	4c813083          	ld	ra,1224(sp)
   11d4c:	4c013403          	ld	s0,1216(sp)
   11d50:	8526                	mv	a0,s1
   11d52:	4b013903          	ld	s2,1200(sp)
   11d56:	4b813483          	ld	s1,1208(sp)
   11d5a:	4d010113          	addi	sp,sp,1232
   11d5e:	8082                	ret

0000000000011d60 <__swsetup_r>:
   11d60:	1101                	addi	sp,sp,-32
   11d62:	e426                	sd	s1,8(sp)
   11d64:	84aa                	mv	s1,a0
   11d66:	8381b503          	ld	a0,-1992(gp) # 1cd90 <_impure_ptr>
   11d6a:	e822                	sd	s0,16(sp)
   11d6c:	ec06                	sd	ra,24(sp)
   11d6e:	842e                	mv	s0,a1
   11d70:	c509                	beqz	a0,11d7a <__swsetup_r+0x1a>
   11d72:	493c                	lw	a5,80(a0)
   11d74:	e399                	bnez	a5,11d7a <__swsetup_r+0x1a>
   11d76:	450000ef          	jal	ra,121c6 <__sinit>
   11d7a:	01041703          	lh	a4,16(s0)
   11d7e:	03071793          	slli	a5,a4,0x30
   11d82:	93c1                	srli	a5,a5,0x30
   11d84:	0087f693          	andi	a3,a5,8
   11d88:	eea9                	bnez	a3,11de2 <__swsetup_r+0x82>
   11d8a:	0107f693          	andi	a3,a5,16
   11d8e:	ee89                	bnez	a3,11da8 <__swsetup_r+0x48>
   11d90:	47a5                	li	a5,9
   11d92:	c09c                	sw	a5,0(s1)
   11d94:	04076713          	ori	a4,a4,64
   11d98:	00e41823          	sh	a4,16(s0)
   11d9c:	557d                	li	a0,-1
   11d9e:	60e2                	ld	ra,24(sp)
   11da0:	6442                	ld	s0,16(sp)
   11da2:	64a2                	ld	s1,8(sp)
   11da4:	6105                	addi	sp,sp,32
   11da6:	8082                	ret
   11da8:	8b91                	andi	a5,a5,4
   11daa:	c795                	beqz	a5,11dd6 <__swsetup_r+0x76>
   11dac:	6c2c                	ld	a1,88(s0)
   11dae:	c991                	beqz	a1,11dc2 <__swsetup_r+0x62>
   11db0:	07440793          	addi	a5,s0,116
   11db4:	00f58563          	beq	a1,a5,11dbe <__swsetup_r+0x5e>
   11db8:	8526                	mv	a0,s1
   11dba:	5e4000ef          	jal	ra,1239e <_free_r>
   11dbe:	04043c23          	sd	zero,88(s0)
   11dc2:	01045783          	lhu	a5,16(s0)
   11dc6:	00042423          	sw	zero,8(s0)
   11dca:	fdb7f793          	andi	a5,a5,-37
   11dce:	00f41823          	sh	a5,16(s0)
   11dd2:	6c1c                	ld	a5,24(s0)
   11dd4:	e01c                	sd	a5,0(s0)
   11dd6:	01045783          	lhu	a5,16(s0)
   11dda:	0087e793          	ori	a5,a5,8
   11dde:	00f41823          	sh	a5,16(s0)
   11de2:	6c1c                	ld	a5,24(s0)
   11de4:	ef89                	bnez	a5,11dfe <__swsetup_r+0x9e>
   11de6:	01045783          	lhu	a5,16(s0)
   11dea:	20000713          	li	a4,512
   11dee:	2807f793          	andi	a5,a5,640
   11df2:	00e78663          	beq	a5,a4,11dfe <__swsetup_r+0x9e>
   11df6:	85a2                	mv	a1,s0
   11df8:	8526                	mv	a0,s1
   11dfa:	330020ef          	jal	ra,1412a <__smakebuf_r>
   11dfe:	01045783          	lhu	a5,16(s0)
   11e02:	0017f713          	andi	a4,a5,1
   11e06:	c705                	beqz	a4,11e2e <__swsetup_r+0xce>
   11e08:	501c                	lw	a5,32(s0)
   11e0a:	00042623          	sw	zero,12(s0)
   11e0e:	40f007bb          	negw	a5,a5
   11e12:	d41c                	sw	a5,40(s0)
   11e14:	6c1c                	ld	a5,24(s0)
   11e16:	4501                	li	a0,0
   11e18:	f3d9                	bnez	a5,11d9e <__swsetup_r+0x3e>
   11e1a:	01041783          	lh	a5,16(s0)
   11e1e:	0807f713          	andi	a4,a5,128
   11e22:	df35                	beqz	a4,11d9e <__swsetup_r+0x3e>
   11e24:	0407e793          	ori	a5,a5,64
   11e28:	00f41823          	sh	a5,16(s0)
   11e2c:	bf85                	j	11d9c <__swsetup_r+0x3c>
   11e2e:	8b89                	andi	a5,a5,2
   11e30:	4701                	li	a4,0
   11e32:	e391                	bnez	a5,11e36 <__swsetup_r+0xd6>
   11e34:	5018                	lw	a4,32(s0)
   11e36:	c458                	sw	a4,12(s0)
   11e38:	bff1                	j	11e14 <__swsetup_r+0xb4>

0000000000011e3a <__register_exitproc>:
   11e3a:	8301b703          	ld	a4,-2000(gp) # 1cd88 <_global_impure_ptr>
   11e3e:	832a                	mv	t1,a0
   11e40:	1f873783          	ld	a5,504(a4)
   11e44:	e789                	bnez	a5,11e4e <__register_exitproc+0x14>
   11e46:	20070793          	addi	a5,a4,512
   11e4a:	1ef73c23          	sd	a5,504(a4)
   11e4e:	4798                	lw	a4,8(a5)
   11e50:	487d                	li	a6,31
   11e52:	557d                	li	a0,-1
   11e54:	04e84463          	blt	a6,a4,11e9c <__register_exitproc+0x62>
   11e58:	02030a63          	beqz	t1,11e8c <__register_exitproc+0x52>
   11e5c:	00371813          	slli	a6,a4,0x3
   11e60:	983e                	add	a6,a6,a5
   11e62:	10c83823          	sd	a2,272(a6)
   11e66:	3107a883          	lw	a7,784(a5)
   11e6a:	4605                	li	a2,1
   11e6c:	00e6163b          	sllw	a2,a2,a4
   11e70:	00c8e8b3          	or	a7,a7,a2
   11e74:	3117a823          	sw	a7,784(a5)
   11e78:	20d83823          	sd	a3,528(a6)
   11e7c:	4689                	li	a3,2
   11e7e:	00d31763          	bne	t1,a3,11e8c <__register_exitproc+0x52>
   11e82:	3147a683          	lw	a3,788(a5)
   11e86:	8e55                	or	a2,a2,a3
   11e88:	30c7aa23          	sw	a2,788(a5)
   11e8c:	0017069b          	addiw	a3,a4,1
   11e90:	0709                	addi	a4,a4,2
   11e92:	070e                	slli	a4,a4,0x3
   11e94:	c794                	sw	a3,8(a5)
   11e96:	97ba                	add	a5,a5,a4
   11e98:	e38c                	sd	a1,0(a5)
   11e9a:	4501                	li	a0,0
   11e9c:	8082                	ret

0000000000011e9e <__call_exitprocs>:
   11e9e:	715d                	addi	sp,sp,-80
   11ea0:	f44e                	sd	s3,40(sp)
   11ea2:	8301b983          	ld	s3,-2000(gp) # 1cd88 <_global_impure_ptr>
   11ea6:	f052                	sd	s4,32(sp)
   11ea8:	ec56                	sd	s5,24(sp)
   11eaa:	e85a                	sd	s6,16(sp)
   11eac:	e486                	sd	ra,72(sp)
   11eae:	e0a2                	sd	s0,64(sp)
   11eb0:	fc26                	sd	s1,56(sp)
   11eb2:	f84a                	sd	s2,48(sp)
   11eb4:	e45e                	sd	s7,8(sp)
   11eb6:	8aaa                	mv	s5,a0
   11eb8:	8a2e                	mv	s4,a1
   11eba:	4b05                	li	s6,1
   11ebc:	1f89b403          	ld	s0,504(s3)
   11ec0:	c801                	beqz	s0,11ed0 <__call_exitprocs+0x32>
   11ec2:	4404                	lw	s1,8(s0)
   11ec4:	34fd                	addiw	s1,s1,-1
   11ec6:	00349913          	slli	s2,s1,0x3
   11eca:	9922                	add	s2,s2,s0
   11ecc:	0004dd63          	bgez	s1,11ee6 <__call_exitprocs+0x48>
   11ed0:	60a6                	ld	ra,72(sp)
   11ed2:	6406                	ld	s0,64(sp)
   11ed4:	74e2                	ld	s1,56(sp)
   11ed6:	7942                	ld	s2,48(sp)
   11ed8:	79a2                	ld	s3,40(sp)
   11eda:	7a02                	ld	s4,32(sp)
   11edc:	6ae2                	ld	s5,24(sp)
   11ede:	6b42                	ld	s6,16(sp)
   11ee0:	6ba2                	ld	s7,8(sp)
   11ee2:	6161                	addi	sp,sp,80
   11ee4:	8082                	ret
   11ee6:	000a0963          	beqz	s4,11ef8 <__call_exitprocs+0x5a>
   11eea:	21093783          	ld	a5,528(s2)
   11eee:	01478563          	beq	a5,s4,11ef8 <__call_exitprocs+0x5a>
   11ef2:	34fd                	addiw	s1,s1,-1
   11ef4:	1961                	addi	s2,s2,-8
   11ef6:	bfd9                	j	11ecc <__call_exitprocs+0x2e>
   11ef8:	441c                	lw	a5,8(s0)
   11efa:	01093683          	ld	a3,16(s2)
   11efe:	37fd                	addiw	a5,a5,-1
   11f00:	02979663          	bne	a5,s1,11f2c <__call_exitprocs+0x8e>
   11f04:	c404                	sw	s1,8(s0)
   11f06:	d6f5                	beqz	a3,11ef2 <__call_exitprocs+0x54>
   11f08:	31042703          	lw	a4,784(s0)
   11f0c:	009b163b          	sllw	a2,s6,s1
   11f10:	00842b83          	lw	s7,8(s0)
   11f14:	8f71                	and	a4,a4,a2
   11f16:	2701                	sext.w	a4,a4
   11f18:	ef09                	bnez	a4,11f32 <__call_exitprocs+0x94>
   11f1a:	9682                	jalr	a3
   11f1c:	4418                	lw	a4,8(s0)
   11f1e:	1f89b783          	ld	a5,504(s3)
   11f22:	f9771de3          	bne	a4,s7,11ebc <__call_exitprocs+0x1e>
   11f26:	fcf406e3          	beq	s0,a5,11ef2 <__call_exitprocs+0x54>
   11f2a:	bf49                	j	11ebc <__call_exitprocs+0x1e>
   11f2c:	00093823          	sd	zero,16(s2)
   11f30:	bfd9                	j	11f06 <__call_exitprocs+0x68>
   11f32:	31442783          	lw	a5,788(s0)
   11f36:	11093583          	ld	a1,272(s2)
   11f3a:	8ff1                	and	a5,a5,a2
   11f3c:	2781                	sext.w	a5,a5
   11f3e:	e781                	bnez	a5,11f46 <__call_exitprocs+0xa8>
   11f40:	8556                	mv	a0,s5
   11f42:	9682                	jalr	a3
   11f44:	bfe1                	j	11f1c <__call_exitprocs+0x7e>
   11f46:	852e                	mv	a0,a1
   11f48:	9682                	jalr	a3
   11f4a:	bfc9                	j	11f1c <__call_exitprocs+0x7e>

0000000000011f4c <__sflush_r>:
   11f4c:	01059783          	lh	a5,16(a1)
   11f50:	7179                	addi	sp,sp,-48
   11f52:	f022                	sd	s0,32(sp)
   11f54:	03079713          	slli	a4,a5,0x30
   11f58:	9341                	srli	a4,a4,0x30
   11f5a:	ec26                	sd	s1,24(sp)
   11f5c:	f406                	sd	ra,40(sp)
   11f5e:	e84a                	sd	s2,16(sp)
   11f60:	e44e                	sd	s3,8(sp)
   11f62:	00877693          	andi	a3,a4,8
   11f66:	84aa                	mv	s1,a0
   11f68:	842e                	mv	s0,a1
   11f6a:	10069063          	bnez	a3,1206a <__sflush_r+0x11e>
   11f6e:	6705                	lui	a4,0x1
   11f70:	80070713          	addi	a4,a4,-2048 # 800 <_start-0xf8b0>
   11f74:	8fd9                	or	a5,a5,a4
   11f76:	4598                	lw	a4,8(a1)
   11f78:	00f59823          	sh	a5,16(a1)
   11f7c:	00e04d63          	bgtz	a4,11f96 <__sflush_r+0x4a>
   11f80:	59b8                	lw	a4,112(a1)
   11f82:	00e04a63          	bgtz	a4,11f96 <__sflush_r+0x4a>
   11f86:	4501                	li	a0,0
   11f88:	70a2                	ld	ra,40(sp)
   11f8a:	7402                	ld	s0,32(sp)
   11f8c:	64e2                	ld	s1,24(sp)
   11f8e:	6942                	ld	s2,16(sp)
   11f90:	69a2                	ld	s3,8(sp)
   11f92:	6145                	addi	sp,sp,48
   11f94:	8082                	ret
   11f96:	6438                	ld	a4,72(s0)
   11f98:	d77d                	beqz	a4,11f86 <__sflush_r+0x3a>
   11f9a:	0004a903          	lw	s2,0(s1)
   11f9e:	03379693          	slli	a3,a5,0x33
   11fa2:	0004a023          	sw	zero,0(s1)
   11fa6:	780c                	ld	a1,48(s0)
   11fa8:	0806d863          	bgez	a3,12038 <__sflush_r+0xec>
   11fac:	6850                	ld	a2,144(s0)
   11fae:	01045783          	lhu	a5,16(s0)
   11fb2:	8b91                	andi	a5,a5,4
   11fb4:	c799                	beqz	a5,11fc2 <__sflush_r+0x76>
   11fb6:	441c                	lw	a5,8(s0)
   11fb8:	8e1d                	sub	a2,a2,a5
   11fba:	6c3c                	ld	a5,88(s0)
   11fbc:	c399                	beqz	a5,11fc2 <__sflush_r+0x76>
   11fbe:	583c                	lw	a5,112(s0)
   11fc0:	8e1d                	sub	a2,a2,a5
   11fc2:	643c                	ld	a5,72(s0)
   11fc4:	780c                	ld	a1,48(s0)
   11fc6:	4681                	li	a3,0
   11fc8:	8526                	mv	a0,s1
   11fca:	9782                	jalr	a5
   11fcc:	57fd                	li	a5,-1
   11fce:	01045683          	lhu	a3,16(s0)
   11fd2:	00f51d63          	bne	a0,a5,11fec <__sflush_r+0xa0>
   11fd6:	409c                	lw	a5,0(s1)
   11fd8:	4775                	li	a4,29
   11fda:	08f76263          	bltu	a4,a5,1205e <__sflush_r+0x112>
   11fde:	20400737          	lui	a4,0x20400
   11fe2:	0705                	addi	a4,a4,1
   11fe4:	00f75733          	srl	a4,a4,a5
   11fe8:	8b05                	andi	a4,a4,1
   11fea:	cb35                	beqz	a4,1205e <__sflush_r+0x112>
   11fec:	77fd                	lui	a5,0xfffff
   11fee:	7ff78793          	addi	a5,a5,2047 # fffffffffffff7ff <_end+0xffffffffffdce9bf>
   11ff2:	6c18                	ld	a4,24(s0)
   11ff4:	8ff5                	and	a5,a5,a3
   11ff6:	0107979b          	slliw	a5,a5,0x10
   11ffa:	4107d79b          	sraiw	a5,a5,0x10
   11ffe:	e018                	sd	a4,0(s0)
   12000:	00f41823          	sh	a5,16(s0)
   12004:	00042423          	sw	zero,8(s0)
   12008:	03379713          	slli	a4,a5,0x33
   1200c:	00075863          	bgez	a4,1201c <__sflush_r+0xd0>
   12010:	57fd                	li	a5,-1
   12012:	00f51463          	bne	a0,a5,1201a <__sflush_r+0xce>
   12016:	409c                	lw	a5,0(s1)
   12018:	e391                	bnez	a5,1201c <__sflush_r+0xd0>
   1201a:	e848                	sd	a0,144(s0)
   1201c:	6c2c                	ld	a1,88(s0)
   1201e:	0124a023          	sw	s2,0(s1)
   12022:	d1b5                	beqz	a1,11f86 <__sflush_r+0x3a>
   12024:	07440793          	addi	a5,s0,116
   12028:	00f58563          	beq	a1,a5,12032 <__sflush_r+0xe6>
   1202c:	8526                	mv	a0,s1
   1202e:	370000ef          	jal	ra,1239e <_free_r>
   12032:	04043c23          	sd	zero,88(s0)
   12036:	bf81                	j	11f86 <__sflush_r+0x3a>
   12038:	4601                	li	a2,0
   1203a:	4685                	li	a3,1
   1203c:	8526                	mv	a0,s1
   1203e:	9702                	jalr	a4
   12040:	57fd                	li	a5,-1
   12042:	862a                	mv	a2,a0
   12044:	f6f515e3          	bne	a0,a5,11fae <__sflush_r+0x62>
   12048:	409c                	lw	a5,0(s1)
   1204a:	d3b5                	beqz	a5,11fae <__sflush_r+0x62>
   1204c:	4775                	li	a4,29
   1204e:	00e78563          	beq	a5,a4,12058 <__sflush_r+0x10c>
   12052:	4759                	li	a4,22
   12054:	04e79463          	bne	a5,a4,1209c <__sflush_r+0x150>
   12058:	0124a023          	sw	s2,0(s1)
   1205c:	b72d                	j	11f86 <__sflush_r+0x3a>
   1205e:	0406e793          	ori	a5,a3,64
   12062:	00f41823          	sh	a5,16(s0)
   12066:	557d                	li	a0,-1
   12068:	b705                	j	11f88 <__sflush_r+0x3c>
   1206a:	0185b983          	ld	s3,24(a1)
   1206e:	f0098ce3          	beqz	s3,11f86 <__sflush_r+0x3a>
   12072:	0005b903          	ld	s2,0(a1)
   12076:	8b0d                	andi	a4,a4,3
   12078:	0135b023          	sd	s3,0(a1)
   1207c:	4139093b          	subw	s2,s2,s3
   12080:	4781                	li	a5,0
   12082:	e311                	bnez	a4,12086 <__sflush_r+0x13a>
   12084:	519c                	lw	a5,32(a1)
   12086:	c45c                	sw	a5,12(s0)
   12088:	ef205fe3          	blez	s2,11f86 <__sflush_r+0x3a>
   1208c:	603c                	ld	a5,64(s0)
   1208e:	780c                	ld	a1,48(s0)
   12090:	86ca                	mv	a3,s2
   12092:	864e                	mv	a2,s3
   12094:	8526                	mv	a0,s1
   12096:	9782                	jalr	a5
   12098:	00a04763          	bgtz	a0,120a6 <__sflush_r+0x15a>
   1209c:	01045783          	lhu	a5,16(s0)
   120a0:	0407e793          	ori	a5,a5,64
   120a4:	bf7d                	j	12062 <__sflush_r+0x116>
   120a6:	99aa                	add	s3,s3,a0
   120a8:	40a9093b          	subw	s2,s2,a0
   120ac:	bff1                	j	12088 <__sflush_r+0x13c>

00000000000120ae <_fflush_r>:
   120ae:	1101                	addi	sp,sp,-32
   120b0:	e822                	sd	s0,16(sp)
   120b2:	ec06                	sd	ra,24(sp)
   120b4:	842a                	mv	s0,a0
   120b6:	c519                	beqz	a0,120c4 <_fflush_r+0x16>
   120b8:	493c                	lw	a5,80(a0)
   120ba:	e789                	bnez	a5,120c4 <_fflush_r+0x16>
   120bc:	e42e                	sd	a1,8(sp)
   120be:	108000ef          	jal	ra,121c6 <__sinit>
   120c2:	65a2                	ld	a1,8(sp)
   120c4:	01059783          	lh	a5,16(a1)
   120c8:	c799                	beqz	a5,120d6 <_fflush_r+0x28>
   120ca:	8522                	mv	a0,s0
   120cc:	6442                	ld	s0,16(sp)
   120ce:	60e2                	ld	ra,24(sp)
   120d0:	6105                	addi	sp,sp,32
   120d2:	e7bff06f          	j	11f4c <__sflush_r>
   120d6:	60e2                	ld	ra,24(sp)
   120d8:	6442                	ld	s0,16(sp)
   120da:	4501                	li	a0,0
   120dc:	6105                	addi	sp,sp,32
   120de:	8082                	ret

00000000000120e0 <fflush>:
   120e0:	85aa                	mv	a1,a0
   120e2:	e909                	bnez	a0,120f4 <fflush+0x14>
   120e4:	8301b503          	ld	a0,-2000(gp) # 1cd88 <_global_impure_ptr>
   120e8:	000125b7          	lui	a1,0x12
   120ec:	0ae58593          	addi	a1,a1,174 # 120ae <_fflush_r>
   120f0:	7ae0006f          	j	1289e <_fwalk_reent>
   120f4:	8381b503          	ld	a0,-1992(gp) # 1cd90 <_impure_ptr>
   120f8:	fb7ff06f          	j	120ae <_fflush_r>

00000000000120fc <__fp_lock>:
   120fc:	4501                	li	a0,0
   120fe:	8082                	ret

0000000000012100 <_cleanup_r>:
   12100:	000185b7          	lui	a1,0x18
   12104:	94858593          	addi	a1,a1,-1720 # 17948 <_fclose_r>
   12108:	7960006f          	j	1289e <_fwalk_reent>

000000000001210c <std.isra.0>:
   1210c:	1141                	addi	sp,sp,-16
   1210e:	e022                	sd	s0,0(sp)
   12110:	e406                	sd	ra,8(sp)
   12112:	842a                	mv	s0,a0
   12114:	00b51823          	sh	a1,16(a0)
   12118:	00c51923          	sh	a2,18(a0)
   1211c:	00053023          	sd	zero,0(a0)
   12120:	00053423          	sd	zero,8(a0)
   12124:	0a052623          	sw	zero,172(a0)
   12128:	00053c23          	sd	zero,24(a0)
   1212c:	02052023          	sw	zero,32(a0)
   12130:	02052423          	sw	zero,40(a0)
   12134:	4621                	li	a2,8
   12136:	4581                	li	a1,0
   12138:	0a450513          	addi	a0,a0,164
   1213c:	c20fe0ef          	jal	ra,1055c <memset>
   12140:	000157b7          	lui	a5,0x15
   12144:	72478793          	addi	a5,a5,1828 # 15724 <__sread>
   12148:	fc1c                	sd	a5,56(s0)
   1214a:	000157b7          	lui	a5,0x15
   1214e:	75a78793          	addi	a5,a5,1882 # 1575a <__swrite>
   12152:	e03c                	sd	a5,64(s0)
   12154:	000157b7          	lui	a5,0x15
   12158:	7ac78793          	addi	a5,a5,1964 # 157ac <__sseek>
   1215c:	e43c                	sd	a5,72(s0)
   1215e:	000157b7          	lui	a5,0x15
   12162:	7e478793          	addi	a5,a5,2020 # 157e4 <__sclose>
   12166:	f800                	sd	s0,48(s0)
   12168:	e83c                	sd	a5,80(s0)
   1216a:	60a2                	ld	ra,8(sp)
   1216c:	6402                	ld	s0,0(sp)
   1216e:	0141                	addi	sp,sp,16
   12170:	8082                	ret

0000000000012172 <__fp_unlock>:
   12172:	4501                	li	a0,0
   12174:	8082                	ret

0000000000012176 <__sfmoreglue>:
   12176:	1101                	addi	sp,sp,-32
   12178:	e426                	sd	s1,8(sp)
   1217a:	0b000613          	li	a2,176
   1217e:	fff5849b          	addiw	s1,a1,-1
   12182:	02c484b3          	mul	s1,s1,a2
   12186:	e04a                	sd	s2,0(sp)
   12188:	892e                	mv	s2,a1
   1218a:	e822                	sd	s0,16(sp)
   1218c:	ec06                	sd	ra,24(sp)
   1218e:	0c848593          	addi	a1,s1,200
   12192:	03a020ef          	jal	ra,141cc <_malloc_r>
   12196:	842a                	mv	s0,a0
   12198:	cd01                	beqz	a0,121b0 <__sfmoreglue+0x3a>
   1219a:	00053023          	sd	zero,0(a0)
   1219e:	01252423          	sw	s2,8(a0)
   121a2:	0561                	addi	a0,a0,24
   121a4:	e808                	sd	a0,16(s0)
   121a6:	0b048613          	addi	a2,s1,176
   121aa:	4581                	li	a1,0
   121ac:	bb0fe0ef          	jal	ra,1055c <memset>
   121b0:	8522                	mv	a0,s0
   121b2:	60e2                	ld	ra,24(sp)
   121b4:	6442                	ld	s0,16(sp)
   121b6:	64a2                	ld	s1,8(sp)
   121b8:	6902                	ld	s2,0(sp)
   121ba:	6105                	addi	sp,sp,32
   121bc:	8082                	ret

00000000000121be <_cleanup>:
   121be:	8301b503          	ld	a0,-2000(gp) # 1cd88 <_global_impure_ptr>
   121c2:	f3fff06f          	j	12100 <_cleanup_r>

00000000000121c6 <__sinit>:
   121c6:	493c                	lw	a5,80(a0)
   121c8:	eba1                	bnez	a5,12218 <__sinit+0x52>
   121ca:	1141                	addi	sp,sp,-16
   121cc:	000127b7          	lui	a5,0x12
   121d0:	e406                	sd	ra,8(sp)
   121d2:	e022                	sd	s0,0(sp)
   121d4:	10078793          	addi	a5,a5,256 # 12100 <_cleanup_r>
   121d8:	ed3c                	sd	a5,88(a0)
   121da:	478d                	li	a5,3
   121dc:	52f52423          	sw	a5,1320(a0)
   121e0:	53850793          	addi	a5,a0,1336
   121e4:	842a                	mv	s0,a0
   121e6:	52f53823          	sd	a5,1328(a0)
   121ea:	52053023          	sd	zero,1312(a0)
   121ee:	6508                	ld	a0,8(a0)
   121f0:	4601                	li	a2,0
   121f2:	4591                	li	a1,4
   121f4:	f19ff0ef          	jal	ra,1210c <std.isra.0>
   121f8:	6808                	ld	a0,16(s0)
   121fa:	4605                	li	a2,1
   121fc:	45a5                	li	a1,9
   121fe:	f0fff0ef          	jal	ra,1210c <std.isra.0>
   12202:	6c08                	ld	a0,24(s0)
   12204:	4609                	li	a2,2
   12206:	45c9                	li	a1,18
   12208:	f05ff0ef          	jal	ra,1210c <std.isra.0>
   1220c:	4785                	li	a5,1
   1220e:	c83c                	sw	a5,80(s0)
   12210:	60a2                	ld	ra,8(sp)
   12212:	6402                	ld	s0,0(sp)
   12214:	0141                	addi	sp,sp,16
   12216:	8082                	ret
   12218:	8082                	ret

000000000001221a <__sfp>:
   1221a:	1101                	addi	sp,sp,-32
   1221c:	e426                	sd	s1,8(sp)
   1221e:	8301b483          	ld	s1,-2000(gp) # 1cd88 <_global_impure_ptr>
   12222:	e04a                	sd	s2,0(sp)
   12224:	ec06                	sd	ra,24(sp)
   12226:	48bc                	lw	a5,80(s1)
   12228:	e822                	sd	s0,16(sp)
   1222a:	892a                	mv	s2,a0
   1222c:	e781                	bnez	a5,12234 <__sfp+0x1a>
   1222e:	8526                	mv	a0,s1
   12230:	f97ff0ef          	jal	ra,121c6 <__sinit>
   12234:	52048493          	addi	s1,s1,1312
   12238:	6880                	ld	s0,16(s1)
   1223a:	449c                	lw	a5,8(s1)
   1223c:	37fd                	addiw	a5,a5,-1
   1223e:	0007d663          	bgez	a5,1224a <__sfp+0x30>
   12242:	609c                	ld	a5,0(s1)
   12244:	cb89                	beqz	a5,12256 <__sfp+0x3c>
   12246:	6084                	ld	s1,0(s1)
   12248:	bfc5                	j	12238 <__sfp+0x1e>
   1224a:	01041703          	lh	a4,16(s0)
   1224e:	c70d                	beqz	a4,12278 <__sfp+0x5e>
   12250:	0b040413          	addi	s0,s0,176
   12254:	b7e5                	j	1223c <__sfp+0x22>
   12256:	4591                	li	a1,4
   12258:	854a                	mv	a0,s2
   1225a:	f1dff0ef          	jal	ra,12176 <__sfmoreglue>
   1225e:	e088                	sd	a0,0(s1)
   12260:	f17d                	bnez	a0,12246 <__sfp+0x2c>
   12262:	47b1                	li	a5,12
   12264:	00f92023          	sw	a5,0(s2)
   12268:	4401                	li	s0,0
   1226a:	8522                	mv	a0,s0
   1226c:	60e2                	ld	ra,24(sp)
   1226e:	6442                	ld	s0,16(sp)
   12270:	64a2                	ld	s1,8(sp)
   12272:	6902                	ld	s2,0(sp)
   12274:	6105                	addi	sp,sp,32
   12276:	8082                	ret
   12278:	77c1                	lui	a5,0xffff0
   1227a:	2785                	addiw	a5,a5,1
   1227c:	0a042623          	sw	zero,172(s0)
   12280:	00043023          	sd	zero,0(s0)
   12284:	00043423          	sd	zero,8(s0)
   12288:	c81c                	sw	a5,16(s0)
   1228a:	00043c23          	sd	zero,24(s0)
   1228e:	02042023          	sw	zero,32(s0)
   12292:	02042423          	sw	zero,40(s0)
   12296:	4621                	li	a2,8
   12298:	4581                	li	a1,0
   1229a:	0a440513          	addi	a0,s0,164
   1229e:	abefe0ef          	jal	ra,1055c <memset>
   122a2:	04043c23          	sd	zero,88(s0)
   122a6:	06042023          	sw	zero,96(s0)
   122aa:	06043c23          	sd	zero,120(s0)
   122ae:	08042023          	sw	zero,128(s0)
   122b2:	bf65                	j	1226a <__sfp+0x50>

00000000000122b4 <__sfp_lock_acquire>:
   122b4:	8082                	ret

00000000000122b6 <__sfp_lock_release>:
   122b6:	8082                	ret

00000000000122b8 <__sinit_lock_acquire>:
   122b8:	8082                	ret

00000000000122ba <__sinit_lock_release>:
   122ba:	8082                	ret

00000000000122bc <__fp_lock_all>:
   122bc:	8381b503          	ld	a0,-1992(gp) # 1cd90 <_impure_ptr>
   122c0:	000125b7          	lui	a1,0x12
   122c4:	0fc58593          	addi	a1,a1,252 # 120fc <__fp_lock>
   122c8:	5720006f          	j	1283a <_fwalk>

00000000000122cc <__fp_unlock_all>:
   122cc:	8381b503          	ld	a0,-1992(gp) # 1cd90 <_impure_ptr>
   122d0:	000125b7          	lui	a1,0x12
   122d4:	17258593          	addi	a1,a1,370 # 12172 <__fp_unlock>
   122d8:	5620006f          	j	1283a <_fwalk>

00000000000122dc <_malloc_trim_r>:
   122dc:	7139                	addi	sp,sp,-64
   122de:	f04a                	sd	s2,32(sp)
   122e0:	6971                	lui	s2,0x1c
   122e2:	f822                	sd	s0,48(sp)
   122e4:	f426                	sd	s1,40(sp)
   122e6:	ec4e                	sd	s3,24(sp)
   122e8:	e42e                	sd	a1,8(sp)
   122ea:	fc06                	sd	ra,56(sp)
   122ec:	89aa                	mv	s3,a0
   122ee:	54890913          	addi	s2,s2,1352 # 1c548 <__malloc_av_>
   122f2:	522020ef          	jal	ra,14814 <__malloc_lock>
   122f6:	01093783          	ld	a5,16(s2)
   122fa:	65a2                	ld	a1,8(sp)
   122fc:	6784                	ld	s1,8(a5)
   122fe:	6785                	lui	a5,0x1
   12300:	fdf78413          	addi	s0,a5,-33 # fdf <_start-0xf0d1>
   12304:	98f1                	andi	s1,s1,-4
   12306:	8c0d                	sub	s0,s0,a1
   12308:	9426                	add	s0,s0,s1
   1230a:	8031                	srli	s0,s0,0xc
   1230c:	147d                	addi	s0,s0,-1
   1230e:	0432                	slli	s0,s0,0xc
   12310:	00f45d63          	ble	a5,s0,1232a <_malloc_trim_r+0x4e>
   12314:	854e                	mv	a0,s3
   12316:	500020ef          	jal	ra,14816 <__malloc_unlock>
   1231a:	4501                	li	a0,0
   1231c:	70e2                	ld	ra,56(sp)
   1231e:	7442                	ld	s0,48(sp)
   12320:	74a2                	ld	s1,40(sp)
   12322:	7902                	ld	s2,32(sp)
   12324:	69e2                	ld	s3,24(sp)
   12326:	6121                	addi	sp,sp,64
   12328:	8082                	ret
   1232a:	4581                	li	a1,0
   1232c:	854e                	mv	a0,s3
   1232e:	2cc030ef          	jal	ra,155fa <_sbrk_r>
   12332:	01093783          	ld	a5,16(s2)
   12336:	97a6                	add	a5,a5,s1
   12338:	fcf51ee3          	bne	a0,a5,12314 <_malloc_trim_r+0x38>
   1233c:	408005b3          	neg	a1,s0
   12340:	854e                	mv	a0,s3
   12342:	2b8030ef          	jal	ra,155fa <_sbrk_r>
   12346:	57fd                	li	a5,-1
   12348:	02f51863          	bne	a0,a5,12378 <_malloc_trim_r+0x9c>
   1234c:	4581                	li	a1,0
   1234e:	854e                	mv	a0,s3
   12350:	2aa030ef          	jal	ra,155fa <_sbrk_r>
   12354:	01093703          	ld	a4,16(s2)
   12358:	46fd                	li	a3,31
   1235a:	40e507b3          	sub	a5,a0,a4
   1235e:	faf6dbe3          	ble	a5,a3,12314 <_malloc_trim_r+0x38>
   12362:	8401b683          	ld	a3,-1984(gp) # 1cd98 <__malloc_sbrk_base>
   12366:	0017e793          	ori	a5,a5,1
   1236a:	e71c                	sd	a5,8(a4)
   1236c:	8d15                	sub	a0,a0,a3
   1236e:	000216b7          	lui	a3,0x21
   12372:	e0a6a823          	sw	a0,-496(a3) # 20e10 <__malloc_current_mallinfo>
   12376:	bf79                	j	12314 <_malloc_trim_r+0x38>
   12378:	01093783          	ld	a5,16(s2)
   1237c:	8c81                	sub	s1,s1,s0
   1237e:	00021737          	lui	a4,0x21
   12382:	0014e493          	ori	s1,s1,1
   12386:	e784                	sd	s1,8(a5)
   12388:	e1072783          	lw	a5,-496(a4) # 20e10 <__malloc_current_mallinfo>
   1238c:	854e                	mv	a0,s3
   1238e:	4087843b          	subw	s0,a5,s0
   12392:	e0872823          	sw	s0,-496(a4)
   12396:	480020ef          	jal	ra,14816 <__malloc_unlock>
   1239a:	4505                	li	a0,1
   1239c:	b741                	j	1231c <_malloc_trim_r+0x40>

000000000001239e <_free_r>:
   1239e:	1a058863          	beqz	a1,1254e <_free_r+0x1b0>
   123a2:	1101                	addi	sp,sp,-32
   123a4:	e822                	sd	s0,16(sp)
   123a6:	e426                	sd	s1,8(sp)
   123a8:	842a                	mv	s0,a0
   123aa:	84ae                	mv	s1,a1
   123ac:	ec06                	sd	ra,24(sp)
   123ae:	466020ef          	jal	ra,14814 <__malloc_lock>
   123b2:	ff84b503          	ld	a0,-8(s1)
   123b6:	6671                	lui	a2,0x1c
   123b8:	ff048693          	addi	a3,s1,-16
   123bc:	ffe57793          	andi	a5,a0,-2
   123c0:	54860813          	addi	a6,a2,1352 # 1c548 <__malloc_av_>
   123c4:	00f685b3          	add	a1,a3,a5
   123c8:	6598                	ld	a4,8(a1)
   123ca:	01083803          	ld	a6,16(a6)
   123ce:	54860613          	addi	a2,a2,1352
   123d2:	9b71                	andi	a4,a4,-4
   123d4:	8905                	andi	a0,a0,1
   123d6:	04b81063          	bne	a6,a1,12416 <_free_r+0x78>
   123da:	97ba                	add	a5,a5,a4
   123dc:	e909                	bnez	a0,123ee <_free_r+0x50>
   123de:	ff04b703          	ld	a4,-16(s1)
   123e2:	8e99                	sub	a3,a3,a4
   123e4:	6a8c                	ld	a1,16(a3)
   123e6:	97ba                	add	a5,a5,a4
   123e8:	6e98                	ld	a4,24(a3)
   123ea:	ed98                	sd	a4,24(a1)
   123ec:	eb0c                	sd	a1,16(a4)
   123ee:	0017e713          	ori	a4,a5,1
   123f2:	e698                	sd	a4,8(a3)
   123f4:	8481b703          	ld	a4,-1976(gp) # 1cda0 <__malloc_trim_threshold>
   123f8:	ea14                	sd	a3,16(a2)
   123fa:	00e7e763          	bltu	a5,a4,12408 <_free_r+0x6a>
   123fe:	8701b583          	ld	a1,-1936(gp) # 1cdc8 <__malloc_top_pad>
   12402:	8522                	mv	a0,s0
   12404:	ed9ff0ef          	jal	ra,122dc <_malloc_trim_r>
   12408:	8522                	mv	a0,s0
   1240a:	6442                	ld	s0,16(sp)
   1240c:	60e2                	ld	ra,24(sp)
   1240e:	64a2                	ld	s1,8(sp)
   12410:	6105                	addi	sp,sp,32
   12412:	4040206f          	j	14816 <__malloc_unlock>
   12416:	e598                	sd	a4,8(a1)
   12418:	4801                	li	a6,0
   1241a:	e10d                	bnez	a0,1243c <_free_r+0x9e>
   1241c:	ff04b503          	ld	a0,-16(s1)
   12420:	68f1                	lui	a7,0x1c
   12422:	55888893          	addi	a7,a7,1368 # 1c558 <__malloc_av_+0x10>
   12426:	8e89                	sub	a3,a3,a0
   12428:	97aa                	add	a5,a5,a0
   1242a:	6a88                	ld	a0,16(a3)
   1242c:	07150e63          	beq	a0,a7,124a8 <_free_r+0x10a>
   12430:	0186b883          	ld	a7,24(a3)
   12434:	01153c23          	sd	a7,24(a0)
   12438:	00a8b823          	sd	a0,16(a7)
   1243c:	00e58533          	add	a0,a1,a4
   12440:	6508                	ld	a0,8(a0)
   12442:	8905                	andi	a0,a0,1
   12444:	ed19                	bnez	a0,12462 <_free_r+0xc4>
   12446:	97ba                	add	a5,a5,a4
   12448:	6998                	ld	a4,16(a1)
   1244a:	06081163          	bnez	a6,124ac <_free_r+0x10e>
   1244e:	6571                	lui	a0,0x1c
   12450:	55850513          	addi	a0,a0,1368 # 1c558 <__malloc_av_+0x10>
   12454:	04a71c63          	bne	a4,a0,124ac <_free_r+0x10e>
   12458:	f614                	sd	a3,40(a2)
   1245a:	f214                	sd	a3,32(a2)
   1245c:	ee98                	sd	a4,24(a3)
   1245e:	ea98                	sd	a4,16(a3)
   12460:	4805                	li	a6,1
   12462:	0017e713          	ori	a4,a5,1
   12466:	e698                	sd	a4,8(a3)
   12468:	00f68733          	add	a4,a3,a5
   1246c:	e31c                	sd	a5,0(a4)
   1246e:	f8081de3          	bnez	a6,12408 <_free_r+0x6a>
   12472:	1ff00713          	li	a4,511
   12476:	02f76f63          	bltu	a4,a5,124b4 <_free_r+0x116>
   1247a:	838d                	srli	a5,a5,0x3
   1247c:	2781                	sext.w	a5,a5
   1247e:	4027d59b          	sraiw	a1,a5,0x2
   12482:	4705                	li	a4,1
   12484:	00b71733          	sll	a4,a4,a1
   12488:	2785                	addiw	a5,a5,1
   1248a:	660c                	ld	a1,8(a2)
   1248c:	0017979b          	slliw	a5,a5,0x1
   12490:	078e                	slli	a5,a5,0x3
   12492:	97b2                	add	a5,a5,a2
   12494:	8f4d                	or	a4,a4,a1
   12496:	e618                	sd	a4,8(a2)
   12498:	6398                	ld	a4,0(a5)
   1249a:	ff078613          	addi	a2,a5,-16
   1249e:	ee90                	sd	a2,24(a3)
   124a0:	ea98                	sd	a4,16(a3)
   124a2:	e394                	sd	a3,0(a5)
   124a4:	ef14                	sd	a3,24(a4)
   124a6:	b78d                	j	12408 <_free_r+0x6a>
   124a8:	4805                	li	a6,1
   124aa:	bf49                	j	1243c <_free_r+0x9e>
   124ac:	6d8c                	ld	a1,24(a1)
   124ae:	ef0c                	sd	a1,24(a4)
   124b0:	e998                	sd	a4,16(a1)
   124b2:	bf45                	j	12462 <_free_r+0xc4>
   124b4:	0097d593          	srli	a1,a5,0x9
   124b8:	4711                	li	a4,4
   124ba:	02b76e63          	bltu	a4,a1,124f6 <_free_r+0x158>
   124be:	0067d713          	srli	a4,a5,0x6
   124c2:	0387071b          	addiw	a4,a4,56
   124c6:	0017059b          	addiw	a1,a4,1
   124ca:	0015959b          	slliw	a1,a1,0x1
   124ce:	058e                	slli	a1,a1,0x3
   124d0:	95b2                	add	a1,a1,a2
   124d2:	ff058513          	addi	a0,a1,-16
   124d6:	618c                	ld	a1,0(a1)
   124d8:	06b51563          	bne	a0,a1,12542 <_free_r+0x1a4>
   124dc:	4785                	li	a5,1
   124de:	4027571b          	sraiw	a4,a4,0x2
   124e2:	00e79733          	sll	a4,a5,a4
   124e6:	661c                	ld	a5,8(a2)
   124e8:	8f5d                	or	a4,a4,a5
   124ea:	e618                	sd	a4,8(a2)
   124ec:	ee88                	sd	a0,24(a3)
   124ee:	ea8c                	sd	a1,16(a3)
   124f0:	e914                	sd	a3,16(a0)
   124f2:	ed94                	sd	a3,24(a1)
   124f4:	bf11                	j	12408 <_free_r+0x6a>
   124f6:	4751                	li	a4,20
   124f8:	00b76563          	bltu	a4,a1,12502 <_free_r+0x164>
   124fc:	05b5871b          	addiw	a4,a1,91
   12500:	b7d9                	j	124c6 <_free_r+0x128>
   12502:	05400713          	li	a4,84
   12506:	00b76763          	bltu	a4,a1,12514 <_free_r+0x176>
   1250a:	00c7d713          	srli	a4,a5,0xc
   1250e:	06e7071b          	addiw	a4,a4,110
   12512:	bf55                	j	124c6 <_free_r+0x128>
   12514:	15400713          	li	a4,340
   12518:	00b76763          	bltu	a4,a1,12526 <_free_r+0x188>
   1251c:	00f7d713          	srli	a4,a5,0xf
   12520:	0777071b          	addiw	a4,a4,119
   12524:	b74d                	j	124c6 <_free_r+0x128>
   12526:	55400513          	li	a0,1364
   1252a:	07e00713          	li	a4,126
   1252e:	f8b56ce3          	bltu	a0,a1,124c6 <_free_r+0x128>
   12532:	0127d713          	srli	a4,a5,0x12
   12536:	07c7071b          	addiw	a4,a4,124
   1253a:	b771                	j	124c6 <_free_r+0x128>
   1253c:	698c                	ld	a1,16(a1)
   1253e:	00b50663          	beq	a0,a1,1254a <_free_r+0x1ac>
   12542:	6598                	ld	a4,8(a1)
   12544:	9b71                	andi	a4,a4,-4
   12546:	fee7ebe3          	bltu	a5,a4,1253c <_free_r+0x19e>
   1254a:	6d88                	ld	a0,24(a1)
   1254c:	b745                	j	124ec <_free_r+0x14e>
   1254e:	8082                	ret

0000000000012550 <__sfvwrite_r>:
   12550:	6a1c                	ld	a5,16(a2)
   12552:	e781                	bnez	a5,1255a <__sfvwrite_r+0xa>
   12554:	4781                	li	a5,0
   12556:	853e                	mv	a0,a5
   12558:	8082                	ret
   1255a:	0105d783          	lhu	a5,16(a1)
   1255e:	7119                	addi	sp,sp,-128
   12560:	f8a2                	sd	s0,112(sp)
   12562:	f0ca                	sd	s2,96(sp)
   12564:	e8d2                	sd	s4,80(sp)
   12566:	fc86                	sd	ra,120(sp)
   12568:	f4a6                	sd	s1,104(sp)
   1256a:	ecce                	sd	s3,88(sp)
   1256c:	e4d6                	sd	s5,72(sp)
   1256e:	e0da                	sd	s6,64(sp)
   12570:	fc5e                	sd	s7,56(sp)
   12572:	f862                	sd	s8,48(sp)
   12574:	f466                	sd	s9,40(sp)
   12576:	f06a                	sd	s10,32(sp)
   12578:	ec6e                	sd	s11,24(sp)
   1257a:	8ba1                	andi	a5,a5,8
   1257c:	8a32                	mv	s4,a2
   1257e:	842e                	mv	s0,a1
   12580:	892a                	mv	s2,a0
   12582:	cfd1                	beqz	a5,1261e <__sfvwrite_r+0xce>
   12584:	6d9c                	ld	a5,24(a1)
   12586:	cfc1                	beqz	a5,1261e <__sfvwrite_r+0xce>
   12588:	01045783          	lhu	a5,16(s0)
   1258c:	000a3983          	ld	s3,0(s4)
   12590:	0027f713          	andi	a4,a5,2
   12594:	0e071863          	bnez	a4,12684 <__sfvwrite_r+0x134>
   12598:	8b85                	andi	a5,a5,1
   1259a:	4a81                	li	s5,0
   1259c:	16078463          	beqz	a5,12704 <__sfvwrite_r+0x1b4>
   125a0:	4501                	li	a0,0
   125a2:	4b81                	li	s7,0
   125a4:	4b01                	li	s6,0
   125a6:	240b0863          	beqz	s6,127f6 <__sfvwrite_r+0x2a6>
   125aa:	e919                	bnez	a0,125c0 <__sfvwrite_r+0x70>
   125ac:	865a                	mv	a2,s6
   125ae:	45a9                	li	a1,10
   125b0:	855e                	mv	a0,s7
   125b2:	14c020ef          	jal	ra,146fe <memchr>
   125b6:	24050763          	beqz	a0,12804 <__sfvwrite_r+0x2b4>
   125ba:	0505                	addi	a0,a0,1
   125bc:	41750abb          	subw	s5,a0,s7
   125c0:	8c56                	mv	s8,s5
   125c2:	015b7363          	bleu	s5,s6,125c8 <__sfvwrite_r+0x78>
   125c6:	8c5a                	mv	s8,s6
   125c8:	6008                	ld	a0,0(s0)
   125ca:	6c1c                	ld	a5,24(s0)
   125cc:	5014                	lw	a3,32(s0)
   125ce:	22a7fe63          	bleu	a0,a5,1280a <__sfvwrite_r+0x2ba>
   125d2:	4444                	lw	s1,12(s0)
   125d4:	9cb5                	addw	s1,s1,a3
   125d6:	2384da63          	ble	s8,s1,1280a <__sfvwrite_r+0x2ba>
   125da:	85de                	mv	a1,s7
   125dc:	8626                	mv	a2,s1
   125de:	1f8020ef          	jal	ra,147d6 <memmove>
   125e2:	601c                	ld	a5,0(s0)
   125e4:	85a2                	mv	a1,s0
   125e6:	854a                	mv	a0,s2
   125e8:	97a6                	add	a5,a5,s1
   125ea:	e01c                	sd	a5,0(s0)
   125ec:	ac3ff0ef          	jal	ra,120ae <_fflush_r>
   125f0:	10051263          	bnez	a0,126f4 <__sfvwrite_r+0x1a4>
   125f4:	409a8abb          	subw	s5,s5,s1
   125f8:	4505                	li	a0,1
   125fa:	000a9763          	bnez	s5,12608 <__sfvwrite_r+0xb8>
   125fe:	85a2                	mv	a1,s0
   12600:	854a                	mv	a0,s2
   12602:	aadff0ef          	jal	ra,120ae <_fflush_r>
   12606:	e57d                	bnez	a0,126f4 <__sfvwrite_r+0x1a4>
   12608:	010a3783          	ld	a5,16(s4)
   1260c:	9ba6                	add	s7,s7,s1
   1260e:	409b0b33          	sub	s6,s6,s1
   12612:	409784b3          	sub	s1,a5,s1
   12616:	009a3823          	sd	s1,16(s4)
   1261a:	f4d1                	bnez	s1,125a6 <__sfvwrite_r+0x56>
   1261c:	a099                	j	12662 <__sfvwrite_r+0x112>
   1261e:	85a2                	mv	a1,s0
   12620:	854a                	mv	a0,s2
   12622:	f3eff0ef          	jal	ra,11d60 <__swsetup_r>
   12626:	57fd                	li	a5,-1
   12628:	d125                	beqz	a0,12588 <__sfvwrite_r+0x38>
   1262a:	a82d                	j	12664 <__sfvwrite_r+0x114>
   1262c:	0009ba83          	ld	s5,0(s3)
   12630:	0089b483          	ld	s1,8(s3)
   12634:	09c1                	addi	s3,s3,16
   12636:	d8fd                	beqz	s1,1262c <__sfvwrite_r+0xdc>
   12638:	86a6                	mv	a3,s1
   1263a:	009b7363          	bleu	s1,s6,12640 <__sfvwrite_r+0xf0>
   1263e:	86da                	mv	a3,s6
   12640:	603c                	ld	a5,64(s0)
   12642:	780c                	ld	a1,48(s0)
   12644:	2681                	sext.w	a3,a3
   12646:	8656                	mv	a2,s5
   12648:	854a                	mv	a0,s2
   1264a:	9782                	jalr	a5
   1264c:	0aa05463          	blez	a0,126f4 <__sfvwrite_r+0x1a4>
   12650:	010a3783          	ld	a5,16(s4)
   12654:	9aaa                	add	s5,s5,a0
   12656:	8c89                	sub	s1,s1,a0
   12658:	40a78533          	sub	a0,a5,a0
   1265c:	00aa3823          	sd	a0,16(s4)
   12660:	f979                	bnez	a0,12636 <__sfvwrite_r+0xe6>
   12662:	4781                	li	a5,0
   12664:	70e6                	ld	ra,120(sp)
   12666:	7446                	ld	s0,112(sp)
   12668:	74a6                	ld	s1,104(sp)
   1266a:	7906                	ld	s2,96(sp)
   1266c:	69e6                	ld	s3,88(sp)
   1266e:	6a46                	ld	s4,80(sp)
   12670:	6aa6                	ld	s5,72(sp)
   12672:	6b06                	ld	s6,64(sp)
   12674:	7be2                	ld	s7,56(sp)
   12676:	7c42                	ld	s8,48(sp)
   12678:	7ca2                	ld	s9,40(sp)
   1267a:	7d02                	ld	s10,32(sp)
   1267c:	6de2                	ld	s11,24(sp)
   1267e:	853e                	mv	a0,a5
   12680:	6109                	addi	sp,sp,128
   12682:	8082                	ret
   12684:	80000b37          	lui	s6,0x80000
   12688:	4a81                	li	s5,0
   1268a:	4481                	li	s1,0
   1268c:	c00b4b13          	xori	s6,s6,-1024
   12690:	b75d                	j	12636 <__sfvwrite_r+0xe6>
   12692:	0009ba83          	ld	s5,0(s3)
   12696:	0089bd03          	ld	s10,8(s3)
   1269a:	09c1                	addi	s3,s3,16
   1269c:	4444                	lw	s1,12(s0)
   1269e:	87a6                	mv	a5,s1
   126a0:	fe0d09e3          	beqz	s10,12692 <__sfvwrite_r+0x142>
   126a4:	01045703          	lhu	a4,16(s0)
   126a8:	6008                	ld	a0,0(s0)
   126aa:	20077693          	andi	a3,a4,512
   126ae:	0e068863          	beqz	a3,1279e <__sfvwrite_r+0x24e>
   126b2:	089d6963          	bltu	s10,s1,12744 <__sfvwrite_r+0x1f4>
   126b6:	48077693          	andi	a3,a4,1152
   126ba:	c6c9                	beqz	a3,12744 <__sfvwrite_r+0x1f4>
   126bc:	5004                	lw	s1,32(s0)
   126be:	6c0c                	ld	a1,24(s0)
   126c0:	029c04bb          	mulw	s1,s8,s1
   126c4:	8d0d                	sub	a0,a0,a1
   126c6:	00050d9b          	sext.w	s11,a0
   126ca:	001d8793          	addi	a5,s11,1
   126ce:	97ea                	add	a5,a5,s10
   126d0:	0394c4bb          	divw	s1,s1,s9
   126d4:	00f4f563          	bleu	a5,s1,126de <__sfvwrite_r+0x18e>
   126d8:	2505                	addiw	a0,a0,1
   126da:	01a504bb          	addw	s1,a0,s10
   126de:	40077713          	andi	a4,a4,1024
   126e2:	cf49                	beqz	a4,1277c <__sfvwrite_r+0x22c>
   126e4:	85a6                	mv	a1,s1
   126e6:	854a                	mv	a0,s2
   126e8:	2e5010ef          	jal	ra,141cc <_malloc_r>
   126ec:	e515                	bnez	a0,12718 <__sfvwrite_r+0x1c8>
   126ee:	47b1                	li	a5,12
   126f0:	00f92023          	sw	a5,0(s2)
   126f4:	01045783          	lhu	a5,16(s0)
   126f8:	0407e793          	ori	a5,a5,64
   126fc:	00f41823          	sh	a5,16(s0)
   12700:	57fd                	li	a5,-1
   12702:	b78d                	j	12664 <__sfvwrite_r+0x114>
   12704:	80000b37          	lui	s6,0x80000
   12708:	ffeb4b93          	xori	s7,s6,-2
   1270c:	4d01                	li	s10,0
   1270e:	fffb4b13          	not	s6,s6
   12712:	4c0d                	li	s8,3
   12714:	4c89                	li	s9,2
   12716:	b759                	j	1269c <__sfvwrite_r+0x14c>
   12718:	6c0c                	ld	a1,24(s0)
   1271a:	866e                	mv	a2,s11
   1271c:	e42a                	sd	a0,8(sp)
   1271e:	7fb010ef          	jal	ra,14718 <memcpy>
   12722:	01045703          	lhu	a4,16(s0)
   12726:	67a2                	ld	a5,8(sp)
   12728:	b7f77713          	andi	a4,a4,-1153
   1272c:	08076713          	ori	a4,a4,128
   12730:	00e41823          	sh	a4,16(s0)
   12734:	ec1c                	sd	a5,24(s0)
   12736:	d004                	sw	s1,32(s0)
   12738:	97ee                	add	a5,a5,s11
   1273a:	41b484bb          	subw	s1,s1,s11
   1273e:	e01c                	sd	a5,0(s0)
   12740:	c444                	sw	s1,12(s0)
   12742:	87ea                	mv	a5,s10
   12744:	84ea                	mv	s1,s10
   12746:	00fd7363          	bleu	a5,s10,1274c <__sfvwrite_r+0x1fc>
   1274a:	87ea                	mv	a5,s10
   1274c:	6008                	ld	a0,0(s0)
   1274e:	863e                	mv	a2,a5
   12750:	85d6                	mv	a1,s5
   12752:	e43e                	sd	a5,8(sp)
   12754:	082020ef          	jal	ra,147d6 <memmove>
   12758:	4458                	lw	a4,12(s0)
   1275a:	67a2                	ld	a5,8(sp)
   1275c:	9f1d                	subw	a4,a4,a5
   1275e:	c458                	sw	a4,12(s0)
   12760:	6018                	ld	a4,0(s0)
   12762:	97ba                	add	a5,a5,a4
   12764:	e01c                	sd	a5,0(s0)
   12766:	010a3783          	ld	a5,16(s4)
   1276a:	9aa6                	add	s5,s5,s1
   1276c:	409d0d33          	sub	s10,s10,s1
   12770:	409784b3          	sub	s1,a5,s1
   12774:	009a3823          	sd	s1,16(s4)
   12778:	f095                	bnez	s1,1269c <__sfvwrite_r+0x14c>
   1277a:	b5e5                	j	12662 <__sfvwrite_r+0x112>
   1277c:	8626                	mv	a2,s1
   1277e:	854a                	mv	a0,s2
   12780:	2b1020ef          	jal	ra,15230 <_realloc_r>
   12784:	87aa                	mv	a5,a0
   12786:	f55d                	bnez	a0,12734 <__sfvwrite_r+0x1e4>
   12788:	6c0c                	ld	a1,24(s0)
   1278a:	854a                	mv	a0,s2
   1278c:	c13ff0ef          	jal	ra,1239e <_free_r>
   12790:	01045783          	lhu	a5,16(s0)
   12794:	f7f7f793          	andi	a5,a5,-129
   12798:	00f41823          	sh	a5,16(s0)
   1279c:	bf89                	j	126ee <__sfvwrite_r+0x19e>
   1279e:	6c1c                	ld	a5,24(s0)
   127a0:	00a7e563          	bltu	a5,a0,127aa <__sfvwrite_r+0x25a>
   127a4:	5014                	lw	a3,32(s0)
   127a6:	02dd7763          	bleu	a3,s10,127d4 <__sfvwrite_r+0x284>
   127aa:	009d7363          	bleu	s1,s10,127b0 <__sfvwrite_r+0x260>
   127ae:	84ea                	mv	s1,s10
   127b0:	8626                	mv	a2,s1
   127b2:	85d6                	mv	a1,s5
   127b4:	022020ef          	jal	ra,147d6 <memmove>
   127b8:	445c                	lw	a5,12(s0)
   127ba:	4097873b          	subw	a4,a5,s1
   127be:	601c                	ld	a5,0(s0)
   127c0:	c458                	sw	a4,12(s0)
   127c2:	97a6                	add	a5,a5,s1
   127c4:	e01c                	sd	a5,0(s0)
   127c6:	f345                	bnez	a4,12766 <__sfvwrite_r+0x216>
   127c8:	85a2                	mv	a1,s0
   127ca:	854a                	mv	a0,s2
   127cc:	8e3ff0ef          	jal	ra,120ae <_fflush_r>
   127d0:	d959                	beqz	a0,12766 <__sfvwrite_r+0x216>
   127d2:	b70d                	j	126f4 <__sfvwrite_r+0x1a4>
   127d4:	87da                	mv	a5,s6
   127d6:	01abe363          	bltu	s7,s10,127dc <__sfvwrite_r+0x28c>
   127da:	87ea                	mv	a5,s10
   127dc:	02d7c7bb          	divw	a5,a5,a3
   127e0:	6038                	ld	a4,64(s0)
   127e2:	780c                	ld	a1,48(s0)
   127e4:	8656                	mv	a2,s5
   127e6:	854a                	mv	a0,s2
   127e8:	02d786bb          	mulw	a3,a5,a3
   127ec:	9702                	jalr	a4
   127ee:	84aa                	mv	s1,a0
   127f0:	f6a04be3          	bgtz	a0,12766 <__sfvwrite_r+0x216>
   127f4:	b701                	j	126f4 <__sfvwrite_r+0x1a4>
   127f6:	0009bb83          	ld	s7,0(s3)
   127fa:	0089bb03          	ld	s6,8(s3)
   127fe:	4501                	li	a0,0
   12800:	09c1                	addi	s3,s3,16
   12802:	b355                	j	125a6 <__sfvwrite_r+0x56>
   12804:	001b0a9b          	addiw	s5,s6,1
   12808:	bb65                	j	125c0 <__sfvwrite_r+0x70>
   1280a:	00dc4b63          	blt	s8,a3,12820 <__sfvwrite_r+0x2d0>
   1280e:	603c                	ld	a5,64(s0)
   12810:	780c                	ld	a1,48(s0)
   12812:	865e                	mv	a2,s7
   12814:	854a                	mv	a0,s2
   12816:	9782                	jalr	a5
   12818:	84aa                	mv	s1,a0
   1281a:	dca04de3          	bgtz	a0,125f4 <__sfvwrite_r+0xa4>
   1281e:	bdd9                	j	126f4 <__sfvwrite_r+0x1a4>
   12820:	8662                	mv	a2,s8
   12822:	85de                	mv	a1,s7
   12824:	7b3010ef          	jal	ra,147d6 <memmove>
   12828:	445c                	lw	a5,12(s0)
   1282a:	84e2                	mv	s1,s8
   1282c:	418787bb          	subw	a5,a5,s8
   12830:	c45c                	sw	a5,12(s0)
   12832:	601c                	ld	a5,0(s0)
   12834:	97e2                	add	a5,a5,s8
   12836:	e01c                	sd	a5,0(s0)
   12838:	bb75                	j	125f4 <__sfvwrite_r+0xa4>

000000000001283a <_fwalk>:
   1283a:	715d                	addi	sp,sp,-80
   1283c:	e0a2                	sd	s0,64(sp)
   1283e:	fc26                	sd	s1,56(sp)
   12840:	f052                	sd	s4,32(sp)
   12842:	ec56                	sd	s5,24(sp)
   12844:	e486                	sd	ra,72(sp)
   12846:	f84a                	sd	s2,48(sp)
   12848:	f44e                	sd	s3,40(sp)
   1284a:	52050493          	addi	s1,a0,1312
   1284e:	4401                	li	s0,0
   12850:	4a05                	li	s4,1
   12852:	5afd                	li	s5,-1
   12854:	e899                	bnez	s1,1286a <_fwalk+0x30>
   12856:	8522                	mv	a0,s0
   12858:	60a6                	ld	ra,72(sp)
   1285a:	6406                	ld	s0,64(sp)
   1285c:	74e2                	ld	s1,56(sp)
   1285e:	7942                	ld	s2,48(sp)
   12860:	79a2                	ld	s3,40(sp)
   12862:	7a02                	ld	s4,32(sp)
   12864:	6ae2                	ld	s5,24(sp)
   12866:	6161                	addi	sp,sp,80
   12868:	8082                	ret
   1286a:	0104b903          	ld	s2,16(s1)
   1286e:	0084a983          	lw	s3,8(s1)
   12872:	39fd                	addiw	s3,s3,-1
   12874:	0009d463          	bgez	s3,1287c <_fwalk+0x42>
   12878:	6084                	ld	s1,0(s1)
   1287a:	bfe9                	j	12854 <_fwalk+0x1a>
   1287c:	01095783          	lhu	a5,16(s2)
   12880:	00fa7c63          	bleu	a5,s4,12898 <_fwalk+0x5e>
   12884:	01291783          	lh	a5,18(s2)
   12888:	01578863          	beq	a5,s5,12898 <_fwalk+0x5e>
   1288c:	854a                	mv	a0,s2
   1288e:	e42e                	sd	a1,8(sp)
   12890:	9582                	jalr	a1
   12892:	65a2                	ld	a1,8(sp)
   12894:	8c49                	or	s0,s0,a0
   12896:	2401                	sext.w	s0,s0
   12898:	0b090913          	addi	s2,s2,176
   1289c:	bfd9                	j	12872 <_fwalk+0x38>

000000000001289e <_fwalk_reent>:
   1289e:	715d                	addi	sp,sp,-80
   128a0:	e0a2                	sd	s0,64(sp)
   128a2:	fc26                	sd	s1,56(sp)
   128a4:	f052                	sd	s4,32(sp)
   128a6:	ec56                	sd	s5,24(sp)
   128a8:	e85a                	sd	s6,16(sp)
   128aa:	e45e                	sd	s7,8(sp)
   128ac:	e486                	sd	ra,72(sp)
   128ae:	f84a                	sd	s2,48(sp)
   128b0:	f44e                	sd	s3,40(sp)
   128b2:	8a2a                	mv	s4,a0
   128b4:	8aae                	mv	s5,a1
   128b6:	52050493          	addi	s1,a0,1312
   128ba:	4401                	li	s0,0
   128bc:	4b05                	li	s6,1
   128be:	5bfd                	li	s7,-1
   128c0:	ec89                	bnez	s1,128da <_fwalk_reent+0x3c>
   128c2:	8522                	mv	a0,s0
   128c4:	60a6                	ld	ra,72(sp)
   128c6:	6406                	ld	s0,64(sp)
   128c8:	74e2                	ld	s1,56(sp)
   128ca:	7942                	ld	s2,48(sp)
   128cc:	79a2                	ld	s3,40(sp)
   128ce:	7a02                	ld	s4,32(sp)
   128d0:	6ae2                	ld	s5,24(sp)
   128d2:	6b42                	ld	s6,16(sp)
   128d4:	6ba2                	ld	s7,8(sp)
   128d6:	6161                	addi	sp,sp,80
   128d8:	8082                	ret
   128da:	0104b903          	ld	s2,16(s1)
   128de:	0084a983          	lw	s3,8(s1)
   128e2:	39fd                	addiw	s3,s3,-1
   128e4:	0009d463          	bgez	s3,128ec <_fwalk_reent+0x4e>
   128e8:	6084                	ld	s1,0(s1)
   128ea:	bfd9                	j	128c0 <_fwalk_reent+0x22>
   128ec:	01095783          	lhu	a5,16(s2)
   128f0:	00fb7b63          	bleu	a5,s6,12906 <_fwalk_reent+0x68>
   128f4:	01291783          	lh	a5,18(s2)
   128f8:	01778763          	beq	a5,s7,12906 <_fwalk_reent+0x68>
   128fc:	85ca                	mv	a1,s2
   128fe:	8552                	mv	a0,s4
   12900:	9a82                	jalr	s5
   12902:	8c49                	or	s0,s0,a0
   12904:	2401                	sext.w	s0,s0
   12906:	0b090913          	addi	s2,s2,176
   1290a:	bfe1                	j	128e2 <_fwalk_reent+0x44>

000000000001290c <eclear>:
   1290c:	01450793          	addi	a5,a0,20
   12910:	0509                	addi	a0,a0,2
   12912:	fe051f23          	sh	zero,-2(a0)
   12916:	fef51de3          	bne	a0,a5,12910 <eclear+0x4>
   1291a:	8082                	ret

000000000001291c <emov>:
   1291c:	01450793          	addi	a5,a0,20
   12920:	0509                	addi	a0,a0,2
   12922:	ffe55703          	lhu	a4,-2(a0)
   12926:	0589                	addi	a1,a1,2
   12928:	fee59f23          	sh	a4,-2(a1)
   1292c:	fea79ae3          	bne	a5,a0,12920 <emov+0x4>
   12930:	8082                	ret

0000000000012932 <ecleaz>:
   12932:	01a50793          	addi	a5,a0,26
   12936:	0509                	addi	a0,a0,2
   12938:	fe051f23          	sh	zero,-2(a0)
   1293c:	fef51de3          	bne	a0,a5,12936 <ecleaz+0x4>
   12940:	8082                	ret

0000000000012942 <emovz>:
   12942:	01850713          	addi	a4,a0,24
   12946:	87ae                	mv	a5,a1
   12948:	0509                	addi	a0,a0,2
   1294a:	ffe55683          	lhu	a3,-2(a0)
   1294e:	0789                	addi	a5,a5,2
   12950:	fed79f23          	sh	a3,-2(a5)
   12954:	fea71ae3          	bne	a4,a0,12948 <emovz+0x6>
   12958:	00059c23          	sh	zero,24(a1)
   1295c:	8082                	ret

000000000001295e <ecmpm>:
   1295e:	00450793          	addi	a5,a0,4
   12962:	0591                	addi	a1,a1,4
   12964:	0569                	addi	a0,a0,26
   12966:	0789                	addi	a5,a5,2
   12968:	0589                	addi	a1,a1,2
   1296a:	ffe7d683          	lhu	a3,-2(a5)
   1296e:	ffe5d703          	lhu	a4,-2(a1)
   12972:	00e69663          	bne	a3,a4,1297e <ecmpm+0x20>
   12976:	fef518e3          	bne	a0,a5,12966 <ecmpm+0x8>
   1297a:	4501                	li	a0,0
   1297c:	8082                	ret
   1297e:	4505                	li	a0,1
   12980:	00d76363          	bltu	a4,a3,12986 <ecmpm+0x28>
   12984:	557d                	li	a0,-1
   12986:	8082                	ret

0000000000012988 <eshdn1>:
   12988:	00450693          	addi	a3,a0,4
   1298c:	4781                	li	a5,0
   1298e:	0569                	addi	a0,a0,26
   12990:	7661                	lui	a2,0xffff8
   12992:	0006d703          	lhu	a4,0(a3)
   12996:	00177593          	andi	a1,a4,1
   1299a:	c199                	beqz	a1,129a0 <eshdn1+0x18>
   1299c:	0017e793          	ori	a5,a5,1
   129a0:	0027f593          	andi	a1,a5,2
   129a4:	8305                	srli	a4,a4,0x1
   129a6:	e999                	bnez	a1,129bc <eshdn1+0x34>
   129a8:	0017979b          	slliw	a5,a5,0x1
   129ac:	00e69023          	sh	a4,0(a3)
   129b0:	17c2                	slli	a5,a5,0x30
   129b2:	0689                	addi	a3,a3,2
   129b4:	93c1                	srli	a5,a5,0x30
   129b6:	fcd51ee3          	bne	a0,a3,12992 <eshdn1+0xa>
   129ba:	8082                	ret
   129bc:	8f51                	or	a4,a4,a2
   129be:	b7ed                	j	129a8 <eshdn1+0x20>

00000000000129c0 <eshup1>:
   129c0:	01650693          	addi	a3,a0,22
   129c4:	4701                	li	a4,0
   129c6:	0026d783          	lhu	a5,2(a3)
   129ca:	0107961b          	slliw	a2,a5,0x10
   129ce:	4106561b          	sraiw	a2,a2,0x10
   129d2:	00065463          	bgez	a2,129da <eshup1+0x1a>
   129d6:	00176713          	ori	a4,a4,1
   129da:	0017979b          	slliw	a5,a5,0x1
   129de:	17c2                	slli	a5,a5,0x30
   129e0:	00277613          	andi	a2,a4,2
   129e4:	93c1                	srli	a5,a5,0x30
   129e6:	ea19                	bnez	a2,129fc <eshup1+0x3c>
   129e8:	0017171b          	slliw	a4,a4,0x1
   129ec:	00f69123          	sh	a5,2(a3)
   129f0:	1742                	slli	a4,a4,0x30
   129f2:	16f9                	addi	a3,a3,-2
   129f4:	9341                	srli	a4,a4,0x30
   129f6:	fcd518e3          	bne	a0,a3,129c6 <eshup1+0x6>
   129fa:	8082                	ret
   129fc:	0017e793          	ori	a5,a5,1
   12a00:	b7e5                	j	129e8 <eshup1+0x28>

0000000000012a02 <eshdn8>:
   12a02:	00450793          	addi	a5,a0,4
   12a06:	4701                	li	a4,0
   12a08:	0569                	addi	a0,a0,26
   12a0a:	0007d683          	lhu	a3,0(a5)
   12a0e:	0789                	addi	a5,a5,2
   12a10:	0086d61b          	srliw	a2,a3,0x8
   12a14:	8f51                	or	a4,a4,a2
   12a16:	fee79f23          	sh	a4,-2(a5)
   12a1a:	0086971b          	slliw	a4,a3,0x8
   12a1e:	1742                	slli	a4,a4,0x30
   12a20:	9341                	srli	a4,a4,0x30
   12a22:	fef514e3          	bne	a0,a5,12a0a <eshdn8+0x8>
   12a26:	8082                	ret

0000000000012a28 <eshup8>:
   12a28:	01650793          	addi	a5,a0,22
   12a2c:	4701                	li	a4,0
   12a2e:	0027d683          	lhu	a3,2(a5)
   12a32:	17f9                	addi	a5,a5,-2
   12a34:	00869613          	slli	a2,a3,0x8
   12a38:	8f51                	or	a4,a4,a2
   12a3a:	00e79223          	sh	a4,4(a5)
   12a3e:	0086d713          	srli	a4,a3,0x8
   12a42:	fef516e3          	bne	a0,a5,12a2e <eshup8+0x6>
   12a46:	8082                	ret

0000000000012a48 <eshup6>:
   12a48:	00450793          	addi	a5,a0,4
   12a4c:	01850713          	addi	a4,a0,24
   12a50:	0789                	addi	a5,a5,2
   12a52:	0007d683          	lhu	a3,0(a5)
   12a56:	fed79f23          	sh	a3,-2(a5)
   12a5a:	fef71be3          	bne	a4,a5,12a50 <eshup6+0x8>
   12a5e:	00051c23          	sh	zero,24(a0)
   12a62:	8082                	ret

0000000000012a64 <eshdn6>:
   12a64:	01850793          	addi	a5,a0,24
   12a68:	01a50713          	addi	a4,a0,26
   12a6c:	00450693          	addi	a3,a0,4
   12a70:	17f9                	addi	a5,a5,-2
   12a72:	0007d603          	lhu	a2,0(a5)
   12a76:	1779                	addi	a4,a4,-2
   12a78:	00c71023          	sh	a2,0(a4)
   12a7c:	fef69ae3          	bne	a3,a5,12a70 <eshdn6+0xc>
   12a80:	00051223          	sh	zero,4(a0)
   12a84:	8082                	ret

0000000000012a86 <eaddm>:
   12a86:	05e1                	addi	a1,a1,24
   12a88:	01650713          	addi	a4,a0,22
   12a8c:	4681                	li	a3,0
   12a8e:	0005d783          	lhu	a5,0(a1)
   12a92:	1779                	addi	a4,a4,-2
   12a94:	15f9                	addi	a1,a1,-2
   12a96:	97b6                	add	a5,a5,a3
   12a98:	00475683          	lhu	a3,4(a4)
   12a9c:	97b6                	add	a5,a5,a3
   12a9e:	00f59123          	sh	a5,2(a1)
   12aa2:	83c1                	srli	a5,a5,0x10
   12aa4:	0017f693          	andi	a3,a5,1
   12aa8:	fee513e3          	bne	a0,a4,12a8e <eaddm+0x8>
   12aac:	8082                	ret

0000000000012aae <esubm>:
   12aae:	05e1                	addi	a1,a1,24
   12ab0:	01650713          	addi	a4,a0,22
   12ab4:	4681                	li	a3,0
   12ab6:	0005d783          	lhu	a5,0(a1)
   12aba:	00275603          	lhu	a2,2(a4)
   12abe:	1779                	addi	a4,a4,-2
   12ac0:	15f9                	addi	a1,a1,-2
   12ac2:	8f91                	sub	a5,a5,a2
   12ac4:	8f95                	sub	a5,a5,a3
   12ac6:	00f59123          	sh	a5,2(a1)
   12aca:	83c1                	srli	a5,a5,0x10
   12acc:	0017f693          	andi	a3,a5,1
   12ad0:	fee513e3          	bne	a0,a4,12ab6 <esubm+0x8>
   12ad4:	8082                	ret

0000000000012ad6 <m16m>:
   12ad6:	1101                	addi	sp,sp,-32
   12ad8:	6341                	lui	t1,0x10
   12ada:	01858893          	addi	a7,a1,24
   12ade:	00011b23          	sh	zero,22(sp)
   12ae2:	00011c23          	sh	zero,24(sp)
   12ae6:	0591                	addi	a1,a1,4
   12ae8:	0834                	addi	a3,sp,24
   12aea:	137d                	addi	t1,t1,-1
   12aec:	0008d703          	lhu	a4,0(a7)
   12af0:	16f9                	addi	a3,a3,-2
   12af2:	18f9                	addi	a7,a7,-2
   12af4:	e705                	bnez	a4,12b1c <m16m+0x46>
   12af6:	fe069f23          	sh	zero,-2(a3)
   12afa:	ff1599e3          	bne	a1,a7,12aec <m16m+0x16>
   12afe:	4791                	li	a5,4
   12b00:	4769                	li	a4,26
   12b02:	00f105b3          	add	a1,sp,a5
   12b06:	0005d583          	lhu	a1,0(a1)
   12b0a:	00f606b3          	add	a3,a2,a5
   12b0e:	0789                	addi	a5,a5,2
   12b10:	00b69023          	sh	a1,0(a3)
   12b14:	fee797e3          	bne	a5,a4,12b02 <m16m+0x2c>
   12b18:	6105                	addi	sp,sp,32
   12b1a:	8082                	ret
   12b1c:	02a70733          	mul	a4,a4,a0
   12b20:	0026d803          	lhu	a6,2(a3)
   12b24:	006777b3          	and	a5,a4,t1
   12b28:	97c2                	add	a5,a5,a6
   12b2a:	0107d813          	srli	a6,a5,0x10
   12b2e:	00f69123          	sh	a5,2(a3)
   12b32:	01075793          	srli	a5,a4,0x10
   12b36:	0006d703          	lhu	a4,0(a3)
   12b3a:	97ba                	add	a5,a5,a4
   12b3c:	97c2                	add	a5,a5,a6
   12b3e:	00f69023          	sh	a5,0(a3)
   12b42:	83c1                	srli	a5,a5,0x10
   12b44:	fef69f23          	sh	a5,-2(a3)
   12b48:	bf4d                	j	12afa <m16m+0x24>

0000000000012b4a <eisnan>:
   12b4a:	01255783          	lhu	a5,18(a0)
   12b4e:	fff7c793          	not	a5,a5
   12b52:	03179713          	slli	a4,a5,0x31
   12b56:	eb09                	bnez	a4,12b68 <eisnan+0x1e>
   12b58:	01250793          	addi	a5,a0,18
   12b5c:	0509                	addi	a0,a0,2
   12b5e:	ffe55703          	lhu	a4,-2(a0)
   12b62:	e709                	bnez	a4,12b6c <eisnan+0x22>
   12b64:	fea79ce3          	bne	a5,a0,12b5c <eisnan+0x12>
   12b68:	4501                	li	a0,0
   12b6a:	8082                	ret
   12b6c:	4505                	li	a0,1
   12b6e:	8082                	ret

0000000000012b70 <eisneg>:
   12b70:	1141                	addi	sp,sp,-16
   12b72:	e022                	sd	s0,0(sp)
   12b74:	e406                	sd	ra,8(sp)
   12b76:	842a                	mv	s0,a0
   12b78:	fd3ff0ef          	jal	ra,12b4a <eisnan>
   12b7c:	e901                	bnez	a0,12b8c <eisneg+0x1c>
   12b7e:	01344503          	lbu	a0,19(s0)
   12b82:	811d                	srli	a0,a0,0x7
   12b84:	60a2                	ld	ra,8(sp)
   12b86:	6402                	ld	s0,0(sp)
   12b88:	0141                	addi	sp,sp,16
   12b8a:	8082                	ret
   12b8c:	4501                	li	a0,0
   12b8e:	bfdd                	j	12b84 <eisneg+0x14>

0000000000012b90 <emovi>:
   12b90:	01251783          	lh	a5,18(a0)
   12b94:	1101                	addi	sp,sp,-32
   12b96:	ec06                	sd	ra,24(sp)
   12b98:	e822                	sd	s0,16(sp)
   12b9a:	e426                	sd	s1,8(sp)
   12b9c:	e04a                	sd	s2,0(sp)
   12b9e:	0407d963          	bgez	a5,12bf0 <emovi+0x60>
   12ba2:	57fd                	li	a5,-1
   12ba4:	00f59023          	sh	a5,0(a1)
   12ba8:	01255703          	lhu	a4,18(a0)
   12bac:	67a1                	lui	a5,0x8
   12bae:	17fd                	addi	a5,a5,-1
   12bb0:	8f7d                	and	a4,a4,a5
   12bb2:	00e59123          	sh	a4,2(a1)
   12bb6:	01050913          	addi	s2,a0,16
   12bba:	04f71863          	bne	a4,a5,12c0a <emovi+0x7a>
   12bbe:	842e                	mv	s0,a1
   12bc0:	84aa                	mv	s1,a0
   12bc2:	f89ff0ef          	jal	ra,12b4a <eisnan>
   12bc6:	c905                	beqz	a0,12bf6 <emovi+0x66>
   12bc8:	00640793          	addi	a5,s0,6
   12bcc:	00041223          	sh	zero,4(s0)
   12bd0:	ffc48513          	addi	a0,s1,-4
   12bd4:	1979                	addi	s2,s2,-2
   12bd6:	00295703          	lhu	a4,2(s2)
   12bda:	0789                	addi	a5,a5,2
   12bdc:	fee79f23          	sh	a4,-2(a5) # 7ffe <_start-0x80b2>
   12be0:	fea91ae3          	bne	s2,a0,12bd4 <emovi+0x44>
   12be4:	60e2                	ld	ra,24(sp)
   12be6:	6442                	ld	s0,16(sp)
   12be8:	64a2                	ld	s1,8(sp)
   12bea:	6902                	ld	s2,0(sp)
   12bec:	6105                	addi	sp,sp,32
   12bee:	8082                	ret
   12bf0:	00059023          	sh	zero,0(a1)
   12bf4:	bf55                	j	12ba8 <emovi+0x18>
   12bf6:	00440793          	addi	a5,s0,4
   12bfa:	01a40593          	addi	a1,s0,26
   12bfe:	0789                	addi	a5,a5,2
   12c00:	fe079f23          	sh	zero,-2(a5)
   12c04:	feb79de3          	bne	a5,a1,12bfe <emovi+0x6e>
   12c08:	bff1                	j	12be4 <emovi+0x54>
   12c0a:	00658793          	addi	a5,a1,6
   12c0e:	00059223          	sh	zero,4(a1)
   12c12:	1579                	addi	a0,a0,-2
   12c14:	1979                	addi	s2,s2,-2
   12c16:	00295703          	lhu	a4,2(s2)
   12c1a:	0789                	addi	a5,a5,2
   12c1c:	fee79f23          	sh	a4,-2(a5)
   12c20:	fea91ae3          	bne	s2,a0,12c14 <emovi+0x84>
   12c24:	00059c23          	sh	zero,24(a1)
   12c28:	bf75                	j	12be4 <emovi+0x54>

0000000000012c2a <ecmp>:
   12c2a:	711d                	addi	sp,sp,-96
   12c2c:	e4a6                	sd	s1,72(sp)
   12c2e:	e0ca                	sd	s2,64(sp)
   12c30:	ec86                	sd	ra,88(sp)
   12c32:	e8a2                	sd	s0,80(sp)
   12c34:	892a                	mv	s2,a0
   12c36:	84ae                	mv	s1,a1
   12c38:	f13ff0ef          	jal	ra,12b4a <eisnan>
   12c3c:	e559                	bnez	a0,12cca <ecmp+0xa0>
   12c3e:	8526                	mv	a0,s1
   12c40:	f0bff0ef          	jal	ra,12b4a <eisnan>
   12c44:	842a                	mv	s0,a0
   12c46:	e151                	bnez	a0,12cca <ecmp+0xa0>
   12c48:	858a                	mv	a1,sp
   12c4a:	854a                	mv	a0,s2
   12c4c:	f45ff0ef          	jal	ra,12b90 <emovi>
   12c50:	100c                	addi	a1,sp,32
   12c52:	8526                	mv	a0,s1
   12c54:	f3dff0ef          	jal	ra,12b90 <emovi>
   12c58:	00015703          	lhu	a4,0(sp)
   12c5c:	02015783          	lhu	a5,32(sp)
   12c60:	02e78c63          	beq	a5,a4,12c98 <ecmp+0x6e>
   12c64:	4789                	li	a5,2
   12c66:	46e1                	li	a3,24
   12c68:	00f10633          	add	a2,sp,a5
   12c6c:	00065603          	lhu	a2,0(a2) # ffffffffffff8000 <_end+0xffffffffffdc71c0>
   12c70:	e205                	bnez	a2,12c90 <ecmp+0x66>
   12c72:	1010                	addi	a2,sp,32
   12c74:	963e                	add	a2,a2,a5
   12c76:	00065603          	lhu	a2,0(a2)
   12c7a:	ea19                	bnez	a2,12c90 <ecmp+0x66>
   12c7c:	0789                	addi	a5,a5,2
   12c7e:	fed795e3          	bne	a5,a3,12c68 <ecmp+0x3e>
   12c82:	8522                	mv	a0,s0
   12c84:	60e6                	ld	ra,88(sp)
   12c86:	6446                	ld	s0,80(sp)
   12c88:	64a6                	ld	s1,72(sp)
   12c8a:	6906                	ld	s2,64(sp)
   12c8c:	6125                	addi	sp,sp,96
   12c8e:	8082                	ret
   12c90:	4405                	li	s0,1
   12c92:	db65                	beqz	a4,12c82 <ecmp+0x58>
   12c94:	547d                	li	s0,-1
   12c96:	b7f5                	j	12c82 <ecmp+0x58>
   12c98:	4605                	li	a2,1
   12c9a:	c311                	beqz	a4,12c9e <ecmp+0x74>
   12c9c:	567d                	li	a2,-1
   12c9e:	4781                	li	a5,0
   12ca0:	45e1                	li	a1,24
   12ca2:	00f10733          	add	a4,sp,a5
   12ca6:	00075683          	lhu	a3,0(a4)
   12caa:	1018                	addi	a4,sp,32
   12cac:	973e                	add	a4,a4,a5
   12cae:	00075703          	lhu	a4,0(a4)
   12cb2:	00e69663          	bne	a3,a4,12cbe <ecmp+0x94>
   12cb6:	0789                	addi	a5,a5,2
   12cb8:	feb795e3          	bne	a5,a1,12ca2 <ecmp+0x78>
   12cbc:	b7d9                	j	12c82 <ecmp+0x58>
   12cbe:	8432                	mv	s0,a2
   12cc0:	fcd761e3          	bltu	a4,a3,12c82 <ecmp+0x58>
   12cc4:	40c0043b          	negw	s0,a2
   12cc8:	bf6d                	j	12c82 <ecmp+0x58>
   12cca:	5479                	li	s0,-2
   12ccc:	bf5d                	j	12c82 <ecmp+0x58>

0000000000012cce <eisinf>:
   12cce:	01255783          	lhu	a5,18(a0)
   12cd2:	fff7c793          	not	a5,a5
   12cd6:	03179713          	slli	a4,a5,0x31
   12cda:	eb11                	bnez	a4,12cee <eisinf+0x20>
   12cdc:	1141                	addi	sp,sp,-16
   12cde:	e406                	sd	ra,8(sp)
   12ce0:	e6bff0ef          	jal	ra,12b4a <eisnan>
   12ce4:	60a2                	ld	ra,8(sp)
   12ce6:	00153513          	seqz	a0,a0
   12cea:	0141                	addi	sp,sp,16
   12cec:	8082                	ret
   12cee:	4501                	li	a0,0
   12cf0:	8082                	ret

0000000000012cf2 <einfin.isra.2>:
   12cf2:	01250793          	addi	a5,a0,18
   12cf6:	0509                	addi	a0,a0,2
   12cf8:	fe051f23          	sh	zero,-2(a0)
   12cfc:	fef51de3          	bne	a0,a5,12cf6 <einfin.isra.2+0x4>
   12d00:	00055783          	lhu	a5,0(a0)
   12d04:	6721                	lui	a4,0x8
   12d06:	177d                	addi	a4,a4,-1
   12d08:	8fd9                	or	a5,a5,a4
   12d0a:	00f51023          	sh	a5,0(a0)
   12d0e:	8082                	ret

0000000000012d10 <eshift.part.3>:
   12d10:	7139                	addi	sp,sp,-64
   12d12:	f822                	sd	s0,48(sp)
   12d14:	ec4e                	sd	s3,24(sp)
   12d16:	fc06                	sd	ra,56(sp)
   12d18:	f426                	sd	s1,40(sp)
   12d1a:	f04a                	sd	s2,32(sp)
   12d1c:	e852                	sd	s4,16(sp)
   12d1e:	e456                	sd	s5,8(sp)
   12d20:	89aa                	mv	s3,a0
   12d22:	842e                	mv	s0,a1
   12d24:	0a05d963          	bgez	a1,12dd6 <eshift.part.3+0xc6>
   12d28:	40b00a3b          	negw	s4,a1
   12d2c:	8952                	mv	s2,s4
   12d2e:	4481                	li	s1,0
   12d30:	4abd                	li	s5,15
   12d32:	034ac763          	blt	s5,s4,12d60 <eshift.part.3+0x50>
   12d36:	0049591b          	srliw	s2,s2,0x4
   12d3a:	55c1                	li	a1,-16
   12d3c:	02b905bb          	mulw	a1,s2,a1
   12d40:	4a1d                	li	s4,7
   12d42:	4085893b          	subw	s2,a1,s0
   12d46:	844a                	mv	s0,s2
   12d48:	032a4463          	blt	s4,s2,12d70 <eshift.part.3+0x60>
   12d4c:	0034559b          	srliw	a1,s0,0x3
   12d50:	57e1                	li	a5,-8
   12d52:	02f585bb          	mulw	a1,a1,a5
   12d56:	9c2d                	addw	s0,s0,a1
   12d58:	e405                	bnez	s0,12d80 <eshift.part.3+0x70>
   12d5a:	00903533          	snez	a0,s1
   12d5e:	a09d                	j	12dc4 <eshift.part.3+0xb4>
   12d60:	0189d783          	lhu	a5,24(s3)
   12d64:	854e                	mv	a0,s3
   12d66:	3a41                	addiw	s4,s4,-16
   12d68:	8cdd                	or	s1,s1,a5
   12d6a:	cfbff0ef          	jal	ra,12a64 <eshdn6>
   12d6e:	b7d1                	j	12d32 <eshift.part.3+0x22>
   12d70:	0189c783          	lbu	a5,24(s3)
   12d74:	854e                	mv	a0,s3
   12d76:	3961                	addiw	s2,s2,-8
   12d78:	8cdd                	or	s1,s1,a5
   12d7a:	c89ff0ef          	jal	ra,12a02 <eshdn8>
   12d7e:	b7e9                	j	12d48 <eshift.part.3+0x38>
   12d80:	0189d783          	lhu	a5,24(s3)
   12d84:	854e                	mv	a0,s3
   12d86:	347d                	addiw	s0,s0,-1
   12d88:	8b85                	andi	a5,a5,1
   12d8a:	8cdd                	or	s1,s1,a5
   12d8c:	bfdff0ef          	jal	ra,12988 <eshdn1>
   12d90:	b7e1                	j	12d58 <eshift.part.3+0x48>
   12d92:	854e                	mv	a0,s3
   12d94:	cb5ff0ef          	jal	ra,12a48 <eshup6>
   12d98:	34c1                	addiw	s1,s1,-16
   12d9a:	fe994ce3          	blt	s2,s1,12d92 <eshift.part.3+0x82>
   12d9e:	0044559b          	srliw	a1,s0,0x4
   12da2:	57c1                	li	a5,-16
   12da4:	02f585bb          	mulw	a1,a1,a5
   12da8:	491d                	li	s2,7
   12daa:	00b404bb          	addw	s1,s0,a1
   12dae:	8426                	mv	s0,s1
   12db0:	02994663          	blt	s2,s1,12ddc <eshift.part.3+0xcc>
   12db4:	0034559b          	srliw	a1,s0,0x3
   12db8:	57e1                	li	a5,-8
   12dba:	02f585bb          	mulw	a1,a1,a5
   12dbe:	9c2d                	addw	s0,s0,a1
   12dc0:	e01d                	bnez	s0,12de6 <eshift.part.3+0xd6>
   12dc2:	4501                	li	a0,0
   12dc4:	70e2                	ld	ra,56(sp)
   12dc6:	7442                	ld	s0,48(sp)
   12dc8:	74a2                	ld	s1,40(sp)
   12dca:	7902                	ld	s2,32(sp)
   12dcc:	69e2                	ld	s3,24(sp)
   12dce:	6a42                	ld	s4,16(sp)
   12dd0:	6aa2                	ld	s5,8(sp)
   12dd2:	6121                	addi	sp,sp,64
   12dd4:	8082                	ret
   12dd6:	84ae                	mv	s1,a1
   12dd8:	493d                	li	s2,15
   12dda:	b7c1                	j	12d9a <eshift.part.3+0x8a>
   12ddc:	854e                	mv	a0,s3
   12dde:	c4bff0ef          	jal	ra,12a28 <eshup8>
   12de2:	34e1                	addiw	s1,s1,-8
   12de4:	b7f1                	j	12db0 <eshift.part.3+0xa0>
   12de6:	854e                	mv	a0,s3
   12de8:	bd9ff0ef          	jal	ra,129c0 <eshup1>
   12dec:	347d                	addiw	s0,s0,-1
   12dee:	bfc9                	j	12dc0 <eshift.part.3+0xb0>

0000000000012df0 <enormlz>:
   12df0:	00455783          	lhu	a5,4(a0)
   12df4:	1101                	addi	sp,sp,-32
   12df6:	e426                	sd	s1,8(sp)
   12df8:	ec06                	sd	ra,24(sp)
   12dfa:	e822                	sd	s0,16(sp)
   12dfc:	e04a                	sd	s2,0(sp)
   12dfe:	84aa                	mv	s1,a0
   12e00:	efb9                	bnez	a5,12e5e <enormlz+0x6e>
   12e02:	00651783          	lh	a5,6(a0)
   12e06:	4401                	li	s0,0
   12e08:	0a000913          	li	s2,160
   12e0c:	0007df63          	bgez	a5,12e2a <enormlz+0x3a>
   12e10:	8522                	mv	a0,s0
   12e12:	60e2                	ld	ra,24(sp)
   12e14:	6442                	ld	s0,16(sp)
   12e16:	64a2                	ld	s1,8(sp)
   12e18:	6902                	ld	s2,0(sp)
   12e1a:	6105                	addi	sp,sp,32
   12e1c:	8082                	ret
   12e1e:	8526                	mv	a0,s1
   12e20:	2441                	addiw	s0,s0,16
   12e22:	c27ff0ef          	jal	ra,12a48 <eshup6>
   12e26:	ff2405e3          	beq	s0,s2,12e10 <enormlz+0x20>
   12e2a:	0064d783          	lhu	a5,6(s1)
   12e2e:	dbe5                	beqz	a5,12e1e <enormlz+0x2e>
   12e30:	0064d783          	lhu	a5,6(s1)
   12e34:	f007f793          	andi	a5,a5,-256
   12e38:	cf91                	beqz	a5,12e54 <enormlz+0x64>
   12e3a:	0a000913          	li	s2,160
   12e3e:	00649783          	lh	a5,6(s1)
   12e42:	fc07c7e3          	bltz	a5,12e10 <enormlz+0x20>
   12e46:	8526                	mv	a0,s1
   12e48:	2405                	addiw	s0,s0,1
   12e4a:	b77ff0ef          	jal	ra,129c0 <eshup1>
   12e4e:	fe8958e3          	ble	s0,s2,12e3e <enormlz+0x4e>
   12e52:	bf7d                	j	12e10 <enormlz+0x20>
   12e54:	8526                	mv	a0,s1
   12e56:	bd3ff0ef          	jal	ra,12a28 <eshup8>
   12e5a:	2421                	addiw	s0,s0,8
   12e5c:	bfd1                	j	12e30 <enormlz+0x40>
   12e5e:	f007f793          	andi	a5,a5,-256
   12e62:	4401                	li	s0,0
   12e64:	c781                	beqz	a5,12e6c <enormlz+0x7c>
   12e66:	b9dff0ef          	jal	ra,12a02 <eshdn8>
   12e6a:	5461                	li	s0,-8
   12e6c:	f7000913          	li	s2,-144
   12e70:	a039                	j	12e7e <enormlz+0x8e>
   12e72:	8526                	mv	a0,s1
   12e74:	347d                	addiw	s0,s0,-1
   12e76:	b13ff0ef          	jal	ra,12988 <eshdn1>
   12e7a:	f9244be3          	blt	s0,s2,12e10 <enormlz+0x20>
   12e7e:	0044d783          	lhu	a5,4(s1)
   12e82:	fbe5                	bnez	a5,12e72 <enormlz+0x82>
   12e84:	b771                	j	12e10 <enormlz+0x20>

0000000000012e86 <enan.constprop.12>:
   12e86:	01050793          	addi	a5,a0,16
   12e8a:	0509                	addi	a0,a0,2
   12e8c:	fe051f23          	sh	zero,-2(a0)
   12e90:	fef51de3          	bne	a0,a5,12e8a <enan.constprop.12+0x4>
   12e94:	77f1                	lui	a5,0xffffc
   12e96:	00f51023          	sh	a5,0(a0)
   12e9a:	77e1                	lui	a5,0xffff8
   12e9c:	fff7c793          	not	a5,a5
   12ea0:	00f51123          	sh	a5,2(a0)
   12ea4:	8082                	ret

0000000000012ea6 <emovo.isra.6>:
   12ea6:	872a                	mv	a4,a0
   12ea8:	00075683          	lhu	a3,0(a4) # 8000 <_start-0x80b0>
   12eac:	852e                	mv	a0,a1
   12eae:	00275783          	lhu	a5,2(a4)
   12eb2:	c299                	beqz	a3,12eb8 <emovo.isra.6+0x12>
   12eb4:	76e1                	lui	a3,0xffff8
   12eb6:	8fd5                	or	a5,a5,a3
   12eb8:	00f51923          	sh	a5,18(a0)
   12ebc:	00275603          	lhu	a2,2(a4)
   12ec0:	66a1                	lui	a3,0x8
   12ec2:	16fd                	addi	a3,a3,-1
   12ec4:	00670793          	addi	a5,a4,6
   12ec8:	00d61b63          	bne	a2,a3,12ede <emovo.isra.6+0x38>
   12ecc:	0769                	addi	a4,a4,26
   12ece:	0007d683          	lhu	a3,0(a5) # ffffffffffff8000 <_end+0xffffffffffdc71c0>
   12ed2:	e28d                	bnez	a3,12ef4 <emovo.isra.6+0x4e>
   12ed4:	0789                	addi	a5,a5,2
   12ed6:	fee79ce3          	bne	a5,a4,12ece <emovo.isra.6+0x28>
   12eda:	e19ff06f          	j	12cf2 <einfin.isra.2>
   12ede:	0541                	addi	a0,a0,16
   12ee0:	0761                	addi	a4,a4,24
   12ee2:	0789                	addi	a5,a5,2
   12ee4:	ffe7d683          	lhu	a3,-2(a5)
   12ee8:	1579                	addi	a0,a0,-2
   12eea:	00d51123          	sh	a3,2(a0)
   12eee:	fee79ae3          	bne	a5,a4,12ee2 <emovo.isra.6+0x3c>
   12ef2:	8082                	ret
   12ef4:	f93ff06f          	j	12e86 <enan.constprop.12>

0000000000012ef8 <e113toe.isra.8>:
   12ef8:	7139                	addi	sp,sp,-64
   12efa:	f426                	sd	s1,40(sp)
   12efc:	84aa                	mv	s1,a0
   12efe:	850a                	mv	a0,sp
   12f00:	f822                	sd	s0,48(sp)
   12f02:	fc06                	sd	ra,56(sp)
   12f04:	842e                	mv	s0,a1
   12f06:	a2dff0ef          	jal	ra,12932 <ecleaz>
   12f0a:	00e4d703          	lhu	a4,14(s1)
   12f0e:	0107179b          	slliw	a5,a4,0x10
   12f12:	4107d79b          	sraiw	a5,a5,0x10
   12f16:	0207c763          	bltz	a5,12f44 <e113toe.isra.8+0x4c>
   12f1a:	00011023          	sh	zero,0(sp)
   12f1e:	66a1                	lui	a3,0x8
   12f20:	16fd                	addi	a3,a3,-1
   12f22:	8f75                	and	a4,a4,a3
   12f24:	00e48793          	addi	a5,s1,14
   12f28:	04d71a63          	bne	a4,a3,12f7c <e113toe.isra.8+0x84>
   12f2c:	8726                	mv	a4,s1
   12f2e:	00075683          	lhu	a3,0(a4)
   12f32:	ce89                	beqz	a3,12f4c <e113toe.isra.8+0x54>
   12f34:	8522                	mv	a0,s0
   12f36:	f51ff0ef          	jal	ra,12e86 <enan.constprop.12>
   12f3a:	70e2                	ld	ra,56(sp)
   12f3c:	7442                	ld	s0,48(sp)
   12f3e:	74a2                	ld	s1,40(sp)
   12f40:	6121                	addi	sp,sp,64
   12f42:	8082                	ret
   12f44:	57fd                	li	a5,-1
   12f46:	00f11023          	sh	a5,0(sp)
   12f4a:	bfd1                	j	12f1e <e113toe.isra.8+0x26>
   12f4c:	0709                	addi	a4,a4,2
   12f4e:	fee790e3          	bne	a5,a4,12f2e <e113toe.isra.8+0x36>
   12f52:	8522                	mv	a0,s0
   12f54:	9b9ff0ef          	jal	ra,1290c <eclear>
   12f58:	8522                	mv	a0,s0
   12f5a:	d99ff0ef          	jal	ra,12cf2 <einfin.isra.2>
   12f5e:	00e49783          	lh	a5,14(s1)
   12f62:	fc07dce3          	bgez	a5,12f3a <e113toe.isra.8+0x42>
   12f66:	8522                	mv	a0,s0
   12f68:	be3ff0ef          	jal	ra,12b4a <eisnan>
   12f6c:	f579                	bnez	a0,12f3a <e113toe.isra.8+0x42>
   12f6e:	01245783          	lhu	a5,18(s0)
   12f72:	7761                	lui	a4,0xffff8
   12f74:	8fb9                	xor	a5,a5,a4
   12f76:	00f41923          	sh	a5,18(s0)
   12f7a:	b7c1                	j	12f3a <e113toe.isra.8+0x42>
   12f7c:	00e11123          	sh	a4,2(sp)
   12f80:	868a                	mv	a3,sp
   12f82:	17f9                	addi	a5,a5,-2
   12f84:	0007d603          	lhu	a2,0(a5)
   12f88:	0689                	addi	a3,a3,2
   12f8a:	00c69223          	sh	a2,4(a3) # 8004 <_start-0x80ac>
   12f8e:	fef49ae3          	bne	s1,a5,12f82 <e113toe.isra.8+0x8a>
   12f92:	eb01                	bnez	a4,12fa2 <e113toe.isra.8+0xaa>
   12f94:	00011223          	sh	zero,4(sp)
   12f98:	85a2                	mv	a1,s0
   12f9a:	850a                	mv	a0,sp
   12f9c:	f0bff0ef          	jal	ra,12ea6 <emovo.isra.6>
   12fa0:	bf69                	j	12f3a <e113toe.isra.8+0x42>
   12fa2:	4785                	li	a5,1
   12fa4:	55fd                	li	a1,-1
   12fa6:	850a                	mv	a0,sp
   12fa8:	00f11223          	sh	a5,4(sp)
   12fac:	d65ff0ef          	jal	ra,12d10 <eshift.part.3>
   12fb0:	b7e5                	j	12f98 <e113toe.isra.8+0xa0>

0000000000012fb2 <emdnorm>:
   12fb2:	7139                	addi	sp,sp,-64
   12fb4:	f822                	sd	s0,48(sp)
   12fb6:	f426                	sd	s1,40(sp)
   12fb8:	f04a                	sd	s2,32(sp)
   12fba:	ec4e                	sd	s3,24(sp)
   12fbc:	e852                	sd	s4,16(sp)
   12fbe:	e456                	sd	s5,8(sp)
   12fc0:	8936                	mv	s2,a3
   12fc2:	843e                	mv	s0,a5
   12fc4:	fc06                	sd	ra,56(sp)
   12fc6:	84aa                	mv	s1,a0
   12fc8:	89ae                	mv	s3,a1
   12fca:	8a32                	mv	s4,a2
   12fcc:	8aba                	mv	s5,a4
   12fce:	e23ff0ef          	jal	ra,12df0 <enormlz>
   12fd2:	09000793          	li	a5,144
   12fd6:	40a90933          	sub	s2,s2,a0
   12fda:	02a7d763          	ble	a0,a5,13008 <emdnorm+0x56>
   12fde:	67a1                	lui	a5,0x8
   12fe0:	17f9                	addi	a5,a5,-2
   12fe2:	2327c663          	blt	a5,s2,1320e <emdnorm+0x25c>
   12fe6:	00248793          	addi	a5,s1,2
   12fea:	04e9                	addi	s1,s1,26
   12fec:	0789                	addi	a5,a5,2
   12fee:	fe079f23          	sh	zero,-2(a5) # 7ffe <_start-0x80b2>
   12ff2:	fe979de3          	bne	a5,s1,12fec <emdnorm+0x3a>
   12ff6:	70e2                	ld	ra,56(sp)
   12ff8:	7442                	ld	s0,48(sp)
   12ffa:	74a2                	ld	s1,40(sp)
   12ffc:	7902                	ld	s2,32(sp)
   12ffe:	69e2                	ld	s3,24(sp)
   13000:	6a42                	ld	s4,16(sp)
   13002:	6aa2                	ld	s5,8(sp)
   13004:	6121                	addi	sp,sp,64
   13006:	8082                	ret
   13008:	00095d63          	bgez	s2,13022 <emdnorm+0x70>
   1300c:	f7000793          	li	a5,-144
   13010:	0ef94a63          	blt	s2,a5,13104 <emdnorm+0x152>
   13014:	0009059b          	sext.w	a1,s2
   13018:	8526                	mv	a0,s1
   1301a:	cf7ff0ef          	jal	ra,12d10 <eshift.part.3>
   1301e:	0e051c63          	bnez	a0,13116 <emdnorm+0x164>
   13022:	1a0a8a63          	beqz	s5,131d6 <emdnorm+0x224>
   13026:	4058                	lw	a4,4(s0)
   13028:	401c                	lw	a5,0(s0)
   1302a:	04f70863          	beq	a4,a5,1307a <emdnorm+0xc8>
   1302e:	01a40513          	addi	a0,s0,26
   13032:	901ff0ef          	jal	ra,12932 <ecleaz>
   13036:	405c                	lw	a5,4(s0)
   13038:	03800713          	li	a4,56
   1303c:	10e78d63          	beq	a5,a4,13156 <emdnorm+0x1a4>
   13040:	0cf74d63          	blt	a4,a5,1311a <emdnorm+0x168>
   13044:	4761                	li	a4,24
   13046:	12e78e63          	beq	a5,a4,13182 <emdnorm+0x1d0>
   1304a:	03500713          	li	a4,53
   1304e:	12e78163          	beq	a5,a4,13170 <emdnorm+0x1be>
   13052:	80010737          	lui	a4,0x80010
   13056:	377d                	addiw	a4,a4,-1
   13058:	c858                	sw	a4,20(s0)
   1305a:	4705                	li	a4,1
   1305c:	00e41c23          	sh	a4,24(s0)
   13060:	472d                	li	a4,11
   13062:	1702                	slli	a4,a4,0x20
   13064:	0731                	addi	a4,a4,12
   13066:	e418                	sd	a4,8(s0)
   13068:	4458                	lw	a4,12(s0)
   1306a:	01845683          	lhu	a3,24(s0)
   1306e:	0721                	addi	a4,a4,8
   13070:	0706                	slli	a4,a4,0x1
   13072:	9722                	add	a4,a4,s0
   13074:	00d71523          	sh	a3,10(a4) # ffffffff8001000a <_end+0xffffffff7fddf1ca>
   13078:	c01c                	sw	a5,0(s0)
   1307a:	01204f63          	bgtz	s2,13098 <emdnorm+0xe6>
   1307e:	4058                	lw	a4,4(s0)
   13080:	09000793          	li	a5,144
   13084:	00f70a63          	beq	a4,a5,13098 <emdnorm+0xe6>
   13088:	0184d783          	lhu	a5,24(s1)
   1308c:	8526                	mv	a0,s1
   1308e:	8b85                	andi	a5,a5,1
   13090:	00f9e9b3          	or	s3,s3,a5
   13094:	8f5ff0ef          	jal	ra,12988 <eshdn1>
   13098:	4414                	lw	a3,8(s0)
   1309a:	01445583          	lhu	a1,20(s0)
   1309e:	4048                	lw	a0,4(s0)
   130a0:	00169793          	slli	a5,a3,0x1
   130a4:	00f48633          	add	a2,s1,a5
   130a8:	00065703          	lhu	a4,0(a2)
   130ac:	8f6d                	and	a4,a4,a1
   130ae:	08f00593          	li	a1,143
   130b2:	00a5c863          	blt	a1,a0,130c2 <emdnorm+0x110>
   130b6:	0789                	addi	a5,a5,2
   130b8:	2685                	addiw	a3,a3,1
   130ba:	97a6                	add	a5,a5,s1
   130bc:	45b1                	li	a1,12
   130be:	0cd5df63          	ble	a3,a1,1319c <emdnorm+0x1ea>
   130c2:	01445783          	lhu	a5,20(s0)
   130c6:	00065683          	lhu	a3,0(a2)
   130ca:	fff7c793          	not	a5,a5
   130ce:	8ff5                	and	a5,a5,a3
   130d0:	00f61023          	sh	a5,0(a2)
   130d4:	01645783          	lhu	a5,22(s0)
   130d8:	00e7f6b3          	and	a3,a5,a4
   130dc:	cee1                	beqz	a3,131b4 <emdnorm+0x202>
   130de:	00e79d63          	bne	a5,a4,130f8 <emdnorm+0x146>
   130e2:	0c099763          	bnez	s3,131b0 <emdnorm+0x1fe>
   130e6:	445c                	lw	a5,12(s0)
   130e8:	01845703          	lhu	a4,24(s0)
   130ec:	0786                	slli	a5,a5,0x1
   130ee:	97a6                	add	a5,a5,s1
   130f0:	0007d783          	lhu	a5,0(a5)
   130f4:	8ff9                	and	a5,a5,a4
   130f6:	cfdd                	beqz	a5,131b4 <emdnorm+0x202>
   130f8:	85a6                	mv	a1,s1
   130fa:	01a40513          	addi	a0,s0,26
   130fe:	989ff0ef          	jal	ra,12a86 <eaddm>
   13102:	a84d                	j	131b4 <emdnorm+0x202>
   13104:	00248793          	addi	a5,s1,2
   13108:	04e9                	addi	s1,s1,26
   1310a:	0789                	addi	a5,a5,2
   1310c:	fe079f23          	sh	zero,-2(a5)
   13110:	fe979de3          	bne	a5,s1,1310a <emdnorm+0x158>
   13114:	b5cd                	j	12ff6 <emdnorm+0x44>
   13116:	4985                	li	s3,1
   13118:	b729                	j	13022 <emdnorm+0x70>
   1311a:	04000713          	li	a4,64
   1311e:	02e78163          	beq	a5,a4,13140 <emdnorm+0x18e>
   13122:	07100713          	li	a4,113
   13126:	f2e796e3          	bne	a5,a4,13052 <emdnorm+0xa0>
   1312a:	40008737          	lui	a4,0x40008
   1312e:	377d                	addiw	a4,a4,-1
   13130:	c858                	sw	a4,20(s0)
   13132:	7761                	lui	a4,0xffff8
   13134:	00e41c23          	sh	a4,24(s0)
   13138:	4729                	li	a4,10
   1313a:	1702                	slli	a4,a4,0x20
   1313c:	0729                	addi	a4,a4,10
   1313e:	b725                	j	13066 <emdnorm+0xb4>
   13140:	80010737          	lui	a4,0x80010
   13144:	377d                	addiw	a4,a4,-1
   13146:	c858                	sw	a4,20(s0)
   13148:	4705                	li	a4,1
   1314a:	00e41c23          	sh	a4,24(s0)
   1314e:	470d                	li	a4,3
   13150:	1706                	slli	a4,a4,0x21
   13152:	071d                	addi	a4,a4,7
   13154:	bf09                	j	13066 <emdnorm+0xb4>
   13156:	00800737          	lui	a4,0x800
   1315a:	0ff7071b          	addiw	a4,a4,255
   1315e:	c858                	sw	a4,20(s0)
   13160:	10000713          	li	a4,256
   13164:	00e41c23          	sh	a4,24(s0)
   13168:	4719                	li	a4,6
   1316a:	1702                	slli	a4,a4,0x20
   1316c:	0719                	addi	a4,a4,6
   1316e:	bde5                	j	13066 <emdnorm+0xb4>
   13170:	04000737          	lui	a4,0x4000
   13174:	7ff7071b          	addiw	a4,a4,2047
   13178:	c858                	sw	a4,20(s0)
   1317a:	6705                	lui	a4,0x1
   1317c:	8007071b          	addiw	a4,a4,-2048
   13180:	b7d5                	j	13164 <emdnorm+0x1b2>
   13182:	00800737          	lui	a4,0x800
   13186:	0ff7071b          	addiw	a4,a4,255
   1318a:	c858                	sw	a4,20(s0)
   1318c:	10000713          	li	a4,256
   13190:	00e41c23          	sh	a4,24(s0)
   13194:	4711                	li	a4,4
   13196:	1702                	slli	a4,a4,0x20
   13198:	0711                	addi	a4,a4,4
   1319a:	b5f1                	j	13066 <emdnorm+0xb4>
   1319c:	0007d503          	lhu	a0,0(a5)
   131a0:	c119                	beqz	a0,131a6 <emdnorm+0x1f4>
   131a2:	00176713          	ori	a4,a4,1
   131a6:	00079023          	sh	zero,0(a5)
   131aa:	2685                	addiw	a3,a3,1
   131ac:	0789                	addi	a5,a5,2
   131ae:	bf01                	j	130be <emdnorm+0x10c>
   131b0:	f40a04e3          	beqz	s4,130f8 <emdnorm+0x146>
   131b4:	01204a63          	bgtz	s2,131c8 <emdnorm+0x216>
   131b8:	4058                	lw	a4,4(s0)
   131ba:	09000793          	li	a5,144
   131be:	00f70563          	beq	a4,a5,131c8 <emdnorm+0x216>
   131c2:	8526                	mv	a0,s1
   131c4:	ffcff0ef          	jal	ra,129c0 <eshup1>
   131c8:	0044d783          	lhu	a5,4(s1)
   131cc:	c789                	beqz	a5,131d6 <emdnorm+0x224>
   131ce:	8526                	mv	a0,s1
   131d0:	fb8ff0ef          	jal	ra,12988 <eshdn1>
   131d4:	0905                	addi	s2,s2,1
   131d6:	67a1                	lui	a5,0x8
   131d8:	00049c23          	sh	zero,24(s1)
   131dc:	17f9                	addi	a5,a5,-2
   131de:	0327d063          	ble	s2,a5,131fe <emdnorm+0x24c>
   131e2:	77e1                	lui	a5,0xffff8
   131e4:	fff7c793          	not	a5,a5
   131e8:	00f49123          	sh	a5,2(s1)
   131ec:	00448793          	addi	a5,s1,4
   131f0:	04e1                	addi	s1,s1,24
   131f2:	00079023          	sh	zero,0(a5) # ffffffffffff8000 <_end+0xffffffffffdc71c0>
   131f6:	0789                	addi	a5,a5,2
   131f8:	fef49de3          	bne	s1,a5,131f2 <emdnorm+0x240>
   131fc:	bbed                	j	12ff6 <emdnorm+0x44>
   131fe:	00095563          	bgez	s2,13208 <emdnorm+0x256>
   13202:	00049123          	sh	zero,2(s1)
   13206:	bbc5                	j	12ff6 <emdnorm+0x44>
   13208:	01249123          	sh	s2,2(s1)
   1320c:	b3ed                	j	12ff6 <emdnorm+0x44>
   1320e:	e00a9ce3          	bnez	s5,13026 <emdnorm+0x74>
   13212:	00049c23          	sh	zero,24(s1)
   13216:	b7f1                	j	131e2 <emdnorm+0x230>

0000000000013218 <eiremain>:
   13218:	7139                	addi	sp,sp,-64
   1321a:	e852                	sd	s4,16(sp)
   1321c:	00255a03          	lhu	s4,2(a0)
   13220:	f822                	sd	s0,48(sp)
   13222:	842e                	mv	s0,a1
   13224:	fc06                	sd	ra,56(sp)
   13226:	f426                	sd	s1,40(sp)
   13228:	f04a                	sd	s2,32(sp)
   1322a:	e456                	sd	s5,8(sp)
   1322c:	e05a                	sd	s6,0(sp)
   1322e:	8932                	mv	s2,a2
   13230:	03460b13          	addi	s6,a2,52
   13234:	ec4e                	sd	s3,24(sp)
   13236:	8aaa                	mv	s5,a0
   13238:	bb9ff0ef          	jal	ra,12df0 <enormlz>
   1323c:	00245483          	lhu	s1,2(s0)
   13240:	40aa0a33          	sub	s4,s4,a0
   13244:	8522                	mv	a0,s0
   13246:	babff0ef          	jal	ra,12df0 <enormlz>
   1324a:	8c89                	sub	s1,s1,a0
   1324c:	855a                	mv	a0,s6
   1324e:	ee4ff0ef          	jal	ra,12932 <ecleaz>
   13252:	0344d363          	ble	s4,s1,13278 <eiremain+0x60>
   13256:	8522                	mv	a0,s0
   13258:	7442                	ld	s0,48(sp)
   1325a:	70e2                	ld	ra,56(sp)
   1325c:	69e2                	ld	s3,24(sp)
   1325e:	6a42                	ld	s4,16(sp)
   13260:	6aa2                	ld	s5,8(sp)
   13262:	6b02                	ld	s6,0(sp)
   13264:	87ca                	mv	a5,s2
   13266:	86a6                	mv	a3,s1
   13268:	7902                	ld	s2,32(sp)
   1326a:	74a2                	ld	s1,40(sp)
   1326c:	4701                	li	a4,0
   1326e:	4601                	li	a2,0
   13270:	4581                	li	a1,0
   13272:	6121                	addi	sp,sp,64
   13274:	d3fff06f          	j	12fb2 <emdnorm>
   13278:	85a2                	mv	a1,s0
   1327a:	8556                	mv	a0,s5
   1327c:	ee2ff0ef          	jal	ra,1295e <ecmpm>
   13280:	4981                	li	s3,0
   13282:	00a04763          	bgtz	a0,13290 <eiremain+0x78>
   13286:	85a2                	mv	a1,s0
   13288:	8556                	mv	a0,s5
   1328a:	825ff0ef          	jal	ra,12aae <esubm>
   1328e:	4985                	li	s3,1
   13290:	855a                	mv	a0,s6
   13292:	f2eff0ef          	jal	ra,129c0 <eshup1>
   13296:	04c95783          	lhu	a5,76(s2)
   1329a:	8522                	mv	a0,s0
   1329c:	14fd                	addi	s1,s1,-1
   1329e:	00f9e9b3          	or	s3,s3,a5
   132a2:	05391623          	sh	s3,76(s2)
   132a6:	f1aff0ef          	jal	ra,129c0 <eshup1>
   132aa:	b765                	j	13252 <eiremain+0x3a>

00000000000132ac <emul>:
   132ac:	7131                	addi	sp,sp,-192
   132ae:	f922                	sd	s0,176(sp)
   132b0:	f526                	sd	s1,168(sp)
   132b2:	f14a                	sd	s2,160(sp)
   132b4:	ed4e                	sd	s3,152(sp)
   132b6:	fd06                	sd	ra,184(sp)
   132b8:	e952                	sd	s4,144(sp)
   132ba:	e556                	sd	s5,136(sp)
   132bc:	e15a                	sd	s6,128(sp)
   132be:	fcde                	sd	s7,120(sp)
   132c0:	f8e2                	sd	s8,112(sp)
   132c2:	f4e6                	sd	s9,104(sp)
   132c4:	84aa                	mv	s1,a0
   132c6:	842e                	mv	s0,a1
   132c8:	8932                	mv	s2,a2
   132ca:	89b6                	mv	s3,a3
   132cc:	87fff0ef          	jal	ra,12b4a <eisnan>
   132d0:	c115                	beqz	a0,132f4 <emul+0x48>
   132d2:	85ca                	mv	a1,s2
   132d4:	8526                	mv	a0,s1
   132d6:	e46ff0ef          	jal	ra,1291c <emov>
   132da:	70ea                	ld	ra,184(sp)
   132dc:	744a                	ld	s0,176(sp)
   132de:	74aa                	ld	s1,168(sp)
   132e0:	790a                	ld	s2,160(sp)
   132e2:	69ea                	ld	s3,152(sp)
   132e4:	6a4a                	ld	s4,144(sp)
   132e6:	6aaa                	ld	s5,136(sp)
   132e8:	6b0a                	ld	s6,128(sp)
   132ea:	7be6                	ld	s7,120(sp)
   132ec:	7c46                	ld	s8,112(sp)
   132ee:	7ca6                	ld	s9,104(sp)
   132f0:	6129                	addi	sp,sp,192
   132f2:	8082                	ret
   132f4:	8522                	mv	a0,s0
   132f6:	855ff0ef          	jal	ra,12b4a <eisnan>
   132fa:	c501                	beqz	a0,13302 <emul+0x56>
   132fc:	85ca                	mv	a1,s2
   132fe:	8522                	mv	a0,s0
   13300:	bfd9                	j	132d6 <emul+0x2a>
   13302:	8526                	mv	a0,s1
   13304:	9cbff0ef          	jal	ra,12cce <eisinf>
   13308:	e521                	bnez	a0,13350 <emul+0xa4>
   1330a:	8522                	mv	a0,s0
   1330c:	9c3ff0ef          	jal	ra,12cce <eisinf>
   13310:	c901                	beqz	a0,13320 <emul+0x74>
   13312:	65e9                	lui	a1,0x1a
   13314:	16858593          	addi	a1,a1,360 # 1a168 <ezero>
   13318:	8526                	mv	a0,s1
   1331a:	911ff0ef          	jal	ra,12c2a <ecmp>
   1331e:	c121                	beqz	a0,1335e <emul+0xb2>
   13320:	8526                	mv	a0,s1
   13322:	9adff0ef          	jal	ra,12cce <eisinf>
   13326:	e509                	bnez	a0,13330 <emul+0x84>
   13328:	8522                	mv	a0,s0
   1332a:	9a5ff0ef          	jal	ra,12cce <eisinf>
   1332e:	cd1d                	beqz	a0,1336c <emul+0xc0>
   13330:	8526                	mv	a0,s1
   13332:	83fff0ef          	jal	ra,12b70 <eisneg>
   13336:	84aa                	mv	s1,a0
   13338:	8522                	mv	a0,s0
   1333a:	837ff0ef          	jal	ra,12b70 <eisneg>
   1333e:	02a48463          	beq	s1,a0,13366 <emul+0xba>
   13342:	77e1                	lui	a5,0xffff8
   13344:	00f91923          	sh	a5,18(s2)
   13348:	854a                	mv	a0,s2
   1334a:	9a9ff0ef          	jal	ra,12cf2 <einfin.isra.2>
   1334e:	b771                	j	132da <emul+0x2e>
   13350:	65e9                	lui	a1,0x1a
   13352:	16858593          	addi	a1,a1,360 # 1a168 <ezero>
   13356:	8522                	mv	a0,s0
   13358:	8d3ff0ef          	jal	ra,12c2a <ecmp>
   1335c:	f55d                	bnez	a0,1330a <emul+0x5e>
   1335e:	854a                	mv	a0,s2
   13360:	b27ff0ef          	jal	ra,12e86 <enan.constprop.12>
   13364:	bf9d                	j	132da <emul+0x2e>
   13366:	00091923          	sh	zero,18(s2)
   1336a:	bff9                	j	13348 <emul+0x9c>
   1336c:	8526                	mv	a0,s1
   1336e:	858a                	mv	a1,sp
   13370:	821ff0ef          	jal	ra,12b90 <emovi>
   13374:	8522                	mv	a0,s0
   13376:	100c                	addi	a1,sp,32
   13378:	819ff0ef          	jal	ra,12b90 <emovi>
   1337c:	00215403          	lhu	s0,2(sp)
   13380:	02215483          	lhu	s1,34(sp)
   13384:	ec09                	bnez	s0,1339e <emul+0xf2>
   13386:	4781                	li	a5,0
   13388:	4759                	li	a4,22
   1338a:	00f106b3          	add	a3,sp,a5
   1338e:	0026d683          	lhu	a3,2(a3)
   13392:	c6e9                	beqz	a3,1345c <emul+0x1b0>
   13394:	850a                	mv	a0,sp
   13396:	a5bff0ef          	jal	ra,12df0 <enormlz>
   1339a:	40a00433          	neg	s0,a0
   1339e:	02215783          	lhu	a5,34(sp)
   133a2:	8c26                	mv	s8,s1
   133a4:	ef81                	bnez	a5,133bc <emul+0x110>
   133a6:	4759                	li	a4,22
   133a8:	1014                	addi	a3,sp,32
   133aa:	96be                	add	a3,a3,a5
   133ac:	0026d683          	lhu	a3,2(a3)
   133b0:	cecd                	beqz	a3,1346a <emul+0x1be>
   133b2:	1008                	addi	a0,sp,32
   133b4:	a3dff0ef          	jal	ra,12df0 <enormlz>
   133b8:	40a48c33          	sub	s8,s1,a0
   133bc:	02015783          	lhu	a5,32(sp)
   133c0:	03498b93          	addi	s7,s3,52
   133c4:	03898493          	addi	s1,s3,56
   133c8:	02f99a23          	sh	a5,52(s3)
   133cc:	02215783          	lhu	a5,34(sp)
   133d0:	8a5e                	mv	s4,s7
   133d2:	02f99b23          	sh	a5,54(s3)
   133d6:	04e98793          	addi	a5,s3,78
   133da:	00049023          	sh	zero,0(s1)
   133de:	0489                	addi	s1,s1,2
   133e0:	fe979de3          	bne	a5,s1,133da <emul+0x12e>
   133e4:	4a81                	li	s5,0
   133e6:	4b01                	li	s6,0
   133e8:	5cb1                	li	s9,-20
   133ea:	015107b3          	add	a5,sp,s5
   133ee:	0187d503          	lhu	a0,24(a5) # ffffffffffff8018 <_end+0xffffffffffdc71d8>
   133f2:	c909                	beqz	a0,13404 <emul+0x158>
   133f4:	100c                	addi	a1,sp,32
   133f6:	0090                	addi	a2,sp,64
   133f8:	edeff0ef          	jal	ra,12ad6 <m16m>
   133fc:	85de                	mv	a1,s7
   133fe:	0088                	addi	a0,sp,64
   13400:	e86ff0ef          	jal	ra,12a86 <eaddm>
   13404:	04c9d783          	lhu	a5,76(s3)
   13408:	855e                	mv	a0,s7
   1340a:	1af9                	addi	s5,s5,-2
   1340c:	00fb6b33          	or	s6,s6,a5
   13410:	e54ff0ef          	jal	ra,12a64 <eshdn6>
   13414:	fd9a9be3          	bne	s5,s9,133ea <emul+0x13e>
   13418:	101c                	addi	a5,sp,32
   1341a:	000a5703          	lhu	a4,0(s4)
   1341e:	0a09                	addi	s4,s4,2
   13420:	0789                	addi	a5,a5,2
   13422:	fee79f23          	sh	a4,-2(a5)
   13426:	fe9a1ae3          	bne	s4,s1,1341a <emul+0x16e>
   1342a:	76f1                	lui	a3,0xffffc
   1342c:	9462                	add	s0,s0,s8
   1342e:	0689                	addi	a3,a3,2
   13430:	87ce                	mv	a5,s3
   13432:	04000713          	li	a4,64
   13436:	96a2                	add	a3,a3,s0
   13438:	4601                	li	a2,0
   1343a:	85da                	mv	a1,s6
   1343c:	1008                	addi	a0,sp,32
   1343e:	b75ff0ef          	jal	ra,12fb2 <emdnorm>
   13442:	00015703          	lhu	a4,0(sp)
   13446:	02015783          	lhu	a5,32(sp)
   1344a:	02f71463          	bne	a4,a5,13472 <emul+0x1c6>
   1344e:	02011023          	sh	zero,32(sp)
   13452:	85ca                	mv	a1,s2
   13454:	1008                	addi	a0,sp,32
   13456:	a51ff0ef          	jal	ra,12ea6 <emovo.isra.6>
   1345a:	b541                	j	132da <emul+0x2e>
   1345c:	0789                	addi	a5,a5,2
   1345e:	f2e796e3          	bne	a5,a4,1338a <emul+0xde>
   13462:	854a                	mv	a0,s2
   13464:	ca8ff0ef          	jal	ra,1290c <eclear>
   13468:	bd8d                	j	132da <emul+0x2e>
   1346a:	0789                	addi	a5,a5,2
   1346c:	f2e79ee3          	bne	a5,a4,133a8 <emul+0xfc>
   13470:	bfcd                	j	13462 <emul+0x1b6>
   13472:	57fd                	li	a5,-1
   13474:	02f11023          	sh	a5,32(sp)
   13478:	bfe9                	j	13452 <emul+0x1a6>

000000000001347a <ediv>:
   1347a:	7131                	addi	sp,sp,-192
   1347c:	f922                	sd	s0,176(sp)
   1347e:	f526                	sd	s1,168(sp)
   13480:	f14a                	sd	s2,160(sp)
   13482:	e556                	sd	s5,136(sp)
   13484:	fd06                	sd	ra,184(sp)
   13486:	ed4e                	sd	s3,152(sp)
   13488:	e952                	sd	s4,144(sp)
   1348a:	e15a                	sd	s6,128(sp)
   1348c:	fcde                	sd	s7,120(sp)
   1348e:	f8e2                	sd	s8,112(sp)
   13490:	f4e6                	sd	s9,104(sp)
   13492:	f0ea                	sd	s10,96(sp)
   13494:	84aa                	mv	s1,a0
   13496:	842e                	mv	s0,a1
   13498:	8932                	mv	s2,a2
   1349a:	8ab6                	mv	s5,a3
   1349c:	eaeff0ef          	jal	ra,12b4a <eisnan>
   134a0:	c11d                	beqz	a0,134c6 <ediv+0x4c>
   134a2:	85ca                	mv	a1,s2
   134a4:	8526                	mv	a0,s1
   134a6:	c76ff0ef          	jal	ra,1291c <emov>
   134aa:	70ea                	ld	ra,184(sp)
   134ac:	744a                	ld	s0,176(sp)
   134ae:	74aa                	ld	s1,168(sp)
   134b0:	790a                	ld	s2,160(sp)
   134b2:	69ea                	ld	s3,152(sp)
   134b4:	6a4a                	ld	s4,144(sp)
   134b6:	6aaa                	ld	s5,136(sp)
   134b8:	6b0a                	ld	s6,128(sp)
   134ba:	7be6                	ld	s7,120(sp)
   134bc:	7c46                	ld	s8,112(sp)
   134be:	7ca6                	ld	s9,104(sp)
   134c0:	7d06                	ld	s10,96(sp)
   134c2:	6129                	addi	sp,sp,192
   134c4:	8082                	ret
   134c6:	8522                	mv	a0,s0
   134c8:	e82ff0ef          	jal	ra,12b4a <eisnan>
   134cc:	c501                	beqz	a0,134d4 <ediv+0x5a>
   134ce:	85ca                	mv	a1,s2
   134d0:	8522                	mv	a0,s0
   134d2:	bfd1                	j	134a6 <ediv+0x2c>
   134d4:	69e9                	lui	s3,0x1a
   134d6:	16898593          	addi	a1,s3,360 # 1a168 <ezero>
   134da:	8526                	mv	a0,s1
   134dc:	f4eff0ef          	jal	ra,12c2a <ecmp>
   134e0:	16050763          	beqz	a0,1364e <ediv+0x1d4>
   134e4:	8526                	mv	a0,s1
   134e6:	fe8ff0ef          	jal	ra,12cce <eisinf>
   134ea:	89aa                	mv	s3,a0
   134ec:	8522                	mv	a0,s0
   134ee:	fe0ff0ef          	jal	ra,12cce <eisinf>
   134f2:	16099963          	bnez	s3,13664 <ediv+0x1ea>
   134f6:	16051c63          	bnez	a0,1366e <ediv+0x1f4>
   134fa:	8526                	mv	a0,s1
   134fc:	858a                	mv	a1,sp
   134fe:	e92ff0ef          	jal	ra,12b90 <emovi>
   13502:	8522                	mv	a0,s0
   13504:	100c                	addi	a1,sp,32
   13506:	e8aff0ef          	jal	ra,12b90 <emovi>
   1350a:	02215483          	lhu	s1,34(sp)
   1350e:	00215403          	lhu	s0,2(sp)
   13512:	ec91                	bnez	s1,1352e <ediv+0xb4>
   13514:	4781                	li	a5,0
   13516:	4759                	li	a4,22
   13518:	1014                	addi	a3,sp,32
   1351a:	96be                	add	a3,a3,a5
   1351c:	0026d683          	lhu	a3,2(a3) # ffffffffffffc002 <_end+0xffffffffffdcb1c2>
   13520:	16068763          	beqz	a3,1368e <ediv+0x214>
   13524:	1008                	addi	a0,sp,32
   13526:	8cbff0ef          	jal	ra,12df0 <enormlz>
   1352a:	40a004b3          	neg	s1,a0
   1352e:	00215783          	lhu	a5,2(sp)
   13532:	8ba2                	mv	s7,s0
   13534:	ef89                	bnez	a5,1354e <ediv+0xd4>
   13536:	4759                	li	a4,22
   13538:	00f106b3          	add	a3,sp,a5
   1353c:	0026d683          	lhu	a3,2(a3)
   13540:	14068b63          	beqz	a3,13696 <ediv+0x21c>
   13544:	850a                	mv	a0,sp
   13546:	8abff0ef          	jal	ra,12df0 <enormlz>
   1354a:	40a40bb3          	sub	s7,s0,a0
   1354e:	02015783          	lhu	a5,32(sp)
   13552:	02215703          	lhu	a4,34(sp)
   13556:	034a8993          	addi	s3,s5,52
   1355a:	02fa9a23          	sh	a5,52(s5)
   1355e:	038a8793          	addi	a5,s5,56
   13562:	02ea9b23          	sh	a4,54(s5)
   13566:	8a3e                	mv	s4,a5
   13568:	04ea8713          	addi	a4,s5,78
   1356c:	0789                	addi	a5,a5,2
   1356e:	fe079f23          	sh	zero,-2(a5)
   13572:	fee79de3          	bne	a5,a4,1356c <ediv+0xf2>
   13576:	1008                	addi	a0,sp,32
   13578:	c10ff0ef          	jal	ra,12988 <eshdn1>
   1357c:	00615c03          	lhu	s8,6(sp)
   13580:	6b41                	lui	s6,0x10
   13582:	1b7d                	addi	s6,s6,-1
   13584:	036c0d33          	mul	s10,s8,s6
   13588:	01a98c93          	addi	s9,s3,26
   1358c:	02415783          	lhu	a5,36(sp)
   13590:	02615403          	lhu	s0,38(sp)
   13594:	07c2                	slli	a5,a5,0x10
   13596:	97a2                	add	a5,a5,s0
   13598:	845a                	mv	s0,s6
   1359a:	00fd6663          	bltu	s10,a5,135a6 <ediv+0x12c>
   1359e:	0387d433          	divu	s0,a5,s8
   135a2:	1442                	slli	s0,s0,0x30
   135a4:	9041                	srli	s0,s0,0x30
   135a6:	858a                	mv	a1,sp
   135a8:	8522                	mv	a0,s0
   135aa:	0090                	addi	a2,sp,64
   135ac:	d2aff0ef          	jal	ra,12ad6 <m16m>
   135b0:	100c                	addi	a1,sp,32
   135b2:	0088                	addi	a0,sp,64
   135b4:	baaff0ef          	jal	ra,1295e <ecmpm>
   135b8:	00a05f63          	blez	a0,135d6 <ediv+0x15c>
   135bc:	008c                	addi	a1,sp,64
   135be:	850a                	mv	a0,sp
   135c0:	ceeff0ef          	jal	ra,12aae <esubm>
   135c4:	100c                	addi	a1,sp,32
   135c6:	0088                	addi	a0,sp,64
   135c8:	b96ff0ef          	jal	ra,1295e <ecmpm>
   135cc:	0ea04163          	bgtz	a0,136ae <ediv+0x234>
   135d0:	347d                	addiw	s0,s0,-1
   135d2:	1442                	slli	s0,s0,0x30
   135d4:	9041                	srli	s0,s0,0x30
   135d6:	100c                	addi	a1,sp,32
   135d8:	0088                	addi	a0,sp,64
   135da:	cd4ff0ef          	jal	ra,12aae <esubm>
   135de:	1008                	addi	a0,sp,32
   135e0:	008a1023          	sh	s0,0(s4)
   135e4:	0a09                	addi	s4,s4,2
   135e6:	c62ff0ef          	jal	ra,12a48 <eshup6>
   135ea:	fb9a11e3          	bne	s4,s9,1358c <ediv+0x112>
   135ee:	4781                	li	a5,0
   135f0:	4581                	li	a1,0
   135f2:	4759                	li	a4,22
   135f4:	1014                	addi	a3,sp,32
   135f6:	96be                	add	a3,a3,a5
   135f8:	0046d683          	lhu	a3,4(a3)
   135fc:	0789                	addi	a5,a5,2
   135fe:	8dd5                	or	a1,a1,a3
   13600:	fee79ae3          	bne	a5,a4,135f4 <ediv+0x17a>
   13604:	2581                	sext.w	a1,a1
   13606:	00b035b3          	snez	a1,a1
   1360a:	101c                	addi	a5,sp,32
   1360c:	0009d703          	lhu	a4,0(s3)
   13610:	0989                	addi	s3,s3,2
   13612:	0789                	addi	a5,a5,2
   13614:	fee79f23          	sh	a4,-2(a5)
   13618:	ff3a1ae3          	bne	s4,s3,1360c <ediv+0x192>
   1361c:	6691                	lui	a3,0x4
   1361e:	417484b3          	sub	s1,s1,s7
   13622:	16fd                	addi	a3,a3,-1
   13624:	87d6                	mv	a5,s5
   13626:	04000713          	li	a4,64
   1362a:	96a6                	add	a3,a3,s1
   1362c:	4601                	li	a2,0
   1362e:	1008                	addi	a0,sp,32
   13630:	983ff0ef          	jal	ra,12fb2 <emdnorm>
   13634:	00015703          	lhu	a4,0(sp)
   13638:	02015783          	lhu	a5,32(sp)
   1363c:	08f71163          	bne	a4,a5,136be <ediv+0x244>
   13640:	02011023          	sh	zero,32(sp)
   13644:	85ca                	mv	a1,s2
   13646:	1008                	addi	a0,sp,32
   13648:	85fff0ef          	jal	ra,12ea6 <emovo.isra.6>
   1364c:	bdb9                	j	134aa <ediv+0x30>
   1364e:	16898593          	addi	a1,s3,360
   13652:	8522                	mv	a0,s0
   13654:	dd6ff0ef          	jal	ra,12c2a <ecmp>
   13658:	e80516e3          	bnez	a0,134e4 <ediv+0x6a>
   1365c:	854a                	mv	a0,s2
   1365e:	829ff0ef          	jal	ra,12e86 <enan.constprop.12>
   13662:	b5a1                	j	134aa <ediv+0x30>
   13664:	fd65                	bnez	a0,1365c <ediv+0x1e2>
   13666:	854a                	mv	a0,s2
   13668:	aa4ff0ef          	jal	ra,1290c <eclear>
   1366c:	bd3d                	j	134aa <ediv+0x30>
   1366e:	8526                	mv	a0,s1
   13670:	d00ff0ef          	jal	ra,12b70 <eisneg>
   13674:	84aa                	mv	s1,a0
   13676:	8522                	mv	a0,s0
   13678:	cf8ff0ef          	jal	ra,12b70 <eisneg>
   1367c:	02a48663          	beq	s1,a0,136a8 <ediv+0x22e>
   13680:	77e1                	lui	a5,0xffff8
   13682:	00f91923          	sh	a5,18(s2)
   13686:	854a                	mv	a0,s2
   13688:	e6aff0ef          	jal	ra,12cf2 <einfin.isra.2>
   1368c:	bd39                	j	134aa <ediv+0x30>
   1368e:	0789                	addi	a5,a5,2
   13690:	e8e794e3          	bne	a5,a4,13518 <ediv+0x9e>
   13694:	bfc9                	j	13666 <ediv+0x1ec>
   13696:	0789                	addi	a5,a5,2
   13698:	eae790e3          	bne	a5,a4,13538 <ediv+0xbe>
   1369c:	00015703          	lhu	a4,0(sp)
   136a0:	02015783          	lhu	a5,32(sp)
   136a4:	fcf71ee3          	bne	a4,a5,13680 <ediv+0x206>
   136a8:	00091923          	sh	zero,18(s2)
   136ac:	bfe9                	j	13686 <ediv+0x20c>
   136ae:	3479                	addiw	s0,s0,-2
   136b0:	1442                	slli	s0,s0,0x30
   136b2:	008c                	addi	a1,sp,64
   136b4:	850a                	mv	a0,sp
   136b6:	9041                	srli	s0,s0,0x30
   136b8:	bf6ff0ef          	jal	ra,12aae <esubm>
   136bc:	bf29                	j	135d6 <ediv+0x15c>
   136be:	57fd                	li	a5,-1
   136c0:	02f11023          	sh	a5,32(sp)
   136c4:	b741                	j	13644 <ediv+0x1ca>

00000000000136c6 <_ldtoa_r>:
   136c6:	db010113          	addi	sp,sp,-592
   136ca:	ffe6                	sd	s9,504(sp)
   136cc:	8cbe                	mv	s9,a5
   136ce:	09100793          	li	a5,145
   136d2:	e0ae                	sd	a1,64(sp)
   136d4:	1782                	slli	a5,a5,0x20
   136d6:	712c                	ld	a1,96(a0)
   136d8:	17fd                	addi	a5,a5,-1
   136da:	24813023          	sd	s0,576(sp)
   136de:	23413023          	sd	s4,544(sp)
   136e2:	21513c23          	sd	s5,536(sp)
   136e6:	21713423          	sd	s7,520(sp)
   136ea:	24113423          	sd	ra,584(sp)
   136ee:	22913c23          	sd	s1,568(sp)
   136f2:	23213823          	sd	s2,560(sp)
   136f6:	23313423          	sd	s3,552(sp)
   136fa:	21613823          	sd	s6,528(sp)
   136fe:	21813023          	sd	s8,512(sp)
   13702:	fbea                	sd	s10,496(sp)
   13704:	f7ee                	sd	s11,488(sp)
   13706:	ec46                	sd	a7,24(sp)
   13708:	e4b2                	sd	a2,72(sp)
   1370a:	eb3e                	sd	a5,400(sp)
   1370c:	8a2a                	mv	s4,a0
   1370e:	8bb6                	mv	s7,a3
   13710:	8aba                	mv	s5,a4
   13712:	8442                	mv	s0,a6
   13714:	c999                	beqz	a1,1372a <_ldtoa_r+0x64>
   13716:	5538                	lw	a4,104(a0)
   13718:	4785                	li	a5,1
   1371a:	00e797bb          	sllw	a5,a5,a4
   1371e:	c598                	sw	a4,8(a1)
   13720:	c5dc                	sw	a5,12(a1)
   13722:	15a010ef          	jal	ra,1487c <_Bfree>
   13726:	060a3023          	sd	zero,96(s4)
   1372a:	0088                	addi	a0,sp,64
   1372c:	188c                	addi	a1,sp,112
   1372e:	fcaff0ef          	jal	ra,12ef8 <e113toe.isra.8>
   13732:	1888                	addi	a0,sp,112
   13734:	c3cff0ef          	jal	ra,12b70 <eisneg>
   13738:	cd4d                	beqz	a0,137f2 <_ldtoa_r+0x12c>
   1373a:	4785                	li	a5,1
   1373c:	c01c                	sw	a5,0(s0)
   1373e:	478d                	li	a5,3
   13740:	0afb8c63          	beq	s7,a5,137f8 <_ldtoa_r+0x132>
   13744:	4951                	li	s2,20
   13746:	000b8c63          	beqz	s7,1375e <_ldtoa_r+0x98>
   1374a:	fffa879b          	addiw	a5,s5,-1
   1374e:	02a00713          	li	a4,42
   13752:	0007891b          	sext.w	s2,a5
   13756:	00f75463          	ble	a5,a4,1375e <_ldtoa_r+0x98>
   1375a:	02a00913          	li	s2,42
   1375e:	19412783          	lw	a5,404(sp)
   13762:	1888                	addi	a0,sp,112
   13764:	f03e                	sd	a5,32(sp)
   13766:	be4ff0ef          	jal	ra,12b4a <eisnan>
   1376a:	842a                	mv	s0,a0
   1376c:	c941                	beqz	a0,137fc <_ldtoa_r+0x136>
   1376e:	0001a5b7          	lui	a1,0x1a
   13772:	3d058593          	addi	a1,a1,976 # 1a3d0 <emtens+0x108>
   13776:	0a88                	addi	a0,sp,336
   13778:	6409                	lui	s0,0x2
   1377a:	767010ef          	jal	ra,156e0 <sprintf>
   1377e:	70f40413          	addi	s0,s0,1807 # 270f <_start-0xd9a1>
   13782:	5782                	lw	a5,32(sp)
   13784:	1888                	addi	a0,sp,112
   13786:	1a812023          	sw	s0,416(sp)
   1378a:	18f12a23          	sw	a5,404(sp)
   1378e:	d40ff0ef          	jal	ra,12cce <eisinf>
   13792:	15010993          	addi	s3,sp,336
   13796:	e511                	bnez	a0,137a2 <_ldtoa_r+0xdc>
   13798:	1888                	addi	a0,sp,112
   1379a:	bb0ff0ef          	jal	ra,12b4a <eisnan>
   1379e:	6e050e63          	beqz	a0,13e9a <_ldtoa_r+0x7d4>
   137a2:	6789                	lui	a5,0x2
   137a4:	70f7879b          	addiw	a5,a5,1807
   137a8:	00fca023          	sw	a5,0(s9)
   137ac:	87ce                	mv	a5,s3
   137ae:	02000613          	li	a2,32
   137b2:	02d00693          	li	a3,45
   137b6:	0007c703          	lbu	a4,0(a5) # 2000 <_start-0xe0b0>
   137ba:	72c70463          	beq	a4,a2,13ee2 <_ldtoa_r+0x81c>
   137be:	72d70263          	beq	a4,a3,13ee2 <_ldtoa_r+0x81c>
   137c2:	844e                	mv	s0,s3
   137c4:	0785                	addi	a5,a5,1
   137c6:	fff7c703          	lbu	a4,-1(a5)
   137ca:	00140693          	addi	a3,s0,1
   137ce:	fee68fa3          	sb	a4,-1(a3) # 3fff <_start-0xc0b1>
   137d2:	70071b63          	bnez	a4,13ee8 <_ldtoa_r+0x822>
   137d6:	4709                	li	a4,2
   137d8:	4785                	li	a5,1
   137da:	00eb8863          	beq	s7,a4,137ea <_ldtoa_r+0x124>
   137de:	1a012783          	lw	a5,416(sp)
   137e2:	0127d363          	ble	s2,a5,137e8 <_ldtoa_r+0x122>
   137e6:	87ca                	mv	a5,s2
   137e8:	2781                	sext.w	a5,a5
   137ea:	03000693          	li	a3,48
   137ee:	7060006f          	j	13ef4 <_ldtoa_r+0x82e>
   137f2:	00042023          	sw	zero,0(s0)
   137f6:	b7a1                	j	1373e <_ldtoa_r+0x78>
   137f8:	87d6                	mv	a5,s5
   137fa:	bf91                	j	1374e <_ldtoa_r+0x88>
   137fc:	09000793          	li	a5,144
   13800:	090c                	addi	a1,sp,144
   13802:	1888                	addi	a0,sp,112
   13804:	18f12a23          	sw	a5,404(sp)
   13808:	914ff0ef          	jal	ra,1291c <emov>
   1380c:	0a215783          	lhu	a5,162(sp)
   13810:	e402                	sd	zero,8(sp)
   13812:	0107971b          	slliw	a4,a5,0x10
   13816:	4107571b          	sraiw	a4,a4,0x10
   1381a:	00075a63          	bgez	a4,1382e <_ldtoa_r+0x168>
   1381e:	6721                	lui	a4,0x8
   13820:	177d                	addi	a4,a4,-1
   13822:	8ff9                	and	a5,a5,a4
   13824:	0af11123          	sh	a5,162(sp)
   13828:	67c1                	lui	a5,0x10
   1382a:	17fd                	addi	a5,a5,-1
   1382c:	e43e                	sd	a5,8(sp)
   1382e:	6b69                	lui	s6,0x1a
   13830:	168b0513          	addi	a0,s6,360 # 1a168 <ezero>
   13834:	190c                	addi	a1,sp,176
   13836:	0561                	addi	a0,a0,24
   13838:	8e4ff0ef          	jal	ra,1291c <emov>
   1383c:	0a215703          	lhu	a4,162(sp)
   13840:	64e9                	lui	s1,0x1a
   13842:	168b0993          	addi	s3,s6,360
   13846:	18048493          	addi	s1,s1,384 # 1a180 <eone>
   1384a:	74071963          	bnez	a4,13f9c <_ldtoa_r+0x8d6>
   1384e:	091c                	addi	a5,sp,144
   13850:	0a210713          	addi	a4,sp,162
   13854:	0007d683          	lhu	a3,0(a5) # 10000 <_start-0xb0>
   13858:	e6e1                	bnez	a3,13920 <_ldtoa_r+0x25a>
   1385a:	0789                	addi	a5,a5,2
   1385c:	fef71ce3          	bne	a4,a5,13854 <_ldtoa_r+0x18e>
   13860:	198c                	addi	a1,sp,240
   13862:	1908                	addi	a0,sp,176
   13864:	b2cff0ef          	jal	ra,12b90 <emovi>
   13868:	190c                	addi	a1,sp,176
   1386a:	1988                	addi	a0,sp,240
   1386c:	8d6ff0ef          	jal	ra,12942 <emovz>
   13870:	198c                	addi	a1,sp,240
   13872:	0908                	addi	a0,sp,144
   13874:	b1cff0ef          	jal	ra,12b90 <emovi>
   13878:	090c                	addi	a1,sp,144
   1387a:	1988                	addi	a0,sp,240
   1387c:	8c6ff0ef          	jal	ra,12942 <emovz>
   13880:	0b10                	addi	a2,sp,400
   13882:	090c                	addi	a1,sp,144
   13884:	1908                	addi	a0,sp,176
   13886:	993ff0ef          	jal	ra,13218 <eiremain>
   1388a:	1dc15483          	lhu	s1,476(sp)
   1388e:	e881                	bnez	s1,1389e <_ldtoa_r+0x1d8>
   13890:	168b0593          	addi	a1,s6,360
   13894:	0908                	addi	a0,sp,144
   13896:	b94ff0ef          	jal	ra,12c2a <ecmp>
   1389a:	4c051463          	bnez	a0,13d62 <_ldtoa_r+0x69c>
   1389e:	67a2                	ld	a5,8(sp)
   138a0:	4e078b63          	beqz	a5,13d96 <_ldtoa_r+0x6d0>
   138a4:	02d00793          	li	a5,45
   138a8:	14f10823          	sb	a5,336(sp)
   138ac:	478d                	li	a5,3
   138ae:	89ca                	mv	s3,s2
   138b0:	00fb9863          	bne	s7,a5,138c0 <_ldtoa_r+0x1fa>
   138b4:	008909bb          	addw	s3,s2,s0
   138b8:	02a00793          	li	a5,42
   138bc:	6f37cd63          	blt	a5,s3,13fb6 <_ldtoa_r+0x8f0>
   138c0:	47a9                	li	a5,10
   138c2:	4cf49d63          	bne	s1,a5,13d9c <_ldtoa_r+0x6d6>
   138c6:	03100793          	li	a5,49
   138ca:	14f108a3          	sb	a5,337(sp)
   138ce:	02e00793          	li	a5,46
   138d2:	14f10923          	sb	a5,338(sp)
   138d6:	15310c13          	addi	s8,sp,339
   138da:	01305963          	blez	s3,138ec <_ldtoa_r+0x226>
   138de:	03000793          	li	a5,48
   138e2:	14f109a3          	sb	a5,339(sp)
   138e6:	39fd                	addiw	s3,s3,-1
   138e8:	15410c13          	addi	s8,sp,340
   138ec:	2405                	addiw	s0,s0,1
   138ee:	4c09d163          	bgez	s3,13db0 <_ldtoa_r+0x6ea>
   138f2:	0001a5b7          	lui	a1,0x1a
   138f6:	8622                	mv	a2,s0
   138f8:	40058593          	addi	a1,a1,1024 # 1a400 <emtens+0x138>
   138fc:	8562                	mv	a0,s8
   138fe:	5e3010ef          	jal	ra,156e0 <sprintf>
   13902:	b541                	j	13782 <_ldtoa_r+0xbc>
   13904:	0001a5b7          	lui	a1,0x1a
   13908:	3e858593          	addi	a1,a1,1000 # 1a3e8 <emtens+0x120>
   1390c:	b5ad                	j	13776 <_ldtoa_r+0xb0>
   1390e:	0a011783          	lh	a5,160(sp)
   13912:	0007c763          	bltz	a5,13920 <_ldtoa_r+0x25a>
   13916:	0001a5b7          	lui	a1,0x1a
   1391a:	3f858593          	addi	a1,a1,1016 # 1a3f8 <emtens+0x130>
   1391e:	bda1                	j	13776 <_ldtoa_r+0xb0>
   13920:	090c                	addi	a1,sp,144
   13922:	8526                	mv	a0,s1
   13924:	b06ff0ef          	jal	ra,12c2a <ecmp>
   13928:	dd05                	beqz	a0,13860 <_ldtoa_r+0x19a>
   1392a:	32055063          	bgez	a0,13c4a <_ldtoa_r+0x584>
   1392e:	098c                	addi	a1,sp,208
   13930:	0908                	addi	a0,sp,144
   13932:	febfe0ef          	jal	ra,1291c <emov>
   13936:	6791                	lui	a5,0x4
   13938:	08e7879b          	addiw	a5,a5,142
   1393c:	0ef11123          	sh	a5,226(sp)
   13940:	47c1                	li	a5,16
   13942:	e83e                	sd	a5,16(sp)
   13944:	67a1                	lui	a5,0x8
   13946:	17fd                	addi	a5,a5,-1
   13948:	f43e                	sd	a5,40(sp)
   1394a:	77f1                	lui	a5,0xffffc
   1394c:	2789                	addiw	a5,a5,2
   1394e:	4d01                	li	s10,0
   13950:	da3e                	sw	a5,52(sp)
   13952:	67e9                	lui	a5,0x1a
   13954:	23878793          	addi	a5,a5,568 # 1a238 <etens+0xa0>
   13958:	01a78533          	add	a0,a5,s10
   1395c:	0b14                	addi	a3,sp,400
   1395e:	1910                	addi	a2,sp,176
   13960:	098c                	addi	a1,sp,208
   13962:	b19ff0ef          	jal	ra,1347a <ediv>
   13966:	08ac                	addi	a1,sp,88
   13968:	1908                	addi	a0,sp,176
   1396a:	fb3fe0ef          	jal	ra,1291c <emov>
   1396e:	77a2                	ld	a5,40(sp)
   13970:	06a15c03          	lhu	s8,106(sp)
   13974:	00fc76b3          	and	a3,s8,a5
   13978:	57d2                	lw	a5,52(sp)
   1397a:	9ebd                	addw	a3,a3,a5
   1397c:	02d04f63          	bgtz	a3,139ba <_ldtoa_r+0x2f4>
   13980:	1988                	addi	a0,sp,240
   13982:	f8bfe0ef          	jal	ra,1290c <eclear>
   13986:	010c1c1b          	slliw	s8,s8,0x10
   1398a:	410c5c1b          	sraiw	s8,s8,0x10
   1398e:	0c0c5063          	bgez	s8,13a4e <_ldtoa_r+0x388>
   13992:	4781                	li	a5,0
   13994:	08b8                	addi	a4,sp,88
   13996:	973e                	add	a4,a4,a5
   13998:	00075683          	lhu	a3,0(a4) # 8000 <_start-0x80b0>
   1399c:	1998                	addi	a4,sp,240
   1399e:	973e                	add	a4,a4,a5
   139a0:	00075703          	lhu	a4,0(a4)
   139a4:	28e68e63          	beq	a3,a4,13c40 <_ldtoa_r+0x57a>
   139a8:	8526                	mv	a0,s1
   139aa:	9a0ff0ef          	jal	ra,12b4a <eisnan>
   139ae:	c135                	beqz	a0,13a12 <_ldtoa_r+0x34c>
   139b0:	198c                	addi	a1,sp,240
   139b2:	8526                	mv	a0,s1
   139b4:	f69fe0ef          	jal	ra,1291c <emov>
   139b8:	a859                	j	13a4e <_ldtoa_r+0x388>
   139ba:	09000793          	li	a5,144
   139be:	40d7873b          	subw	a4,a5,a3
   139c2:	198c                	addi	a1,sp,240
   139c4:	08a8                	addi	a0,sp,88
   139c6:	8dba                	mv	s11,a4
   139c8:	fc3a                	sd	a4,56(sp)
   139ca:	f53fe0ef          	jal	ra,1291c <emov>
   139ce:	7762                	ld	a4,56(sp)
   139d0:	06e05f63          	blez	a4,13a4e <_ldtoa_r+0x388>
   139d4:	199c                	addi	a5,sp,240
   139d6:	463d                	li	a2,15
   139d8:	02e64863          	blt	a2,a4,13a08 <_ldtoa_r+0x342>
   139dc:	004dd61b          	srliw	a2,s11,0x4
   139e0:	02061713          	slli	a4,a2,0x20
   139e4:	199c                	addi	a5,sp,240
   139e6:	837d                	srli	a4,a4,0x1f
   139e8:	973e                	add	a4,a4,a5
   139ea:	57c1                	li	a5,-16
   139ec:	02c787bb          	mulw	a5,a5,a2
   139f0:	00075683          	lhu	a3,0(a4)
   139f4:	01b787bb          	addw	a5,a5,s11
   139f8:	0786                	slli	a5,a5,0x1
   139fa:	97ce                	add	a5,a5,s3
   139fc:	1387d783          	lhu	a5,312(a5)
   13a00:	8ff5                	and	a5,a5,a3
   13a02:	00f71023          	sh	a5,0(a4)
   13a06:	b741                	j	13986 <_ldtoa_r+0x2c0>
   13a08:	00079023          	sh	zero,0(a5)
   13a0c:	3741                	addiw	a4,a4,-16
   13a0e:	0789                	addi	a5,a5,2
   13a10:	b7e1                	j	139d8 <_ldtoa_r+0x312>
   13a12:	1988                	addi	a0,sp,240
   13a14:	936ff0ef          	jal	ra,12b4a <eisnan>
   13a18:	c501                	beqz	a0,13a20 <_ldtoa_r+0x35a>
   13a1a:	198c                	addi	a1,sp,240
   13a1c:	852e                	mv	a0,a1
   13a1e:	bf59                	j	139b4 <_ldtoa_r+0x2ee>
   13a20:	8526                	mv	a0,s1
   13a22:	aacff0ef          	jal	ra,12cce <eisinf>
   13a26:	8daa                	mv	s11,a0
   13a28:	1988                	addi	a0,sp,240
   13a2a:	aa4ff0ef          	jal	ra,12cce <eisinf>
   13a2e:	8c2a                	mv	s8,a0
   13a30:	0e0d8963          	beqz	s11,13b22 <_ldtoa_r+0x45c>
   13a34:	c961                	beqz	a0,13b04 <_ldtoa_r+0x43e>
   13a36:	8526                	mv	a0,s1
   13a38:	938ff0ef          	jal	ra,12b70 <eisneg>
   13a3c:	8c2a                	mv	s8,a0
   13a3e:	1988                	addi	a0,sp,240
   13a40:	930ff0ef          	jal	ra,12b70 <eisneg>
   13a44:	0cac1063          	bne	s8,a0,13b04 <_ldtoa_r+0x43e>
   13a48:	1988                	addi	a0,sp,240
   13a4a:	c3cff0ef          	jal	ra,12e86 <enan.constprop.12>
   13a4e:	4781                	li	a5,0
   13a50:	1918                	addi	a4,sp,176
   13a52:	973e                	add	a4,a4,a5
   13a54:	00075683          	lhu	a3,0(a4)
   13a58:	1998                	addi	a4,sp,240
   13a5a:	973e                	add	a4,a4,a5
   13a5c:	00075703          	lhu	a4,0(a4)
   13a60:	00e69c63          	bne	a3,a4,13a78 <_ldtoa_r+0x3b2>
   13a64:	0789                	addi	a5,a5,2
   13a66:	4749                	li	a4,18
   13a68:	fee794e3          	bne	a5,a4,13a50 <_ldtoa_r+0x38a>
   13a6c:	098c                	addi	a1,sp,208
   13a6e:	1908                	addi	a0,sp,176
   13a70:	eadfe0ef          	jal	ra,1291c <emov>
   13a74:	47c2                	lw	a5,16(sp)
   13a76:	9c3d                	addw	s0,s0,a5
   13a78:	67c2                	ld	a5,16(sp)
   13a7a:	0d51                	addi	s10,s10,20
   13a7c:	8385                	srli	a5,a5,0x1
   13a7e:	e83e                	sd	a5,16(sp)
   13a80:	06400793          	li	a5,100
   13a84:	ecfd17e3          	bne	s10,a5,13952 <_ldtoa_r+0x28c>
   13a88:	0e215783          	lhu	a5,226(sp)
   13a8c:	0a215703          	lhu	a4,162(sp)
   13a90:	090c                	addi	a1,sp,144
   13a92:	0988                	addi	a0,sp,208
   13a94:	9fb9                	addw	a5,a5,a4
   13a96:	7771                	lui	a4,0xffffc
   13a98:	f727071b          	addiw	a4,a4,-142
   13a9c:	9fb9                	addw	a5,a5,a4
   13a9e:	0ef11123          	sh	a5,226(sp)
   13aa2:	e7bfe0ef          	jal	ra,1291c <emov>
   13aa6:	8526                	mv	a0,s1
   13aa8:	190c                	addi	a1,sp,176
   13aaa:	e73fe0ef          	jal	ra,1291c <emov>
   13aae:	4481                	li	s1,0
   13ab0:	6d05                	lui	s10,0x1
   13ab2:	12098993          	addi	s3,s3,288
   13ab6:	10400d93          	li	s11,260
   13aba:	67e9                	lui	a5,0x1a
   13abc:	19878793          	addi	a5,a5,408 # 1a198 <etens>
   13ac0:	098c                	addi	a1,sp,208
   13ac2:	854e                	mv	a0,s3
   13ac4:	00f48c33          	add	s8,s1,a5
   13ac8:	962ff0ef          	jal	ra,12c2a <ecmp>
   13acc:	d8a04ae3          	bgtz	a0,13860 <_ldtoa_r+0x19a>
   13ad0:	098c                	addi	a1,sp,208
   13ad2:	8562                	mv	a0,s8
   13ad4:	956ff0ef          	jal	ra,12c2a <ecmp>
   13ad8:	02a04063          	bgtz	a0,13af8 <_ldtoa_r+0x432>
   13adc:	0990                	addi	a2,sp,208
   13ade:	85b2                	mv	a1,a2
   13ae0:	0b14                	addi	a3,sp,400
   13ae2:	8562                	mv	a0,s8
   13ae4:	997ff0ef          	jal	ra,1347a <ediv>
   13ae8:	1910                	addi	a2,sp,176
   13aea:	0b14                	addi	a3,sp,400
   13aec:	85b2                	mv	a1,a2
   13aee:	8562                	mv	a0,s8
   13af0:	fbcff0ef          	jal	ra,132ac <emul>
   13af4:	008d043b          	addw	s0,s10,s0
   13af8:	04d1                	addi	s1,s1,20
   13afa:	001d5d13          	srli	s10,s10,0x1
   13afe:	fbb49ee3          	bne	s1,s11,13aba <_ldtoa_r+0x3f4>
